; Listing generated by Microsoft (R) Optimizing Compiler Version 18.00.30501.0 

	TITLE	C:\Users\Simon\Documents\GitHub\UCLAN-sparta\Camera.cpp
	.686P
	.XMM
	include listing.inc
	.model	flat

INCLUDELIB LIBCMTD
INCLUDELIB OLDNAMES

PUBLIC	?g_XMExpEst1@DirectX@@3UXMVECTORF32@1@B		; DirectX::g_XMExpEst1
PUBLIC	?g_XMExpEst2@DirectX@@3UXMVECTORF32@1@B		; DirectX::g_XMExpEst2
PUBLIC	?g_XMExpEst3@DirectX@@3UXMVECTORF32@1@B		; DirectX::g_XMExpEst3
PUBLIC	?g_XMExpEst4@DirectX@@3UXMVECTORF32@1@B		; DirectX::g_XMExpEst4
PUBLIC	?g_XMExpEst5@DirectX@@3UXMVECTORF32@1@B		; DirectX::g_XMExpEst5
PUBLIC	?g_XMExpEst6@DirectX@@3UXMVECTORF32@1@B		; DirectX::g_XMExpEst6
PUBLIC	?is_signed@?$numeric_limits@F@std@@2_NB		; std::numeric_limits<short>::is_signed
PUBLIC	?g_XMExpEst7@DirectX@@3UXMVECTORF32@1@B		; DirectX::g_XMExpEst7
PUBLIC	?g_XMLogEst0@DirectX@@3UXMVECTORF32@1@B		; DirectX::g_XMLogEst0
PUBLIC	?g_XMLogEst1@DirectX@@3UXMVECTORF32@1@B		; DirectX::g_XMLogEst1
PUBLIC	?g_XMLogEst2@DirectX@@3UXMVECTORF32@1@B		; DirectX::g_XMLogEst2
PUBLIC	?digits@?$numeric_limits@F@std@@2HB		; std::numeric_limits<short>::digits
PUBLIC	?g_XMLogEst3@DirectX@@3UXMVECTORF32@1@B		; DirectX::g_XMLogEst3
PUBLIC	?g_XMLogEst4@DirectX@@3UXMVECTORF32@1@B		; DirectX::g_XMLogEst4
PUBLIC	?g_XMLogEst5@DirectX@@3UXMVECTORF32@1@B		; DirectX::g_XMLogEst5
PUBLIC	?g_XMLogEst6@DirectX@@3UXMVECTORF32@1@B		; DirectX::g_XMLogEst6
PUBLIC	?digits10@?$numeric_limits@F@std@@2HB		; std::numeric_limits<short>::digits10
PUBLIC	?g_XMLogEst7@DirectX@@3UXMVECTORF32@1@B		; DirectX::g_XMLogEst7
PUBLIC	?g_XMLgE@DirectX@@3UXMVECTORF32@1@B		; DirectX::g_XMLgE
PUBLIC	?g_XMInvLgE@DirectX@@3UXMVECTORF32@1@B		; DirectX::g_XMInvLgE
PUBLIC	?is_signed@?$numeric_limits@G@std@@2_NB		; std::numeric_limits<unsigned short>::is_signed
PUBLIC	?digits@?$numeric_limits@G@std@@2HB		; std::numeric_limits<unsigned short>::digits
PUBLIC	?digits10@?$numeric_limits@G@std@@2HB		; std::numeric_limits<unsigned short>::digits10
PUBLIC	?is_signed@?$numeric_limits@H@std@@2_NB		; std::numeric_limits<int>::is_signed
PUBLIC	?digits@?$numeric_limits@H@std@@2HB		; std::numeric_limits<int>::digits
PUBLIC	?AliceBlue@Colors@DirectX@@3UXMVECTORF32@2@B	; DirectX::Colors::AliceBlue
PUBLIC	?AntiqueWhite@Colors@DirectX@@3UXMVECTORF32@2@B	; DirectX::Colors::AntiqueWhite
PUBLIC	?Aqua@Colors@DirectX@@3UXMVECTORF32@2@B		; DirectX::Colors::Aqua
PUBLIC	?digits10@?$numeric_limits@H@std@@2HB		; std::numeric_limits<int>::digits10
PUBLIC	?Aquamarine@Colors@DirectX@@3UXMVECTORF32@2@B	; DirectX::Colors::Aquamarine
PUBLIC	?Azure@Colors@DirectX@@3UXMVECTORF32@2@B	; DirectX::Colors::Azure
PUBLIC	?Beige@Colors@DirectX@@3UXMVECTORF32@2@B	; DirectX::Colors::Beige
PUBLIC	?Bisque@Colors@DirectX@@3UXMVECTORF32@2@B	; DirectX::Colors::Bisque
PUBLIC	?Black@Colors@DirectX@@3UXMVECTORF32@2@B	; DirectX::Colors::Black
PUBLIC	?BlanchedAlmond@Colors@DirectX@@3UXMVECTORF32@2@B ; DirectX::Colors::BlanchedAlmond
PUBLIC	?Blue@Colors@DirectX@@3UXMVECTORF32@2@B		; DirectX::Colors::Blue
PUBLIC	?BlueViolet@Colors@DirectX@@3UXMVECTORF32@2@B	; DirectX::Colors::BlueViolet
PUBLIC	?Brown@Colors@DirectX@@3UXMVECTORF32@2@B	; DirectX::Colors::Brown
PUBLIC	?BurlyWood@Colors@DirectX@@3UXMVECTORF32@2@B	; DirectX::Colors::BurlyWood
PUBLIC	?CadetBlue@Colors@DirectX@@3UXMVECTORF32@2@B	; DirectX::Colors::CadetBlue
PUBLIC	?Chartreuse@Colors@DirectX@@3UXMVECTORF32@2@B	; DirectX::Colors::Chartreuse
PUBLIC	?Chocolate@Colors@DirectX@@3UXMVECTORF32@2@B	; DirectX::Colors::Chocolate
PUBLIC	?Coral@Colors@DirectX@@3UXMVECTORF32@2@B	; DirectX::Colors::Coral
PUBLIC	?CornflowerBlue@Colors@DirectX@@3UXMVECTORF32@2@B ; DirectX::Colors::CornflowerBlue
PUBLIC	?Cornsilk@Colors@DirectX@@3UXMVECTORF32@2@B	; DirectX::Colors::Cornsilk
PUBLIC	?Crimson@Colors@DirectX@@3UXMVECTORF32@2@B	; DirectX::Colors::Crimson
PUBLIC	?Cyan@Colors@DirectX@@3UXMVECTORF32@2@B		; DirectX::Colors::Cyan
PUBLIC	?DarkBlue@Colors@DirectX@@3UXMVECTORF32@2@B	; DirectX::Colors::DarkBlue
PUBLIC	?DarkCyan@Colors@DirectX@@3UXMVECTORF32@2@B	; DirectX::Colors::DarkCyan
PUBLIC	?DarkGoldenrod@Colors@DirectX@@3UXMVECTORF32@2@B ; DirectX::Colors::DarkGoldenrod
PUBLIC	?DarkGray@Colors@DirectX@@3UXMVECTORF32@2@B	; DirectX::Colors::DarkGray
PUBLIC	?DarkGreen@Colors@DirectX@@3UXMVECTORF32@2@B	; DirectX::Colors::DarkGreen
PUBLIC	?DarkKhaki@Colors@DirectX@@3UXMVECTORF32@2@B	; DirectX::Colors::DarkKhaki
PUBLIC	?DarkMagenta@Colors@DirectX@@3UXMVECTORF32@2@B	; DirectX::Colors::DarkMagenta
PUBLIC	?DarkOliveGreen@Colors@DirectX@@3UXMVECTORF32@2@B ; DirectX::Colors::DarkOliveGreen
PUBLIC	?DarkOrange@Colors@DirectX@@3UXMVECTORF32@2@B	; DirectX::Colors::DarkOrange
PUBLIC	?DarkOrchid@Colors@DirectX@@3UXMVECTORF32@2@B	; DirectX::Colors::DarkOrchid
PUBLIC	?DarkRed@Colors@DirectX@@3UXMVECTORF32@2@B	; DirectX::Colors::DarkRed
PUBLIC	?DarkSalmon@Colors@DirectX@@3UXMVECTORF32@2@B	; DirectX::Colors::DarkSalmon
PUBLIC	?is_signed@?$numeric_limits@I@std@@2_NB		; std::numeric_limits<unsigned int>::is_signed
PUBLIC	?DarkSeaGreen@Colors@DirectX@@3UXMVECTORF32@2@B	; DirectX::Colors::DarkSeaGreen
PUBLIC	?DarkSlateBlue@Colors@DirectX@@3UXMVECTORF32@2@B ; DirectX::Colors::DarkSlateBlue
PUBLIC	?DarkSlateGray@Colors@DirectX@@3UXMVECTORF32@2@B ; DirectX::Colors::DarkSlateGray
PUBLIC	?DarkTurquoise@Colors@DirectX@@3UXMVECTORF32@2@B ; DirectX::Colors::DarkTurquoise
PUBLIC	?digits@?$numeric_limits@I@std@@2HB		; std::numeric_limits<unsigned int>::digits
PUBLIC	?DarkViolet@Colors@DirectX@@3UXMVECTORF32@2@B	; DirectX::Colors::DarkViolet
PUBLIC	?DeepPink@Colors@DirectX@@3UXMVECTORF32@2@B	; DirectX::Colors::DeepPink
PUBLIC	?DeepSkyBlue@Colors@DirectX@@3UXMVECTORF32@2@B	; DirectX::Colors::DeepSkyBlue
PUBLIC	?DimGray@Colors@DirectX@@3UXMVECTORF32@2@B	; DirectX::Colors::DimGray
PUBLIC	?digits10@?$numeric_limits@I@std@@2HB		; std::numeric_limits<unsigned int>::digits10
PUBLIC	?DodgerBlue@Colors@DirectX@@3UXMVECTORF32@2@B	; DirectX::Colors::DodgerBlue
PUBLIC	?value@?$integral_constant@I$07@std@@2IB	; std::integral_constant<unsigned int,8>::value
PUBLIC	?Firebrick@Colors@DirectX@@3UXMVECTORF32@2@B	; DirectX::Colors::Firebrick
PUBLIC	?FloralWhite@Colors@DirectX@@3UXMVECTORF32@2@B	; DirectX::Colors::FloralWhite
PUBLIC	?ForestGreen@Colors@DirectX@@3UXMVECTORF32@2@B	; DirectX::Colors::ForestGreen
PUBLIC	?Fuchsia@Colors@DirectX@@3UXMVECTORF32@2@B	; DirectX::Colors::Fuchsia
PUBLIC	?Gainsboro@Colors@DirectX@@3UXMVECTORF32@2@B	; DirectX::Colors::Gainsboro
PUBLIC	?GhostWhite@Colors@DirectX@@3UXMVECTORF32@2@B	; DirectX::Colors::GhostWhite
PUBLIC	?Gold@Colors@DirectX@@3UXMVECTORF32@2@B		; DirectX::Colors::Gold
PUBLIC	?Goldenrod@Colors@DirectX@@3UXMVECTORF32@2@B	; DirectX::Colors::Goldenrod
PUBLIC	?Gray@Colors@DirectX@@3UXMVECTORF32@2@B		; DirectX::Colors::Gray
PUBLIC	?Green@Colors@DirectX@@3UXMVECTORF32@2@B	; DirectX::Colors::Green
PUBLIC	?GreenYellow@Colors@DirectX@@3UXMVECTORF32@2@B	; DirectX::Colors::GreenYellow
PUBLIC	?Honeydew@Colors@DirectX@@3UXMVECTORF32@2@B	; DirectX::Colors::Honeydew
PUBLIC	?HotPink@Colors@DirectX@@3UXMVECTORF32@2@B	; DirectX::Colors::HotPink
PUBLIC	?IndianRed@Colors@DirectX@@3UXMVECTORF32@2@B	; DirectX::Colors::IndianRed
PUBLIC	?Indigo@Colors@DirectX@@3UXMVECTORF32@2@B	; DirectX::Colors::Indigo
PUBLIC	?Ivory@Colors@DirectX@@3UXMVECTORF32@2@B	; DirectX::Colors::Ivory
PUBLIC	?Khaki@Colors@DirectX@@3UXMVECTORF32@2@B	; DirectX::Colors::Khaki
PUBLIC	?Lavender@Colors@DirectX@@3UXMVECTORF32@2@B	; DirectX::Colors::Lavender
PUBLIC	?LavenderBlush@Colors@DirectX@@3UXMVECTORF32@2@B ; DirectX::Colors::LavenderBlush
PUBLIC	?LawnGreen@Colors@DirectX@@3UXMVECTORF32@2@B	; DirectX::Colors::LawnGreen
PUBLIC	?LemonChiffon@Colors@DirectX@@3UXMVECTORF32@2@B	; DirectX::Colors::LemonChiffon
PUBLIC	?LightBlue@Colors@DirectX@@3UXMVECTORF32@2@B	; DirectX::Colors::LightBlue
PUBLIC	?LightCoral@Colors@DirectX@@3UXMVECTORF32@2@B	; DirectX::Colors::LightCoral
PUBLIC	?LightCyan@Colors@DirectX@@3UXMVECTORF32@2@B	; DirectX::Colors::LightCyan
PUBLIC	?LightGoldenrodYellow@Colors@DirectX@@3UXMVECTORF32@2@B ; DirectX::Colors::LightGoldenrodYellow
PUBLIC	?LightGreen@Colors@DirectX@@3UXMVECTORF32@2@B	; DirectX::Colors::LightGreen
PUBLIC	?LightGray@Colors@DirectX@@3UXMVECTORF32@2@B	; DirectX::Colors::LightGray
PUBLIC	?LightPink@Colors@DirectX@@3UXMVECTORF32@2@B	; DirectX::Colors::LightPink
PUBLIC	?LightSalmon@Colors@DirectX@@3UXMVECTORF32@2@B	; DirectX::Colors::LightSalmon
PUBLIC	?is_signed@?$numeric_limits@J@std@@2_NB		; std::numeric_limits<long>::is_signed
PUBLIC	?LightSeaGreen@Colors@DirectX@@3UXMVECTORF32@2@B ; DirectX::Colors::LightSeaGreen
PUBLIC	?LightSkyBlue@Colors@DirectX@@3UXMVECTORF32@2@B	; DirectX::Colors::LightSkyBlue
PUBLIC	?LightSlateGray@Colors@DirectX@@3UXMVECTORF32@2@B ; DirectX::Colors::LightSlateGray
PUBLIC	?LightSteelBlue@Colors@DirectX@@3UXMVECTORF32@2@B ; DirectX::Colors::LightSteelBlue
PUBLIC	?digits@?$numeric_limits@J@std@@2HB		; std::numeric_limits<long>::digits
PUBLIC	?LightYellow@Colors@DirectX@@3UXMVECTORF32@2@B	; DirectX::Colors::LightYellow
PUBLIC	?Lime@Colors@DirectX@@3UXMVECTORF32@2@B		; DirectX::Colors::Lime
PUBLIC	?LimeGreen@Colors@DirectX@@3UXMVECTORF32@2@B	; DirectX::Colors::LimeGreen
PUBLIC	?Linen@Colors@DirectX@@3UXMVECTORF32@2@B	; DirectX::Colors::Linen
PUBLIC	?digits10@?$numeric_limits@J@std@@2HB		; std::numeric_limits<long>::digits10
PUBLIC	?Magenta@Colors@DirectX@@3UXMVECTORF32@2@B	; DirectX::Colors::Magenta
PUBLIC	?Maroon@Colors@DirectX@@3UXMVECTORF32@2@B	; DirectX::Colors::Maroon
PUBLIC	?MediumAquamarine@Colors@DirectX@@3UXMVECTORF32@2@B ; DirectX::Colors::MediumAquamarine
PUBLIC	?MediumBlue@Colors@DirectX@@3UXMVECTORF32@2@B	; DirectX::Colors::MediumBlue
PUBLIC	?MediumOrchid@Colors@DirectX@@3UXMVECTORF32@2@B	; DirectX::Colors::MediumOrchid
PUBLIC	?MediumPurple@Colors@DirectX@@3UXMVECTORF32@2@B	; DirectX::Colors::MediumPurple
PUBLIC	?MediumSeaGreen@Colors@DirectX@@3UXMVECTORF32@2@B ; DirectX::Colors::MediumSeaGreen
PUBLIC	?MediumSlateBlue@Colors@DirectX@@3UXMVECTORF32@2@B ; DirectX::Colors::MediumSlateBlue
PUBLIC	?MediumSpringGreen@Colors@DirectX@@3UXMVECTORF32@2@B ; DirectX::Colors::MediumSpringGreen
PUBLIC	?MediumTurquoise@Colors@DirectX@@3UXMVECTORF32@2@B ; DirectX::Colors::MediumTurquoise
PUBLIC	?MediumVioletRed@Colors@DirectX@@3UXMVECTORF32@2@B ; DirectX::Colors::MediumVioletRed
PUBLIC	?MidnightBlue@Colors@DirectX@@3UXMVECTORF32@2@B	; DirectX::Colors::MidnightBlue
PUBLIC	?MintCream@Colors@DirectX@@3UXMVECTORF32@2@B	; DirectX::Colors::MintCream
PUBLIC	?MistyRose@Colors@DirectX@@3UXMVECTORF32@2@B	; DirectX::Colors::MistyRose
PUBLIC	?Moccasin@Colors@DirectX@@3UXMVECTORF32@2@B	; DirectX::Colors::Moccasin
PUBLIC	?NavajoWhite@Colors@DirectX@@3UXMVECTORF32@2@B	; DirectX::Colors::NavajoWhite
PUBLIC	?Navy@Colors@DirectX@@3UXMVECTORF32@2@B		; DirectX::Colors::Navy
PUBLIC	?skipws@?$_Iosb@H@std@@2W4_Fmtflags@12@B	; std::_Iosb<int>::skipws
PUBLIC	?OldLace@Colors@DirectX@@3UXMVECTORF32@2@B	; DirectX::Colors::OldLace
PUBLIC	?Olive@Colors@DirectX@@3UXMVECTORF32@2@B	; DirectX::Colors::Olive
PUBLIC	?OliveDrab@Colors@DirectX@@3UXMVECTORF32@2@B	; DirectX::Colors::OliveDrab
PUBLIC	?unitbuf@?$_Iosb@H@std@@2W4_Fmtflags@12@B	; std::_Iosb<int>::unitbuf
PUBLIC	?Orange@Colors@DirectX@@3UXMVECTORF32@2@B	; DirectX::Colors::Orange
PUBLIC	?OrangeRed@Colors@DirectX@@3UXMVECTORF32@2@B	; DirectX::Colors::OrangeRed
PUBLIC	?Orchid@Colors@DirectX@@3UXMVECTORF32@2@B	; DirectX::Colors::Orchid
PUBLIC	?uppercase@?$_Iosb@H@std@@2W4_Fmtflags@12@B	; std::_Iosb<int>::uppercase
PUBLIC	?PaleGoldenrod@Colors@DirectX@@3UXMVECTORF32@2@B ; DirectX::Colors::PaleGoldenrod
PUBLIC	?value@?$integral_constant@I$03@std@@2IB	; std::integral_constant<unsigned int,4>::value
PUBLIC	?PaleGreen@Colors@DirectX@@3UXMVECTORF32@2@B	; DirectX::Colors::PaleGreen
PUBLIC	?PaleTurquoise@Colors@DirectX@@3UXMVECTORF32@2@B ; DirectX::Colors::PaleTurquoise
PUBLIC	?showbase@?$_Iosb@H@std@@2W4_Fmtflags@12@B	; std::_Iosb<int>::showbase
PUBLIC	?PaleVioletRed@Colors@DirectX@@3UXMVECTORF32@2@B ; DirectX::Colors::PaleVioletRed
PUBLIC	?PapayaWhip@Colors@DirectX@@3UXMVECTORF32@2@B	; DirectX::Colors::PapayaWhip
PUBLIC	?PeachPuff@Colors@DirectX@@3UXMVECTORF32@2@B	; DirectX::Colors::PeachPuff
PUBLIC	?showpoint@?$_Iosb@H@std@@2W4_Fmtflags@12@B	; std::_Iosb<int>::showpoint
PUBLIC	?Peru@Colors@DirectX@@3UXMVECTORF32@2@B		; DirectX::Colors::Peru
PUBLIC	?is_signed@?$numeric_limits@K@std@@2_NB		; std::numeric_limits<unsigned long>::is_signed
PUBLIC	?Pink@Colors@DirectX@@3UXMVECTORF32@2@B		; DirectX::Colors::Pink
PUBLIC	?Plum@Colors@DirectX@@3UXMVECTORF32@2@B		; DirectX::Colors::Plum
PUBLIC	?showpos@?$_Iosb@H@std@@2W4_Fmtflags@12@B	; std::_Iosb<int>::showpos
PUBLIC	?PowderBlue@Colors@DirectX@@3UXMVECTORF32@2@B	; DirectX::Colors::PowderBlue
PUBLIC	?Purple@Colors@DirectX@@3UXMVECTORF32@2@B	; DirectX::Colors::Purple
PUBLIC	?digits@?$numeric_limits@K@std@@2HB		; std::numeric_limits<unsigned long>::digits
PUBLIC	?Red@Colors@DirectX@@3UXMVECTORF32@2@B		; DirectX::Colors::Red
PUBLIC	?left@?$_Iosb@H@std@@2W4_Fmtflags@12@B		; std::_Iosb<int>::left
PUBLIC	?RosyBrown@Colors@DirectX@@3UXMVECTORF32@2@B	; DirectX::Colors::RosyBrown
PUBLIC	?RoyalBlue@Colors@DirectX@@3UXMVECTORF32@2@B	; DirectX::Colors::RoyalBlue
PUBLIC	?SaddleBrown@Colors@DirectX@@3UXMVECTORF32@2@B	; DirectX::Colors::SaddleBrown
PUBLIC	?right@?$_Iosb@H@std@@2W4_Fmtflags@12@B		; std::_Iosb<int>::right
PUBLIC	?digits10@?$numeric_limits@K@std@@2HB		; std::numeric_limits<unsigned long>::digits10
PUBLIC	?Salmon@Colors@DirectX@@3UXMVECTORF32@2@B	; DirectX::Colors::Salmon
PUBLIC	?SandyBrown@Colors@DirectX@@3UXMVECTORF32@2@B	; DirectX::Colors::SandyBrown
PUBLIC	?SeaGreen@Colors@DirectX@@3UXMVECTORF32@2@B	; DirectX::Colors::SeaGreen
PUBLIC	?internal@?$_Iosb@H@std@@2W4_Fmtflags@12@B	; std::_Iosb<int>::internal
PUBLIC	?SeaShell@Colors@DirectX@@3UXMVECTORF32@2@B	; DirectX::Colors::SeaShell
PUBLIC	?Sienna@Colors@DirectX@@3UXMVECTORF32@2@B	; DirectX::Colors::Sienna
PUBLIC	?Silver@Colors@DirectX@@3UXMVECTORF32@2@B	; DirectX::Colors::Silver
PUBLIC	?dec@?$_Iosb@H@std@@2W4_Fmtflags@12@B		; std::_Iosb<int>::dec
PUBLIC	?SkyBlue@Colors@DirectX@@3UXMVECTORF32@2@B	; DirectX::Colors::SkyBlue
PUBLIC	?SlateBlue@Colors@DirectX@@3UXMVECTORF32@2@B	; DirectX::Colors::SlateBlue
PUBLIC	?SlateGray@Colors@DirectX@@3UXMVECTORF32@2@B	; DirectX::Colors::SlateGray
PUBLIC	?oct@?$_Iosb@H@std@@2W4_Fmtflags@12@B		; std::_Iosb<int>::oct
PUBLIC	?Snow@Colors@DirectX@@3UXMVECTORF32@2@B		; DirectX::Colors::Snow
PUBLIC	?SpringGreen@Colors@DirectX@@3UXMVECTORF32@2@B	; DirectX::Colors::SpringGreen
PUBLIC	?SteelBlue@Colors@DirectX@@3UXMVECTORF32@2@B	; DirectX::Colors::SteelBlue
PUBLIC	?hex@?$_Iosb@H@std@@2W4_Fmtflags@12@B		; std::_Iosb<int>::hex
PUBLIC	?Tan@Colors@DirectX@@3UXMVECTORF32@2@B		; DirectX::Colors::Tan
PUBLIC	?Teal@Colors@DirectX@@3UXMVECTORF32@2@B		; DirectX::Colors::Teal
PUBLIC	?Thistle@Colors@DirectX@@3UXMVECTORF32@2@B	; DirectX::Colors::Thistle
PUBLIC	?scientific@?$_Iosb@H@std@@2W4_Fmtflags@12@B	; std::_Iosb<int>::scientific
PUBLIC	?Tomato@Colors@DirectX@@3UXMVECTORF32@2@B	; DirectX::Colors::Tomato
PUBLIC	?Transparent@Colors@DirectX@@3UXMVECTORF32@2@B	; DirectX::Colors::Transparent
PUBLIC	?Turquoise@Colors@DirectX@@3UXMVECTORF32@2@B	; DirectX::Colors::Turquoise
PUBLIC	?fixed@?$_Iosb@H@std@@2W4_Fmtflags@12@B		; std::_Iosb<int>::fixed
PUBLIC	?Violet@Colors@DirectX@@3UXMVECTORF32@2@B	; DirectX::Colors::Violet
PUBLIC	?Wheat@Colors@DirectX@@3UXMVECTORF32@2@B	; DirectX::Colors::Wheat
PUBLIC	?White@Colors@DirectX@@3UXMVECTORF32@2@B	; DirectX::Colors::White
PUBLIC	?hexfloat@?$_Iosb@H@std@@2W4_Fmtflags@12@B	; std::_Iosb<int>::hexfloat
PUBLIC	?WhiteSmoke@Colors@DirectX@@3UXMVECTORF32@2@B	; DirectX::Colors::WhiteSmoke
PUBLIC	?Yellow@Colors@DirectX@@3UXMVECTORF32@2@B	; DirectX::Colors::Yellow
PUBLIC	?YellowGreen@Colors@DirectX@@3UXMVECTORF32@2@B	; DirectX::Colors::YellowGreen
PUBLIC	?boolalpha@?$_Iosb@H@std@@2W4_Fmtflags@12@B	; std::_Iosb<int>::boolalpha
PUBLIC	?_Stdio@?$_Iosb@H@std@@2W4_Fmtflags@12@B	; std::_Iosb<int>::_Stdio
PUBLIC	?adjustfield@?$_Iosb@H@std@@2W4_Fmtflags@12@B	; std::_Iosb<int>::adjustfield
PUBLIC	?is_signed@?$numeric_limits@_J@std@@2_NB	; std::numeric_limits<__int64>::is_signed
PUBLIC	?basefield@?$_Iosb@H@std@@2W4_Fmtflags@12@B	; std::_Iosb<int>::basefield
PUBLIC	?digits@?$numeric_limits@_J@std@@2HB		; std::numeric_limits<__int64>::digits
PUBLIC	?floatfield@?$_Iosb@H@std@@2W4_Fmtflags@12@B	; std::_Iosb<int>::floatfield
PUBLIC	?digits10@?$numeric_limits@_J@std@@2HB		; std::numeric_limits<__int64>::digits10
PUBLIC	?goodbit@?$_Iosb@H@std@@2W4_Iostate@12@B	; std::_Iosb<int>::goodbit
PUBLIC	?eofbit@?$_Iosb@H@std@@2W4_Iostate@12@B		; std::_Iosb<int>::eofbit
PUBLIC	?failbit@?$_Iosb@H@std@@2W4_Iostate@12@B	; std::_Iosb<int>::failbit
PUBLIC	?value@?$integral_constant@I$01@std@@2IB	; std::integral_constant<unsigned int,2>::value
PUBLIC	?badbit@?$_Iosb@H@std@@2W4_Iostate@12@B		; std::_Iosb<int>::badbit
PUBLIC	?_Hardfail@?$_Iosb@H@std@@2W4_Iostate@12@B	; std::_Iosb<int>::_Hardfail
PUBLIC	?in@?$_Iosb@H@std@@2W4_Openmode@12@B		; std::_Iosb<int>::in
PUBLIC	?out@?$_Iosb@H@std@@2W4_Openmode@12@B		; std::_Iosb<int>::out
PUBLIC	?ate@?$_Iosb@H@std@@2W4_Openmode@12@B		; std::_Iosb<int>::ate
PUBLIC	?app@?$_Iosb@H@std@@2W4_Openmode@12@B		; std::_Iosb<int>::app
PUBLIC	?is_signed@?$numeric_limits@_K@std@@2_NB	; std::numeric_limits<unsigned __int64>::is_signed
PUBLIC	?trunc@?$_Iosb@H@std@@2W4_Openmode@12@B		; std::_Iosb<int>::trunc
PUBLIC	?digits@?$numeric_limits@_K@std@@2HB		; std::numeric_limits<unsigned __int64>::digits
PUBLIC	?_Nocreate@?$_Iosb@H@std@@2W4_Openmode@12@B	; std::_Iosb<int>::_Nocreate
PUBLIC	?_Noreplace@?$_Iosb@H@std@@2W4_Openmode@12@B	; std::_Iosb<int>::_Noreplace
PUBLIC	?digits10@?$numeric_limits@_K@std@@2HB		; std::numeric_limits<unsigned __int64>::digits10
PUBLIC	?binary@?$_Iosb@H@std@@2W4_Openmode@12@B	; std::_Iosb<int>::binary
PUBLIC	?beg@?$_Iosb@H@std@@2W4_Seekdir@12@B		; std::_Iosb<int>::beg
PUBLIC	?cur@?$_Iosb@H@std@@2W4_Seekdir@12@B		; std::_Iosb<int>::cur
PUBLIC	?end@?$_Iosb@H@std@@2W4_Seekdir@12@B		; std::_Iosb<int>::end
PUBLIC	?digits@?$numeric_limits@M@std@@2HB		; std::numeric_limits<float>::digits
PUBLIC	?value@?$integral_constant@I$00@std@@2IB	; std::integral_constant<unsigned int,1>::value
PUBLIC	?digits10@?$numeric_limits@M@std@@2HB		; std::numeric_limits<float>::digits10
PUBLIC	?max_digits10@?$numeric_limits@M@std@@2HB	; std::numeric_limits<float>::max_digits10
PUBLIC	?max_exponent@?$numeric_limits@M@std@@2HB	; std::numeric_limits<float>::max_exponent
PUBLIC	?max_exponent10@?$numeric_limits@M@std@@2HB	; std::numeric_limits<float>::max_exponent10
PUBLIC	?min_exponent@?$numeric_limits@M@std@@2HB	; std::numeric_limits<float>::min_exponent
PUBLIC	?collate@?$_Locbase@H@std@@2HB			; std::_Locbase<int>::collate
PUBLIC	?ctype@?$_Locbase@H@std@@2HB			; std::_Locbase<int>::ctype
PUBLIC	?min_exponent10@?$numeric_limits@M@std@@2HB	; std::numeric_limits<float>::min_exponent10
PUBLIC	?monetary@?$_Locbase@H@std@@2HB			; std::_Locbase<int>::monetary
PUBLIC	?value@?$_Maximum@$S@std@@2IB			; std::_Maximum<>::value
PUBLIC	?numeric@?$_Locbase@H@std@@2HB			; std::_Locbase<int>::numeric
PUBLIC	?time@?$_Locbase@H@std@@2HB			; std::_Locbase<int>::time
PUBLIC	?messages@?$_Locbase@H@std@@2HB			; std::_Locbase<int>::messages
PUBLIC	?all@?$_Locbase@H@std@@2HB			; std::_Locbase<int>::all
PUBLIC	?none@?$_Locbase@H@std@@2HB			; std::_Locbase<int>::none
PUBLIC	?digits@?$numeric_limits@N@std@@2HB		; std::numeric_limits<double>::digits
PUBLIC	?digits10@?$numeric_limits@N@std@@2HB		; std::numeric_limits<double>::digits10
PUBLIC	?max_digits10@?$numeric_limits@N@std@@2HB	; std::numeric_limits<double>::max_digits10
PUBLIC	?value@?$integral_constant@I$0A@@std@@2IB	; std::integral_constant<unsigned int,0>::value
PUBLIC	?max_exponent@?$numeric_limits@N@std@@2HB	; std::numeric_limits<double>::max_exponent
PUBLIC	?max_exponent10@?$numeric_limits@N@std@@2HB	; std::numeric_limits<double>::max_exponent10
PUBLIC	?min_exponent@?$numeric_limits@N@std@@2HB	; std::numeric_limits<double>::min_exponent
PUBLIC	?min_exponent10@?$numeric_limits@N@std@@2HB	; std::numeric_limits<double>::min_exponent10
PUBLIC	?digits@?$numeric_limits@O@std@@2HB		; std::numeric_limits<long double>::digits
PUBLIC	?digits10@?$numeric_limits@O@std@@2HB		; std::numeric_limits<long double>::digits10
PUBLIC	?max_digits10@?$numeric_limits@O@std@@2HB	; std::numeric_limits<long double>::max_digits10
PUBLIC	?max_exponent@?$numeric_limits@O@std@@2HB	; std::numeric_limits<long double>::max_exponent
PUBLIC	?max_exponent10@?$numeric_limits@O@std@@2HB	; std::numeric_limits<long double>::max_exponent10
PUBLIC	?min_exponent@?$numeric_limits@O@std@@2HB	; std::numeric_limits<long double>::min_exponent
PUBLIC	?min_exponent10@?$numeric_limits@O@std@@2HB	; std::numeric_limits<long double>::min_exponent10
PUBLIC	?table_size@?$ctype@D@std@@2IB			; std::ctype<char>::table_size
PUBLIC	?has_denorm@_Num_base@std@@2W4float_denorm_style@2@B ; std::_Num_base::has_denorm
PUBLIC	?has_denorm_loss@_Num_base@std@@2_NB		; std::_Num_base::has_denorm_loss
PUBLIC	?has_infinity@_Num_base@std@@2_NB		; std::_Num_base::has_infinity
PUBLIC	?has_quiet_NaN@_Num_base@std@@2_NB		; std::_Num_base::has_quiet_NaN
PUBLIC	?has_signaling_NaN@_Num_base@std@@2_NB		; std::_Num_base::has_signaling_NaN
PUBLIC	?is_bounded@_Num_base@std@@2_NB			; std::_Num_base::is_bounded
PUBLIC	?is_exact@_Num_base@std@@2_NB			; std::_Num_base::is_exact
PUBLIC	?is_iec559@_Num_base@std@@2_NB			; std::_Num_base::is_iec559
PUBLIC	?is_integer@_Num_base@std@@2_NB			; std::_Num_base::is_integer
PUBLIC	?is_modulo@_Num_base@std@@2_NB			; std::_Num_base::is_modulo
PUBLIC	?is_signed@_Num_base@std@@2_NB			; std::_Num_base::is_signed
PUBLIC	?is_specialized@_Num_base@std@@2_NB		; std::_Num_base::is_specialized
PUBLIC	?tinyness_before@_Num_base@std@@2_NB		; std::_Num_base::tinyness_before
PUBLIC	?traps@_Num_base@std@@2_NB			; std::_Num_base::traps
PUBLIC	?round_style@_Num_base@std@@2W4float_round_style@2@B ; std::_Num_base::round_style
PUBLIC	?digits@_Num_base@std@@2HB			; std::_Num_base::digits
PUBLIC	?digits10@_Num_base@std@@2HB			; std::_Num_base::digits10
PUBLIC	?max_digits10@_Num_base@std@@2HB		; std::_Num_base::max_digits10
PUBLIC	?max_exponent@_Num_base@std@@2HB		; std::_Num_base::max_exponent
PUBLIC	?max_exponent10@_Num_base@std@@2HB		; std::_Num_base::max_exponent10
PUBLIC	?min_exponent@_Num_base@std@@2HB		; std::_Num_base::min_exponent
PUBLIC	?min_exponent10@_Num_base@std@@2HB		; std::_Num_base::min_exponent10
PUBLIC	?radix@_Num_base@std@@2HB			; std::_Num_base::radix
PUBLIC	?is_bounded@_Num_int_base@std@@2_NB		; std::_Num_int_base::is_bounded
PUBLIC	?is_exact@_Num_int_base@std@@2_NB		; std::_Num_int_base::is_exact
PUBLIC	?is_integer@_Num_int_base@std@@2_NB		; std::_Num_int_base::is_integer
PUBLIC	?is_modulo@_Num_int_base@std@@2_NB		; std::_Num_int_base::is_modulo
PUBLIC	?is_specialized@_Num_int_base@std@@2_NB		; std::_Num_int_base::is_specialized
PUBLIC	?radix@_Num_int_base@std@@2HB			; std::_Num_int_base::radix
PUBLIC	?has_denorm@_Num_float_base@std@@2W4float_denorm_style@2@B ; std::_Num_float_base::has_denorm
PUBLIC	?has_denorm_loss@_Num_float_base@std@@2_NB	; std::_Num_float_base::has_denorm_loss
PUBLIC	?has_infinity@_Num_float_base@std@@2_NB		; std::_Num_float_base::has_infinity
PUBLIC	?has_quiet_NaN@_Num_float_base@std@@2_NB	; std::_Num_float_base::has_quiet_NaN
PUBLIC	?has_signaling_NaN@_Num_float_base@std@@2_NB	; std::_Num_float_base::has_signaling_NaN
PUBLIC	?is_bounded@_Num_float_base@std@@2_NB		; std::_Num_float_base::is_bounded
PUBLIC	?is_exact@_Num_float_base@std@@2_NB		; std::_Num_float_base::is_exact
PUBLIC	?is_iec559@_Num_float_base@std@@2_NB		; std::_Num_float_base::is_iec559
PUBLIC	?is_integer@_Num_float_base@std@@2_NB		; std::_Num_float_base::is_integer
PUBLIC	?mViewportWidth@CCamera@@0HA			; CCamera::mViewportWidth
PUBLIC	?is_modulo@_Num_float_base@std@@2_NB		; std::_Num_float_base::is_modulo
PUBLIC	?mViewportHeight@CCamera@@0HA			; CCamera::mViewportHeight
PUBLIC	?is_signed@_Num_float_base@std@@2_NB		; std::_Num_float_base::is_signed
PUBLIC	?is_specialized@_Num_float_base@std@@2_NB	; std::_Num_float_base::is_specialized
PUBLIC	?tinyness_before@_Num_float_base@std@@2_NB	; std::_Num_float_base::tinyness_before
PUBLIC	?traps@_Num_float_base@std@@2_NB		; std::_Num_float_base::traps
PUBLIC	?round_style@_Num_float_base@std@@2W4float_round_style@2@B ; std::_Num_float_base::round_style
PUBLIC	?radix@_Num_float_base@std@@2HB			; std::_Num_float_base::radix
PUBLIC	?is_signed@?$numeric_limits@D@std@@2_NB		; std::numeric_limits<char>::is_signed
PUBLIC	?digits@?$numeric_limits@D@std@@2HB		; std::numeric_limits<char>::digits
PUBLIC	?digits10@?$numeric_limits@D@std@@2HB		; std::numeric_limits<char>::digits10
PUBLIC	?g_XMSinCoefficients0@DirectX@@3UXMVECTORF32@1@B ; DirectX::g_XMSinCoefficients0
PUBLIC	?g_XMSinCoefficients1@DirectX@@3UXMVECTORF32@1@B ; DirectX::g_XMSinCoefficients1
PUBLIC	?g_XMCosCoefficients0@DirectX@@3UXMVECTORF32@1@B ; DirectX::g_XMCosCoefficients0
PUBLIC	?g_XMCosCoefficients1@DirectX@@3UXMVECTORF32@1@B ; DirectX::g_XMCosCoefficients1
PUBLIC	?g_XMTanCoefficients0@DirectX@@3UXMVECTORF32@1@B ; DirectX::g_XMTanCoefficients0
PUBLIC	?g_XMTanCoefficients1@DirectX@@3UXMVECTORF32@1@B ; DirectX::g_XMTanCoefficients1
PUBLIC	?g_XMTanCoefficients2@DirectX@@3UXMVECTORF32@1@B ; DirectX::g_XMTanCoefficients2
PUBLIC	?g_XMArcCoefficients0@DirectX@@3UXMVECTORF32@1@B ; DirectX::g_XMArcCoefficients0
PUBLIC	?is_signed@?$numeric_limits@_W@std@@2_NB	; std::numeric_limits<wchar_t>::is_signed
PUBLIC	?g_XMArcCoefficients1@DirectX@@3UXMVECTORF32@1@B ; DirectX::g_XMArcCoefficients1
PUBLIC	?g_XMATanCoefficients0@DirectX@@3UXMVECTORF32@1@B ; DirectX::g_XMATanCoefficients0
PUBLIC	?g_XMATanCoefficients1@DirectX@@3UXMVECTORF32@1@B ; DirectX::g_XMATanCoefficients1
PUBLIC	?g_XMATanEstCoefficients0@DirectX@@3UXMVECTORF32@1@B ; DirectX::g_XMATanEstCoefficients0
PUBLIC	?digits@?$numeric_limits@_W@std@@2HB		; std::numeric_limits<wchar_t>::digits
PUBLIC	?g_XMATanEstCoefficients1@DirectX@@3UXMVECTORF32@1@B ; DirectX::g_XMATanEstCoefficients1
PUBLIC	?digits10@?$numeric_limits@_W@std@@2HB		; std::numeric_limits<wchar_t>::digits10
PUBLIC	?g_XMArcEstCoefficients@DirectX@@3UXMVECTORF32@1@B ; DirectX::g_XMArcEstCoefficients
PUBLIC	?g_XMIdentityR0@DirectX@@3UXMVECTORF32@1@B	; DirectX::g_XMIdentityR0
PUBLIC	?g_XMIdentityR1@DirectX@@3UXMVECTORF32@1@B	; DirectX::g_XMIdentityR1
PUBLIC	?g_XMIdentityR2@DirectX@@3UXMVECTORF32@1@B	; DirectX::g_XMIdentityR2
PUBLIC	?g_XMIdentityR3@DirectX@@3UXMVECTORF32@1@B	; DirectX::g_XMIdentityR3
PUBLIC	?g_XMNegIdentityR0@DirectX@@3UXMVECTORF32@1@B	; DirectX::g_XMNegIdentityR0
PUBLIC	?g_XMNegIdentityR1@DirectX@@3UXMVECTORF32@1@B	; DirectX::g_XMNegIdentityR1
PUBLIC	?g_XMNegIdentityR2@DirectX@@3UXMVECTORF32@1@B	; DirectX::g_XMNegIdentityR2
PUBLIC	?g_XMNegIdentityR3@DirectX@@3UXMVECTORF32@1@B	; DirectX::g_XMNegIdentityR3
PUBLIC	?g_XMNegativeZero@DirectX@@3UXMVECTORI32@1@B	; DirectX::g_XMNegativeZero
PUBLIC	?g_XMNegate3@DirectX@@3UXMVECTORI32@1@B		; DirectX::g_XMNegate3
PUBLIC	?g_XMMask3@DirectX@@3UXMVECTORI32@1@B		; DirectX::g_XMMask3
PUBLIC	?g_XMMaskX@DirectX@@3UXMVECTORI32@1@B		; DirectX::g_XMMaskX
PUBLIC	?g_XMMaskY@DirectX@@3UXMVECTORI32@1@B		; DirectX::g_XMMaskY
PUBLIC	?g_XMMaskZ@DirectX@@3UXMVECTORI32@1@B		; DirectX::g_XMMaskZ
PUBLIC	?g_XMMaskW@DirectX@@3UXMVECTORI32@1@B		; DirectX::g_XMMaskW
PUBLIC	?g_XMOne@DirectX@@3UXMVECTORF32@1@B		; DirectX::g_XMOne
PUBLIC	?g_XMOne3@DirectX@@3UXMVECTORF32@1@B		; DirectX::g_XMOne3
PUBLIC	?g_XMZero@DirectX@@3UXMVECTORF32@1@B		; DirectX::g_XMZero
PUBLIC	?g_XMTwo@DirectX@@3UXMVECTORF32@1@B		; DirectX::g_XMTwo
PUBLIC	?g_XMFour@DirectX@@3UXMVECTORF32@1@B		; DirectX::g_XMFour
PUBLIC	?g_XMSix@DirectX@@3UXMVECTORF32@1@B		; DirectX::g_XMSix
PUBLIC	?g_XMNegativeOne@DirectX@@3UXMVECTORF32@1@B	; DirectX::g_XMNegativeOne
PUBLIC	?g_XMOneHalf@DirectX@@3UXMVECTORF32@1@B		; DirectX::g_XMOneHalf
PUBLIC	?g_XMNegativeOneHalf@DirectX@@3UXMVECTORF32@1@B	; DirectX::g_XMNegativeOneHalf
PUBLIC	?is_modulo@?$numeric_limits@_N@std@@2_NB	; std::numeric_limits<bool>::is_modulo
PUBLIC	?is_signed@?$numeric_limits@_N@std@@2_NB	; std::numeric_limits<bool>::is_signed
PUBLIC	?digits@?$numeric_limits@_N@std@@2HB		; std::numeric_limits<bool>::digits
PUBLIC	?digits10@?$numeric_limits@_N@std@@2HB		; std::numeric_limits<bool>::digits10
PUBLIC	?g_XMEpsilon@DirectX@@3UXMVECTORF32@1@B		; DirectX::g_XMEpsilon
PUBLIC	?g_XMInfinity@DirectX@@3UXMVECTORI32@1@B	; DirectX::g_XMInfinity
PUBLIC	?g_XMQNaN@DirectX@@3UXMVECTORI32@1@B		; DirectX::g_XMQNaN
PUBLIC	?g_XMQNaNTest@DirectX@@3UXMVECTORI32@1@B	; DirectX::g_XMQNaNTest
PUBLIC	?g_XMAbsMask@DirectX@@3UXMVECTORI32@1@B		; DirectX::g_XMAbsMask
PUBLIC	?g_XMFltMin@DirectX@@3UXMVECTORI32@1@B		; DirectX::g_XMFltMin
PUBLIC	?g_XMFltMax@DirectX@@3UXMVECTORI32@1@B		; DirectX::g_XMFltMax
PUBLIC	?g_XMNegOneMask@DirectX@@3UXMVECTORI32@1@B	; DirectX::g_XMNegOneMask
PUBLIC	?g_XMMaskA8R8G8B8@DirectX@@3UXMVECTORI32@1@B	; DirectX::g_XMMaskA8R8G8B8
PUBLIC	?g_XMFlipA8R8G8B8@DirectX@@3UXMVECTORI32@1@B	; DirectX::g_XMFlipA8R8G8B8
PUBLIC	?g_XMFixAA8R8G8B8@DirectX@@3UXMVECTORF32@1@B	; DirectX::g_XMFixAA8R8G8B8
PUBLIC	?g_XMNormalizeA8R8G8B8@DirectX@@3UXMVECTORF32@1@B ; DirectX::g_XMNormalizeA8R8G8B8
PUBLIC	?is_signed@?$numeric_limits@C@std@@2_NB		; std::numeric_limits<signed char>::is_signed
PUBLIC	?digits@?$numeric_limits@C@std@@2HB		; std::numeric_limits<signed char>::digits
PUBLIC	?g_XMMaskA2B10G10R10@DirectX@@3UXMVECTORI32@1@B	; DirectX::g_XMMaskA2B10G10R10
PUBLIC	?g_XMFlipA2B10G10R10@DirectX@@3UXMVECTORI32@1@B	; DirectX::g_XMFlipA2B10G10R10
PUBLIC	?g_XMFixAA2B10G10R10@DirectX@@3UXMVECTORF32@1@B	; DirectX::g_XMFixAA2B10G10R10
PUBLIC	?digits10@?$numeric_limits@C@std@@2HB		; std::numeric_limits<signed char>::digits10
PUBLIC	?g_XMNormalizeA2B10G10R10@DirectX@@3UXMVECTORF32@1@B ; DirectX::g_XMNormalizeA2B10G10R10
PUBLIC	?value@?$integral_constant@_N$0A@@std@@2_NB	; std::integral_constant<bool,0>::value
PUBLIC	?g_XMMaskX16Y16@DirectX@@3UXMVECTORI32@1@B	; DirectX::g_XMMaskX16Y16
PUBLIC	?g_XMFlipX16Y16@DirectX@@3UXMVECTORI32@1@B	; DirectX::g_XMFlipX16Y16
PUBLIC	?g_XMFixX16Y16@DirectX@@3UXMVECTORF32@1@B	; DirectX::g_XMFixX16Y16
PUBLIC	?g_XMNormalizeX16Y16@DirectX@@3UXMVECTORF32@1@B	; DirectX::g_XMNormalizeX16Y16
PUBLIC	?g_XMMaskX16Y16Z16W16@DirectX@@3UXMVECTORI32@1@B ; DirectX::g_XMMaskX16Y16Z16W16
PUBLIC	?g_XMFlipX16Y16Z16W16@DirectX@@3UXMVECTORI32@1@B ; DirectX::g_XMFlipX16Y16Z16W16
PUBLIC	?g_XMFixX16Y16Z16W16@DirectX@@3UXMVECTORF32@1@B	; DirectX::g_XMFixX16Y16Z16W16
PUBLIC	?g_XMNormalizeX16Y16Z16W16@DirectX@@3UXMVECTORF32@1@B ; DirectX::g_XMNormalizeX16Y16Z16W16
PUBLIC	?g_XMNoFraction@DirectX@@3UXMVECTORF32@1@B	; DirectX::g_XMNoFraction
PUBLIC	?g_XMMaskByte@DirectX@@3UXMVECTORI32@1@B	; DirectX::g_XMMaskByte
PUBLIC	?g_XMNegateX@DirectX@@3UXMVECTORF32@1@B		; DirectX::g_XMNegateX
PUBLIC	?g_XMNegateY@DirectX@@3UXMVECTORF32@1@B		; DirectX::g_XMNegateY
PUBLIC	?g_XMNegateZ@DirectX@@3UXMVECTORF32@1@B		; DirectX::g_XMNegateZ
PUBLIC	?value@?$integral_constant@_N$00@std@@2_NB	; std::integral_constant<bool,1>::value
PUBLIC	?g_XMNegateW@DirectX@@3UXMVECTORF32@1@B		; DirectX::g_XMNegateW
PUBLIC	?g_XMSelect0101@DirectX@@3UXMVECTORI32@1@B	; DirectX::g_XMSelect0101
PUBLIC	?g_XMSelect1010@DirectX@@3UXMVECTORI32@1@B	; DirectX::g_XMSelect1010
PUBLIC	?g_XMOneHalfMinusEpsilon@DirectX@@3UXMVECTORI32@1@B ; DirectX::g_XMOneHalfMinusEpsilon
PUBLIC	?g_XMSelect1000@DirectX@@3UXMVECTORI32@1@B	; DirectX::g_XMSelect1000
PUBLIC	?g_XMSelect1100@DirectX@@3UXMVECTORI32@1@B	; DirectX::g_XMSelect1100
PUBLIC	?g_XMSelect1110@DirectX@@3UXMVECTORI32@1@B	; DirectX::g_XMSelect1110
PUBLIC	?g_XMSelect1011@DirectX@@3UXMVECTORI32@1@B	; DirectX::g_XMSelect1011
PUBLIC	?g_XMFixupY16@DirectX@@3UXMVECTORF32@1@B	; DirectX::g_XMFixupY16
PUBLIC	?g_XMFixupY16W16@DirectX@@3UXMVECTORF32@1@B	; DirectX::g_XMFixupY16W16
PUBLIC	?is_signed@?$numeric_limits@E@std@@2_NB		; std::numeric_limits<unsigned char>::is_signed
PUBLIC	?g_XMFlipY@DirectX@@3UXMVECTORI32@1@B		; DirectX::g_XMFlipY
PUBLIC	?g_XMFlipZ@DirectX@@3UXMVECTORI32@1@B		; DirectX::g_XMFlipZ
PUBLIC	?g_XMFlipW@DirectX@@3UXMVECTORI32@1@B		; DirectX::g_XMFlipW
PUBLIC	?digits@?$numeric_limits@E@std@@2HB		; std::numeric_limits<unsigned char>::digits
PUBLIC	?g_XMFlipYZ@DirectX@@3UXMVECTORI32@1@B		; DirectX::g_XMFlipYZ
PUBLIC	?g_XMFlipZW@DirectX@@3UXMVECTORI32@1@B		; DirectX::g_XMFlipZW
PUBLIC	?g_XMFlipYW@DirectX@@3UXMVECTORI32@1@B		; DirectX::g_XMFlipYW
PUBLIC	?digits10@?$numeric_limits@E@std@@2HB		; std::numeric_limits<unsigned char>::digits10
PUBLIC	?g_XMMaskDec4@DirectX@@3UXMVECTORI32@1@B	; DirectX::g_XMMaskDec4
PUBLIC	?g_XMXorDec4@DirectX@@3UXMVECTORI32@1@B		; DirectX::g_XMXorDec4
PUBLIC	?g_XMAddUDec4@DirectX@@3UXMVECTORF32@1@B	; DirectX::g_XMAddUDec4
PUBLIC	?g_XMAddDec4@DirectX@@3UXMVECTORF32@1@B		; DirectX::g_XMAddDec4
PUBLIC	?g_XMMulDec4@DirectX@@3UXMVECTORF32@1@B		; DirectX::g_XMMulDec4
PUBLIC	?g_XMMaskByte4@DirectX@@3UXMVECTORI32@1@B	; DirectX::g_XMMaskByte4
PUBLIC	?g_XMXorByte4@DirectX@@3UXMVECTORI32@1@B	; DirectX::g_XMXorByte4
PUBLIC	?g_XMAddByte4@DirectX@@3UXMVECTORF32@1@B	; DirectX::g_XMAddByte4
PUBLIC	?g_XMFixUnsigned@DirectX@@3UXMVECTORF32@1@B	; DirectX::g_XMFixUnsigned
PUBLIC	?g_XMMaxInt@DirectX@@3UXMVECTORF32@1@B		; DirectX::g_XMMaxInt
PUBLIC	?g_XMMaxUInt@DirectX@@3UXMVECTORF32@1@B		; DirectX::g_XMMaxUInt
PUBLIC	?g_XMUnsignedFix@DirectX@@3UXMVECTORF32@1@B	; DirectX::g_XMUnsignedFix
PUBLIC	?g_XMsrgbScale@DirectX@@3UXMVECTORF32@1@B	; DirectX::g_XMsrgbScale
PUBLIC	?g_XMsrgbA@DirectX@@3UXMVECTORF32@1@B		; DirectX::g_XMsrgbA
PUBLIC	?g_XMsrgbA1@DirectX@@3UXMVECTORF32@1@B		; DirectX::g_XMsrgbA1
PUBLIC	?g_XMExponentBias@DirectX@@3UXMVECTORI32@1@B	; DirectX::g_XMExponentBias
PUBLIC	?g_XMSubnormalExponent@DirectX@@3UXMVECTORI32@1@B ; DirectX::g_XMSubnormalExponent
PUBLIC	?g_XMNumTrailing@DirectX@@3UXMVECTORI32@1@B	; DirectX::g_XMNumTrailing
PUBLIC	?g_XMMinNormal@DirectX@@3UXMVECTORI32@1@B	; DirectX::g_XMMinNormal
PUBLIC	?g_XMNegInfinity@DirectX@@3UXMVECTORI32@1@B	; DirectX::g_XMNegInfinity
PUBLIC	?g_XMNegQNaN@DirectX@@3UXMVECTORI32@1@B		; DirectX::g_XMNegQNaN
PUBLIC	?g_XMBin128@DirectX@@3UXMVECTORI32@1@B		; DirectX::g_XMBin128
PUBLIC	?g_XMBinNeg150@DirectX@@3UXMVECTORI32@1@B	; DirectX::g_XMBinNeg150
PUBLIC	?g_XM253@DirectX@@3UXMVECTORI32@1@B		; DirectX::g_XM253
_BSS	SEGMENT
?mViewportWidth@CCamera@@0HA DD 01H DUP (?)		; CCamera::mViewportWidth
?mViewportHeight@CCamera@@0HA DD 01H DUP (?)		; CCamera::mViewportHeight
_BSS	ENDS
;	COMDAT ?g_XM253@DirectX@@3UXMVECTORI32@1@B
CONST	SEGMENT
?g_XM253@DirectX@@3UXMVECTORI32@1@B DD 0fdH		; DirectX::g_XM253
	DD	0fdH
	DD	0fdH
	DD	0fdH
CONST	ENDS
;	COMDAT ?g_XMBinNeg150@DirectX@@3UXMVECTORI32@1@B
CONST	SEGMENT
?g_XMBinNeg150@DirectX@@3UXMVECTORI32@1@B DD 0c3160000H	; DirectX::g_XMBinNeg150
	DD	0c3160000H
	DD	0c3160000H
	DD	0c3160000H
CONST	ENDS
;	COMDAT ?g_XMBin128@DirectX@@3UXMVECTORI32@1@B
CONST	SEGMENT
?g_XMBin128@DirectX@@3UXMVECTORI32@1@B DD 043000000H	; DirectX::g_XMBin128
	DD	043000000H
	DD	043000000H
	DD	043000000H
CONST	ENDS
;	COMDAT ?g_XMNegQNaN@DirectX@@3UXMVECTORI32@1@B
CONST	SEGMENT
?g_XMNegQNaN@DirectX@@3UXMVECTORI32@1@B DD 0ffc00000H	; DirectX::g_XMNegQNaN
	DD	0ffc00000H
	DD	0ffc00000H
	DD	0ffc00000H
CONST	ENDS
;	COMDAT ?g_XMNegInfinity@DirectX@@3UXMVECTORI32@1@B
CONST	SEGMENT
?g_XMNegInfinity@DirectX@@3UXMVECTORI32@1@B DD 0ff800000H ; DirectX::g_XMNegInfinity
	DD	0ff800000H
	DD	0ff800000H
	DD	0ff800000H
CONST	ENDS
;	COMDAT ?g_XMMinNormal@DirectX@@3UXMVECTORI32@1@B
CONST	SEGMENT
?g_XMMinNormal@DirectX@@3UXMVECTORI32@1@B DD 0800000H	; DirectX::g_XMMinNormal
	DD	0800000H
	DD	0800000H
	DD	0800000H
CONST	ENDS
;	COMDAT ?g_XMNumTrailing@DirectX@@3UXMVECTORI32@1@B
CONST	SEGMENT
?g_XMNumTrailing@DirectX@@3UXMVECTORI32@1@B DD 017H	; DirectX::g_XMNumTrailing
	DD	017H
	DD	017H
	DD	017H
CONST	ENDS
;	COMDAT ?g_XMSubnormalExponent@DirectX@@3UXMVECTORI32@1@B
CONST	SEGMENT
?g_XMSubnormalExponent@DirectX@@3UXMVECTORI32@1@B DD 0ffffff82H ; DirectX::g_XMSubnormalExponent
	DD	0ffffff82H
	DD	0ffffff82H
	DD	0ffffff82H
CONST	ENDS
;	COMDAT ?g_XMExponentBias@DirectX@@3UXMVECTORI32@1@B
CONST	SEGMENT
?g_XMExponentBias@DirectX@@3UXMVECTORI32@1@B DD 07fH	; DirectX::g_XMExponentBias
	DD	07fH
	DD	07fH
	DD	07fH
CONST	ENDS
;	COMDAT ?g_XMsrgbA1@DirectX@@3UXMVECTORF32@1@B
CONST	SEGMENT
?g_XMsrgbA1@DirectX@@3UXMVECTORF32@1@B DD 03f870a3dr ; 1.055 ; DirectX::g_XMsrgbA1
	DD	03f870a3dr			; 1.055
	DD	03f870a3dr			; 1.055
	DD	03f800000r			; 1
CONST	ENDS
;	COMDAT ?g_XMsrgbA@DirectX@@3UXMVECTORF32@1@B
CONST	SEGMENT
?g_XMsrgbA@DirectX@@3UXMVECTORF32@1@B DD 03d6147aer ; 0.055 ; DirectX::g_XMsrgbA
	DD	03d6147aer			; 0.055
	DD	03d6147aer			; 0.055
	DD	000000000r			; 0
CONST	ENDS
;	COMDAT ?g_XMsrgbScale@DirectX@@3UXMVECTORF32@1@B
CONST	SEGMENT
?g_XMsrgbScale@DirectX@@3UXMVECTORF32@1@B DD 0414eb852r ; 12.92 ; DirectX::g_XMsrgbScale
	DD	0414eb852r			; 12.92
	DD	0414eb852r			; 12.92
	DD	03f800000r			; 1
CONST	ENDS
;	COMDAT ?g_XMUnsignedFix@DirectX@@3UXMVECTORF32@1@B
CONST	SEGMENT
?g_XMUnsignedFix@DirectX@@3UXMVECTORF32@1@B DD 04f000000r ; 2.14748e+009 ; DirectX::g_XMUnsignedFix
	DD	04f000000r			; 2.14748e+009
	DD	04f000000r			; 2.14748e+009
	DD	04f000000r			; 2.14748e+009
CONST	ENDS
;	COMDAT ?g_XMMaxUInt@DirectX@@3UXMVECTORF32@1@B
CONST	SEGMENT
?g_XMMaxUInt@DirectX@@3UXMVECTORF32@1@B DD 04f7fffffr ; 4.29497e+009 ; DirectX::g_XMMaxUInt
	DD	04f7fffffr			; 4.29497e+009
	DD	04f7fffffr			; 4.29497e+009
	DD	04f7fffffr			; 4.29497e+009
CONST	ENDS
;	COMDAT ?g_XMMaxInt@DirectX@@3UXMVECTORF32@1@B
CONST	SEGMENT
?g_XMMaxInt@DirectX@@3UXMVECTORF32@1@B DD 04effffffr ; 2.14748e+009 ; DirectX::g_XMMaxInt
	DD	04effffffr			; 2.14748e+009
	DD	04effffffr			; 2.14748e+009
	DD	04effffffr			; 2.14748e+009
CONST	ENDS
;	COMDAT ?g_XMFixUnsigned@DirectX@@3UXMVECTORF32@1@B
CONST	SEGMENT
?g_XMFixUnsigned@DirectX@@3UXMVECTORF32@1@B DD 04f000000r ; 2.14748e+009 ; DirectX::g_XMFixUnsigned
	DD	04f000000r			; 2.14748e+009
	DD	04f000000r			; 2.14748e+009
	DD	04f000000r			; 2.14748e+009
CONST	ENDS
;	COMDAT ?g_XMAddByte4@DirectX@@3UXMVECTORF32@1@B
CONST	SEGMENT
?g_XMAddByte4@DirectX@@3UXMVECTORF32@1@B DD 0c3000000r ; -128 ; DirectX::g_XMAddByte4
	DD	0c7000000r			; -32768
	DD	0cb000000r			; -8.38861e+006
	DD	000000000r			; 0
CONST	ENDS
;	COMDAT ?g_XMXorByte4@DirectX@@3UXMVECTORI32@1@B
CONST	SEGMENT
?g_XMXorByte4@DirectX@@3UXMVECTORI32@1@B DD 080H	; DirectX::g_XMXorByte4
	DD	08000H
	DD	0800000H
	DD	00H
CONST	ENDS
;	COMDAT ?g_XMMaskByte4@DirectX@@3UXMVECTORI32@1@B
CONST	SEGMENT
?g_XMMaskByte4@DirectX@@3UXMVECTORI32@1@B DD 0ffH	; DirectX::g_XMMaskByte4
	DD	0ff00H
	DD	0ff0000H
	DD	0ff000000H
CONST	ENDS
;	COMDAT ?g_XMMulDec4@DirectX@@3UXMVECTORF32@1@B
CONST	SEGMENT
?g_XMMulDec4@DirectX@@3UXMVECTORF32@1@B DD 03f800000r ; 1 ; DirectX::g_XMMulDec4
	DD	03a800000r			; 0.000976563
	DD	035800000r			; 9.53674e-007
	DD	030800000r			; 9.31323e-010
CONST	ENDS
;	COMDAT ?g_XMAddDec4@DirectX@@3UXMVECTORF32@1@B
CONST	SEGMENT
?g_XMAddDec4@DirectX@@3UXMVECTORF32@1@B DD 0c4000000r ; -512 ; DirectX::g_XMAddDec4
	DD	0c9000000r			; -524288
	DD	0ce000000r			; -5.36871e+008
	DD	000000000r			; 0
CONST	ENDS
;	COMDAT ?g_XMAddUDec4@DirectX@@3UXMVECTORF32@1@B
CONST	SEGMENT
?g_XMAddUDec4@DirectX@@3UXMVECTORF32@1@B DD 000000000r ; 0 ; DirectX::g_XMAddUDec4
	DD	000000000r			; 0
	DD	000000000r			; 0
	DD	04f000000r			; 2.14748e+009
CONST	ENDS
;	COMDAT ?g_XMXorDec4@DirectX@@3UXMVECTORI32@1@B
CONST	SEGMENT
?g_XMXorDec4@DirectX@@3UXMVECTORI32@1@B DD 0200H	; DirectX::g_XMXorDec4
	DD	080000H
	DD	020000000H
	DD	00H
CONST	ENDS
;	COMDAT ?g_XMMaskDec4@DirectX@@3UXMVECTORI32@1@B
CONST	SEGMENT
?g_XMMaskDec4@DirectX@@3UXMVECTORI32@1@B DD 03ffH	; DirectX::g_XMMaskDec4
	DD	0ffc00H
	DD	03ff00000H
	DD	0c0000000H
CONST	ENDS
;	COMDAT ?digits10@?$numeric_limits@E@std@@2HB
CONST	SEGMENT
?digits10@?$numeric_limits@E@std@@2HB DD 02H		; std::numeric_limits<unsigned char>::digits10
CONST	ENDS
;	COMDAT ?g_XMFlipYW@DirectX@@3UXMVECTORI32@1@B
CONST	SEGMENT
?g_XMFlipYW@DirectX@@3UXMVECTORI32@1@B DD 00H		; DirectX::g_XMFlipYW
	DD	080000000H
	DD	00H
	DD	080000000H
CONST	ENDS
;	COMDAT ?g_XMFlipZW@DirectX@@3UXMVECTORI32@1@B
CONST	SEGMENT
?g_XMFlipZW@DirectX@@3UXMVECTORI32@1@B DD 00H		; DirectX::g_XMFlipZW
	DD	00H
	DD	080000000H
	DD	080000000H
CONST	ENDS
;	COMDAT ?g_XMFlipYZ@DirectX@@3UXMVECTORI32@1@B
CONST	SEGMENT
?g_XMFlipYZ@DirectX@@3UXMVECTORI32@1@B DD 00H		; DirectX::g_XMFlipYZ
	DD	080000000H
	DD	080000000H
	DD	00H
CONST	ENDS
;	COMDAT ?digits@?$numeric_limits@E@std@@2HB
CONST	SEGMENT
?digits@?$numeric_limits@E@std@@2HB DD 08H		; std::numeric_limits<unsigned char>::digits
CONST	ENDS
;	COMDAT ?g_XMFlipW@DirectX@@3UXMVECTORI32@1@B
CONST	SEGMENT
?g_XMFlipW@DirectX@@3UXMVECTORI32@1@B DD 00H		; DirectX::g_XMFlipW
	DD	00H
	DD	00H
	DD	080000000H
CONST	ENDS
;	COMDAT ?g_XMFlipZ@DirectX@@3UXMVECTORI32@1@B
CONST	SEGMENT
?g_XMFlipZ@DirectX@@3UXMVECTORI32@1@B DD 00H		; DirectX::g_XMFlipZ
	DD	00H
	DD	080000000H
	DD	00H
CONST	ENDS
;	COMDAT ?g_XMFlipY@DirectX@@3UXMVECTORI32@1@B
CONST	SEGMENT
?g_XMFlipY@DirectX@@3UXMVECTORI32@1@B DD 00H		; DirectX::g_XMFlipY
	DD	080000000H
	DD	00H
	DD	00H
CONST	ENDS
;	COMDAT ?is_signed@?$numeric_limits@E@std@@2_NB
CONST	SEGMENT
?is_signed@?$numeric_limits@E@std@@2_NB DB 00H		; std::numeric_limits<unsigned char>::is_signed
CONST	ENDS
;	COMDAT ?g_XMFixupY16W16@DirectX@@3UXMVECTORF32@1@B
CONST	SEGMENT
?g_XMFixupY16W16@DirectX@@3UXMVECTORF32@1@B DD 03f800000r ; 1 ; DirectX::g_XMFixupY16W16
	DD	03f800000r			; 1
	DD	037800000r			; 1.52588e-005
	DD	037800000r			; 1.52588e-005
CONST	ENDS
;	COMDAT ?g_XMFixupY16@DirectX@@3UXMVECTORF32@1@B
CONST	SEGMENT
?g_XMFixupY16@DirectX@@3UXMVECTORF32@1@B DD 03f800000r ; 1 ; DirectX::g_XMFixupY16
	DD	037800000r			; 1.52588e-005
	DD	000000000r			; 0
	DD	000000000r			; 0
CONST	ENDS
;	COMDAT ?g_XMSelect1011@DirectX@@3UXMVECTORI32@1@B
CONST	SEGMENT
?g_XMSelect1011@DirectX@@3UXMVECTORI32@1@B DD 0ffffffffH ; DirectX::g_XMSelect1011
	DD	00H
	DD	0ffffffffH
	DD	0ffffffffH
CONST	ENDS
;	COMDAT ?g_XMSelect1110@DirectX@@3UXMVECTORI32@1@B
CONST	SEGMENT
?g_XMSelect1110@DirectX@@3UXMVECTORI32@1@B DD 0ffffffffH ; DirectX::g_XMSelect1110
	DD	0ffffffffH
	DD	0ffffffffH
	DD	00H
CONST	ENDS
;	COMDAT ?g_XMSelect1100@DirectX@@3UXMVECTORI32@1@B
CONST	SEGMENT
?g_XMSelect1100@DirectX@@3UXMVECTORI32@1@B DD 0ffffffffH ; DirectX::g_XMSelect1100
	DD	0ffffffffH
	DD	00H
	DD	00H
CONST	ENDS
;	COMDAT ?g_XMSelect1000@DirectX@@3UXMVECTORI32@1@B
CONST	SEGMENT
?g_XMSelect1000@DirectX@@3UXMVECTORI32@1@B DD 0ffffffffH ; DirectX::g_XMSelect1000
	DD	00H
	DD	00H
	DD	00H
CONST	ENDS
;	COMDAT ?g_XMOneHalfMinusEpsilon@DirectX@@3UXMVECTORI32@1@B
CONST	SEGMENT
?g_XMOneHalfMinusEpsilon@DirectX@@3UXMVECTORI32@1@B DD 03efffffdH ; DirectX::g_XMOneHalfMinusEpsilon
	DD	03efffffdH
	DD	03efffffdH
	DD	03efffffdH
CONST	ENDS
;	COMDAT ?g_XMSelect1010@DirectX@@3UXMVECTORI32@1@B
CONST	SEGMENT
?g_XMSelect1010@DirectX@@3UXMVECTORI32@1@B DD 0ffffffffH ; DirectX::g_XMSelect1010
	DD	00H
	DD	0ffffffffH
	DD	00H
CONST	ENDS
;	COMDAT ?g_XMSelect0101@DirectX@@3UXMVECTORI32@1@B
CONST	SEGMENT
?g_XMSelect0101@DirectX@@3UXMVECTORI32@1@B DD 00H	; DirectX::g_XMSelect0101
	DD	0ffffffffH
	DD	00H
	DD	0ffffffffH
CONST	ENDS
;	COMDAT ?g_XMNegateW@DirectX@@3UXMVECTORF32@1@B
CONST	SEGMENT
?g_XMNegateW@DirectX@@3UXMVECTORF32@1@B DD 03f800000r ; 1 ; DirectX::g_XMNegateW
	DD	03f800000r			; 1
	DD	03f800000r			; 1
	DD	0bf800000r			; -1
CONST	ENDS
;	COMDAT ?value@?$integral_constant@_N$00@std@@2_NB
CONST	SEGMENT
?value@?$integral_constant@_N$00@std@@2_NB DB 01H	; std::integral_constant<bool,1>::value
CONST	ENDS
;	COMDAT ?g_XMNegateZ@DirectX@@3UXMVECTORF32@1@B
CONST	SEGMENT
?g_XMNegateZ@DirectX@@3UXMVECTORF32@1@B DD 03f800000r ; 1 ; DirectX::g_XMNegateZ
	DD	03f800000r			; 1
	DD	0bf800000r			; -1
	DD	03f800000r			; 1
CONST	ENDS
;	COMDAT ?g_XMNegateY@DirectX@@3UXMVECTORF32@1@B
CONST	SEGMENT
?g_XMNegateY@DirectX@@3UXMVECTORF32@1@B DD 03f800000r ; 1 ; DirectX::g_XMNegateY
	DD	0bf800000r			; -1
	DD	03f800000r			; 1
	DD	03f800000r			; 1
CONST	ENDS
;	COMDAT ?g_XMNegateX@DirectX@@3UXMVECTORF32@1@B
CONST	SEGMENT
?g_XMNegateX@DirectX@@3UXMVECTORF32@1@B DD 0bf800000r ; -1 ; DirectX::g_XMNegateX
	DD	03f800000r			; 1
	DD	03f800000r			; 1
	DD	03f800000r			; 1
CONST	ENDS
;	COMDAT ?g_XMMaskByte@DirectX@@3UXMVECTORI32@1@B
CONST	SEGMENT
?g_XMMaskByte@DirectX@@3UXMVECTORI32@1@B DD 0ffH	; DirectX::g_XMMaskByte
	DD	0ffH
	DD	0ffH
	DD	0ffH
CONST	ENDS
;	COMDAT ?g_XMNoFraction@DirectX@@3UXMVECTORF32@1@B
CONST	SEGMENT
?g_XMNoFraction@DirectX@@3UXMVECTORF32@1@B DD 04b000000r ; 8.38861e+006 ; DirectX::g_XMNoFraction
	DD	04b000000r			; 8.38861e+006
	DD	04b000000r			; 8.38861e+006
	DD	04b000000r			; 8.38861e+006
CONST	ENDS
;	COMDAT ?g_XMNormalizeX16Y16Z16W16@DirectX@@3UXMVECTORF32@1@B
CONST	SEGMENT
?g_XMNormalizeX16Y16Z16W16@DirectX@@3UXMVECTORF32@1@B DD 038000100r ; 3.05185e-005 ; DirectX::g_XMNormalizeX16Y16Z16W16
	DD	038000100r			; 3.05185e-005
	DD	030000100r			; 4.65675e-010
	DD	030000100r			; 4.65675e-010
CONST	ENDS
;	COMDAT ?g_XMFixX16Y16Z16W16@DirectX@@3UXMVECTORF32@1@B
CONST	SEGMENT
?g_XMFixX16Y16Z16W16@DirectX@@3UXMVECTORF32@1@B DD 0c7000000r ; -32768 ; DirectX::g_XMFixX16Y16Z16W16
	DD	0c7000000r			; -32768
	DD	000000000r			; 0
	DD	000000000r			; 0
CONST	ENDS
;	COMDAT ?g_XMFlipX16Y16Z16W16@DirectX@@3UXMVECTORI32@1@B
CONST	SEGMENT
?g_XMFlipX16Y16Z16W16@DirectX@@3UXMVECTORI32@1@B DD 08000H ; DirectX::g_XMFlipX16Y16Z16W16
	DD	08000H
	DD	00H
	DD	00H
CONST	ENDS
;	COMDAT ?g_XMMaskX16Y16Z16W16@DirectX@@3UXMVECTORI32@1@B
CONST	SEGMENT
?g_XMMaskX16Y16Z16W16@DirectX@@3UXMVECTORI32@1@B DD 0ffffH ; DirectX::g_XMMaskX16Y16Z16W16
	DD	0ffffH
	DD	0ffff0000H
	DD	0ffff0000H
CONST	ENDS
;	COMDAT ?g_XMNormalizeX16Y16@DirectX@@3UXMVECTORF32@1@B
CONST	SEGMENT
?g_XMNormalizeX16Y16@DirectX@@3UXMVECTORF32@1@B DD 038000100r ; 3.05185e-005 ; DirectX::g_XMNormalizeX16Y16
	DD	030000100r			; 4.65675e-010
	DD	000000000r			; 0
	DD	000000000r			; 0
CONST	ENDS
;	COMDAT ?g_XMFixX16Y16@DirectX@@3UXMVECTORF32@1@B
CONST	SEGMENT
?g_XMFixX16Y16@DirectX@@3UXMVECTORF32@1@B DD 0c7000000r ; -32768 ; DirectX::g_XMFixX16Y16
	DD	000000000r			; 0
	DD	000000000r			; 0
	DD	000000000r			; 0
CONST	ENDS
;	COMDAT ?g_XMFlipX16Y16@DirectX@@3UXMVECTORI32@1@B
CONST	SEGMENT
?g_XMFlipX16Y16@DirectX@@3UXMVECTORI32@1@B DD 08000H	; DirectX::g_XMFlipX16Y16
	DD	00H
	DD	00H
	DD	00H
CONST	ENDS
;	COMDAT ?g_XMMaskX16Y16@DirectX@@3UXMVECTORI32@1@B
CONST	SEGMENT
?g_XMMaskX16Y16@DirectX@@3UXMVECTORI32@1@B DD 0ffffH	; DirectX::g_XMMaskX16Y16
	DD	0ffff0000H
	DD	00H
	DD	00H
CONST	ENDS
;	COMDAT ?value@?$integral_constant@_N$0A@@std@@2_NB
CONST	SEGMENT
?value@?$integral_constant@_N$0A@@std@@2_NB DB 00H	; std::integral_constant<bool,0>::value
CONST	ENDS
;	COMDAT ?g_XMNormalizeA2B10G10R10@DirectX@@3UXMVECTORF32@1@B
CONST	SEGMENT
?g_XMNormalizeA2B10G10R10@DirectX@@3UXMVECTORF32@1@B DD 03b004020r ; 0.00195695 ; DirectX::g_XMNormalizeA2B10G10R10
	DD	036004020r			; 1.91108e-006
	DD	031004020r			; 1.86629e-009
	DD	02faaaaabr			; 3.10441e-010
CONST	ENDS
;	COMDAT ?digits10@?$numeric_limits@C@std@@2HB
CONST	SEGMENT
?digits10@?$numeric_limits@C@std@@2HB DD 02H		; std::numeric_limits<signed char>::digits10
CONST	ENDS
;	COMDAT ?g_XMFixAA2B10G10R10@DirectX@@3UXMVECTORF32@1@B
CONST	SEGMENT
?g_XMFixAA2B10G10R10@DirectX@@3UXMVECTORF32@1@B DD 0c4000000r ; -512 ; DirectX::g_XMFixAA2B10G10R10
	DD	0c9000000r			; -524288
	DD	0ce000000r			; -5.36871e+008
	DD	04f000000r			; 2.14748e+009
CONST	ENDS
;	COMDAT ?g_XMFlipA2B10G10R10@DirectX@@3UXMVECTORI32@1@B
CONST	SEGMENT
?g_XMFlipA2B10G10R10@DirectX@@3UXMVECTORI32@1@B DD 0200H ; DirectX::g_XMFlipA2B10G10R10
	DD	080000H
	DD	020000000H
	DD	080000000H
CONST	ENDS
;	COMDAT ?g_XMMaskA2B10G10R10@DirectX@@3UXMVECTORI32@1@B
CONST	SEGMENT
?g_XMMaskA2B10G10R10@DirectX@@3UXMVECTORI32@1@B DD 03ffH ; DirectX::g_XMMaskA2B10G10R10
	DD	0ffc00H
	DD	03ff00000H
	DD	0c0000000H
CONST	ENDS
;	COMDAT ?digits@?$numeric_limits@C@std@@2HB
CONST	SEGMENT
?digits@?$numeric_limits@C@std@@2HB DD 07H		; std::numeric_limits<signed char>::digits
CONST	ENDS
;	COMDAT ?is_signed@?$numeric_limits@C@std@@2_NB
CONST	SEGMENT
?is_signed@?$numeric_limits@C@std@@2_NB DB 01H		; std::numeric_limits<signed char>::is_signed
CONST	ENDS
;	COMDAT ?g_XMNormalizeA8R8G8B8@DirectX@@3UXMVECTORF32@1@B
CONST	SEGMENT
?g_XMNormalizeA8R8G8B8@DirectX@@3UXMVECTORF32@1@B DD 033808081r ; 5.98384e-008 ; DirectX::g_XMNormalizeA8R8G8B8
	DD	037808081r			; 1.53186e-005
	DD	03b808081r			; 0.00392157
	DD	02f808081r			; 2.33744e-010
CONST	ENDS
;	COMDAT ?g_XMFixAA8R8G8B8@DirectX@@3UXMVECTORF32@1@B
CONST	SEGMENT
?g_XMFixAA8R8G8B8@DirectX@@3UXMVECTORF32@1@B DD 000000000r ; 0 ; DirectX::g_XMFixAA8R8G8B8
	DD	000000000r			; 0
	DD	000000000r			; 0
	DD	04f000000r			; 2.14748e+009
CONST	ENDS
;	COMDAT ?g_XMFlipA8R8G8B8@DirectX@@3UXMVECTORI32@1@B
CONST	SEGMENT
?g_XMFlipA8R8G8B8@DirectX@@3UXMVECTORI32@1@B DD 00H	; DirectX::g_XMFlipA8R8G8B8
	DD	00H
	DD	00H
	DD	080000000H
CONST	ENDS
;	COMDAT ?g_XMMaskA8R8G8B8@DirectX@@3UXMVECTORI32@1@B
CONST	SEGMENT
?g_XMMaskA8R8G8B8@DirectX@@3UXMVECTORI32@1@B DD 0ff0000H ; DirectX::g_XMMaskA8R8G8B8
	DD	0ff00H
	DD	0ffH
	DD	0ff000000H
CONST	ENDS
;	COMDAT ?g_XMNegOneMask@DirectX@@3UXMVECTORI32@1@B
CONST	SEGMENT
?g_XMNegOneMask@DirectX@@3UXMVECTORI32@1@B DD 0ffffffffH ; DirectX::g_XMNegOneMask
	DD	0ffffffffH
	DD	0ffffffffH
	DD	0ffffffffH
CONST	ENDS
;	COMDAT ?g_XMFltMax@DirectX@@3UXMVECTORI32@1@B
CONST	SEGMENT
?g_XMFltMax@DirectX@@3UXMVECTORI32@1@B DD 07f7fffffH	; DirectX::g_XMFltMax
	DD	07f7fffffH
	DD	07f7fffffH
	DD	07f7fffffH
CONST	ENDS
;	COMDAT ?g_XMFltMin@DirectX@@3UXMVECTORI32@1@B
CONST	SEGMENT
?g_XMFltMin@DirectX@@3UXMVECTORI32@1@B DD 0800000H	; DirectX::g_XMFltMin
	DD	0800000H
	DD	0800000H
	DD	0800000H
CONST	ENDS
;	COMDAT ?g_XMAbsMask@DirectX@@3UXMVECTORI32@1@B
CONST	SEGMENT
?g_XMAbsMask@DirectX@@3UXMVECTORI32@1@B DD 07fffffffH	; DirectX::g_XMAbsMask
	DD	07fffffffH
	DD	07fffffffH
	DD	07fffffffH
CONST	ENDS
;	COMDAT ?g_XMQNaNTest@DirectX@@3UXMVECTORI32@1@B
CONST	SEGMENT
?g_XMQNaNTest@DirectX@@3UXMVECTORI32@1@B DD 07fffffH	; DirectX::g_XMQNaNTest
	DD	07fffffH
	DD	07fffffH
	DD	07fffffH
CONST	ENDS
;	COMDAT ?g_XMQNaN@DirectX@@3UXMVECTORI32@1@B
CONST	SEGMENT
?g_XMQNaN@DirectX@@3UXMVECTORI32@1@B DD 07fc00000H	; DirectX::g_XMQNaN
	DD	07fc00000H
	DD	07fc00000H
	DD	07fc00000H
CONST	ENDS
;	COMDAT ?g_XMInfinity@DirectX@@3UXMVECTORI32@1@B
CONST	SEGMENT
?g_XMInfinity@DirectX@@3UXMVECTORI32@1@B DD 07f800000H	; DirectX::g_XMInfinity
	DD	07f800000H
	DD	07f800000H
	DD	07f800000H
CONST	ENDS
;	COMDAT ?g_XMEpsilon@DirectX@@3UXMVECTORF32@1@B
CONST	SEGMENT
?g_XMEpsilon@DirectX@@3UXMVECTORF32@1@B DD 034000000r ; 1.19209e-007 ; DirectX::g_XMEpsilon
	DD	034000000r			; 1.19209e-007
	DD	034000000r			; 1.19209e-007
	DD	034000000r			; 1.19209e-007
CONST	ENDS
;	COMDAT ?digits10@?$numeric_limits@_N@std@@2HB
CONST	SEGMENT
?digits10@?$numeric_limits@_N@std@@2HB DD 00H		; std::numeric_limits<bool>::digits10
CONST	ENDS
;	COMDAT ?digits@?$numeric_limits@_N@std@@2HB
CONST	SEGMENT
?digits@?$numeric_limits@_N@std@@2HB DD 01H		; std::numeric_limits<bool>::digits
CONST	ENDS
;	COMDAT ?is_signed@?$numeric_limits@_N@std@@2_NB
CONST	SEGMENT
?is_signed@?$numeric_limits@_N@std@@2_NB DB 00H		; std::numeric_limits<bool>::is_signed
CONST	ENDS
;	COMDAT ?is_modulo@?$numeric_limits@_N@std@@2_NB
CONST	SEGMENT
?is_modulo@?$numeric_limits@_N@std@@2_NB DB 00H		; std::numeric_limits<bool>::is_modulo
CONST	ENDS
;	COMDAT ?g_XMNegativeOneHalf@DirectX@@3UXMVECTORF32@1@B
CONST	SEGMENT
?g_XMNegativeOneHalf@DirectX@@3UXMVECTORF32@1@B DD 0bf000000r ; -0.5 ; DirectX::g_XMNegativeOneHalf
	DD	0bf000000r			; -0.5
	DD	0bf000000r			; -0.5
	DD	0bf000000r			; -0.5
CONST	ENDS
;	COMDAT ?g_XMOneHalf@DirectX@@3UXMVECTORF32@1@B
CONST	SEGMENT
?g_XMOneHalf@DirectX@@3UXMVECTORF32@1@B DD 03f000000r ; 0.5 ; DirectX::g_XMOneHalf
	DD	03f000000r			; 0.5
	DD	03f000000r			; 0.5
	DD	03f000000r			; 0.5
CONST	ENDS
;	COMDAT ?g_XMNegativeOne@DirectX@@3UXMVECTORF32@1@B
CONST	SEGMENT
?g_XMNegativeOne@DirectX@@3UXMVECTORF32@1@B DD 0bf800000r ; -1 ; DirectX::g_XMNegativeOne
	DD	0bf800000r			; -1
	DD	0bf800000r			; -1
	DD	0bf800000r			; -1
CONST	ENDS
;	COMDAT ?g_XMSix@DirectX@@3UXMVECTORF32@1@B
CONST	SEGMENT
?g_XMSix@DirectX@@3UXMVECTORF32@1@B DD 040c00000r ; 6	; DirectX::g_XMSix
	DD	040c00000r			; 6
	DD	040c00000r			; 6
	DD	040c00000r			; 6
CONST	ENDS
;	COMDAT ?g_XMFour@DirectX@@3UXMVECTORF32@1@B
CONST	SEGMENT
?g_XMFour@DirectX@@3UXMVECTORF32@1@B DD 040800000r ; 4	; DirectX::g_XMFour
	DD	040800000r			; 4
	DD	040800000r			; 4
	DD	040800000r			; 4
CONST	ENDS
;	COMDAT ?g_XMTwo@DirectX@@3UXMVECTORF32@1@B
CONST	SEGMENT
?g_XMTwo@DirectX@@3UXMVECTORF32@1@B DD 040000000r ; 2	; DirectX::g_XMTwo
	DD	040000000r			; 2
	DD	040000000r			; 2
	DD	040000000r			; 2
CONST	ENDS
;	COMDAT ?g_XMZero@DirectX@@3UXMVECTORF32@1@B
CONST	SEGMENT
?g_XMZero@DirectX@@3UXMVECTORF32@1@B DD 000000000r ; 0	; DirectX::g_XMZero
	DD	000000000r			; 0
	DD	000000000r			; 0
	DD	000000000r			; 0
CONST	ENDS
;	COMDAT ?g_XMOne3@DirectX@@3UXMVECTORF32@1@B
CONST	SEGMENT
?g_XMOne3@DirectX@@3UXMVECTORF32@1@B DD 03f800000r ; 1	; DirectX::g_XMOne3
	DD	03f800000r			; 1
	DD	03f800000r			; 1
	DD	000000000r			; 0
CONST	ENDS
;	COMDAT ?g_XMOne@DirectX@@3UXMVECTORF32@1@B
CONST	SEGMENT
?g_XMOne@DirectX@@3UXMVECTORF32@1@B DD 03f800000r ; 1	; DirectX::g_XMOne
	DD	03f800000r			; 1
	DD	03f800000r			; 1
	DD	03f800000r			; 1
CONST	ENDS
;	COMDAT ?g_XMMaskW@DirectX@@3UXMVECTORI32@1@B
CONST	SEGMENT
?g_XMMaskW@DirectX@@3UXMVECTORI32@1@B DD 00H		; DirectX::g_XMMaskW
	DD	00H
	DD	00H
	DD	0ffffffffH
CONST	ENDS
;	COMDAT ?g_XMMaskZ@DirectX@@3UXMVECTORI32@1@B
CONST	SEGMENT
?g_XMMaskZ@DirectX@@3UXMVECTORI32@1@B DD 00H		; DirectX::g_XMMaskZ
	DD	00H
	DD	0ffffffffH
	DD	00H
CONST	ENDS
;	COMDAT ?g_XMMaskY@DirectX@@3UXMVECTORI32@1@B
CONST	SEGMENT
?g_XMMaskY@DirectX@@3UXMVECTORI32@1@B DD 00H		; DirectX::g_XMMaskY
	DD	0ffffffffH
	DD	00H
	DD	00H
CONST	ENDS
;	COMDAT ?g_XMMaskX@DirectX@@3UXMVECTORI32@1@B
CONST	SEGMENT
?g_XMMaskX@DirectX@@3UXMVECTORI32@1@B DD 0ffffffffH	; DirectX::g_XMMaskX
	DD	00H
	DD	00H
	DD	00H
CONST	ENDS
;	COMDAT ?g_XMMask3@DirectX@@3UXMVECTORI32@1@B
CONST	SEGMENT
?g_XMMask3@DirectX@@3UXMVECTORI32@1@B DD 0ffffffffH	; DirectX::g_XMMask3
	DD	0ffffffffH
	DD	0ffffffffH
	DD	00H
CONST	ENDS
;	COMDAT ?g_XMNegate3@DirectX@@3UXMVECTORI32@1@B
CONST	SEGMENT
?g_XMNegate3@DirectX@@3UXMVECTORI32@1@B DD 080000000H	; DirectX::g_XMNegate3
	DD	080000000H
	DD	080000000H
	DD	00H
CONST	ENDS
;	COMDAT ?g_XMNegativeZero@DirectX@@3UXMVECTORI32@1@B
CONST	SEGMENT
?g_XMNegativeZero@DirectX@@3UXMVECTORI32@1@B DD 080000000H ; DirectX::g_XMNegativeZero
	DD	080000000H
	DD	080000000H
	DD	080000000H
CONST	ENDS
;	COMDAT ?g_XMNegIdentityR3@DirectX@@3UXMVECTORF32@1@B
CONST	SEGMENT
?g_XMNegIdentityR3@DirectX@@3UXMVECTORF32@1@B DD 000000000r ; 0 ; DirectX::g_XMNegIdentityR3
	DD	000000000r			; 0
	DD	000000000r			; 0
	DD	0bf800000r			; -1
CONST	ENDS
;	COMDAT ?g_XMNegIdentityR2@DirectX@@3UXMVECTORF32@1@B
CONST	SEGMENT
?g_XMNegIdentityR2@DirectX@@3UXMVECTORF32@1@B DD 000000000r ; 0 ; DirectX::g_XMNegIdentityR2
	DD	000000000r			; 0
	DD	0bf800000r			; -1
	DD	000000000r			; 0
CONST	ENDS
;	COMDAT ?g_XMNegIdentityR1@DirectX@@3UXMVECTORF32@1@B
CONST	SEGMENT
?g_XMNegIdentityR1@DirectX@@3UXMVECTORF32@1@B DD 000000000r ; 0 ; DirectX::g_XMNegIdentityR1
	DD	0bf800000r			; -1
	DD	000000000r			; 0
	DD	000000000r			; 0
CONST	ENDS
;	COMDAT ?g_XMNegIdentityR0@DirectX@@3UXMVECTORF32@1@B
CONST	SEGMENT
?g_XMNegIdentityR0@DirectX@@3UXMVECTORF32@1@B DD 0bf800000r ; -1 ; DirectX::g_XMNegIdentityR0
	DD	000000000r			; 0
	DD	000000000r			; 0
	DD	000000000r			; 0
CONST	ENDS
;	COMDAT ?g_XMIdentityR3@DirectX@@3UXMVECTORF32@1@B
CONST	SEGMENT
?g_XMIdentityR3@DirectX@@3UXMVECTORF32@1@B DD 000000000r ; 0 ; DirectX::g_XMIdentityR3
	DD	000000000r			; 0
	DD	000000000r			; 0
	DD	03f800000r			; 1
CONST	ENDS
;	COMDAT ?g_XMIdentityR2@DirectX@@3UXMVECTORF32@1@B
CONST	SEGMENT
?g_XMIdentityR2@DirectX@@3UXMVECTORF32@1@B DD 000000000r ; 0 ; DirectX::g_XMIdentityR2
	DD	000000000r			; 0
	DD	03f800000r			; 1
	DD	000000000r			; 0
CONST	ENDS
;	COMDAT ?g_XMIdentityR1@DirectX@@3UXMVECTORF32@1@B
CONST	SEGMENT
?g_XMIdentityR1@DirectX@@3UXMVECTORF32@1@B DD 000000000r ; 0 ; DirectX::g_XMIdentityR1
	DD	03f800000r			; 1
	DD	000000000r			; 0
	DD	000000000r			; 0
CONST	ENDS
;	COMDAT ?g_XMIdentityR0@DirectX@@3UXMVECTORF32@1@B
CONST	SEGMENT
?g_XMIdentityR0@DirectX@@3UXMVECTORF32@1@B DD 03f800000r ; 1 ; DirectX::g_XMIdentityR0
	DD	000000000r			; 0
	DD	000000000r			; 0
	DD	000000000r			; 0
CONST	ENDS
;	COMDAT ?g_XMArcEstCoefficients@DirectX@@3UXMVECTORF32@1@B
CONST	SEGMENT
?g_XMArcEstCoefficients@DirectX@@3UXMVECTORF32@1@B DD 03fc90da4r ; 1.57073 ; DirectX::g_XMArcEstCoefficients
	DD	0be593484r			; -0.212114
	DD	03d981627r			; 0.074261
	DD	0bc996e30r			; -0.0187293
CONST	ENDS
;	COMDAT ?digits10@?$numeric_limits@_W@std@@2HB
CONST	SEGMENT
?digits10@?$numeric_limits@_W@std@@2HB DD 04H		; std::numeric_limits<wchar_t>::digits10
CONST	ENDS
;	COMDAT ?g_XMATanEstCoefficients1@DirectX@@3UXMVECTORF32@1@B
CONST	SEGMENT
?g_XMATanEstCoefficients1@DirectX@@3UXMVECTORF32@1@B DD 0bea91d04r ; -0.330299 ; DirectX::g_XMATanEstCoefficients1
	DD	03e3876e2r			; 0.180141
	DD	0bdae5a36r			; -0.085133
	DD	03caaae5fr			; 0.0208351
CONST	ENDS
;	COMDAT ?digits@?$numeric_limits@_W@std@@2HB
CONST	SEGMENT
?digits@?$numeric_limits@_W@std@@2HB DD 010H		; std::numeric_limits<wchar_t>::digits
CONST	ENDS
;	COMDAT ?g_XMATanEstCoefficients0@DirectX@@3UXMVECTORF32@1@B
CONST	SEGMENT
?g_XMATanEstCoefficients0@DirectX@@3UXMVECTORF32@1@B DD 03f7ff738r ; 0.999866 ; DirectX::g_XMATanEstCoefficients0
	DD	03f7ff738r			; 0.999866
	DD	03f7ff738r			; 0.999866
	DD	03f7ff738r			; 0.999866
CONST	ENDS
;	COMDAT ?g_XMATanCoefficients1@DirectX@@3UXMVECTORF32@1@B
CONST	SEGMENT
?g_XMATanCoefficients1@DirectX@@3UXMVECTORF32@1@B DD 0bd9a3174r ; -0.0752896 ; DirectX::g_XMATanCoefficients1
	DD	03d2fc1fer			; 0.0429096
	DD	0bc846e02r			; -0.0161657
	DD	03b3bd74ar			; 0.00286623
CONST	ENDS
;	COMDAT ?g_XMATanCoefficients0@DirectX@@3UXMVECTORF32@1@B
CONST	SEGMENT
?g_XMATanCoefficients0@DirectX@@3UXMVECTORF32@1@B DD 0beaaaa6cr ; -0.333331 ; DirectX::g_XMATanCoefficients0
	DD	03e4cbbe5r			; 0.199936
	DD	0be117fc7r			; -0.142089
	DD	03dda3d83r			; 0.106563
CONST	ENDS
;	COMDAT ?g_XMArcCoefficients1@DirectX@@3UXMVECTORF32@1@B
CONST	SEGMENT
?g_XMArcCoefficients1@DirectX@@3UXMVECTORF32@1@B DD 03cfd10f8r ; 0.0308919 ; DirectX::g_XMArcCoefficients1
	DD	0bc8bfc66r			; -0.0170881
	DD	03bda90c5r			; 0.00667009
	DD	0baa57a2cr			; -0.00126249
CONST	ENDS
;	COMDAT ?is_signed@?$numeric_limits@_W@std@@2_NB
CONST	SEGMENT
?is_signed@?$numeric_limits@_W@std@@2_NB DB 00H		; std::numeric_limits<wchar_t>::is_signed
CONST	ENDS
;	COMDAT ?g_XMArcCoefficients0@DirectX@@3UXMVECTORF32@1@B
CONST	SEGMENT
?g_XMArcCoefficients0@DirectX@@3UXMVECTORF32@1@B DD 03fc90fdar ; 1.5708 ; DirectX::g_XMArcCoefficients0
	DD	0be5bbfcar			; -0.214599
	DD	03db63a9er			; 0.088979
	DD	0bd4d8392r			; -0.0501743
CONST	ENDS
;	COMDAT ?g_XMTanCoefficients2@DirectX@@3UXMVECTORF32@1@B
CONST	SEGMENT
?g_XMTanCoefficients2@DirectX@@3UXMVECTORF32@1@B DD 03a1aac12r ; 0.000590027 ; DirectX::g_XMTanCoefficients2
	DD	0397abeb9r			; 0.000239129
	DD	038cb3f0cr			; 9.69154e-005
	DD	03824bec9r			; 3.92783e-005
CONST	ENDS
;	COMDAT ?g_XMTanCoefficients1@DirectX@@3UXMVECTORF32@1@B
CONST	SEGMENT
?g_XMTanCoefficients1@DirectX@@3UXMVECTORF32@1@B DD 03cb327a4r ; 0.0218695 ; DirectX::g_XMTanCoefficients1
	DD	03c11371br			; 0.00886324
	DD	03b6b69e9r			; 0.00359213
	DD	03abed1b3r			; 0.00145583
CONST	ENDS
;	COMDAT ?g_XMTanCoefficients0@DirectX@@3UXMVECTORF32@1@B
CONST	SEGMENT
?g_XMTanCoefficients0@DirectX@@3UXMVECTORF32@1@B DD 03f800000r ; 1 ; DirectX::g_XMTanCoefficients0
	DD	03eaaaaabr			; 0.333333
	DD	03e088889r			; 0.133333
	DD	03d5d0dd1r			; 0.0539683
CONST	ENDS
;	COMDAT ?g_XMCosCoefficients1@DirectX@@3UXMVECTORF32@1@B
CONST	SEGMENT
?g_XMCosCoefficients1@DirectX@@3UXMVECTORF32@1@B DD 0b48bdd11r ; -2.60516e-007 ; DirectX::g_XMCosCoefficients1
	DD	0befff67er			; -0.499927
	DD	03d29f587r			; 0.0414939
	DD	0baa69fdbr			; -0.00127124
CONST	ENDS
;	COMDAT ?g_XMCosCoefficients0@DirectX@@3UXMVECTORF32@1@B
CONST	SEGMENT
?g_XMCosCoefficients0@DirectX@@3UXMVECTORF32@1@B DD 0bf000000r ; -0.5 ; DirectX::g_XMCosCoefficients0
	DD	03d2aaaa3r			; 0.0416666
	DD	0bab609aar			; -0.00138884
	DD	037cfb4c2r			; 2.47605e-005
CONST	ENDS
;	COMDAT ?g_XMSinCoefficients1@DirectX@@3UXMVECTORF32@1@B
CONST	SEGMENT
?g_XMSinCoefficients1@DirectX@@3UXMVECTORF32@1@B DD 0b2cd365br ; -2.38899e-008 ; DirectX::g_XMSinCoefficients1
	DD	0be2aa888r			; -0.166659
	DD	03c08373cr			; 0.00831395
	DD	0b9423ec8r			; -0.000185247
CONST	ENDS
;	COMDAT ?g_XMSinCoefficients0@DirectX@@3UXMVECTORF32@1@B
CONST	SEGMENT
?g_XMSinCoefficients0@DirectX@@3UXMVECTORF32@1@B DD 0be2aaaabr ; -0.166667 ; DirectX::g_XMSinCoefficients0
	DD	03c088886r			; 0.00833333
	DD	0b9500bf1r			; -0.000198409
	DD	03638b88er			; 2.75256e-006
CONST	ENDS
;	COMDAT ?digits10@?$numeric_limits@D@std@@2HB
CONST	SEGMENT
?digits10@?$numeric_limits@D@std@@2HB DD 02H		; std::numeric_limits<char>::digits10
CONST	ENDS
;	COMDAT ?digits@?$numeric_limits@D@std@@2HB
CONST	SEGMENT
?digits@?$numeric_limits@D@std@@2HB DD 07H		; std::numeric_limits<char>::digits
CONST	ENDS
;	COMDAT ?is_signed@?$numeric_limits@D@std@@2_NB
CONST	SEGMENT
?is_signed@?$numeric_limits@D@std@@2_NB DB 01H		; std::numeric_limits<char>::is_signed
CONST	ENDS
;	COMDAT ?radix@_Num_float_base@std@@2HB
CONST	SEGMENT
?radix@_Num_float_base@std@@2HB DD 02H			; std::_Num_float_base::radix
CONST	ENDS
;	COMDAT ?round_style@_Num_float_base@std@@2W4float_round_style@2@B
CONST	SEGMENT
?round_style@_Num_float_base@std@@2W4float_round_style@2@B DD 01H ; std::_Num_float_base::round_style
CONST	ENDS
;	COMDAT ?traps@_Num_float_base@std@@2_NB
CONST	SEGMENT
?traps@_Num_float_base@std@@2_NB DB 00H			; std::_Num_float_base::traps
CONST	ENDS
;	COMDAT ?tinyness_before@_Num_float_base@std@@2_NB
CONST	SEGMENT
?tinyness_before@_Num_float_base@std@@2_NB DB 01H	; std::_Num_float_base::tinyness_before
CONST	ENDS
;	COMDAT ?is_specialized@_Num_float_base@std@@2_NB
CONST	SEGMENT
?is_specialized@_Num_float_base@std@@2_NB DB 01H	; std::_Num_float_base::is_specialized
CONST	ENDS
;	COMDAT ?is_signed@_Num_float_base@std@@2_NB
CONST	SEGMENT
?is_signed@_Num_float_base@std@@2_NB DB 01H		; std::_Num_float_base::is_signed
CONST	ENDS
;	COMDAT ?is_modulo@_Num_float_base@std@@2_NB
CONST	SEGMENT
?is_modulo@_Num_float_base@std@@2_NB DB 00H		; std::_Num_float_base::is_modulo
CONST	ENDS
;	COMDAT ?is_integer@_Num_float_base@std@@2_NB
CONST	SEGMENT
?is_integer@_Num_float_base@std@@2_NB DB 00H		; std::_Num_float_base::is_integer
CONST	ENDS
;	COMDAT ?is_iec559@_Num_float_base@std@@2_NB
CONST	SEGMENT
?is_iec559@_Num_float_base@std@@2_NB DB 01H		; std::_Num_float_base::is_iec559
CONST	ENDS
;	COMDAT ?is_exact@_Num_float_base@std@@2_NB
CONST	SEGMENT
?is_exact@_Num_float_base@std@@2_NB DB 00H		; std::_Num_float_base::is_exact
CONST	ENDS
;	COMDAT ?is_bounded@_Num_float_base@std@@2_NB
CONST	SEGMENT
?is_bounded@_Num_float_base@std@@2_NB DB 01H		; std::_Num_float_base::is_bounded
CONST	ENDS
;	COMDAT ?has_signaling_NaN@_Num_float_base@std@@2_NB
CONST	SEGMENT
?has_signaling_NaN@_Num_float_base@std@@2_NB DB 01H	; std::_Num_float_base::has_signaling_NaN
CONST	ENDS
;	COMDAT ?has_quiet_NaN@_Num_float_base@std@@2_NB
CONST	SEGMENT
?has_quiet_NaN@_Num_float_base@std@@2_NB DB 01H		; std::_Num_float_base::has_quiet_NaN
CONST	ENDS
;	COMDAT ?has_infinity@_Num_float_base@std@@2_NB
CONST	SEGMENT
?has_infinity@_Num_float_base@std@@2_NB DB 01H		; std::_Num_float_base::has_infinity
CONST	ENDS
;	COMDAT ?has_denorm_loss@_Num_float_base@std@@2_NB
CONST	SEGMENT
?has_denorm_loss@_Num_float_base@std@@2_NB DB 01H	; std::_Num_float_base::has_denorm_loss
CONST	ENDS
;	COMDAT ?has_denorm@_Num_float_base@std@@2W4float_denorm_style@2@B
CONST	SEGMENT
?has_denorm@_Num_float_base@std@@2W4float_denorm_style@2@B DD 01H ; std::_Num_float_base::has_denorm
CONST	ENDS
;	COMDAT ?radix@_Num_int_base@std@@2HB
CONST	SEGMENT
?radix@_Num_int_base@std@@2HB DD 02H			; std::_Num_int_base::radix
CONST	ENDS
;	COMDAT ?is_specialized@_Num_int_base@std@@2_NB
CONST	SEGMENT
?is_specialized@_Num_int_base@std@@2_NB DB 01H		; std::_Num_int_base::is_specialized
CONST	ENDS
;	COMDAT ?is_modulo@_Num_int_base@std@@2_NB
CONST	SEGMENT
?is_modulo@_Num_int_base@std@@2_NB DB 01H		; std::_Num_int_base::is_modulo
CONST	ENDS
;	COMDAT ?is_integer@_Num_int_base@std@@2_NB
CONST	SEGMENT
?is_integer@_Num_int_base@std@@2_NB DB 01H		; std::_Num_int_base::is_integer
CONST	ENDS
;	COMDAT ?is_exact@_Num_int_base@std@@2_NB
CONST	SEGMENT
?is_exact@_Num_int_base@std@@2_NB DB 01H		; std::_Num_int_base::is_exact
CONST	ENDS
;	COMDAT ?is_bounded@_Num_int_base@std@@2_NB
CONST	SEGMENT
?is_bounded@_Num_int_base@std@@2_NB DB 01H		; std::_Num_int_base::is_bounded
CONST	ENDS
;	COMDAT ?radix@_Num_base@std@@2HB
CONST	SEGMENT
?radix@_Num_base@std@@2HB DD 00H			; std::_Num_base::radix
CONST	ENDS
;	COMDAT ?min_exponent10@_Num_base@std@@2HB
CONST	SEGMENT
?min_exponent10@_Num_base@std@@2HB DD 00H		; std::_Num_base::min_exponent10
CONST	ENDS
;	COMDAT ?min_exponent@_Num_base@std@@2HB
CONST	SEGMENT
?min_exponent@_Num_base@std@@2HB DD 00H			; std::_Num_base::min_exponent
CONST	ENDS
;	COMDAT ?max_exponent10@_Num_base@std@@2HB
CONST	SEGMENT
?max_exponent10@_Num_base@std@@2HB DD 00H		; std::_Num_base::max_exponent10
CONST	ENDS
;	COMDAT ?max_exponent@_Num_base@std@@2HB
CONST	SEGMENT
?max_exponent@_Num_base@std@@2HB DD 00H			; std::_Num_base::max_exponent
CONST	ENDS
;	COMDAT ?max_digits10@_Num_base@std@@2HB
CONST	SEGMENT
?max_digits10@_Num_base@std@@2HB DD 00H			; std::_Num_base::max_digits10
CONST	ENDS
;	COMDAT ?digits10@_Num_base@std@@2HB
CONST	SEGMENT
?digits10@_Num_base@std@@2HB DD 00H			; std::_Num_base::digits10
CONST	ENDS
;	COMDAT ?digits@_Num_base@std@@2HB
CONST	SEGMENT
?digits@_Num_base@std@@2HB DD 00H			; std::_Num_base::digits
CONST	ENDS
;	COMDAT ?round_style@_Num_base@std@@2W4float_round_style@2@B
CONST	SEGMENT
?round_style@_Num_base@std@@2W4float_round_style@2@B DD 00H ; std::_Num_base::round_style
CONST	ENDS
;	COMDAT ?traps@_Num_base@std@@2_NB
CONST	SEGMENT
?traps@_Num_base@std@@2_NB DB 00H			; std::_Num_base::traps
CONST	ENDS
;	COMDAT ?tinyness_before@_Num_base@std@@2_NB
CONST	SEGMENT
?tinyness_before@_Num_base@std@@2_NB DB 00H		; std::_Num_base::tinyness_before
CONST	ENDS
;	COMDAT ?is_specialized@_Num_base@std@@2_NB
CONST	SEGMENT
?is_specialized@_Num_base@std@@2_NB DB 00H		; std::_Num_base::is_specialized
CONST	ENDS
;	COMDAT ?is_signed@_Num_base@std@@2_NB
CONST	SEGMENT
?is_signed@_Num_base@std@@2_NB DB 00H			; std::_Num_base::is_signed
CONST	ENDS
;	COMDAT ?is_modulo@_Num_base@std@@2_NB
CONST	SEGMENT
?is_modulo@_Num_base@std@@2_NB DB 00H			; std::_Num_base::is_modulo
CONST	ENDS
;	COMDAT ?is_integer@_Num_base@std@@2_NB
CONST	SEGMENT
?is_integer@_Num_base@std@@2_NB DB 00H			; std::_Num_base::is_integer
CONST	ENDS
;	COMDAT ?is_iec559@_Num_base@std@@2_NB
CONST	SEGMENT
?is_iec559@_Num_base@std@@2_NB DB 00H			; std::_Num_base::is_iec559
CONST	ENDS
;	COMDAT ?is_exact@_Num_base@std@@2_NB
CONST	SEGMENT
?is_exact@_Num_base@std@@2_NB DB 00H			; std::_Num_base::is_exact
CONST	ENDS
;	COMDAT ?is_bounded@_Num_base@std@@2_NB
CONST	SEGMENT
?is_bounded@_Num_base@std@@2_NB DB 00H			; std::_Num_base::is_bounded
CONST	ENDS
;	COMDAT ?has_signaling_NaN@_Num_base@std@@2_NB
CONST	SEGMENT
?has_signaling_NaN@_Num_base@std@@2_NB DB 00H		; std::_Num_base::has_signaling_NaN
CONST	ENDS
;	COMDAT ?has_quiet_NaN@_Num_base@std@@2_NB
CONST	SEGMENT
?has_quiet_NaN@_Num_base@std@@2_NB DB 00H		; std::_Num_base::has_quiet_NaN
CONST	ENDS
;	COMDAT ?has_infinity@_Num_base@std@@2_NB
CONST	SEGMENT
?has_infinity@_Num_base@std@@2_NB DB 00H		; std::_Num_base::has_infinity
CONST	ENDS
;	COMDAT ?has_denorm_loss@_Num_base@std@@2_NB
CONST	SEGMENT
?has_denorm_loss@_Num_base@std@@2_NB DB 00H		; std::_Num_base::has_denorm_loss
CONST	ENDS
;	COMDAT ?has_denorm@_Num_base@std@@2W4float_denorm_style@2@B
CONST	SEGMENT
?has_denorm@_Num_base@std@@2W4float_denorm_style@2@B DD 00H ; std::_Num_base::has_denorm
CONST	ENDS
;	COMDAT ?table_size@?$ctype@D@std@@2IB
CONST	SEGMENT
?table_size@?$ctype@D@std@@2IB DD 0100H			; std::ctype<char>::table_size
CONST	ENDS
CONST	SEGMENT
_XM_PI	DD	040490fdbr			; 3.14159
_XM_2PI	DD	040c90fdbr			; 6.28319
_XM_1DIVPI DD	03ea2f983r			; 0.31831
_XM_1DIV2PI DD	03e22f983r			; 0.159155
_XM_PIDIV2 DD	03fc90fdbr			; 1.5708
_XM_PIDIV4 DD	03f490fdbr			; 0.785398
CONST	ENDS
;	COMDAT ?min_exponent10@?$numeric_limits@O@std@@2HB
CONST	SEGMENT
?min_exponent10@?$numeric_limits@O@std@@2HB DD 0fffffecdH ; std::numeric_limits<long double>::min_exponent10
CONST	ENDS
;	COMDAT ?min_exponent@?$numeric_limits@O@std@@2HB
CONST	SEGMENT
?min_exponent@?$numeric_limits@O@std@@2HB DD 0fffffc03H	; std::numeric_limits<long double>::min_exponent
CONST	ENDS
;	COMDAT ?max_exponent10@?$numeric_limits@O@std@@2HB
CONST	SEGMENT
?max_exponent10@?$numeric_limits@O@std@@2HB DD 0134H	; std::numeric_limits<long double>::max_exponent10
CONST	ENDS
;	COMDAT ?max_exponent@?$numeric_limits@O@std@@2HB
CONST	SEGMENT
?max_exponent@?$numeric_limits@O@std@@2HB DD 0400H	; std::numeric_limits<long double>::max_exponent
CONST	ENDS
;	COMDAT ?max_digits10@?$numeric_limits@O@std@@2HB
CONST	SEGMENT
?max_digits10@?$numeric_limits@O@std@@2HB DD 011H	; std::numeric_limits<long double>::max_digits10
CONST	ENDS
;	COMDAT ?digits10@?$numeric_limits@O@std@@2HB
CONST	SEGMENT
?digits10@?$numeric_limits@O@std@@2HB DD 0fH		; std::numeric_limits<long double>::digits10
CONST	ENDS
;	COMDAT ?digits@?$numeric_limits@O@std@@2HB
CONST	SEGMENT
?digits@?$numeric_limits@O@std@@2HB DD 035H		; std::numeric_limits<long double>::digits
CONST	ENDS
;	COMDAT ?min_exponent10@?$numeric_limits@N@std@@2HB
CONST	SEGMENT
?min_exponent10@?$numeric_limits@N@std@@2HB DD 0fffffecdH ; std::numeric_limits<double>::min_exponent10
CONST	ENDS
;	COMDAT ?min_exponent@?$numeric_limits@N@std@@2HB
CONST	SEGMENT
?min_exponent@?$numeric_limits@N@std@@2HB DD 0fffffc03H	; std::numeric_limits<double>::min_exponent
CONST	ENDS
;	COMDAT ?max_exponent10@?$numeric_limits@N@std@@2HB
CONST	SEGMENT
?max_exponent10@?$numeric_limits@N@std@@2HB DD 0134H	; std::numeric_limits<double>::max_exponent10
CONST	ENDS
;	COMDAT ?max_exponent@?$numeric_limits@N@std@@2HB
CONST	SEGMENT
?max_exponent@?$numeric_limits@N@std@@2HB DD 0400H	; std::numeric_limits<double>::max_exponent
CONST	ENDS
;	COMDAT ?value@?$integral_constant@I$0A@@std@@2IB
CONST	SEGMENT
?value@?$integral_constant@I$0A@@std@@2IB DD 00H	; std::integral_constant<unsigned int,0>::value
CONST	ENDS
;	COMDAT ?max_digits10@?$numeric_limits@N@std@@2HB
CONST	SEGMENT
?max_digits10@?$numeric_limits@N@std@@2HB DD 011H	; std::numeric_limits<double>::max_digits10
CONST	ENDS
;	COMDAT ?digits10@?$numeric_limits@N@std@@2HB
CONST	SEGMENT
?digits10@?$numeric_limits@N@std@@2HB DD 0fH		; std::numeric_limits<double>::digits10
CONST	ENDS
;	COMDAT ?digits@?$numeric_limits@N@std@@2HB
CONST	SEGMENT
?digits@?$numeric_limits@N@std@@2HB DD 035H		; std::numeric_limits<double>::digits
CONST	ENDS
;	COMDAT ?none@?$_Locbase@H@std@@2HB
CONST	SEGMENT
?none@?$_Locbase@H@std@@2HB DD 00H			; std::_Locbase<int>::none
CONST	ENDS
;	COMDAT ?all@?$_Locbase@H@std@@2HB
CONST	SEGMENT
?all@?$_Locbase@H@std@@2HB DD 03fH			; std::_Locbase<int>::all
CONST	ENDS
;	COMDAT ?messages@?$_Locbase@H@std@@2HB
CONST	SEGMENT
?messages@?$_Locbase@H@std@@2HB DD 020H			; std::_Locbase<int>::messages
CONST	ENDS
;	COMDAT ?time@?$_Locbase@H@std@@2HB
CONST	SEGMENT
?time@?$_Locbase@H@std@@2HB DD 010H			; std::_Locbase<int>::time
CONST	ENDS
;	COMDAT ?numeric@?$_Locbase@H@std@@2HB
CONST	SEGMENT
?numeric@?$_Locbase@H@std@@2HB DD 08H			; std::_Locbase<int>::numeric
CONST	ENDS
;	COMDAT ?value@?$_Maximum@$S@std@@2IB
CONST	SEGMENT
?value@?$_Maximum@$S@std@@2IB DD 00H			; std::_Maximum<>::value
CONST	ENDS
;	COMDAT ?monetary@?$_Locbase@H@std@@2HB
CONST	SEGMENT
?monetary@?$_Locbase@H@std@@2HB DD 04H			; std::_Locbase<int>::monetary
CONST	ENDS
;	COMDAT ?min_exponent10@?$numeric_limits@M@std@@2HB
CONST	SEGMENT
?min_exponent10@?$numeric_limits@M@std@@2HB DD 0ffffffdbH ; std::numeric_limits<float>::min_exponent10
CONST	ENDS
;	COMDAT ?ctype@?$_Locbase@H@std@@2HB
CONST	SEGMENT
?ctype@?$_Locbase@H@std@@2HB DD 02H			; std::_Locbase<int>::ctype
CONST	ENDS
;	COMDAT ?collate@?$_Locbase@H@std@@2HB
CONST	SEGMENT
?collate@?$_Locbase@H@std@@2HB DD 01H			; std::_Locbase<int>::collate
CONST	ENDS
;	COMDAT ?min_exponent@?$numeric_limits@M@std@@2HB
CONST	SEGMENT
?min_exponent@?$numeric_limits@M@std@@2HB DD 0ffffff83H	; std::numeric_limits<float>::min_exponent
CONST	ENDS
;	COMDAT ?max_exponent10@?$numeric_limits@M@std@@2HB
CONST	SEGMENT
?max_exponent10@?$numeric_limits@M@std@@2HB DD 026H	; std::numeric_limits<float>::max_exponent10
CONST	ENDS
;	COMDAT ?max_exponent@?$numeric_limits@M@std@@2HB
CONST	SEGMENT
?max_exponent@?$numeric_limits@M@std@@2HB DD 080H	; std::numeric_limits<float>::max_exponent
CONST	ENDS
;	COMDAT ?max_digits10@?$numeric_limits@M@std@@2HB
CONST	SEGMENT
?max_digits10@?$numeric_limits@M@std@@2HB DD 09H	; std::numeric_limits<float>::max_digits10
CONST	ENDS
;	COMDAT ?digits10@?$numeric_limits@M@std@@2HB
CONST	SEGMENT
?digits10@?$numeric_limits@M@std@@2HB DD 06H		; std::numeric_limits<float>::digits10
CONST	ENDS
;	COMDAT ?value@?$integral_constant@I$00@std@@2IB
CONST	SEGMENT
?value@?$integral_constant@I$00@std@@2IB DD 01H		; std::integral_constant<unsigned int,1>::value
CONST	ENDS
;	COMDAT ?digits@?$numeric_limits@M@std@@2HB
CONST	SEGMENT
?digits@?$numeric_limits@M@std@@2HB DD 018H		; std::numeric_limits<float>::digits
CONST	ENDS
;	COMDAT ?end@?$_Iosb@H@std@@2W4_Seekdir@12@B
CONST	SEGMENT
?end@?$_Iosb@H@std@@2W4_Seekdir@12@B DD 02H		; std::_Iosb<int>::end
CONST	ENDS
;	COMDAT ?cur@?$_Iosb@H@std@@2W4_Seekdir@12@B
CONST	SEGMENT
?cur@?$_Iosb@H@std@@2W4_Seekdir@12@B DD 01H		; std::_Iosb<int>::cur
CONST	ENDS
;	COMDAT ?beg@?$_Iosb@H@std@@2W4_Seekdir@12@B
CONST	SEGMENT
?beg@?$_Iosb@H@std@@2W4_Seekdir@12@B DD 00H		; std::_Iosb<int>::beg
CONST	ENDS
;	COMDAT ?binary@?$_Iosb@H@std@@2W4_Openmode@12@B
CONST	SEGMENT
?binary@?$_Iosb@H@std@@2W4_Openmode@12@B DD 020H	; std::_Iosb<int>::binary
CONST	ENDS
;	COMDAT ?digits10@?$numeric_limits@_K@std@@2HB
CONST	SEGMENT
?digits10@?$numeric_limits@_K@std@@2HB DD 013H		; std::numeric_limits<unsigned __int64>::digits10
CONST	ENDS
;	COMDAT ?_Noreplace@?$_Iosb@H@std@@2W4_Openmode@12@B
CONST	SEGMENT
?_Noreplace@?$_Iosb@H@std@@2W4_Openmode@12@B DD 080H	; std::_Iosb<int>::_Noreplace
CONST	ENDS
;	COMDAT ?_Nocreate@?$_Iosb@H@std@@2W4_Openmode@12@B
CONST	SEGMENT
?_Nocreate@?$_Iosb@H@std@@2W4_Openmode@12@B DD 040H	; std::_Iosb<int>::_Nocreate
CONST	ENDS
;	COMDAT ?digits@?$numeric_limits@_K@std@@2HB
CONST	SEGMENT
?digits@?$numeric_limits@_K@std@@2HB DD 040H		; std::numeric_limits<unsigned __int64>::digits
CONST	ENDS
;	COMDAT ?trunc@?$_Iosb@H@std@@2W4_Openmode@12@B
CONST	SEGMENT
?trunc@?$_Iosb@H@std@@2W4_Openmode@12@B DD 010H		; std::_Iosb<int>::trunc
CONST	ENDS
;	COMDAT ?is_signed@?$numeric_limits@_K@std@@2_NB
CONST	SEGMENT
?is_signed@?$numeric_limits@_K@std@@2_NB DB 00H		; std::numeric_limits<unsigned __int64>::is_signed
CONST	ENDS
;	COMDAT ?app@?$_Iosb@H@std@@2W4_Openmode@12@B
CONST	SEGMENT
?app@?$_Iosb@H@std@@2W4_Openmode@12@B DD 08H		; std::_Iosb<int>::app
CONST	ENDS
;	COMDAT ?ate@?$_Iosb@H@std@@2W4_Openmode@12@B
CONST	SEGMENT
?ate@?$_Iosb@H@std@@2W4_Openmode@12@B DD 04H		; std::_Iosb<int>::ate
CONST	ENDS
;	COMDAT ?out@?$_Iosb@H@std@@2W4_Openmode@12@B
CONST	SEGMENT
?out@?$_Iosb@H@std@@2W4_Openmode@12@B DD 02H		; std::_Iosb<int>::out
CONST	ENDS
;	COMDAT ?in@?$_Iosb@H@std@@2W4_Openmode@12@B
CONST	SEGMENT
?in@?$_Iosb@H@std@@2W4_Openmode@12@B DD 01H		; std::_Iosb<int>::in
CONST	ENDS
;	COMDAT ?_Hardfail@?$_Iosb@H@std@@2W4_Iostate@12@B
CONST	SEGMENT
?_Hardfail@?$_Iosb@H@std@@2W4_Iostate@12@B DD 010H	; std::_Iosb<int>::_Hardfail
CONST	ENDS
;	COMDAT ?badbit@?$_Iosb@H@std@@2W4_Iostate@12@B
CONST	SEGMENT
?badbit@?$_Iosb@H@std@@2W4_Iostate@12@B DD 04H		; std::_Iosb<int>::badbit
CONST	ENDS
;	COMDAT ?value@?$integral_constant@I$01@std@@2IB
CONST	SEGMENT
?value@?$integral_constant@I$01@std@@2IB DD 02H		; std::integral_constant<unsigned int,2>::value
CONST	ENDS
;	COMDAT ?failbit@?$_Iosb@H@std@@2W4_Iostate@12@B
CONST	SEGMENT
?failbit@?$_Iosb@H@std@@2W4_Iostate@12@B DD 02H		; std::_Iosb<int>::failbit
CONST	ENDS
;	COMDAT ?eofbit@?$_Iosb@H@std@@2W4_Iostate@12@B
CONST	SEGMENT
?eofbit@?$_Iosb@H@std@@2W4_Iostate@12@B DD 01H		; std::_Iosb<int>::eofbit
CONST	ENDS
;	COMDAT ?goodbit@?$_Iosb@H@std@@2W4_Iostate@12@B
CONST	SEGMENT
?goodbit@?$_Iosb@H@std@@2W4_Iostate@12@B DD 00H		; std::_Iosb<int>::goodbit
CONST	ENDS
;	COMDAT ?digits10@?$numeric_limits@_J@std@@2HB
CONST	SEGMENT
?digits10@?$numeric_limits@_J@std@@2HB DD 012H		; std::numeric_limits<__int64>::digits10
CONST	ENDS
;	COMDAT ?floatfield@?$_Iosb@H@std@@2W4_Fmtflags@12@B
CONST	SEGMENT
?floatfield@?$_Iosb@H@std@@2W4_Fmtflags@12@B DD 03000H	; std::_Iosb<int>::floatfield
CONST	ENDS
;	COMDAT ?digits@?$numeric_limits@_J@std@@2HB
CONST	SEGMENT
?digits@?$numeric_limits@_J@std@@2HB DD 03fH		; std::numeric_limits<__int64>::digits
CONST	ENDS
;	COMDAT ?basefield@?$_Iosb@H@std@@2W4_Fmtflags@12@B
CONST	SEGMENT
?basefield@?$_Iosb@H@std@@2W4_Fmtflags@12@B DD 0e00H	; std::_Iosb<int>::basefield
CONST	ENDS
;	COMDAT ?is_signed@?$numeric_limits@_J@std@@2_NB
CONST	SEGMENT
?is_signed@?$numeric_limits@_J@std@@2_NB DB 01H		; std::numeric_limits<__int64>::is_signed
CONST	ENDS
;	COMDAT ?adjustfield@?$_Iosb@H@std@@2W4_Fmtflags@12@B
CONST	SEGMENT
?adjustfield@?$_Iosb@H@std@@2W4_Fmtflags@12@B DD 01c0H	; std::_Iosb<int>::adjustfield
CONST	ENDS
;	COMDAT ?_Stdio@?$_Iosb@H@std@@2W4_Fmtflags@12@B
CONST	SEGMENT
?_Stdio@?$_Iosb@H@std@@2W4_Fmtflags@12@B DD 08000H	; std::_Iosb<int>::_Stdio
CONST	ENDS
;	COMDAT ?boolalpha@?$_Iosb@H@std@@2W4_Fmtflags@12@B
CONST	SEGMENT
?boolalpha@?$_Iosb@H@std@@2W4_Fmtflags@12@B DD 04000H	; std::_Iosb<int>::boolalpha
CONST	ENDS
;	COMDAT ?YellowGreen@Colors@DirectX@@3UXMVECTORF32@2@B
CONST	SEGMENT
?YellowGreen@Colors@DirectX@@3UXMVECTORF32@2@B DD 03f1a9a9br ; 0.603922 ; DirectX::Colors::YellowGreen
	DD	03f4dcdcfr			; 0.803922
	DD	03e48c8car			; 0.196078
	DD	03f800000r			; 1
CONST	ENDS
;	COMDAT ?Yellow@Colors@DirectX@@3UXMVECTORF32@2@B
CONST	SEGMENT
?Yellow@Colors@DirectX@@3UXMVECTORF32@2@B DD 03f800000r ; 1 ; DirectX::Colors::Yellow
	DD	03f800000r			; 1
	DD	000000000r			; 0
	DD	03f800000r			; 1
CONST	ENDS
;	COMDAT ?WhiteSmoke@Colors@DirectX@@3UXMVECTORF32@2@B
CONST	SEGMENT
?WhiteSmoke@Colors@DirectX@@3UXMVECTORF32@2@B DD 03f75f5f7r ; 0.960784 ; DirectX::Colors::WhiteSmoke
	DD	03f75f5f7r			; 0.960784
	DD	03f75f5f7r			; 0.960784
	DD	03f800000r			; 1
CONST	ENDS
;	COMDAT ?hexfloat@?$_Iosb@H@std@@2W4_Fmtflags@12@B
CONST	SEGMENT
?hexfloat@?$_Iosb@H@std@@2W4_Fmtflags@12@B DD 03000H	; std::_Iosb<int>::hexfloat
CONST	ENDS
;	COMDAT ?White@Colors@DirectX@@3UXMVECTORF32@2@B
CONST	SEGMENT
?White@Colors@DirectX@@3UXMVECTORF32@2@B DD 03f800000r ; 1 ; DirectX::Colors::White
	DD	03f800000r			; 1
	DD	03f800000r			; 1
	DD	03f800000r			; 1
CONST	ENDS
;	COMDAT ?Wheat@Colors@DirectX@@3UXMVECTORF32@2@B
CONST	SEGMENT
?Wheat@Colors@DirectX@@3UXMVECTORF32@2@B DD 03f75f5f7r ; 0.960784 ; DirectX::Colors::Wheat
	DD	03f5edee0r			; 0.870588
	DD	03f33b3b4r			; 0.701961
	DD	03f800000r			; 1
CONST	ENDS
;	COMDAT ?Violet@Colors@DirectX@@3UXMVECTORF32@2@B
CONST	SEGMENT
?Violet@Colors@DirectX@@3UXMVECTORF32@2@B DD 03f6eeef0r ; 0.933333 ; DirectX::Colors::Violet
	DD	03f028283r			; 0.509804
	DD	03f6eeef0r			; 0.933333
	DD	03f800000r			; 1
CONST	ENDS
;	COMDAT ?fixed@?$_Iosb@H@std@@2W4_Fmtflags@12@B
CONST	SEGMENT
?fixed@?$_Iosb@H@std@@2W4_Fmtflags@12@B DD 02000H	; std::_Iosb<int>::fixed
CONST	ENDS
;	COMDAT ?Turquoise@Colors@DirectX@@3UXMVECTORF32@2@B
CONST	SEGMENT
?Turquoise@Colors@DirectX@@3UXMVECTORF32@2@B DD 03e808081r ; 0.25098 ; DirectX::Colors::Turquoise
	DD	03f60e0e2r			; 0.878431
	DD	03f50d0d2r			; 0.815686
	DD	03f800000r			; 1
CONST	ENDS
;	COMDAT ?Transparent@Colors@DirectX@@3UXMVECTORF32@2@B
CONST	SEGMENT
?Transparent@Colors@DirectX@@3UXMVECTORF32@2@B DD 000000000r ; 0 ; DirectX::Colors::Transparent
	DD	000000000r			; 0
	DD	000000000r			; 0
	DD	000000000r			; 0
CONST	ENDS
;	COMDAT ?Tomato@Colors@DirectX@@3UXMVECTORF32@2@B
CONST	SEGMENT
?Tomato@Colors@DirectX@@3UXMVECTORF32@2@B DD 03f800000r ; 1 ; DirectX::Colors::Tomato
	DD	03ec6c6c8r			; 0.388235
	DD	03e8e8e8fr			; 0.278431
	DD	03f800000r			; 1
CONST	ENDS
;	COMDAT ?scientific@?$_Iosb@H@std@@2W4_Fmtflags@12@B
CONST	SEGMENT
?scientific@?$_Iosb@H@std@@2W4_Fmtflags@12@B DD 01000H	; std::_Iosb<int>::scientific
CONST	ENDS
;	COMDAT ?Thistle@Colors@DirectX@@3UXMVECTORF32@2@B
CONST	SEGMENT
?Thistle@Colors@DirectX@@3UXMVECTORF32@2@B DD 03f58d8dar ; 0.847059 ; DirectX::Colors::Thistle
	DD	03f3fbfc0r			; 0.74902
	DD	03f58d8dar			; 0.847059
	DD	03f800000r			; 1
CONST	ENDS
;	COMDAT ?Teal@Colors@DirectX@@3UXMVECTORF32@2@B
CONST	SEGMENT
?Teal@Colors@DirectX@@3UXMVECTORF32@2@B DD 000000000r ; 0 ; DirectX::Colors::Teal
	DD	03f008081r			; 0.501961
	DD	03f008081r			; 0.501961
	DD	03f800000r			; 1
CONST	ENDS
;	COMDAT ?Tan@Colors@DirectX@@3UXMVECTORF32@2@B
CONST	SEGMENT
?Tan@Colors@DirectX@@3UXMVECTORF32@2@B DD 03f52d2d4r ; 0.823529 ; DirectX::Colors::Tan
	DD	03f34b4b5r			; 0.705882
	DD	03f0c8c8dr			; 0.54902
	DD	03f800000r			; 1
CONST	ENDS
;	COMDAT ?hex@?$_Iosb@H@std@@2W4_Fmtflags@12@B
CONST	SEGMENT
?hex@?$_Iosb@H@std@@2W4_Fmtflags@12@B DD 0800H		; std::_Iosb<int>::hex
CONST	ENDS
;	COMDAT ?SteelBlue@Colors@DirectX@@3UXMVECTORF32@2@B
CONST	SEGMENT
?SteelBlue@Colors@DirectX@@3UXMVECTORF32@2@B DD 03e8c8c8dr ; 0.27451 ; DirectX::Colors::SteelBlue
	DD	03f028283r			; 0.509804
	DD	03f34b4b5r			; 0.705882
	DD	03f800000r			; 1
CONST	ENDS
;	COMDAT ?SpringGreen@Colors@DirectX@@3UXMVECTORF32@2@B
CONST	SEGMENT
?SpringGreen@Colors@DirectX@@3UXMVECTORF32@2@B DD 000000000r ; 0 ; DirectX::Colors::SpringGreen
	DD	03f800000r			; 1
	DD	03efeff00r			; 0.498039
	DD	03f800000r			; 1
CONST	ENDS
;	COMDAT ?Snow@Colors@DirectX@@3UXMVECTORF32@2@B
CONST	SEGMENT
?Snow@Colors@DirectX@@3UXMVECTORF32@2@B DD 03f800000r ; 1 ; DirectX::Colors::Snow
	DD	03f7afafcr			; 0.980392
	DD	03f7afafcr			; 0.980392
	DD	03f800000r			; 1
CONST	ENDS
;	COMDAT ?oct@?$_Iosb@H@std@@2W4_Fmtflags@12@B
CONST	SEGMENT
?oct@?$_Iosb@H@std@@2W4_Fmtflags@12@B DD 0400H		; std::_Iosb<int>::oct
CONST	ENDS
;	COMDAT ?SlateGray@Colors@DirectX@@3UXMVECTORF32@2@B
CONST	SEGMENT
?SlateGray@Colors@DirectX@@3UXMVECTORF32@2@B DD 03ee0e0e2r ; 0.439216 ; DirectX::Colors::SlateGray
	DD	03f008081r			; 0.501961
	DD	03f109091r			; 0.564706
	DD	03f800000r			; 1
CONST	ENDS
;	COMDAT ?SlateBlue@Colors@DirectX@@3UXMVECTORF32@2@B
CONST	SEGMENT
?SlateBlue@Colors@DirectX@@3UXMVECTORF32@2@B DD 03ed4d4d6r ; 0.415686 ; DirectX::Colors::SlateBlue
	DD	03eb4b4b5r			; 0.352941
	DD	03f4dcdcfr			; 0.803922
	DD	03f800000r			; 1
CONST	ENDS
;	COMDAT ?SkyBlue@Colors@DirectX@@3UXMVECTORF32@2@B
CONST	SEGMENT
?SkyBlue@Colors@DirectX@@3UXMVECTORF32@2@B DD 03f078788r ; 0.529412 ; DirectX::Colors::SkyBlue
	DD	03f4eced0r			; 0.807843
	DD	03f6bebedr			; 0.921569
	DD	03f800000r			; 1
CONST	ENDS
;	COMDAT ?dec@?$_Iosb@H@std@@2W4_Fmtflags@12@B
CONST	SEGMENT
?dec@?$_Iosb@H@std@@2W4_Fmtflags@12@B DD 0200H		; std::_Iosb<int>::dec
CONST	ENDS
;	COMDAT ?Silver@Colors@DirectX@@3UXMVECTORF32@2@B
CONST	SEGMENT
?Silver@Colors@DirectX@@3UXMVECTORF32@2@B DD 03f40c0c2r ; 0.752941 ; DirectX::Colors::Silver
	DD	03f40c0c2r			; 0.752941
	DD	03f40c0c2r			; 0.752941
	DD	03f800000r			; 1
CONST	ENDS
;	COMDAT ?Sienna@Colors@DirectX@@3UXMVECTORF32@2@B
CONST	SEGMENT
?Sienna@Colors@DirectX@@3UXMVECTORF32@2@B DD 03f20a0a1r ; 0.627451 ; DirectX::Colors::Sienna
	DD	03ea4a4a5r			; 0.321569
	DD	03e34b4b5r			; 0.176471
	DD	03f800000r			; 1
CONST	ENDS
;	COMDAT ?SeaShell@Colors@DirectX@@3UXMVECTORF32@2@B
CONST	SEGMENT
?SeaShell@Colors@DirectX@@3UXMVECTORF32@2@B DD 03f800000r ; 1 ; DirectX::Colors::SeaShell
	DD	03f75f5f7r			; 0.960784
	DD	03f6eeef0r			; 0.933333
	DD	03f800000r			; 1
CONST	ENDS
;	COMDAT ?internal@?$_Iosb@H@std@@2W4_Fmtflags@12@B
CONST	SEGMENT
?internal@?$_Iosb@H@std@@2W4_Fmtflags@12@B DD 0100H	; std::_Iosb<int>::internal
CONST	ENDS
;	COMDAT ?SeaGreen@Colors@DirectX@@3UXMVECTORF32@2@B
CONST	SEGMENT
?SeaGreen@Colors@DirectX@@3UXMVECTORF32@2@B DD 03e38b8b9r ; 0.180392 ; DirectX::Colors::SeaGreen
	DD	03f0b8b8cr			; 0.545098
	DD	03eaeaeafr			; 0.341176
	DD	03f800000r			; 1
CONST	ENDS
;	COMDAT ?SandyBrown@Colors@DirectX@@3UXMVECTORF32@2@B
CONST	SEGMENT
?SandyBrown@Colors@DirectX@@3UXMVECTORF32@2@B DD 03f74f4f6r ; 0.956863 ; DirectX::Colors::SandyBrown
	DD	03f24a4a5r			; 0.643137
	DD	03ec0c0c2r			; 0.376471
	DD	03f800000r			; 1
CONST	ENDS
;	COMDAT ?Salmon@Colors@DirectX@@3UXMVECTORF32@2@B
CONST	SEGMENT
?Salmon@Colors@DirectX@@3UXMVECTORF32@2@B DD 03f7afafcr ; 0.980392 ; DirectX::Colors::Salmon
	DD	03f008081r			; 0.501961
	DD	03ee4e4e6r			; 0.447059
	DD	03f800000r			; 1
CONST	ENDS
;	COMDAT ?digits10@?$numeric_limits@K@std@@2HB
CONST	SEGMENT
?digits10@?$numeric_limits@K@std@@2HB DD 09H		; std::numeric_limits<unsigned long>::digits10
CONST	ENDS
;	COMDAT ?right@?$_Iosb@H@std@@2W4_Fmtflags@12@B
CONST	SEGMENT
?right@?$_Iosb@H@std@@2W4_Fmtflags@12@B DD 080H		; std::_Iosb<int>::right
CONST	ENDS
;	COMDAT ?SaddleBrown@Colors@DirectX@@3UXMVECTORF32@2@B
CONST	SEGMENT
?SaddleBrown@Colors@DirectX@@3UXMVECTORF32@2@B DD 03f0b8b8cr ; 0.545098 ; DirectX::Colors::SaddleBrown
	DD	03e8a8a8br			; 0.270588
	DD	03d989899r			; 0.0745098
	DD	03f800000r			; 1
CONST	ENDS
;	COMDAT ?RoyalBlue@Colors@DirectX@@3UXMVECTORF32@2@B
CONST	SEGMENT
?RoyalBlue@Colors@DirectX@@3UXMVECTORF32@2@B DD 03e828283r ; 0.254902 ; DirectX::Colors::RoyalBlue
	DD	03ed2d2d4r			; 0.411765
	DD	03f61e1e3r			; 0.882353
	DD	03f800000r			; 1
CONST	ENDS
;	COMDAT ?RosyBrown@Colors@DirectX@@3UXMVECTORF32@2@B
CONST	SEGMENT
?RosyBrown@Colors@DirectX@@3UXMVECTORF32@2@B DD 03f3cbcbdr ; 0.737255 ; DirectX::Colors::RosyBrown
	DD	03f0f8f90r			; 0.560784
	DD	03f0f8f90r			; 0.560784
	DD	03f800000r			; 1
CONST	ENDS
;	COMDAT ?left@?$_Iosb@H@std@@2W4_Fmtflags@12@B
CONST	SEGMENT
?left@?$_Iosb@H@std@@2W4_Fmtflags@12@B DD 040H		; std::_Iosb<int>::left
CONST	ENDS
;	COMDAT ?Red@Colors@DirectX@@3UXMVECTORF32@2@B
CONST	SEGMENT
?Red@Colors@DirectX@@3UXMVECTORF32@2@B DD 03f800000r ; 1 ; DirectX::Colors::Red
	DD	000000000r			; 0
	DD	000000000r			; 0
	DD	03f800000r			; 1
CONST	ENDS
;	COMDAT ?digits@?$numeric_limits@K@std@@2HB
CONST	SEGMENT
?digits@?$numeric_limits@K@std@@2HB DD 020H		; std::numeric_limits<unsigned long>::digits
CONST	ENDS
;	COMDAT ?Purple@Colors@DirectX@@3UXMVECTORF32@2@B
CONST	SEGMENT
?Purple@Colors@DirectX@@3UXMVECTORF32@2@B DD 03f008081r ; 0.501961 ; DirectX::Colors::Purple
	DD	000000000r			; 0
	DD	03f008081r			; 0.501961
	DD	03f800000r			; 1
CONST	ENDS
;	COMDAT ?PowderBlue@Colors@DirectX@@3UXMVECTORF32@2@B
CONST	SEGMENT
?PowderBlue@Colors@DirectX@@3UXMVECTORF32@2@B DD 03f30b0b1r ; 0.690196 ; DirectX::Colors::PowderBlue
	DD	03f60e0e2r			; 0.878431
	DD	03f66e6e8r			; 0.901961
	DD	03f800000r			; 1
CONST	ENDS
;	COMDAT ?showpos@?$_Iosb@H@std@@2W4_Fmtflags@12@B
CONST	SEGMENT
?showpos@?$_Iosb@H@std@@2W4_Fmtflags@12@B DD 020H	; std::_Iosb<int>::showpos
CONST	ENDS
;	COMDAT ?Plum@Colors@DirectX@@3UXMVECTORF32@2@B
CONST	SEGMENT
?Plum@Colors@DirectX@@3UXMVECTORF32@2@B DD 03f5ddddfr ; 0.866667 ; DirectX::Colors::Plum
	DD	03f20a0a1r			; 0.627451
	DD	03f5ddddfr			; 0.866667
	DD	03f800000r			; 1
CONST	ENDS
;	COMDAT ?Pink@Colors@DirectX@@3UXMVECTORF32@2@B
CONST	SEGMENT
?Pink@Colors@DirectX@@3UXMVECTORF32@2@B DD 03f800000r ; 1 ; DirectX::Colors::Pink
	DD	03f40c0c2r			; 0.752941
	DD	03f4bcbcdr			; 0.796079
	DD	03f800000r			; 1
CONST	ENDS
;	COMDAT ?is_signed@?$numeric_limits@K@std@@2_NB
CONST	SEGMENT
?is_signed@?$numeric_limits@K@std@@2_NB DB 00H		; std::numeric_limits<unsigned long>::is_signed
CONST	ENDS
;	COMDAT ?Peru@Colors@DirectX@@3UXMVECTORF32@2@B
CONST	SEGMENT
?Peru@Colors@DirectX@@3UXMVECTORF32@2@B DD 03f4dcdcfr ; 0.803922 ; DirectX::Colors::Peru
	DD	03f058586r			; 0.521569
	DD	03e7cfcfer			; 0.247059
	DD	03f800000r			; 1
CONST	ENDS
;	COMDAT ?showpoint@?$_Iosb@H@std@@2W4_Fmtflags@12@B
CONST	SEGMENT
?showpoint@?$_Iosb@H@std@@2W4_Fmtflags@12@B DD 010H	; std::_Iosb<int>::showpoint
CONST	ENDS
;	COMDAT ?PeachPuff@Colors@DirectX@@3UXMVECTORF32@2@B
CONST	SEGMENT
?PeachPuff@Colors@DirectX@@3UXMVECTORF32@2@B DD 03f800000r ; 1 ; DirectX::Colors::PeachPuff
	DD	03f5adadcr			; 0.854902
	DD	03f39b9bar			; 0.72549
	DD	03f800000r			; 1
CONST	ENDS
;	COMDAT ?PapayaWhip@Colors@DirectX@@3UXMVECTORF32@2@B
CONST	SEGMENT
?PapayaWhip@Colors@DirectX@@3UXMVECTORF32@2@B DD 03f800000r ; 1 ; DirectX::Colors::PapayaWhip
	DD	03f6feff1r			; 0.937255
	DD	03f55d5d7r			; 0.835294
	DD	03f800000r			; 1
CONST	ENDS
;	COMDAT ?PaleVioletRed@Colors@DirectX@@3UXMVECTORF32@2@B
CONST	SEGMENT
?PaleVioletRed@Colors@DirectX@@3UXMVECTORF32@2@B DD 03f5bdbddr ; 0.858824 ; DirectX::Colors::PaleVioletRed
	DD	03ee0e0e2r			; 0.439216
	DD	03f139394r			; 0.576471
	DD	03f800000r			; 1
CONST	ENDS
;	COMDAT ?showbase@?$_Iosb@H@std@@2W4_Fmtflags@12@B
CONST	SEGMENT
?showbase@?$_Iosb@H@std@@2W4_Fmtflags@12@B DD 08H	; std::_Iosb<int>::showbase
CONST	ENDS
;	COMDAT ?PaleTurquoise@Colors@DirectX@@3UXMVECTORF32@2@B
CONST	SEGMENT
?PaleTurquoise@Colors@DirectX@@3UXMVECTORF32@2@B DD 03f2fafb0r ; 0.686275 ; DirectX::Colors::PaleTurquoise
	DD	03f6eeef0r			; 0.933333
	DD	03f6eeef0r			; 0.933333
	DD	03f800000r			; 1
CONST	ENDS
;	COMDAT ?PaleGreen@Colors@DirectX@@3UXMVECTORF32@2@B
CONST	SEGMENT
?PaleGreen@Colors@DirectX@@3UXMVECTORF32@2@B DD 03f189899r ; 0.596078 ; DirectX::Colors::PaleGreen
	DD	03f7bfbfdr			; 0.984314
	DD	03f189899r			; 0.596078
	DD	03f800000r			; 1
CONST	ENDS
;	COMDAT ?value@?$integral_constant@I$03@std@@2IB
CONST	SEGMENT
?value@?$integral_constant@I$03@std@@2IB DD 04H		; std::integral_constant<unsigned int,4>::value
CONST	ENDS
;	COMDAT ?PaleGoldenrod@Colors@DirectX@@3UXMVECTORF32@2@B
CONST	SEGMENT
?PaleGoldenrod@Colors@DirectX@@3UXMVECTORF32@2@B DD 03f6eeef0r ; 0.933333 ; DirectX::Colors::PaleGoldenrod
	DD	03f68e8ear			; 0.909804
	DD	03f2aaaabr			; 0.666667
	DD	03f800000r			; 1
CONST	ENDS
;	COMDAT ?uppercase@?$_Iosb@H@std@@2W4_Fmtflags@12@B
CONST	SEGMENT
?uppercase@?$_Iosb@H@std@@2W4_Fmtflags@12@B DD 04H	; std::_Iosb<int>::uppercase
CONST	ENDS
;	COMDAT ?Orchid@Colors@DirectX@@3UXMVECTORF32@2@B
CONST	SEGMENT
?Orchid@Colors@DirectX@@3UXMVECTORF32@2@B DD 03f5adadcr ; 0.854902 ; DirectX::Colors::Orchid
	DD	03ee0e0e2r			; 0.439216
	DD	03f56d6d8r			; 0.839216
	DD	03f800000r			; 1
CONST	ENDS
;	COMDAT ?OrangeRed@Colors@DirectX@@3UXMVECTORF32@2@B
CONST	SEGMENT
?OrangeRed@Colors@DirectX@@3UXMVECTORF32@2@B DD 03f800000r ; 1 ; DirectX::Colors::OrangeRed
	DD	03e8a8a8br			; 0.270588
	DD	000000000r			; 0
	DD	03f800000r			; 1
CONST	ENDS
;	COMDAT ?Orange@Colors@DirectX@@3UXMVECTORF32@2@B
CONST	SEGMENT
?Orange@Colors@DirectX@@3UXMVECTORF32@2@B DD 03f800000r ; 1 ; DirectX::Colors::Orange
	DD	03f25a5a6r			; 0.647059
	DD	000000000r			; 0
	DD	03f800000r			; 1
CONST	ENDS
;	COMDAT ?unitbuf@?$_Iosb@H@std@@2W4_Fmtflags@12@B
CONST	SEGMENT
?unitbuf@?$_Iosb@H@std@@2W4_Fmtflags@12@B DD 02H	; std::_Iosb<int>::unitbuf
CONST	ENDS
;	COMDAT ?OliveDrab@Colors@DirectX@@3UXMVECTORF32@2@B
CONST	SEGMENT
?OliveDrab@Colors@DirectX@@3UXMVECTORF32@2@B DD 03ed6d6d8r ; 0.419608 ; DirectX::Colors::OliveDrab
	DD	03f0e8e8fr			; 0.556863
	DD	03e0c8c8dr			; 0.137255
	DD	03f800000r			; 1
CONST	ENDS
;	COMDAT ?Olive@Colors@DirectX@@3UXMVECTORF32@2@B
CONST	SEGMENT
?Olive@Colors@DirectX@@3UXMVECTORF32@2@B DD 03f008081r ; 0.501961 ; DirectX::Colors::Olive
	DD	03f008081r			; 0.501961
	DD	000000000r			; 0
	DD	03f800000r			; 1
CONST	ENDS
;	COMDAT ?OldLace@Colors@DirectX@@3UXMVECTORF32@2@B
CONST	SEGMENT
?OldLace@Colors@DirectX@@3UXMVECTORF32@2@B DD 03f7dfdffr ; 0.992157 ; DirectX::Colors::OldLace
	DD	03f75f5f7r			; 0.960784
	DD	03f66e6e8r			; 0.901961
	DD	03f800000r			; 1
CONST	ENDS
;	COMDAT ?skipws@?$_Iosb@H@std@@2W4_Fmtflags@12@B
CONST	SEGMENT
?skipws@?$_Iosb@H@std@@2W4_Fmtflags@12@B DD 01H		; std::_Iosb<int>::skipws
CONST	ENDS
;	COMDAT ?Navy@Colors@DirectX@@3UXMVECTORF32@2@B
CONST	SEGMENT
?Navy@Colors@DirectX@@3UXMVECTORF32@2@B DD 000000000r ; 0 ; DirectX::Colors::Navy
	DD	000000000r			; 0
	DD	03f008081r			; 0.501961
	DD	03f800000r			; 1
CONST	ENDS
;	COMDAT ?NavajoWhite@Colors@DirectX@@3UXMVECTORF32@2@B
CONST	SEGMENT
?NavajoWhite@Colors@DirectX@@3UXMVECTORF32@2@B DD 03f800000r ; 1 ; DirectX::Colors::NavajoWhite
	DD	03f5edee0r			; 0.870588
	DD	03f2dadaer			; 0.678431
	DD	03f800000r			; 1
CONST	ENDS
;	COMDAT ?Moccasin@Colors@DirectX@@3UXMVECTORF32@2@B
CONST	SEGMENT
?Moccasin@Colors@DirectX@@3UXMVECTORF32@2@B DD 03f800000r ; 1 ; DirectX::Colors::Moccasin
	DD	03f64e4e6r			; 0.894118
	DD	03f35b5b6r			; 0.709804
	DD	03f800000r			; 1
CONST	ENDS
;	COMDAT ?MistyRose@Colors@DirectX@@3UXMVECTORF32@2@B
CONST	SEGMENT
?MistyRose@Colors@DirectX@@3UXMVECTORF32@2@B DD 03f800000r ; 1 ; DirectX::Colors::MistyRose
	DD	03f64e4e6r			; 0.894118
	DD	03f61e1e3r			; 0.882353
	DD	03f800000r			; 1
CONST	ENDS
;	COMDAT ?MintCream@Colors@DirectX@@3UXMVECTORF32@2@B
CONST	SEGMENT
?MintCream@Colors@DirectX@@3UXMVECTORF32@2@B DD 03f75f5f7r ; 0.960784 ; DirectX::Colors::MintCream
	DD	03f800000r			; 1
	DD	03f7afafcr			; 0.980392
	DD	03f800000r			; 1
CONST	ENDS
;	COMDAT ?MidnightBlue@Colors@DirectX@@3UXMVECTORF32@2@B
CONST	SEGMENT
?MidnightBlue@Colors@DirectX@@3UXMVECTORF32@2@B DD 03dc8c8car ; 0.0980392 ; DirectX::Colors::MidnightBlue
	DD	03dc8c8car			; 0.0980392
	DD	03ee0e0e2r			; 0.439216
	DD	03f800000r			; 1
CONST	ENDS
;	COMDAT ?MediumVioletRed@Colors@DirectX@@3UXMVECTORF32@2@B
CONST	SEGMENT
?MediumVioletRed@Colors@DirectX@@3UXMVECTORF32@2@B DD 03f47c7c9r ; 0.780392 ; DirectX::Colors::MediumVioletRed
	DD	03da8a8a9r			; 0.0823529
	DD	03f058586r			; 0.521569
	DD	03f800000r			; 1
CONST	ENDS
;	COMDAT ?MediumTurquoise@Colors@DirectX@@3UXMVECTORF32@2@B
CONST	SEGMENT
?MediumTurquoise@Colors@DirectX@@3UXMVECTORF32@2@B DD 03e909091r ; 0.282353 ; DirectX::Colors::MediumTurquoise
	DD	03f51d1d3r			; 0.819608
	DD	03f4ccccer			; 0.8
	DD	03f800000r			; 1
CONST	ENDS
;	COMDAT ?MediumSpringGreen@Colors@DirectX@@3UXMVECTORF32@2@B
CONST	SEGMENT
?MediumSpringGreen@Colors@DirectX@@3UXMVECTORF32@2@B DD 000000000r ; 0 ; DirectX::Colors::MediumSpringGreen
	DD	03f7afafcr			; 0.980392
	DD	03f1a9a9br			; 0.603922
	DD	03f800000r			; 1
CONST	ENDS
;	COMDAT ?MediumSlateBlue@Colors@DirectX@@3UXMVECTORF32@2@B
CONST	SEGMENT
?MediumSlateBlue@Colors@DirectX@@3UXMVECTORF32@2@B DD 03ef6f6f8r ; 0.482353 ; DirectX::Colors::MediumSlateBlue
	DD	03ed0d0d2r			; 0.407843
	DD	03f6eeef0r			; 0.933333
	DD	03f800000r			; 1
CONST	ENDS
;	COMDAT ?MediumSeaGreen@Colors@DirectX@@3UXMVECTORF32@2@B
CONST	SEGMENT
?MediumSeaGreen@Colors@DirectX@@3UXMVECTORF32@2@B DD 03e70f0f2r ; 0.235294 ; DirectX::Colors::MediumSeaGreen
	DD	03f33b3b4r			; 0.701961
	DD	03ee2e2e4r			; 0.443137
	DD	03f800000r			; 1
CONST	ENDS
;	COMDAT ?MediumPurple@Colors@DirectX@@3UXMVECTORF32@2@B
CONST	SEGMENT
?MediumPurple@Colors@DirectX@@3UXMVECTORF32@2@B DD 03f139394r ; 0.576471 ; DirectX::Colors::MediumPurple
	DD	03ee0e0e2r			; 0.439216
	DD	03f5bdbddr			; 0.858824
	DD	03f800000r			; 1
CONST	ENDS
;	COMDAT ?MediumOrchid@Colors@DirectX@@3UXMVECTORF32@2@B
CONST	SEGMENT
?MediumOrchid@Colors@DirectX@@3UXMVECTORF32@2@B DD 03f3ababbr ; 0.729412 ; DirectX::Colors::MediumOrchid
	DD	03eaaaaabr			; 0.333333
	DD	03f53d3d5r			; 0.827451
	DD	03f800000r			; 1
CONST	ENDS
;	COMDAT ?MediumBlue@Colors@DirectX@@3UXMVECTORF32@2@B
CONST	SEGMENT
?MediumBlue@Colors@DirectX@@3UXMVECTORF32@2@B DD 000000000r ; 0 ; DirectX::Colors::MediumBlue
	DD	000000000r			; 0
	DD	03f4dcdcfr			; 0.803922
	DD	03f800000r			; 1
CONST	ENDS
;	COMDAT ?MediumAquamarine@Colors@DirectX@@3UXMVECTORF32@2@B
CONST	SEGMENT
?MediumAquamarine@Colors@DirectX@@3UXMVECTORF32@2@B DD 03ecccccer ; 0.4 ; DirectX::Colors::MediumAquamarine
	DD	03f4dcdcfr			; 0.803922
	DD	03f2aaaabr			; 0.666667
	DD	03f800000r			; 1
CONST	ENDS
;	COMDAT ?Maroon@Colors@DirectX@@3UXMVECTORF32@2@B
CONST	SEGMENT
?Maroon@Colors@DirectX@@3UXMVECTORF32@2@B DD 03f008081r ; 0.501961 ; DirectX::Colors::Maroon
	DD	000000000r			; 0
	DD	000000000r			; 0
	DD	03f800000r			; 1
CONST	ENDS
;	COMDAT ?Magenta@Colors@DirectX@@3UXMVECTORF32@2@B
CONST	SEGMENT
?Magenta@Colors@DirectX@@3UXMVECTORF32@2@B DD 03f800000r ; 1 ; DirectX::Colors::Magenta
	DD	000000000r			; 0
	DD	03f800000r			; 1
	DD	03f800000r			; 1
CONST	ENDS
;	COMDAT ?digits10@?$numeric_limits@J@std@@2HB
CONST	SEGMENT
?digits10@?$numeric_limits@J@std@@2HB DD 09H		; std::numeric_limits<long>::digits10
CONST	ENDS
;	COMDAT ?Linen@Colors@DirectX@@3UXMVECTORF32@2@B
CONST	SEGMENT
?Linen@Colors@DirectX@@3UXMVECTORF32@2@B DD 03f7afafcr ; 0.980392 ; DirectX::Colors::Linen
	DD	03f70f0f2r			; 0.941177
	DD	03f66e6e8r			; 0.901961
	DD	03f800000r			; 1
CONST	ENDS
;	COMDAT ?LimeGreen@Colors@DirectX@@3UXMVECTORF32@2@B
CONST	SEGMENT
?LimeGreen@Colors@DirectX@@3UXMVECTORF32@2@B DD 03e48c8car ; 0.196078 ; DirectX::Colors::LimeGreen
	DD	03f4dcdcfr			; 0.803922
	DD	03e48c8car			; 0.196078
	DD	03f800000r			; 1
CONST	ENDS
;	COMDAT ?Lime@Colors@DirectX@@3UXMVECTORF32@2@B
CONST	SEGMENT
?Lime@Colors@DirectX@@3UXMVECTORF32@2@B DD 000000000r ; 0 ; DirectX::Colors::Lime
	DD	03f800000r			; 1
	DD	000000000r			; 0
	DD	03f800000r			; 1
CONST	ENDS
;	COMDAT ?LightYellow@Colors@DirectX@@3UXMVECTORF32@2@B
CONST	SEGMENT
?LightYellow@Colors@DirectX@@3UXMVECTORF32@2@B DD 03f800000r ; 1 ; DirectX::Colors::LightYellow
	DD	03f800000r			; 1
	DD	03f60e0e2r			; 0.878431
	DD	03f800000r			; 1
CONST	ENDS
;	COMDAT ?digits@?$numeric_limits@J@std@@2HB
CONST	SEGMENT
?digits@?$numeric_limits@J@std@@2HB DD 01fH		; std::numeric_limits<long>::digits
CONST	ENDS
;	COMDAT ?LightSteelBlue@Colors@DirectX@@3UXMVECTORF32@2@B
CONST	SEGMENT
?LightSteelBlue@Colors@DirectX@@3UXMVECTORF32@2@B DD 03f30b0b1r ; 0.690196 ; DirectX::Colors::LightSteelBlue
	DD	03f44c4c6r			; 0.768628
	DD	03f5edee0r			; 0.870588
	DD	03f800000r			; 1
CONST	ENDS
;	COMDAT ?LightSlateGray@Colors@DirectX@@3UXMVECTORF32@2@B
CONST	SEGMENT
?LightSlateGray@Colors@DirectX@@3UXMVECTORF32@2@B DD 03eeeeef0r ; 0.466667 ; DirectX::Colors::LightSlateGray
	DD	03f088889r			; 0.533333
	DD	03f19999ar			; 0.6
	DD	03f800000r			; 1
CONST	ENDS
;	COMDAT ?LightSkyBlue@Colors@DirectX@@3UXMVECTORF32@2@B
CONST	SEGMENT
?LightSkyBlue@Colors@DirectX@@3UXMVECTORF32@2@B DD 03f078788r ; 0.529412 ; DirectX::Colors::LightSkyBlue
	DD	03f4eced0r			; 0.807843
	DD	03f7afafcr			; 0.980392
	DD	03f800000r			; 1
CONST	ENDS
;	COMDAT ?LightSeaGreen@Colors@DirectX@@3UXMVECTORF32@2@B
CONST	SEGMENT
?LightSeaGreen@Colors@DirectX@@3UXMVECTORF32@2@B DD 03e008081r ; 0.12549 ; DirectX::Colors::LightSeaGreen
	DD	03f32b2b3r			; 0.698039
	DD	03f2aaaabr			; 0.666667
	DD	03f800000r			; 1
CONST	ENDS
;	COMDAT ?is_signed@?$numeric_limits@J@std@@2_NB
CONST	SEGMENT
?is_signed@?$numeric_limits@J@std@@2_NB DB 01H		; std::numeric_limits<long>::is_signed
CONST	ENDS
;	COMDAT ?LightSalmon@Colors@DirectX@@3UXMVECTORF32@2@B
CONST	SEGMENT
?LightSalmon@Colors@DirectX@@3UXMVECTORF32@2@B DD 03f800000r ; 1 ; DirectX::Colors::LightSalmon
	DD	03f20a0a1r			; 0.627451
	DD	03ef4f4f6r			; 0.478431
	DD	03f800000r			; 1
CONST	ENDS
;	COMDAT ?LightPink@Colors@DirectX@@3UXMVECTORF32@2@B
CONST	SEGMENT
?LightPink@Colors@DirectX@@3UXMVECTORF32@2@B DD 03f800000r ; 1 ; DirectX::Colors::LightPink
	DD	03f36b6b7r			; 0.713726
	DD	03f41c1c3r			; 0.756863
	DD	03f800000r			; 1
CONST	ENDS
;	COMDAT ?LightGray@Colors@DirectX@@3UXMVECTORF32@2@B
CONST	SEGMENT
?LightGray@Colors@DirectX@@3UXMVECTORF32@2@B DD 03f53d3d5r ; 0.827451 ; DirectX::Colors::LightGray
	DD	03f53d3d5r			; 0.827451
	DD	03f53d3d5r			; 0.827451
	DD	03f800000r			; 1
CONST	ENDS
;	COMDAT ?LightGreen@Colors@DirectX@@3UXMVECTORF32@2@B
CONST	SEGMENT
?LightGreen@Colors@DirectX@@3UXMVECTORF32@2@B DD 03f109091r ; 0.564706 ; DirectX::Colors::LightGreen
	DD	03f6eeef0r			; 0.933333
	DD	03f109091r			; 0.564706
	DD	03f800000r			; 1
CONST	ENDS
;	COMDAT ?LightGoldenrodYellow@Colors@DirectX@@3UXMVECTORF32@2@B
CONST	SEGMENT
?LightGoldenrodYellow@Colors@DirectX@@3UXMVECTORF32@2@B DD 03f7afafcr ; 0.980392 ; DirectX::Colors::LightGoldenrodYellow
	DD	03f7afafcr			; 0.980392
	DD	03f52d2d4r			; 0.823529
	DD	03f800000r			; 1
CONST	ENDS
;	COMDAT ?LightCyan@Colors@DirectX@@3UXMVECTORF32@2@B
CONST	SEGMENT
?LightCyan@Colors@DirectX@@3UXMVECTORF32@2@B DD 03f60e0e2r ; 0.878431 ; DirectX::Colors::LightCyan
	DD	03f800000r			; 1
	DD	03f800000r			; 1
	DD	03f800000r			; 1
CONST	ENDS
;	COMDAT ?LightCoral@Colors@DirectX@@3UXMVECTORF32@2@B
CONST	SEGMENT
?LightCoral@Colors@DirectX@@3UXMVECTORF32@2@B DD 03f70f0f2r ; 0.941177 ; DirectX::Colors::LightCoral
	DD	03f008081r			; 0.501961
	DD	03f008081r			; 0.501961
	DD	03f800000r			; 1
CONST	ENDS
;	COMDAT ?LightBlue@Colors@DirectX@@3UXMVECTORF32@2@B
CONST	SEGMENT
?LightBlue@Colors@DirectX@@3UXMVECTORF32@2@B DD 03f2dadaer ; 0.678431 ; DirectX::Colors::LightBlue
	DD	03f58d8dar			; 0.847059
	DD	03f66e6e8r			; 0.901961
	DD	03f800000r			; 1
CONST	ENDS
;	COMDAT ?LemonChiffon@Colors@DirectX@@3UXMVECTORF32@2@B
CONST	SEGMENT
?LemonChiffon@Colors@DirectX@@3UXMVECTORF32@2@B DD 03f800000r ; 1 ; DirectX::Colors::LemonChiffon
	DD	03f7afafcr			; 0.980392
	DD	03f4dcdcfr			; 0.803922
	DD	03f800000r			; 1
CONST	ENDS
;	COMDAT ?LawnGreen@Colors@DirectX@@3UXMVECTORF32@2@B
CONST	SEGMENT
?LawnGreen@Colors@DirectX@@3UXMVECTORF32@2@B DD 03ef8f8far ; 0.486275 ; DirectX::Colors::LawnGreen
	DD	03f7cfcfer			; 0.988235
	DD	000000000r			; 0
	DD	03f800000r			; 1
CONST	ENDS
;	COMDAT ?LavenderBlush@Colors@DirectX@@3UXMVECTORF32@2@B
CONST	SEGMENT
?LavenderBlush@Colors@DirectX@@3UXMVECTORF32@2@B DD 03f800000r ; 1 ; DirectX::Colors::LavenderBlush
	DD	03f70f0f2r			; 0.941177
	DD	03f75f5f7r			; 0.960784
	DD	03f800000r			; 1
CONST	ENDS
;	COMDAT ?Lavender@Colors@DirectX@@3UXMVECTORF32@2@B
CONST	SEGMENT
?Lavender@Colors@DirectX@@3UXMVECTORF32@2@B DD 03f66e6e8r ; 0.901961 ; DirectX::Colors::Lavender
	DD	03f66e6e8r			; 0.901961
	DD	03f7afafcr			; 0.980392
	DD	03f800000r			; 1
CONST	ENDS
;	COMDAT ?Khaki@Colors@DirectX@@3UXMVECTORF32@2@B
CONST	SEGMENT
?Khaki@Colors@DirectX@@3UXMVECTORF32@2@B DD 03f70f0f2r ; 0.941177 ; DirectX::Colors::Khaki
	DD	03f66e6e8r			; 0.901961
	DD	03f0c8c8dr			; 0.54902
	DD	03f800000r			; 1
CONST	ENDS
;	COMDAT ?Ivory@Colors@DirectX@@3UXMVECTORF32@2@B
CONST	SEGMENT
?Ivory@Colors@DirectX@@3UXMVECTORF32@2@B DD 03f800000r ; 1 ; DirectX::Colors::Ivory
	DD	03f800000r			; 1
	DD	03f70f0f2r			; 0.941177
	DD	03f800000r			; 1
CONST	ENDS
;	COMDAT ?Indigo@Colors@DirectX@@3UXMVECTORF32@2@B
CONST	SEGMENT
?Indigo@Colors@DirectX@@3UXMVECTORF32@2@B DD 03e969697r ; 0.294118 ; DirectX::Colors::Indigo
	DD	000000000r			; 0
	DD	03f028283r			; 0.509804
	DD	03f800000r			; 1
CONST	ENDS
;	COMDAT ?IndianRed@Colors@DirectX@@3UXMVECTORF32@2@B
CONST	SEGMENT
?IndianRed@Colors@DirectX@@3UXMVECTORF32@2@B DD 03f4dcdcfr ; 0.803922 ; DirectX::Colors::IndianRed
	DD	03eb8b8b9r			; 0.360784
	DD	03eb8b8b9r			; 0.360784
	DD	03f800000r			; 1
CONST	ENDS
;	COMDAT ?HotPink@Colors@DirectX@@3UXMVECTORF32@2@B
CONST	SEGMENT
?HotPink@Colors@DirectX@@3UXMVECTORF32@2@B DD 03f800000r ; 1 ; DirectX::Colors::HotPink
	DD	03ed2d2d4r			; 0.411765
	DD	03f34b4b5r			; 0.705882
	DD	03f800000r			; 1
CONST	ENDS
;	COMDAT ?Honeydew@Colors@DirectX@@3UXMVECTORF32@2@B
CONST	SEGMENT
?Honeydew@Colors@DirectX@@3UXMVECTORF32@2@B DD 03f70f0f2r ; 0.941177 ; DirectX::Colors::Honeydew
	DD	03f800000r			; 1
	DD	03f70f0f2r			; 0.941177
	DD	03f800000r			; 1
CONST	ENDS
;	COMDAT ?GreenYellow@Colors@DirectX@@3UXMVECTORF32@2@B
CONST	SEGMENT
?GreenYellow@Colors@DirectX@@3UXMVECTORF32@2@B DD 03f2dadaer ; 0.678431 ; DirectX::Colors::GreenYellow
	DD	03f800000r			; 1
	DD	03e3cbcbdr			; 0.184314
	DD	03f800000r			; 1
CONST	ENDS
;	COMDAT ?Green@Colors@DirectX@@3UXMVECTORF32@2@B
CONST	SEGMENT
?Green@Colors@DirectX@@3UXMVECTORF32@2@B DD 000000000r ; 0 ; DirectX::Colors::Green
	DD	03f008081r			; 0.501961
	DD	000000000r			; 0
	DD	03f800000r			; 1
CONST	ENDS
;	COMDAT ?Gray@Colors@DirectX@@3UXMVECTORF32@2@B
CONST	SEGMENT
?Gray@Colors@DirectX@@3UXMVECTORF32@2@B DD 03f008081r ; 0.501961 ; DirectX::Colors::Gray
	DD	03f008081r			; 0.501961
	DD	03f008081r			; 0.501961
	DD	03f800000r			; 1
CONST	ENDS
;	COMDAT ?Goldenrod@Colors@DirectX@@3UXMVECTORF32@2@B
CONST	SEGMENT
?Goldenrod@Colors@DirectX@@3UXMVECTORF32@2@B DD 03f5adadcr ; 0.854902 ; DirectX::Colors::Goldenrod
	DD	03f25a5a6r			; 0.647059
	DD	03e008081r			; 0.12549
	DD	03f800000r			; 1
CONST	ENDS
;	COMDAT ?Gold@Colors@DirectX@@3UXMVECTORF32@2@B
CONST	SEGMENT
?Gold@Colors@DirectX@@3UXMVECTORF32@2@B DD 03f800000r ; 1 ; DirectX::Colors::Gold
	DD	03f57d7d9r			; 0.843137
	DD	000000000r			; 0
	DD	03f800000r			; 1
CONST	ENDS
;	COMDAT ?GhostWhite@Colors@DirectX@@3UXMVECTORF32@2@B
CONST	SEGMENT
?GhostWhite@Colors@DirectX@@3UXMVECTORF32@2@B DD 03f78f8far ; 0.972549 ; DirectX::Colors::GhostWhite
	DD	03f78f8far			; 0.972549
	DD	03f800000r			; 1
	DD	03f800000r			; 1
CONST	ENDS
;	COMDAT ?Gainsboro@Colors@DirectX@@3UXMVECTORF32@2@B
CONST	SEGMENT
?Gainsboro@Colors@DirectX@@3UXMVECTORF32@2@B DD 03f5cdcder ; 0.862745 ; DirectX::Colors::Gainsboro
	DD	03f5cdcder			; 0.862745
	DD	03f5cdcder			; 0.862745
	DD	03f800000r			; 1
CONST	ENDS
;	COMDAT ?Fuchsia@Colors@DirectX@@3UXMVECTORF32@2@B
CONST	SEGMENT
?Fuchsia@Colors@DirectX@@3UXMVECTORF32@2@B DD 03f800000r ; 1 ; DirectX::Colors::Fuchsia
	DD	000000000r			; 0
	DD	03f800000r			; 1
	DD	03f800000r			; 1
CONST	ENDS
;	COMDAT ?ForestGreen@Colors@DirectX@@3UXMVECTORF32@2@B
CONST	SEGMENT
?ForestGreen@Colors@DirectX@@3UXMVECTORF32@2@B DD 03e088889r ; 0.133333 ; DirectX::Colors::ForestGreen
	DD	03f0b8b8cr			; 0.545098
	DD	03e088889r			; 0.133333
	DD	03f800000r			; 1
CONST	ENDS
;	COMDAT ?FloralWhite@Colors@DirectX@@3UXMVECTORF32@2@B
CONST	SEGMENT
?FloralWhite@Colors@DirectX@@3UXMVECTORF32@2@B DD 03f800000r ; 1 ; DirectX::Colors::FloralWhite
	DD	03f7afafcr			; 0.980392
	DD	03f70f0f2r			; 0.941177
	DD	03f800000r			; 1
CONST	ENDS
;	COMDAT ?Firebrick@Colors@DirectX@@3UXMVECTORF32@2@B
CONST	SEGMENT
?Firebrick@Colors@DirectX@@3UXMVECTORF32@2@B DD 03f32b2b3r ; 0.698039 ; DirectX::Colors::Firebrick
	DD	03e088889r			; 0.133333
	DD	03e088889r			; 0.133333
	DD	03f800000r			; 1
CONST	ENDS
;	COMDAT ?value@?$integral_constant@I$07@std@@2IB
CONST	SEGMENT
?value@?$integral_constant@I$07@std@@2IB DD 08H		; std::integral_constant<unsigned int,8>::value
CONST	ENDS
;	COMDAT ?DodgerBlue@Colors@DirectX@@3UXMVECTORF32@2@B
CONST	SEGMENT
?DodgerBlue@Colors@DirectX@@3UXMVECTORF32@2@B DD 03df0f0f2r ; 0.117647 ; DirectX::Colors::DodgerBlue
	DD	03f109091r			; 0.564706
	DD	03f800000r			; 1
	DD	03f800000r			; 1
CONST	ENDS
;	COMDAT ?digits10@?$numeric_limits@I@std@@2HB
CONST	SEGMENT
?digits10@?$numeric_limits@I@std@@2HB DD 09H		; std::numeric_limits<unsigned int>::digits10
CONST	ENDS
;	COMDAT ?DimGray@Colors@DirectX@@3UXMVECTORF32@2@B
CONST	SEGMENT
?DimGray@Colors@DirectX@@3UXMVECTORF32@2@B DD 03ed2d2d4r ; 0.411765 ; DirectX::Colors::DimGray
	DD	03ed2d2d4r			; 0.411765
	DD	03ed2d2d4r			; 0.411765
	DD	03f800000r			; 1
CONST	ENDS
;	COMDAT ?DeepSkyBlue@Colors@DirectX@@3UXMVECTORF32@2@B
CONST	SEGMENT
?DeepSkyBlue@Colors@DirectX@@3UXMVECTORF32@2@B DD 000000000r ; 0 ; DirectX::Colors::DeepSkyBlue
	DD	03f3fbfc0r			; 0.74902
	DD	03f800000r			; 1
	DD	03f800000r			; 1
CONST	ENDS
;	COMDAT ?DeepPink@Colors@DirectX@@3UXMVECTORF32@2@B
CONST	SEGMENT
?DeepPink@Colors@DirectX@@3UXMVECTORF32@2@B DD 03f800000r ; 1 ; DirectX::Colors::DeepPink
	DD	03da0a0a1r			; 0.0784314
	DD	03f139394r			; 0.576471
	DD	03f800000r			; 1
CONST	ENDS
;	COMDAT ?DarkViolet@Colors@DirectX@@3UXMVECTORF32@2@B
CONST	SEGMENT
?DarkViolet@Colors@DirectX@@3UXMVECTORF32@2@B DD 03f149495r ; 0.580392 ; DirectX::Colors::DarkViolet
	DD	000000000r			; 0
	DD	03f53d3d5r			; 0.827451
	DD	03f800000r			; 1
CONST	ENDS
;	COMDAT ?digits@?$numeric_limits@I@std@@2HB
CONST	SEGMENT
?digits@?$numeric_limits@I@std@@2HB DD 020H		; std::numeric_limits<unsigned int>::digits
CONST	ENDS
;	COMDAT ?DarkTurquoise@Colors@DirectX@@3UXMVECTORF32@2@B
CONST	SEGMENT
?DarkTurquoise@Colors@DirectX@@3UXMVECTORF32@2@B DD 000000000r ; 0 ; DirectX::Colors::DarkTurquoise
	DD	03f4eced0r			; 0.807843
	DD	03f51d1d3r			; 0.819608
	DD	03f800000r			; 1
CONST	ENDS
;	COMDAT ?DarkSlateGray@Colors@DirectX@@3UXMVECTORF32@2@B
CONST	SEGMENT
?DarkSlateGray@Colors@DirectX@@3UXMVECTORF32@2@B DD 03e3cbcbdr ; 0.184314 ; DirectX::Colors::DarkSlateGray
	DD	03e9e9e9fr			; 0.309804
	DD	03e9e9e9fr			; 0.309804
	DD	03f800000r			; 1
CONST	ENDS
;	COMDAT ?DarkSlateBlue@Colors@DirectX@@3UXMVECTORF32@2@B
CONST	SEGMENT
?DarkSlateBlue@Colors@DirectX@@3UXMVECTORF32@2@B DD 03e909091r ; 0.282353 ; DirectX::Colors::DarkSlateBlue
	DD	03e74f4f6r			; 0.239216
	DD	03f0b8b8cr			; 0.545098
	DD	03f800000r			; 1
CONST	ENDS
;	COMDAT ?DarkSeaGreen@Colors@DirectX@@3UXMVECTORF32@2@B
CONST	SEGMENT
?DarkSeaGreen@Colors@DirectX@@3UXMVECTORF32@2@B DD 03f0f8f90r ; 0.560784 ; DirectX::Colors::DarkSeaGreen
	DD	03f3cbcbdr			; 0.737255
	DD	03f0b8b8cr			; 0.545098
	DD	03f800000r			; 1
CONST	ENDS
;	COMDAT ?is_signed@?$numeric_limits@I@std@@2_NB
CONST	SEGMENT
?is_signed@?$numeric_limits@I@std@@2_NB DB 00H		; std::numeric_limits<unsigned int>::is_signed
CONST	ENDS
;	COMDAT ?DarkSalmon@Colors@DirectX@@3UXMVECTORF32@2@B
CONST	SEGMENT
?DarkSalmon@Colors@DirectX@@3UXMVECTORF32@2@B DD 03f69e9ebr ; 0.913726 ; DirectX::Colors::DarkSalmon
	DD	03f169697r			; 0.588235
	DD	03ef4f4f6r			; 0.478431
	DD	03f800000r			; 1
CONST	ENDS
;	COMDAT ?DarkRed@Colors@DirectX@@3UXMVECTORF32@2@B
CONST	SEGMENT
?DarkRed@Colors@DirectX@@3UXMVECTORF32@2@B DD 03f0b8b8cr ; 0.545098 ; DirectX::Colors::DarkRed
	DD	000000000r			; 0
	DD	000000000r			; 0
	DD	03f800000r			; 1
CONST	ENDS
;	COMDAT ?DarkOrchid@Colors@DirectX@@3UXMVECTORF32@2@B
CONST	SEGMENT
?DarkOrchid@Colors@DirectX@@3UXMVECTORF32@2@B DD 03f19999ar ; 0.6 ; DirectX::Colors::DarkOrchid
	DD	03e48c8car			; 0.196078
	DD	03f4ccccer			; 0.8
	DD	03f800000r			; 1
CONST	ENDS
;	COMDAT ?DarkOrange@Colors@DirectX@@3UXMVECTORF32@2@B
CONST	SEGMENT
?DarkOrange@Colors@DirectX@@3UXMVECTORF32@2@B DD 03f800000r ; 1 ; DirectX::Colors::DarkOrange
	DD	03f0c8c8dr			; 0.54902
	DD	000000000r			; 0
	DD	03f800000r			; 1
CONST	ENDS
;	COMDAT ?DarkOliveGreen@Colors@DirectX@@3UXMVECTORF32@2@B
CONST	SEGMENT
?DarkOliveGreen@Colors@DirectX@@3UXMVECTORF32@2@B DD 03eaaaaabr ; 0.333333 ; DirectX::Colors::DarkOliveGreen
	DD	03ed6d6d8r			; 0.419608
	DD	03e3cbcbdr			; 0.184314
	DD	03f800000r			; 1
CONST	ENDS
;	COMDAT ?DarkMagenta@Colors@DirectX@@3UXMVECTORF32@2@B
CONST	SEGMENT
?DarkMagenta@Colors@DirectX@@3UXMVECTORF32@2@B DD 03f0b8b8cr ; 0.545098 ; DirectX::Colors::DarkMagenta
	DD	000000000r			; 0
	DD	03f0b8b8cr			; 0.545098
	DD	03f800000r			; 1
CONST	ENDS
;	COMDAT ?DarkKhaki@Colors@DirectX@@3UXMVECTORF32@2@B
CONST	SEGMENT
?DarkKhaki@Colors@DirectX@@3UXMVECTORF32@2@B DD 03f3dbdber ; 0.741176 ; DirectX::Colors::DarkKhaki
	DD	03f37b7b8r			; 0.717647
	DD	03ed6d6d8r			; 0.419608
	DD	03f800000r			; 1
CONST	ENDS
;	COMDAT ?DarkGreen@Colors@DirectX@@3UXMVECTORF32@2@B
CONST	SEGMENT
?DarkGreen@Colors@DirectX@@3UXMVECTORF32@2@B DD 000000000r ; 0 ; DirectX::Colors::DarkGreen
	DD	03ec8c8car			; 0.392157
	DD	000000000r			; 0
	DD	03f800000r			; 1
CONST	ENDS
;	COMDAT ?DarkGray@Colors@DirectX@@3UXMVECTORF32@2@B
CONST	SEGMENT
?DarkGray@Colors@DirectX@@3UXMVECTORF32@2@B DD 03f29a9aar ; 0.662745 ; DirectX::Colors::DarkGray
	DD	03f29a9aar			; 0.662745
	DD	03f29a9aar			; 0.662745
	DD	03f800000r			; 1
CONST	ENDS
;	COMDAT ?DarkGoldenrod@Colors@DirectX@@3UXMVECTORF32@2@B
CONST	SEGMENT
?DarkGoldenrod@Colors@DirectX@@3UXMVECTORF32@2@B DD 03f38b8b9r ; 0.721569 ; DirectX::Colors::DarkGoldenrod
	DD	03f068687r			; 0.52549
	DD	03d30b0b1r			; 0.0431373
	DD	03f800000r			; 1
CONST	ENDS
;	COMDAT ?DarkCyan@Colors@DirectX@@3UXMVECTORF32@2@B
CONST	SEGMENT
?DarkCyan@Colors@DirectX@@3UXMVECTORF32@2@B DD 000000000r ; 0 ; DirectX::Colors::DarkCyan
	DD	03f0b8b8cr			; 0.545098
	DD	03f0b8b8cr			; 0.545098
	DD	03f800000r			; 1
CONST	ENDS
;	COMDAT ?DarkBlue@Colors@DirectX@@3UXMVECTORF32@2@B
CONST	SEGMENT
?DarkBlue@Colors@DirectX@@3UXMVECTORF32@2@B DD 000000000r ; 0 ; DirectX::Colors::DarkBlue
	DD	000000000r			; 0
	DD	03f0b8b8cr			; 0.545098
	DD	03f800000r			; 1
CONST	ENDS
;	COMDAT ?Cyan@Colors@DirectX@@3UXMVECTORF32@2@B
CONST	SEGMENT
?Cyan@Colors@DirectX@@3UXMVECTORF32@2@B DD 000000000r ; 0 ; DirectX::Colors::Cyan
	DD	03f800000r			; 1
	DD	03f800000r			; 1
	DD	03f800000r			; 1
CONST	ENDS
;	COMDAT ?Crimson@Colors@DirectX@@3UXMVECTORF32@2@B
CONST	SEGMENT
?Crimson@Colors@DirectX@@3UXMVECTORF32@2@B DD 03f5cdcder ; 0.862745 ; DirectX::Colors::Crimson
	DD	03da0a0a1r			; 0.0784314
	DD	03e70f0f2r			; 0.235294
	DD	03f800000r			; 1
CONST	ENDS
;	COMDAT ?Cornsilk@Colors@DirectX@@3UXMVECTORF32@2@B
CONST	SEGMENT
?Cornsilk@Colors@DirectX@@3UXMVECTORF32@2@B DD 03f800000r ; 1 ; DirectX::Colors::Cornsilk
	DD	03f78f8far			; 0.972549
	DD	03f5cdcder			; 0.862745
	DD	03f800000r			; 1
CONST	ENDS
;	COMDAT ?CornflowerBlue@Colors@DirectX@@3UXMVECTORF32@2@B
CONST	SEGMENT
?CornflowerBlue@Colors@DirectX@@3UXMVECTORF32@2@B DD 03ec8c8car ; 0.392157 ; DirectX::Colors::CornflowerBlue
	DD	03f159596r			; 0.584314
	DD	03f6dedefr			; 0.929412
	DD	03f800000r			; 1
CONST	ENDS
;	COMDAT ?Coral@Colors@DirectX@@3UXMVECTORF32@2@B
CONST	SEGMENT
?Coral@Colors@DirectX@@3UXMVECTORF32@2@B DD 03f800000r ; 1 ; DirectX::Colors::Coral
	DD	03efeff00r			; 0.498039
	DD	03ea0a0a1r			; 0.313726
	DD	03f800000r			; 1
CONST	ENDS
;	COMDAT ?Chocolate@Colors@DirectX@@3UXMVECTORF32@2@B
CONST	SEGMENT
?Chocolate@Colors@DirectX@@3UXMVECTORF32@2@B DD 03f52d2d4r ; 0.823529 ; DirectX::Colors::Chocolate
	DD	03ed2d2d4r			; 0.411765
	DD	03df0f0f2r			; 0.117647
	DD	03f800000r			; 1
CONST	ENDS
;	COMDAT ?Chartreuse@Colors@DirectX@@3UXMVECTORF32@2@B
CONST	SEGMENT
?Chartreuse@Colors@DirectX@@3UXMVECTORF32@2@B DD 03efeff00r ; 0.498039 ; DirectX::Colors::Chartreuse
	DD	03f800000r			; 1
	DD	000000000r			; 0
	DD	03f800000r			; 1
CONST	ENDS
;	COMDAT ?CadetBlue@Colors@DirectX@@3UXMVECTORF32@2@B
CONST	SEGMENT
?CadetBlue@Colors@DirectX@@3UXMVECTORF32@2@B DD 03ebebebfr ; 0.372549 ; DirectX::Colors::CadetBlue
	DD	03f1e9e9fr			; 0.619608
	DD	03f20a0a1r			; 0.627451
	DD	03f800000r			; 1
CONST	ENDS
;	COMDAT ?BurlyWood@Colors@DirectX@@3UXMVECTORF32@2@B
CONST	SEGMENT
?BurlyWood@Colors@DirectX@@3UXMVECTORF32@2@B DD 03f5edee0r ; 0.870588 ; DirectX::Colors::BurlyWood
	DD	03f38b8b9r			; 0.721569
	DD	03f078788r			; 0.529412
	DD	03f800000r			; 1
CONST	ENDS
;	COMDAT ?Brown@Colors@DirectX@@3UXMVECTORF32@2@B
CONST	SEGMENT
?Brown@Colors@DirectX@@3UXMVECTORF32@2@B DD 03f25a5a6r ; 0.647059 ; DirectX::Colors::Brown
	DD	03e28a8a9r			; 0.164706
	DD	03e28a8a9r			; 0.164706
	DD	03f800000r			; 1
CONST	ENDS
;	COMDAT ?BlueViolet@Colors@DirectX@@3UXMVECTORF32@2@B
CONST	SEGMENT
?BlueViolet@Colors@DirectX@@3UXMVECTORF32@2@B DD 03f0a8a8br ; 0.541176 ; DirectX::Colors::BlueViolet
	DD	03e2cacadr			; 0.168627
	DD	03f62e2e4r			; 0.886275
	DD	03f800000r			; 1
CONST	ENDS
;	COMDAT ?Blue@Colors@DirectX@@3UXMVECTORF32@2@B
CONST	SEGMENT
?Blue@Colors@DirectX@@3UXMVECTORF32@2@B DD 000000000r ; 0 ; DirectX::Colors::Blue
	DD	000000000r			; 0
	DD	03f800000r			; 1
	DD	03f800000r			; 1
CONST	ENDS
;	COMDAT ?BlanchedAlmond@Colors@DirectX@@3UXMVECTORF32@2@B
CONST	SEGMENT
?BlanchedAlmond@Colors@DirectX@@3UXMVECTORF32@2@B DD 03f800000r ; 1 ; DirectX::Colors::BlanchedAlmond
	DD	03f6bebedr			; 0.921569
	DD	03f4dcdcfr			; 0.803922
	DD	03f800000r			; 1
CONST	ENDS
;	COMDAT ?Black@Colors@DirectX@@3UXMVECTORF32@2@B
CONST	SEGMENT
?Black@Colors@DirectX@@3UXMVECTORF32@2@B DD 000000000r ; 0 ; DirectX::Colors::Black
	DD	000000000r			; 0
	DD	000000000r			; 0
	DD	03f800000r			; 1
CONST	ENDS
;	COMDAT ?Bisque@Colors@DirectX@@3UXMVECTORF32@2@B
CONST	SEGMENT
?Bisque@Colors@DirectX@@3UXMVECTORF32@2@B DD 03f800000r ; 1 ; DirectX::Colors::Bisque
	DD	03f64e4e6r			; 0.894118
	DD	03f44c4c6r			; 0.768628
	DD	03f800000r			; 1
CONST	ENDS
;	COMDAT ?Beige@Colors@DirectX@@3UXMVECTORF32@2@B
CONST	SEGMENT
?Beige@Colors@DirectX@@3UXMVECTORF32@2@B DD 03f75f5f7r ; 0.960784 ; DirectX::Colors::Beige
	DD	03f75f5f7r			; 0.960784
	DD	03f5cdcder			; 0.862745
	DD	03f800000r			; 1
CONST	ENDS
;	COMDAT ?Azure@Colors@DirectX@@3UXMVECTORF32@2@B
CONST	SEGMENT
?Azure@Colors@DirectX@@3UXMVECTORF32@2@B DD 03f70f0f2r ; 0.941177 ; DirectX::Colors::Azure
	DD	03f800000r			; 1
	DD	03f800000r			; 1
	DD	03f800000r			; 1
CONST	ENDS
;	COMDAT ?Aquamarine@Colors@DirectX@@3UXMVECTORF32@2@B
CONST	SEGMENT
?Aquamarine@Colors@DirectX@@3UXMVECTORF32@2@B DD 03efeff00r ; 0.498039 ; DirectX::Colors::Aquamarine
	DD	03f800000r			; 1
	DD	03f54d4d6r			; 0.831373
	DD	03f800000r			; 1
CONST	ENDS
;	COMDAT ?digits10@?$numeric_limits@H@std@@2HB
CONST	SEGMENT
?digits10@?$numeric_limits@H@std@@2HB DD 09H		; std::numeric_limits<int>::digits10
CONST	ENDS
;	COMDAT ?Aqua@Colors@DirectX@@3UXMVECTORF32@2@B
CONST	SEGMENT
?Aqua@Colors@DirectX@@3UXMVECTORF32@2@B DD 000000000r ; 0 ; DirectX::Colors::Aqua
	DD	03f800000r			; 1
	DD	03f800000r			; 1
	DD	03f800000r			; 1
CONST	ENDS
;	COMDAT ?AntiqueWhite@Colors@DirectX@@3UXMVECTORF32@2@B
CONST	SEGMENT
?AntiqueWhite@Colors@DirectX@@3UXMVECTORF32@2@B DD 03f7afafcr ; 0.980392 ; DirectX::Colors::AntiqueWhite
	DD	03f6bebedr			; 0.921569
	DD	03f57d7d9r			; 0.843137
	DD	03f800000r			; 1
CONST	ENDS
;	COMDAT ?AliceBlue@Colors@DirectX@@3UXMVECTORF32@2@B
CONST	SEGMENT
?AliceBlue@Colors@DirectX@@3UXMVECTORF32@2@B DD 03f70f0f2r ; 0.941177 ; DirectX::Colors::AliceBlue
	DD	03f78f8far			; 0.972549
	DD	03f800000r			; 1
	DD	03f800000r			; 1
CONST	ENDS
;	COMDAT ?digits@?$numeric_limits@H@std@@2HB
CONST	SEGMENT
?digits@?$numeric_limits@H@std@@2HB DD 01fH		; std::numeric_limits<int>::digits
CONST	ENDS
;	COMDAT ?is_signed@?$numeric_limits@H@std@@2_NB
CONST	SEGMENT
?is_signed@?$numeric_limits@H@std@@2_NB DB 01H		; std::numeric_limits<int>::is_signed
CONST	ENDS
;	COMDAT ?digits10@?$numeric_limits@G@std@@2HB
CONST	SEGMENT
?digits10@?$numeric_limits@G@std@@2HB DD 04H		; std::numeric_limits<unsigned short>::digits10
CONST	ENDS
;	COMDAT ?digits@?$numeric_limits@G@std@@2HB
CONST	SEGMENT
?digits@?$numeric_limits@G@std@@2HB DD 010H		; std::numeric_limits<unsigned short>::digits
CONST	ENDS
;	COMDAT ?is_signed@?$numeric_limits@G@std@@2_NB
CONST	SEGMENT
?is_signed@?$numeric_limits@G@std@@2_NB DB 00H		; std::numeric_limits<unsigned short>::is_signed
CONST	ENDS
;	COMDAT ?g_XMInvLgE@DirectX@@3UXMVECTORF32@1@B
CONST	SEGMENT
?g_XMInvLgE@DirectX@@3UXMVECTORF32@1@B DD 03f317218r ; 0.693147 ; DirectX::g_XMInvLgE
	DD	03f317218r			; 0.693147
	DD	03f317218r			; 0.693147
	DD	03f317218r			; 0.693147
CONST	ENDS
;	COMDAT ?g_XMLgE@DirectX@@3UXMVECTORF32@1@B
CONST	SEGMENT
?g_XMLgE@DirectX@@3UXMVECTORF32@1@B DD 03fb8aa3br ; 1.4427 ; DirectX::g_XMLgE
	DD	03fb8aa3br			; 1.4427
	DD	03fb8aa3br			; 1.4427
	DD	03fb8aa3br			; 1.4427
CONST	ENDS
;	COMDAT ?g_XMLogEst7@DirectX@@3UXMVECTORF32@1@B
CONST	SEGMENT
?g_XMLogEst7@DirectX@@3UXMVECTORF32@1@B DD 0bc2d4f59r ; -0.010578 ; DirectX::g_XMLogEst7
	DD	0bc2d4f59r			; -0.010578
	DD	0bc2d4f59r			; -0.010578
	DD	0bc2d4f59r			; -0.010578
CONST	ENDS
;	COMDAT ?digits10@?$numeric_limits@F@std@@2HB
CONST	SEGMENT
?digits10@?$numeric_limits@F@std@@2HB DD 04H		; std::numeric_limits<short>::digits10
CONST	ENDS
;	COMDAT ?g_XMLogEst6@DirectX@@3UXMVECTORF32@1@B
CONST	SEGMENT
?g_XMLogEst6@DirectX@@3UXMVECTORF32@1@B DD 03d6a1405r ; 0.057148 ; DirectX::g_XMLogEst6
	DD	03d6a1405r			; 0.057148
	DD	03d6a1405r			; 0.057148
	DD	03d6a1405r			; 0.057148
CONST	ENDS
;	COMDAT ?g_XMLogEst5@DirectX@@3UXMVECTORF32@1@B
CONST	SEGMENT
?g_XMLogEst5@DirectX@@3UXMVECTORF32@1@B DD 0be153261r ; -0.1457 ; DirectX::g_XMLogEst5
	DD	0be153261r			; -0.1457
	DD	0be153261r			; -0.1457
	DD	0be153261r			; -0.1457
CONST	ENDS
;	COMDAT ?g_XMLogEst4@DirectX@@3UXMVECTORF32@1@B
CONST	SEGMENT
?g_XMLogEst4@DirectX@@3UXMVECTORF32@1@B DD 03e7e8e61r ; 0.24859 ; DirectX::g_XMLogEst4
	DD	03e7e8e61r			; 0.24859
	DD	03e7e8e61r			; 0.24859
	DD	03e7e8e61r			; 0.24859
CONST	ENDS
;	COMDAT ?g_XMLogEst3@DirectX@@3UXMVECTORF32@1@B
CONST	SEGMENT
?g_XMLogEst3@DirectX@@3UXMVECTORF32@1@B DD 0beb359der ; -0.350295 ; DirectX::g_XMLogEst3
	DD	0beb359der			; -0.350295
	DD	0beb359der			; -0.350295
	DD	0beb359der			; -0.350295
CONST	ENDS
;	COMDAT ?digits@?$numeric_limits@F@std@@2HB
CONST	SEGMENT
?digits@?$numeric_limits@F@std@@2HB DD 0fH		; std::numeric_limits<short>::digits
CONST	ENDS
;	COMDAT ?g_XMLogEst2@DirectX@@3UXMVECTORF32@1@B
CONST	SEGMENT
?g_XMLogEst2@DirectX@@3UXMVECTORF32@1@B DD 03ef571d2r ; 0.479384 ; DirectX::g_XMLogEst2
	DD	03ef571d2r			; 0.479384
	DD	03ef571d2r			; 0.479384
	DD	03ef571d2r			; 0.479384
CONST	ENDS
;	COMDAT ?g_XMLogEst1@DirectX@@3UXMVECTORF32@1@B
CONST	SEGMENT
?g_XMLogEst1@DirectX@@3UXMVECTORF32@1@B DD 0bf38a351r ; -0.721242 ; DirectX::g_XMLogEst1
	DD	0bf38a351r			; -0.721242
	DD	0bf38a351r			; -0.721242
	DD	0bf38a351r			; -0.721242
CONST	ENDS
;	COMDAT ?g_XMLogEst0@DirectX@@3UXMVECTORF32@1@B
CONST	SEGMENT
?g_XMLogEst0@DirectX@@3UXMVECTORF32@1@B DD 03fb8aa2ar ; 1.44269 ; DirectX::g_XMLogEst0
	DD	03fb8aa2ar			; 1.44269
	DD	03fb8aa2ar			; 1.44269
	DD	03fb8aa2ar			; 1.44269
CONST	ENDS
;	COMDAT ?g_XMExpEst7@DirectX@@3UXMVECTORF32@1@B
CONST	SEGMENT
?g_XMExpEst7@DirectX@@3UXMVECTORF32@1@B DD 0b7364261r ; -1.08635e-005 ; DirectX::g_XMExpEst7
	DD	0b7364261r			; -1.08635e-005
	DD	0b7364261r			; -1.08635e-005
	DD	0b7364261r			; -1.08635e-005
CONST	ENDS
;	COMDAT ?is_signed@?$numeric_limits@F@std@@2_NB
CONST	SEGMENT
?is_signed@?$numeric_limits@F@std@@2_NB DB 01H		; std::numeric_limits<short>::is_signed
CONST	ENDS
;	COMDAT ?g_XMExpEst6@DirectX@@3UXMVECTORF32@1@B
CONST	SEGMENT
?g_XMExpEst6@DirectX@@3UXMVECTORF32@1@B DD 0391aa7d7r ; 0.000147491 ; DirectX::g_XMExpEst6
	DD	0391aa7d7r			; 0.000147491
	DD	0391aa7d7r			; 0.000147491
	DD	0391aa7d7r			; 0.000147491
CONST	ENDS
;	COMDAT ?g_XMExpEst5@DirectX@@3UXMVECTORF32@1@B
CONST	SEGMENT
?g_XMExpEst5@DirectX@@3UXMVECTORF32@1@B DD 0baae1854r ; -0.00132824 ; DirectX::g_XMExpEst5
	DD	0baae1854r			; -0.00132824
	DD	0baae1854r			; -0.00132824
	DD	0baae1854r			; -0.00132824
CONST	ENDS
;	COMDAT ?g_XMExpEst4@DirectX@@3UXMVECTORF32@1@B
CONST	SEGMENT
?g_XMExpEst4@DirectX@@3UXMVECTORF32@1@B DD 03c1d8c54r ; 0.00961598 ; DirectX::g_XMExpEst4
	DD	03c1d8c54r			; 0.00961598
	DD	03c1d8c54r			; 0.00961598
	DD	03c1d8c54r			; 0.00961598
CONST	ENDS
;	COMDAT ?g_XMExpEst3@DirectX@@3UXMVECTORF32@1@B
CONST	SEGMENT
?g_XMExpEst3@DirectX@@3UXMVECTORF32@1@B DD 0bd6357car ; -0.0555036 ; DirectX::g_XMExpEst3
	DD	0bd6357car			; -0.0555036
	DD	0bd6357car			; -0.0555036
	DD	0bd6357car			; -0.0555036
CONST	ENDS
;	COMDAT ?g_XMExpEst2@DirectX@@3UXMVECTORF32@1@B
CONST	SEGMENT
?g_XMExpEst2@DirectX@@3UXMVECTORF32@1@B DD 03e75fdedr ; 0.240226 ; DirectX::g_XMExpEst2
	DD	03e75fdedr			; 0.240226
	DD	03e75fdedr			; 0.240226
	DD	03e75fdedr			; 0.240226
CONST	ENDS
;	COMDAT ?g_XMExpEst1@DirectX@@3UXMVECTORF32@1@B
CONST	SEGMENT
?g_XMExpEst1@DirectX@@3UXMVECTORF32@1@B DD 0bf317218r ; -0.693147 ; DirectX::g_XMExpEst1
	DD	0bf317218r			; -0.693147
	DD	0bf317218r			; -0.693147
	DD	0bf317218r			; -0.693147
CONST	ENDS
PUBLIC	_hypot
PUBLIC	_fabsf
PUBLIC	??2@YAPAXIPAX@Z					; operator new
PUBLIC	??3@YAXPAX0@Z					; operator delete
PUBLIC	?length@?$char_traits@D@std@@SAIPBD@Z		; std::char_traits<char>::length
PUBLIC	?copy@?$char_traits@D@std@@SAPADPADPBDI@Z	; std::char_traits<char>::copy
PUBLIC	?move@?$char_traits@D@std@@SAPADPADPBDI@Z	; std::char_traits<char>::move
PUBLIC	?assign@?$char_traits@D@std@@SAXAADABD@Z	; std::char_traits<char>::assign
PUBLIC	??0_Container_proxy@std@@QAE@XZ			; std::_Container_proxy::_Container_proxy
PUBLIC	??0_Container_base12@std@@QAE@XZ		; std::_Container_base12::_Container_base12
PUBLIC	??1_Container_base12@std@@QAE@XZ		; std::_Container_base12::~_Container_base12
PUBLIC	?_Orphan_all@_Container_base12@std@@QAEXXZ	; std::_Container_base12::_Orphan_all
PUBLIC	??0?$allocator@D@std@@QAE@XZ			; std::allocator<char>::allocator<char>
PUBLIC	?deallocate@?$allocator@D@std@@QAEXPADI@Z	; std::allocator<char>::deallocate
PUBLIC	?allocate@?$allocator@D@std@@QAEPADI@Z		; std::allocator<char>::allocate
PUBLIC	?max_size@?$allocator@D@std@@QBEIXZ		; std::allocator<char>::max_size
PUBLIC	?max_size@?$allocator_traits@V?$allocator@D@std@@@std@@SAIABV?$allocator@D@2@@Z ; std::allocator_traits<std::allocator<char> >::max_size
PUBLIC	??0?$_Wrap_alloc@V?$allocator@D@std@@@std@@QAE@XZ ; std::_Wrap_alloc<std::allocator<char> >::_Wrap_alloc<std::allocator<char> >
PUBLIC	?allocate@?$_Wrap_alloc@V?$allocator@D@std@@@std@@QAEPADI@Z ; std::_Wrap_alloc<std::allocator<char> >::allocate
PUBLIC	?deallocate@?$_Wrap_alloc@V?$allocator@D@std@@@std@@QAEXPADI@Z ; std::_Wrap_alloc<std::allocator<char> >::deallocate
PUBLIC	?max_size@?$_Wrap_alloc@V?$allocator@D@std@@@std@@QBEIXZ ; std::_Wrap_alloc<std::allocator<char> >::max_size
PUBLIC	??0?$_String_val@U?$_Simple_types@D@std@@@std@@QAE@XZ ; std::_String_val<std::_Simple_types<char> >::_String_val<std::_Simple_types<char> >
PUBLIC	?_Myptr@?$_String_val@U?$_Simple_types@D@std@@@std@@QAEPADXZ ; std::_String_val<std::_Simple_types<char> >::_Myptr
PUBLIC	?_Myptr@?$_String_val@U?$_Simple_types@D@std@@@std@@QBEPBDXZ ; std::_String_val<std::_Simple_types<char> >::_Myptr
PUBLIC	??1?$_String_val@U?$_Simple_types@D@std@@@std@@QAE@XZ ; std::_String_val<std::_Simple_types<char> >::~_String_val<std::_Simple_types<char> >
PUBLIC	??0?$_String_alloc@$0A@U?$_String_base_types@DV?$allocator@D@std@@@std@@@std@@QAE@ABV?$allocator@D@1@@Z ; std::_String_alloc<0,std::_String_base_types<char,std::allocator<char> > >::_String_alloc<0,std::_String_base_types<char,std::allocator<char> > >
PUBLIC	??1?$_String_alloc@$0A@U?$_String_base_types@DV?$allocator@D@std@@@std@@@std@@QAE@XZ ; std::_String_alloc<0,std::_String_base_types<char,std::allocator<char> > >::~_String_alloc<0,std::_String_base_types<char,std::allocator<char> > >
PUBLIC	?_Alloc_proxy@?$_String_alloc@$0A@U?$_String_base_types@DV?$allocator@D@std@@@std@@@std@@QAEXXZ ; std::_String_alloc<0,std::_String_base_types<char,std::allocator<char> > >::_Alloc_proxy
PUBLIC	?_Free_proxy@?$_String_alloc@$0A@U?$_String_base_types@DV?$allocator@D@std@@@std@@@std@@QAEXXZ ; std::_String_alloc<0,std::_String_base_types<char,std::allocator<char> > >::_Free_proxy
PUBLIC	?_Getal@?$_String_alloc@$0A@U?$_String_base_types@DV?$allocator@D@std@@@std@@@std@@QBE?AU?$_Wrap_alloc@V?$allocator@D@std@@@2@XZ ; std::_String_alloc<0,std::_String_base_types<char,std::allocator<char> > >::_Getal
PUBLIC	??0?$basic_string@DU?$char_traits@D@std@@V?$allocator@D@2@@std@@QAE@PBD@Z ; std::basic_string<char,std::char_traits<char>,std::allocator<char> >::basic_string<char,std::char_traits<char>,std::allocator<char> >
PUBLIC	?assign@?$basic_string@DU?$char_traits@D@std@@V?$allocator@D@2@@std@@QAEAAV12@ABV12@II@Z ; std::basic_string<char,std::char_traits<char>,std::allocator<char> >::assign
PUBLIC	?assign@?$basic_string@DU?$char_traits@D@std@@V?$allocator@D@2@@std@@QAEAAV12@PBDI@Z ; std::basic_string<char,std::char_traits<char>,std::allocator<char> >::assign
PUBLIC	?assign@?$basic_string@DU?$char_traits@D@std@@V?$allocator@D@2@@std@@QAEAAV12@PBD@Z ; std::basic_string<char,std::char_traits<char>,std::allocator<char> >::assign
PUBLIC	?erase@?$basic_string@DU?$char_traits@D@std@@V?$allocator@D@2@@std@@QAEAAV12@I@Z ; std::basic_string<char,std::char_traits<char>,std::allocator<char> >::erase
PUBLIC	?erase@?$basic_string@DU?$char_traits@D@std@@V?$allocator@D@2@@std@@QAEAAV12@II@Z ; std::basic_string<char,std::char_traits<char>,std::allocator<char> >::erase
PUBLIC	?size@?$basic_string@DU?$char_traits@D@std@@V?$allocator@D@2@@std@@QBEIXZ ; std::basic_string<char,std::char_traits<char>,std::allocator<char> >::size
PUBLIC	?max_size@?$basic_string@DU?$char_traits@D@std@@V?$allocator@D@2@@std@@QBEIXZ ; std::basic_string<char,std::char_traits<char>,std::allocator<char> >::max_size
PUBLIC	?_Copy@?$basic_string@DU?$char_traits@D@std@@V?$allocator@D@2@@std@@QAEXII@Z ; std::basic_string<char,std::char_traits<char>,std::allocator<char> >::_Copy
PUBLIC	?_Eos@?$basic_string@DU?$char_traits@D@std@@V?$allocator@D@2@@std@@QAEXI@Z ; std::basic_string<char,std::char_traits<char>,std::allocator<char> >::_Eos
PUBLIC	?_Grow@?$basic_string@DU?$char_traits@D@std@@V?$allocator@D@2@@std@@QAE_NI_N@Z ; std::basic_string<char,std::char_traits<char>,std::allocator<char> >::_Grow
PUBLIC	?_Inside@?$basic_string@DU?$char_traits@D@std@@V?$allocator@D@2@@std@@QAE_NPBD@Z ; std::basic_string<char,std::char_traits<char>,std::allocator<char> >::_Inside
PUBLIC	?_Tidy@?$basic_string@DU?$char_traits@D@std@@V?$allocator@D@2@@std@@QAEX_NI@Z ; std::basic_string<char,std::char_traits<char>,std::allocator<char> >::_Tidy
PUBLIC	?_Xlen@?$basic_string@DU?$char_traits@D@std@@V?$allocator@D@2@@std@@QBEXXZ ; std::basic_string<char,std::char_traits<char>,std::allocator<char> >::_Xlen
PUBLIC	?_Xran@?$basic_string@DU?$char_traits@D@std@@V?$allocator@D@2@@std@@QBEXXZ ; std::basic_string<char,std::char_traits<char>,std::allocator<char> >::_Xran
PUBLIC	??0id@locale@std@@QAE@I@Z			; std::locale::id::id
PUBLIC	??$_Debug_pointer@D@std@@YAXPBDPB_WI@Z		; std::_Debug_pointer<char>
PUBLIC	?generic_category@std@@YAABVerror_category@1@XZ	; std::generic_category
PUBLIC	?system_category@std@@YAABVerror_category@1@XZ	; std::system_category
PUBLIC	??0error_category@std@@QAE@XZ			; std::error_category::error_category
PUBLIC	??1error_category@std@@UAE@XZ			; std::error_category::~error_category
PUBLIC	?default_error_condition@error_category@std@@UBE?AVerror_condition@2@H@Z ; std::error_category::default_error_condition
PUBLIC	?equivalent@error_category@std@@UBE_NHABVerror_condition@2@@Z ; std::error_category::equivalent
PUBLIC	?equivalent@error_category@std@@UBE_NABVerror_code@2@H@Z ; std::error_category::equivalent
PUBLIC	??8error_category@std@@QBE_NABV01@@Z		; std::error_category::operator==
PUBLIC	??_Gerror_category@std@@UAEPAXI@Z		; std::error_category::`scalar deleting destructor'
PUBLIC	?value@error_code@std@@QBEHXZ			; std::error_code::value
PUBLIC	?category@error_code@std@@QBEABVerror_category@2@XZ ; std::error_code::category
PUBLIC	??0error_condition@std@@QAE@HABVerror_category@1@@Z ; std::error_condition::error_condition
PUBLIC	?value@error_condition@std@@QBEHXZ		; std::error_condition::value
PUBLIC	?category@error_condition@std@@QBEABVerror_category@2@XZ ; std::error_condition::category
PUBLIC	??8error_condition@std@@QBE_NABV01@@Z		; std::error_condition::operator==
PUBLIC	??0_Generic_error_category@std@@QAE@XZ		; std::_Generic_error_category::_Generic_error_category
PUBLIC	?name@_Generic_error_category@std@@UBEPBDXZ	; std::_Generic_error_category::name
PUBLIC	?message@_Generic_error_category@std@@UBE?AV?$basic_string@DU?$char_traits@D@std@@V?$allocator@D@2@@2@H@Z ; std::_Generic_error_category::message
PUBLIC	??1_Generic_error_category@std@@UAE@XZ		; std::_Generic_error_category::~_Generic_error_category
PUBLIC	??_G_Generic_error_category@std@@UAEPAXI@Z	; std::_Generic_error_category::`scalar deleting destructor'
PUBLIC	??0_Iostream_error_category@std@@QAE@XZ		; std::_Iostream_error_category::_Iostream_error_category
PUBLIC	?name@_Iostream_error_category@std@@UBEPBDXZ	; std::_Iostream_error_category::name
PUBLIC	?message@_Iostream_error_category@std@@UBE?AV?$basic_string@DU?$char_traits@D@std@@V?$allocator@D@2@@2@H@Z ; std::_Iostream_error_category::message
PUBLIC	??1_Iostream_error_category@std@@UAE@XZ		; std::_Iostream_error_category::~_Iostream_error_category
PUBLIC	??_G_Iostream_error_category@std@@UAEPAXI@Z	; std::_Iostream_error_category::`scalar deleting destructor'
PUBLIC	??0_System_error_category@std@@QAE@XZ		; std::_System_error_category::_System_error_category
PUBLIC	?name@_System_error_category@std@@UBEPBDXZ	; std::_System_error_category::name
PUBLIC	?message@_System_error_category@std@@UBE?AV?$basic_string@DU?$char_traits@D@std@@V?$allocator@D@2@@2@H@Z ; std::_System_error_category::message
PUBLIC	?default_error_condition@_System_error_category@std@@UBE?AVerror_condition@2@H@Z ; std::_System_error_category::default_error_condition
PUBLIC	??1_System_error_category@std@@UAE@XZ		; std::_System_error_category::~_System_error_category
PUBLIC	??_G_System_error_category@std@@UAEPAXI@Z	; std::_System_error_category::`scalar deleting destructor'
PUBLIC	??BXMVECTORF32@DirectX@@QBE?AT__m128@@XZ	; DirectX::XMVECTORF32::operator __m128
PUBLIC	??BXMVECTORI32@DirectX@@QBE?AT__m128@@XZ	; DirectX::XMVECTORI32::operator __m128
PUBLIC	??0XMMATRIX@DirectX@@QAE@XZ			; DirectX::XMMATRIX::XMMATRIX
PUBLIC	??4XMMATRIX@DirectX@@QAEAAU01@ABU01@@Z		; DirectX::XMMATRIX::operator=
PUBLIC	??DXMMATRIX@DirectX@@QBQ?AU01@U01@@Z		; DirectX::XMMATRIX::operator*
PUBLIC	??0XMFLOAT3@DirectX@@QAE@XZ			; DirectX::XMFLOAT3::XMFLOAT3
PUBLIC	??0XMFLOAT3@DirectX@@QAE@MMM@Z			; DirectX::XMFLOAT3::XMFLOAT3
PUBLIC	??4XMFLOAT3@DirectX@@QAEAAU01@ABU01@@Z		; DirectX::XMFLOAT3::operator=
PUBLIC	??0XMFLOAT4@DirectX@@QAE@MMMM@Z			; DirectX::XMFLOAT4::XMFLOAT4
PUBLIC	?XMVectorZero@DirectX@@YQ?AT__m128@@XZ		; DirectX::XMVectorZero
PUBLIC	?XMVectorSet@DirectX@@YQ?AT__m128@@MMMM@Z	; DirectX::XMVectorSet
PUBLIC	?XMVectorGetX@DirectX@@YQMT__m128@@@Z		; DirectX::XMVectorGetX
PUBLIC	?XMVectorGetY@DirectX@@YQMT__m128@@@Z		; DirectX::XMVectorGetY
PUBLIC	?XMVectorGetZ@DirectX@@YQMT__m128@@@Z		; DirectX::XMVectorGetZ
PUBLIC	?XMVectorGetW@DirectX@@YQMT__m128@@@Z		; DirectX::XMVectorGetW
PUBLIC	?XMVector3Equal@DirectX@@YQ_NT__m128@@0@Z	; DirectX::XMVector3Equal
PUBLIC	?XMVector3IsInfinite@DirectX@@YQ_NT__m128@@@Z	; DirectX::XMVector3IsInfinite
PUBLIC	?XMVector3Normalize@DirectX@@YQ?AT__m128@@T2@@Z	; DirectX::XMVector3Normalize
PUBLIC	?XMVector4Dot@DirectX@@YQ?AT__m128@@T2@0@Z	; DirectX::XMVector4Dot
PUBLIC	?XMVector4Transform@DirectX@@YQ?AT__m128@@T2@UXMMATRIX@1@@Z ; DirectX::XMVector4Transform
PUBLIC	?XMMatrixMultiply@DirectX@@YQ?AUXMMATRIX@1@U21@ABU21@@Z ; DirectX::XMMatrixMultiply
PUBLIC	?XMMatrixTranspose@DirectX@@YQ?AUXMMATRIX@1@U21@@Z ; DirectX::XMMatrixTranspose
PUBLIC	?XMMatrixInverse@DirectX@@YQ?AUXMMATRIX@1@PAT__m128@@U21@@Z ; DirectX::XMMatrixInverse
PUBLIC	?XMMatrixTranslation@DirectX@@YQ?AUXMMATRIX@1@MMM@Z ; DirectX::XMMatrixTranslation
PUBLIC	?XMMatrixRotationNormal@DirectX@@YQ?AUXMMATRIX@1@T__m128@@M@Z ; DirectX::XMMatrixRotationNormal
PUBLIC	?XMMatrixRotationAxis@DirectX@@YQ?AUXMMATRIX@1@T__m128@@M@Z ; DirectX::XMMatrixRotationAxis
PUBLIC	?XMMatrixPerspectiveFovLH@DirectX@@YQ?AUXMMATRIX@1@MMMM@Z ; DirectX::XMMatrixPerspectiveFovLH
PUBLIC	?XMScalarNearEqual@DirectX@@YA_NMMM@Z		; DirectX::XMScalarNearEqual
PUBLIC	?XMScalarSinCos@DirectX@@YAXPAM0M@Z		; DirectX::XMScalarSinCos
PUBLIC	??0CCamera@@QAE@UXMFLOAT3@DirectX@@0MMM@Z	; CCamera::CCamera
PUBLIC	?SetFOV@CCamera@@QAEXM@Z			; CCamera::SetFOV
PUBLIC	?SetNearClip@CCamera@@QAEXM@Z			; CCamera::SetNearClip
PUBLIC	?SetFarClip@CCamera@@QAEXM@Z			; CCamera::SetFarClip
PUBLIC	?UpdateMatrices@CCamera@@QAEXXZ			; CCamera::UpdateMatrices
PUBLIC	?Control@CCamera@@QAEXMW4EKeyCode@@0000000@Z	; CCamera::Control
PUBLIC	?PixelFromWorldPt@CCamera@@QAE_NPAUXMFLOAT2@DirectX@@UXMFLOAT3@3@@Z ; CCamera::PixelFromWorldPt
PUBLIC	??$construct@PADAAPAD@?$_Wrap_alloc@V?$allocator@D@std@@@std@@QAEXPAPADAAPAD@Z ; std::_Wrap_alloc<std::allocator<char> >::construct<char *,char * &>
PUBLIC	??$destroy@PAD@?$_Wrap_alloc@V?$allocator@D@std@@@std@@QAEXPAPAD@Z ; std::_Wrap_alloc<std::allocator<char> >::destroy<char *>
PUBLIC	??$addressof@D@std@@YAPADAAD@Z			; std::addressof<char>
PUBLIC	??0?$allocator@U_Container_proxy@std@@@std@@QAE@XZ ; std::allocator<std::_Container_proxy>::allocator<std::_Container_proxy>
PUBLIC	?deallocate@?$allocator@U_Container_proxy@std@@@std@@QAEXPAU_Container_proxy@2@I@Z ; std::allocator<std::_Container_proxy>::deallocate
PUBLIC	?allocate@?$allocator@U_Container_proxy@std@@@std@@QAEPAU_Container_proxy@2@I@Z ; std::allocator<std::_Container_proxy>::allocate
PUBLIC	??$construct@U_Container_proxy@std@@U12@@?$allocator@U_Container_proxy@std@@@std@@QAEXPAU_Container_proxy@1@$$QAU21@@Z ; std::allocator<std::_Container_proxy>::construct<std::_Container_proxy,std::_Container_proxy>
PUBLIC	??$destroy@U_Container_proxy@std@@@?$allocator@U_Container_proxy@std@@@std@@QAEXPAU_Container_proxy@1@@Z ; std::allocator<std::_Container_proxy>::destroy<std::_Container_proxy>
PUBLIC	??$_Allocate@U_Container_proxy@std@@@std@@YAPAU_Container_proxy@0@IPAU10@@Z ; std::_Allocate<std::_Container_proxy>
PUBLIC	??$_Allocate@D@std@@YAPADIPAD@Z			; std::_Allocate<char>
PUBLIC	??$forward@AAPAD@std@@YAAAPADAAPAD@Z		; std::forward<char * &>
PUBLIC	??$construct@PADAAPAD@?$allocator_traits@V?$allocator@D@std@@@std@@SAXAAV?$allocator@D@1@PAPADAAPAD@Z ; std::allocator_traits<std::allocator<char> >::construct<char *,char * &>
PUBLIC	??$destroy@PAD@?$allocator_traits@V?$allocator@D@std@@@std@@SAXAAV?$allocator@D@1@PAPAD@Z ; std::allocator_traits<std::allocator<char> >::destroy<char *>
PUBLIC	??$forward@U_Container_proxy@std@@@std@@YA$$QAU_Container_proxy@0@AAU10@@Z ; std::forward<std::_Container_proxy>
PUBLIC	??$construct@PADAAPAD@?$allocator@D@std@@QAEXPAPADAAPAD@Z ; std::allocator<char>::construct<char *,char * &>
PUBLIC	??$destroy@PAD@?$allocator@D@std@@QAEXPAPAD@Z	; std::allocator<char>::destroy<char *>
PUBLIC	??_7error_category@std@@6B@			; std::error_category::`vftable'
PUBLIC	??_7_Generic_error_category@std@@6B@		; std::_Generic_error_category::`vftable'
PUBLIC	??_C@_07DCLBNMLN@generic?$AA@			; `string'
PUBLIC	??_C@_0O@BFJCFAAK@unknown?5error?$AA@		; `string'
PUBLIC	??_7_Iostream_error_category@std@@6B@		; std::_Iostream_error_category::`vftable'
PUBLIC	??_C@_08LLGCOLLL@iostream?$AA@			; `string'
PUBLIC	??_C@_0BG@PADBLCHM@iostream?5stream?5error?$AA@	; `string'
PUBLIC	??_7_System_error_category@std@@6B@		; std::_System_error_category::`vftable'
PUBLIC	??_C@_06FHFOAHML@system?$AA@			; `string'
PUBLIC	?_Generic_object@?$_Error_objects@H@std@@2V_Generic_error_category@2@A ; std::_Error_objects<int>::_Generic_object
PUBLIC	?_Iostream_object@?$_Error_objects@H@std@@2V_Iostream_error_category@2@A ; std::_Error_objects<int>::_Iostream_object
PUBLIC	?_System_object@?$_Error_objects@H@std@@2V_System_error_category@2@A ; std::_Error_objects<int>::_System_object
PUBLIC	?g_XMTanEstCoefficients@DirectX@@3UXMVECTORF32@1@B ; DirectX::g_XMTanEstCoefficients
PUBLIC	?g_XMPiConstants0@DirectX@@3UXMVECTORF32@1@B	; DirectX::g_XMPiConstants0
PUBLIC	?g_XMNegativeTwoPi@DirectX@@3UXMVECTORF32@1@B	; DirectX::g_XMNegativeTwoPi
PUBLIC	?g_XMNegativePi@DirectX@@3UXMVECTORF32@1@B	; DirectX::g_XMNegativePi
PUBLIC	?g_XMHalfPi@DirectX@@3UXMVECTORF32@1@B		; DirectX::g_XMHalfPi
PUBLIC	?g_XMPi@DirectX@@3UXMVECTORF32@1@B		; DirectX::g_XMPi
PUBLIC	?g_XMReciprocalPi@DirectX@@3UXMVECTORF32@1@B	; DirectX::g_XMReciprocalPi
PUBLIC	?g_XMTwoPi@DirectX@@3UXMVECTORF32@1@B		; DirectX::g_XMTwoPi
PUBLIC	?g_XMReciprocalTwoPi@DirectX@@3UXMVECTORF32@1@B	; DirectX::g_XMReciprocalTwoPi
PUBLIC	??_C@_1JC@EJCKKKJP@?$AAc?$AA?3?$AA?2?$AAp?$AAr?$AAo?$AAg?$AAr?$AAa?$AAm?$AA?5?$AAf?$AAi?$AAl?$AAe?$AAs?$AA?5?$AA?$CI?$AAx?$AA8?$AA6?$AA?$CJ?$AA?2?$AAw?$AAi?$AAn?$AAd?$AAo?$AAw?$AAs?$AA?5?$AAk@ ; `string'
PUBLIC	?__LINE__Var@?1??XMMatrixRotationAxis@DirectX@@YQ?AUXMMATRIX@2@T__m128@@M@Z@4JA ; `DirectX::XMMatrixRotationAxis'::`2'::__LINE__Var
PUBLIC	??_C@_1EM@PGKKLAMD@?$AA?$CB?$AAX?$AAM?$AAV?$AAe?$AAc?$AAt?$AAo?$AAr?$AA3?$AAE?$AAq?$AAu?$AAa?$AAl?$AA?$CI?$AAA?$AAx?$AAi?$AAs?$AA?0?$AA?5?$AAX?$AAM?$AAV?$AAe?$AAc?$AAt?$AAo?$AAr?$AAZ?$AAe@ ; `string'
PUBLIC	??_C@_1DG@LLGFAECG@?$AA?$CB?$AAX?$AAM?$AAV?$AAe?$AAc?$AAt?$AAo?$AAr?$AA3?$AAI?$AAs?$AAI?$AAn?$AAf?$AAi?$AAn?$AAi?$AAt?$AAe?$AA?$CI?$AAA?$AAx?$AAi?$AAs?$AA?$CJ?$AA?$AA@ ; `string'
PUBLIC	??_C@_1FE@IMEJOJAH@?$AA?$CB?$AAX?$AAM?$AAS?$AAc?$AAa?$AAl?$AAa?$AAr?$AAN?$AAe?$AAa?$AAr?$AAE?$AAq?$AAu?$AAa?$AAl?$AA?$CI?$AAF?$AAa?$AAr?$AAZ?$AA?0?$AA?5?$AAN?$AAe?$AAa?$AAr?$AAZ?$AA?0?$AA?5@ ; `string'
PUBLIC	?__LINE__Var@?1??XMMatrixPerspectiveFovLH@DirectX@@YQ?AUXMMATRIX@2@MMMM@Z@4JA ; `DirectX::XMMatrixPerspectiveFovLH'::`2'::__LINE__Var
PUBLIC	??_C@_1GK@EFPMNDEN@?$AA?$CB?$AAX?$AAM?$AAS?$AAc?$AAa?$AAl?$AAa?$AAr?$AAN?$AAe?$AAa?$AAr?$AAE?$AAq?$AAu?$AAa?$AAl?$AA?$CI?$AAF?$AAo?$AAv?$AAA?$AAn?$AAg?$AAl?$AAe?$AAY?$AA?0?$AA?5?$AA0?$AA?4@ ; `string'
PUBLIC	??_C@_1FO@IACFEINC@?$AA?$CB?$AAX?$AAM?$AAS?$AAc?$AAa?$AAl?$AAa?$AAr?$AAN?$AAe?$AAa?$AAr?$AAE?$AAq?$AAu?$AAa?$AAl?$AA?$CI?$AAA?$AAs?$AAp?$AAe?$AAc?$AAt?$AAH?$AAB?$AAy?$AAW?$AA?0?$AA?5?$AA0@ ; `string'
PUBLIC	??_C@_1IO@CGGKMODJ@?$AAc?$AA?3?$AA?2?$AAp?$AAr?$AAo?$AAg?$AAr?$AAa?$AAm?$AA?5?$AAf?$AAi?$AAl?$AAe?$AAs?$AA?5?$AA?$CI?$AAx?$AA8?$AA6?$AA?$CJ?$AA?2?$AAw?$AAi?$AAn?$AAd?$AAo?$AAw?$AAs?$AA?5?$AAk@ ; `string'
PUBLIC	?__LINE__Var@?1??XMScalarSinCos@DirectX@@YAXPAM0M@Z@4JA ; `DirectX::XMScalarSinCos'::`2'::__LINE__Var
PUBLIC	??_C@_19MFJHDIJG@?$AAp?$AAS?$AAi?$AAn?$AA?$AA@	; `string'
PUBLIC	??_C@_19MNAGGFOC@?$AAp?$AAC?$AAo?$AAs?$AA?$AA@	; `string'
PUBLIC	?id@?$num_put@DV?$back_insert_iterator@V?$basic_string@DU?$char_traits@D@std@@V?$allocator@D@2@@std@@@std@@@std@@2V0locale@2@A ; std::num_put<char,std::back_insert_iterator<std::basic_string<char,std::char_traits<char>,std::allocator<char> > > >::id
PUBLIC	?id@?$num_put@_WV?$back_insert_iterator@V?$basic_string@_WU?$char_traits@_W@std@@V?$allocator@_W@2@@std@@@std@@@std@@2V0locale@2@A ; std::num_put<wchar_t,std::back_insert_iterator<std::basic_string<wchar_t,std::char_traits<wchar_t>,std::allocator<wchar_t> > > >::id
PUBLIC	??_C@_1IO@JLPDPDPD@?$AAc?$AA?3?$AA?2?$AAp?$AAr?$AAo?$AAg?$AAr?$AAa?$AAm?$AA?5?$AAf?$AAi?$AAl?$AAe?$AAs?$AA?5?$AA?$CI?$AAx?$AA8?$AA6?$AA?$CJ?$AA?2?$AAm?$AAi?$AAc?$AAr?$AAo?$AAs?$AAo?$AAf?$AAt@ ; `string'
PUBLIC	?id@?$numpunct@D@std@@2V0locale@2@A		; std::numpunct<char>::id
PUBLIC	?id@?$numpunct@_W@std@@2V0locale@2@A		; std::numpunct<wchar_t>::id
PUBLIC	??_C@_0BA@JFNIOLAK@string?5too?5long?$AA@	; `string'
PUBLIC	??_C@_0BI@CFPLBAOH@invalid?5string?5position?$AA@ ; `string'
PUBLIC	??_C@_1CK@EOPGIILJ@?$AAi?$AAn?$AAv?$AAa?$AAl?$AAi?$AAd?$AA?5?$AAn?$AAu?$AAl?$AAl?$AA?5?$AAp?$AAo?$AAi?$AAn?$AAt?$AAe?$AAr?$AA?$AA@ ; `string'
PUBLIC	??_R4error_category@std@@6B@			; std::error_category::`RTTI Complete Object Locator'
PUBLIC	??_R0?AVerror_category@std@@@8			; std::error_category `RTTI Type Descriptor'
PUBLIC	??_R3error_category@std@@8			; std::error_category::`RTTI Class Hierarchy Descriptor'
PUBLIC	??_R2error_category@std@@8			; std::error_category::`RTTI Base Class Array'
PUBLIC	??_R1A@?0A@EA@error_category@std@@8		; std::error_category::`RTTI Base Class Descriptor at (0,-1,0,64)'
PUBLIC	??_R4_Generic_error_category@std@@6B@		; std::_Generic_error_category::`RTTI Complete Object Locator'
PUBLIC	??_R0?AV_Generic_error_category@std@@@8		; std::_Generic_error_category `RTTI Type Descriptor'
PUBLIC	??_R3_Generic_error_category@std@@8		; std::_Generic_error_category::`RTTI Class Hierarchy Descriptor'
PUBLIC	??_R2_Generic_error_category@std@@8		; std::_Generic_error_category::`RTTI Base Class Array'
PUBLIC	??_R1A@?0A@EA@_Generic_error_category@std@@8	; std::_Generic_error_category::`RTTI Base Class Descriptor at (0,-1,0,64)'
PUBLIC	??_R4_Iostream_error_category@std@@6B@		; std::_Iostream_error_category::`RTTI Complete Object Locator'
PUBLIC	??_R0?AV_Iostream_error_category@std@@@8	; std::_Iostream_error_category `RTTI Type Descriptor'
PUBLIC	??_R3_Iostream_error_category@std@@8		; std::_Iostream_error_category::`RTTI Class Hierarchy Descriptor'
PUBLIC	??_R2_Iostream_error_category@std@@8		; std::_Iostream_error_category::`RTTI Base Class Array'
PUBLIC	??_R1A@?0A@EA@_Iostream_error_category@std@@8	; std::_Iostream_error_category::`RTTI Base Class Descriptor at (0,-1,0,64)'
PUBLIC	??_R4_System_error_category@std@@6B@		; std::_System_error_category::`RTTI Complete Object Locator'
PUBLIC	??_R0?AV_System_error_category@std@@@8		; std::_System_error_category `RTTI Type Descriptor'
PUBLIC	??_R3_System_error_category@std@@8		; std::_System_error_category::`RTTI Class Hierarchy Descriptor'
PUBLIC	??_R2_System_error_category@std@@8		; std::_System_error_category::`RTTI Base Class Array'
PUBLIC	??_R1A@?0A@EA@_System_error_category@std@@8	; std::_System_error_category::`RTTI Base Class Descriptor at (0,-1,0,64)'
PUBLIC	__real@00000000
PUBLIC	__real@3638b88e
PUBLIC	__real@3727c5ac
PUBLIC	__real@37a7c5ac
PUBLIC	__real@37cfb4c2
PUBLIC	__real@39500bf1
PUBLIC	__real@3ab609aa
PUBLIC	__real@3c088886
PUBLIC	__real@3d2aaaa3
PUBLIC	__real@3dcccccd
PUBLIC	__real@3e2aaaab
PUBLIC	__real@3f000000
PUBLIC	__real@3f4ccccd
PUBLIC	__real@3f800000
PUBLIC	__real@40000000
PUBLIC	__real@42480000
PUBLIC	__real@b2cd365b
PUBLIC	__real@b48bdd11
PUBLIC	__real@bf800000
PUBLIC	__xmm@80000000800000008000000080000000
EXTRN	__purecall:PROC
EXTRN	??2@YAPAXI@Z:PROC				; operator new
EXTRN	??3@YAXPAX@Z:PROC				; operator delete
EXTRN	_atexit:PROC
EXTRN	_memcpy:PROC
EXTRN	_strlen:PROC
EXTRN	_memmove:PROC
EXTRN	??0_Lockit@std@@QAE@H@Z:PROC			; std::_Lockit::_Lockit
EXTRN	??1_Lockit@std@@QAE@XZ:PROC			; std::_Lockit::~_Lockit
EXTRN	_fabs:PROC
EXTRN	__hypot:PROC
EXTRN	?_Debug_message@std@@YAXPB_W0I@Z:PROC		; std::_Debug_message
EXTRN	?_Xbad_alloc@std@@YAXXZ:PROC			; std::_Xbad_alloc
EXTRN	?_Xlength_error@std@@YAXPBD@Z:PROC		; std::_Xlength_error
EXTRN	?_Xout_of_range@std@@YAXPBD@Z:PROC		; std::_Xout_of_range
EXTRN	??_Eerror_category@std@@UAEPAXI@Z:PROC		; std::error_category::`vector deleting destructor'
EXTRN	?_Syserror_map@std@@YAPBDH@Z:PROC		; std::_Syserror_map
EXTRN	?_Winerror_map@std@@YAPBDH@Z:PROC		; std::_Winerror_map
EXTRN	??_E_Generic_error_category@std@@UAEPAXI@Z:PROC	; std::_Generic_error_category::`vector deleting destructor'
EXTRN	??_E_Iostream_error_category@std@@UAEPAXI@Z:PROC ; std::_Iostream_error_category::`vector deleting destructor'
EXTRN	??_E_System_error_category@std@@UAEPAXI@Z:PROC	; std::_System_error_category::`vector deleting destructor'
EXTRN	__wassert:PROC
EXTRN	?KeyHeld@@YA_NW4EKeyCode@@@Z:PROC		; KeyHeld
EXTRN	@_RTC_CheckStackVars@8:PROC
EXTRN	@__security_check_cookie@4:PROC
EXTRN	__CxxThrowException@8:PROC
EXTRN	__RTC_CheckEsp:PROC
EXTRN	__RTC_InitBase:PROC
EXTRN	__RTC_Shutdown:PROC
EXTRN	___CxxFrameHandler3:PROC
EXTRN	__chkstk:PROC
EXTRN	??_7type_info@@6B@:QWORD			; type_info::`vftable'
EXTRN	___security_cookie:DWORD
EXTRN	__fltused:DWORD
_BSS	SEGMENT
_piecewise_construct DB 01H DUP (?)
	ALIGN	4

_allocator_arg DB 01H DUP (?)
_BSS	ENDS
;	COMDAT ?_Generic_object@?$_Error_objects@H@std@@2V_Generic_error_category@2@A
_BSS	SEGMENT
?_Generic_object@?$_Error_objects@H@std@@2V_Generic_error_category@2@A DD 01H DUP (?) ; std::_Error_objects<int>::_Generic_object
_BSS	ENDS
;	COMDAT ?_Iostream_object@?$_Error_objects@H@std@@2V_Iostream_error_category@2@A
_BSS	SEGMENT
?_Iostream_object@?$_Error_objects@H@std@@2V_Iostream_error_category@2@A DD 01H DUP (?) ; std::_Error_objects<int>::_Iostream_object
_BSS	ENDS
;	COMDAT ?_System_object@?$_Error_objects@H@std@@2V_System_error_category@2@A
_BSS	SEGMENT
?_System_object@?$_Error_objects@H@std@@2V_System_error_category@2@A DD 01H DUP (?) ; std::_Error_objects<int>::_System_object
_BSS	ENDS
;	COMDAT ?id@?$num_put@DV?$back_insert_iterator@V?$basic_string@DU?$char_traits@D@std@@V?$allocator@D@2@@std@@@std@@@std@@2V0locale@2@A
_BSS	SEGMENT
?id@?$num_put@DV?$back_insert_iterator@V?$basic_string@DU?$char_traits@D@std@@V?$allocator@D@2@@std@@@std@@@std@@2V0locale@2@A DD 01H DUP (?) ; std::num_put<char,std::back_insert_iterator<std::basic_string<char,std::char_traits<char>,std::allocator<char> > > >::id
_BSS	ENDS
;	COMDAT ?id@?$num_put@_WV?$back_insert_iterator@V?$basic_string@_WU?$char_traits@_W@std@@V?$allocator@_W@2@@std@@@std@@@std@@2V0locale@2@A
_BSS	SEGMENT
?id@?$num_put@_WV?$back_insert_iterator@V?$basic_string@_WU?$char_traits@_W@std@@V?$allocator@_W@2@@std@@@std@@@std@@2V0locale@2@A DD 01H DUP (?) ; std::num_put<wchar_t,std::back_insert_iterator<std::basic_string<wchar_t,std::char_traits<wchar_t>,std::allocator<wchar_t> > > >::id
_BSS	ENDS
_BSS	SEGMENT
	ALIGN	8

_XAXIS	DB	010H DUP (?)
_YAXIS	DB	010H DUP (?)
_ZAXIS	DB	010H DUP (?)
_ORIGIN	DB	0cH DUP (?)
_NO_ROTATION DB	0cH DUP (?)
__BLACK	DB	0cH DUP (?)
__WHITE	DB	0cH DUP (?)
__RED	DB	0cH DUP (?)
__GREEN	DB	0cH DUP (?)
__ORANGE DB	0cH DUP (?)
_BSS	ENDS
;	COMDAT ?id@?$numpunct@D@std@@2V0locale@2@A
_BSS	SEGMENT
?id@?$numpunct@D@std@@2V0locale@2@A DD 01H DUP (?)	; std::numpunct<char>::id
_BSS	ENDS
;	COMDAT ?id@?$numpunct@_W@std@@2V0locale@2@A
_BSS	SEGMENT
?id@?$numpunct@_W@std@@2V0locale@2@A DD 01H DUP (?)	; std::numpunct<wchar_t>::id
_BSS	ENDS
CRT$XCU	SEGMENT
_piecewise_construct$initializer$ DD FLAT:??__Epiecewise_construct@std@@YAXXZ
CRT$XCU	ENDS
;	COMDAT __xmm@80000000800000008000000080000000
CONST	SEGMENT
__xmm@80000000800000008000000080000000 DB 00H, 00H, 00H, 080H, 00H, 00H, 00H
	DB	080H, 00H, 00H, 00H, 080H, 00H, 00H, 00H, 080H
CONST	ENDS
;	COMDAT __real@bf800000
CONST	SEGMENT
__real@bf800000 DD 0bf800000r			; -1
CONST	ENDS
;	COMDAT __real@b48bdd11
CONST	SEGMENT
__real@b48bdd11 DD 0b48bdd11r			; -2.60516e-007
CONST	ENDS
;	COMDAT __real@b2cd365b
CONST	SEGMENT
__real@b2cd365b DD 0b2cd365br			; -2.38899e-008
CONST	ENDS
;	COMDAT __real@42480000
CONST	SEGMENT
__real@42480000 DD 042480000r			; 50
CONST	ENDS
;	COMDAT __real@40000000
CONST	SEGMENT
__real@40000000 DD 040000000r			; 2
CONST	ENDS
;	COMDAT __real@3f800000
CONST	SEGMENT
__real@3f800000 DD 03f800000r			; 1
CONST	ENDS
;	COMDAT __real@3f4ccccd
CONST	SEGMENT
__real@3f4ccccd DD 03f4ccccdr			; 0.8
CONST	ENDS
;	COMDAT __real@3f000000
CONST	SEGMENT
__real@3f000000 DD 03f000000r			; 0.5
CONST	ENDS
;	COMDAT __real@3e2aaaab
CONST	SEGMENT
__real@3e2aaaab DD 03e2aaaabr			; 0.166667
CONST	ENDS
;	COMDAT __real@3dcccccd
CONST	SEGMENT
__real@3dcccccd DD 03dcccccdr			; 0.1
CONST	ENDS
;	COMDAT __real@3d2aaaa3
CONST	SEGMENT
__real@3d2aaaa3 DD 03d2aaaa3r			; 0.0416666
CONST	ENDS
;	COMDAT __real@3c088886
CONST	SEGMENT
__real@3c088886 DD 03c088886r			; 0.00833333
CONST	ENDS
;	COMDAT __real@3ab609aa
CONST	SEGMENT
__real@3ab609aa DD 03ab609aar			; 0.00138884
CONST	ENDS
;	COMDAT __real@39500bf1
CONST	SEGMENT
__real@39500bf1 DD 039500bf1r			; 0.000198409
CONST	ENDS
;	COMDAT __real@37cfb4c2
CONST	SEGMENT
__real@37cfb4c2 DD 037cfb4c2r			; 2.47605e-005
CONST	ENDS
;	COMDAT __real@37a7c5ac
CONST	SEGMENT
__real@37a7c5ac DD 037a7c5acr			; 2e-005
CONST	ENDS
;	COMDAT __real@3727c5ac
CONST	SEGMENT
__real@3727c5ac DD 03727c5acr			; 1e-005
CONST	ENDS
;	COMDAT __real@3638b88e
CONST	SEGMENT
__real@3638b88e DD 03638b88er			; 2.75256e-006
CONST	ENDS
;	COMDAT __real@00000000
CONST	SEGMENT
__real@00000000 DD 000000000r			; 0
CONST	ENDS
;	COMDAT rtc$TMZ
rtc$TMZ	SEGMENT
__RTC_Shutdown.rtc$TMZ DD FLAT:__RTC_Shutdown
rtc$TMZ	ENDS
;	COMDAT rtc$IMZ
rtc$IMZ	SEGMENT
__RTC_InitBase.rtc$IMZ DD FLAT:__RTC_InitBase
rtc$IMZ	ENDS
;	COMDAT ??_R1A@?0A@EA@_System_error_category@std@@8
rdata$r	SEGMENT
??_R1A@?0A@EA@_System_error_category@std@@8 DD FLAT:??_R0?AV_System_error_category@std@@@8 ; std::_System_error_category::`RTTI Base Class Descriptor at (0,-1,0,64)'
	DD	02H
	DD	00H
	DD	0ffffffffH
	DD	00H
	DD	040H
	DD	FLAT:??_R3_System_error_category@std@@8
rdata$r	ENDS
;	COMDAT ??_R2_System_error_category@std@@8
rdata$r	SEGMENT
??_R2_System_error_category@std@@8 DD FLAT:??_R1A@?0A@EA@_System_error_category@std@@8 ; std::_System_error_category::`RTTI Base Class Array'
	DD	FLAT:??_R1A@?0A@EA@_Generic_error_category@std@@8
	DD	FLAT:??_R1A@?0A@EA@error_category@std@@8
rdata$r	ENDS
;	COMDAT ??_R3_System_error_category@std@@8
rdata$r	SEGMENT
??_R3_System_error_category@std@@8 DD 00H		; std::_System_error_category::`RTTI Class Hierarchy Descriptor'
	DD	00H
	DD	03H
	DD	FLAT:??_R2_System_error_category@std@@8
rdata$r	ENDS
;	COMDAT ??_R0?AV_System_error_category@std@@@8
data$r	SEGMENT
??_R0?AV_System_error_category@std@@@8 DD FLAT:??_7type_info@@6B@ ; std::_System_error_category `RTTI Type Descriptor'
	DD	00H
	DB	'.?AV_System_error_category@std@@', 00H
data$r	ENDS
;	COMDAT ??_R4_System_error_category@std@@6B@
rdata$r	SEGMENT
??_R4_System_error_category@std@@6B@ DD 00H		; std::_System_error_category::`RTTI Complete Object Locator'
	DD	00H
	DD	00H
	DD	FLAT:??_R0?AV_System_error_category@std@@@8
	DD	FLAT:??_R3_System_error_category@std@@8
rdata$r	ENDS
;	COMDAT ??_R1A@?0A@EA@_Iostream_error_category@std@@8
rdata$r	SEGMENT
??_R1A@?0A@EA@_Iostream_error_category@std@@8 DD FLAT:??_R0?AV_Iostream_error_category@std@@@8 ; std::_Iostream_error_category::`RTTI Base Class Descriptor at (0,-1,0,64)'
	DD	02H
	DD	00H
	DD	0ffffffffH
	DD	00H
	DD	040H
	DD	FLAT:??_R3_Iostream_error_category@std@@8
rdata$r	ENDS
;	COMDAT ??_R2_Iostream_error_category@std@@8
rdata$r	SEGMENT
??_R2_Iostream_error_category@std@@8 DD FLAT:??_R1A@?0A@EA@_Iostream_error_category@std@@8 ; std::_Iostream_error_category::`RTTI Base Class Array'
	DD	FLAT:??_R1A@?0A@EA@_Generic_error_category@std@@8
	DD	FLAT:??_R1A@?0A@EA@error_category@std@@8
rdata$r	ENDS
;	COMDAT ??_R3_Iostream_error_category@std@@8
rdata$r	SEGMENT
??_R3_Iostream_error_category@std@@8 DD 00H		; std::_Iostream_error_category::`RTTI Class Hierarchy Descriptor'
	DD	00H
	DD	03H
	DD	FLAT:??_R2_Iostream_error_category@std@@8
rdata$r	ENDS
;	COMDAT ??_R0?AV_Iostream_error_category@std@@@8
data$r	SEGMENT
??_R0?AV_Iostream_error_category@std@@@8 DD FLAT:??_7type_info@@6B@ ; std::_Iostream_error_category `RTTI Type Descriptor'
	DD	00H
	DB	'.?AV_Iostream_error_category@std@@', 00H
data$r	ENDS
;	COMDAT ??_R4_Iostream_error_category@std@@6B@
rdata$r	SEGMENT
??_R4_Iostream_error_category@std@@6B@ DD 00H		; std::_Iostream_error_category::`RTTI Complete Object Locator'
	DD	00H
	DD	00H
	DD	FLAT:??_R0?AV_Iostream_error_category@std@@@8
	DD	FLAT:??_R3_Iostream_error_category@std@@8
rdata$r	ENDS
;	COMDAT ??_R1A@?0A@EA@_Generic_error_category@std@@8
rdata$r	SEGMENT
??_R1A@?0A@EA@_Generic_error_category@std@@8 DD FLAT:??_R0?AV_Generic_error_category@std@@@8 ; std::_Generic_error_category::`RTTI Base Class Descriptor at (0,-1,0,64)'
	DD	01H
	DD	00H
	DD	0ffffffffH
	DD	00H
	DD	040H
	DD	FLAT:??_R3_Generic_error_category@std@@8
rdata$r	ENDS
;	COMDAT ??_R2_Generic_error_category@std@@8
rdata$r	SEGMENT
??_R2_Generic_error_category@std@@8 DD FLAT:??_R1A@?0A@EA@_Generic_error_category@std@@8 ; std::_Generic_error_category::`RTTI Base Class Array'
	DD	FLAT:??_R1A@?0A@EA@error_category@std@@8
rdata$r	ENDS
;	COMDAT ??_R3_Generic_error_category@std@@8
rdata$r	SEGMENT
??_R3_Generic_error_category@std@@8 DD 00H		; std::_Generic_error_category::`RTTI Class Hierarchy Descriptor'
	DD	00H
	DD	02H
	DD	FLAT:??_R2_Generic_error_category@std@@8
rdata$r	ENDS
;	COMDAT ??_R0?AV_Generic_error_category@std@@@8
data$r	SEGMENT
??_R0?AV_Generic_error_category@std@@@8 DD FLAT:??_7type_info@@6B@ ; std::_Generic_error_category `RTTI Type Descriptor'
	DD	00H
	DB	'.?AV_Generic_error_category@std@@', 00H
data$r	ENDS
;	COMDAT ??_R4_Generic_error_category@std@@6B@
rdata$r	SEGMENT
??_R4_Generic_error_category@std@@6B@ DD 00H		; std::_Generic_error_category::`RTTI Complete Object Locator'
	DD	00H
	DD	00H
	DD	FLAT:??_R0?AV_Generic_error_category@std@@@8
	DD	FLAT:??_R3_Generic_error_category@std@@8
rdata$r	ENDS
;	COMDAT ??_R1A@?0A@EA@error_category@std@@8
rdata$r	SEGMENT
??_R1A@?0A@EA@error_category@std@@8 DD FLAT:??_R0?AVerror_category@std@@@8 ; std::error_category::`RTTI Base Class Descriptor at (0,-1,0,64)'
	DD	00H
	DD	00H
	DD	0ffffffffH
	DD	00H
	DD	040H
	DD	FLAT:??_R3error_category@std@@8
rdata$r	ENDS
;	COMDAT ??_R2error_category@std@@8
rdata$r	SEGMENT
??_R2error_category@std@@8 DD FLAT:??_R1A@?0A@EA@error_category@std@@8 ; std::error_category::`RTTI Base Class Array'
rdata$r	ENDS
;	COMDAT ??_R3error_category@std@@8
rdata$r	SEGMENT
??_R3error_category@std@@8 DD 00H			; std::error_category::`RTTI Class Hierarchy Descriptor'
	DD	00H
	DD	01H
	DD	FLAT:??_R2error_category@std@@8
rdata$r	ENDS
;	COMDAT ??_R0?AVerror_category@std@@@8
data$r	SEGMENT
??_R0?AVerror_category@std@@@8 DD FLAT:??_7type_info@@6B@ ; std::error_category `RTTI Type Descriptor'
	DD	00H
	DB	'.?AVerror_category@std@@', 00H
data$r	ENDS
;	COMDAT ??_R4error_category@std@@6B@
rdata$r	SEGMENT
??_R4error_category@std@@6B@ DD 00H			; std::error_category::`RTTI Complete Object Locator'
	DD	00H
	DD	00H
	DD	FLAT:??_R0?AVerror_category@std@@@8
	DD	FLAT:??_R3error_category@std@@8
rdata$r	ENDS
;	COMDAT ??_C@_1CK@EOPGIILJ@?$AAi?$AAn?$AAv?$AAa?$AAl?$AAi?$AAd?$AA?5?$AAn?$AAu?$AAl?$AAl?$AA?5?$AAp?$AAo?$AAi?$AAn?$AAt?$AAe?$AAr?$AA?$AA@
CONST	SEGMENT
??_C@_1CK@EOPGIILJ@?$AAi?$AAn?$AAv?$AAa?$AAl?$AAi?$AAd?$AA?5?$AAn?$AAu?$AAl?$AAl?$AA?5?$AAp?$AAo?$AAi?$AAn?$AAt?$AAe?$AAr?$AA?$AA@ DB 'i'
	DB	00H, 'n', 00H, 'v', 00H, 'a', 00H, 'l', 00H, 'i', 00H, 'd', 00H
	DB	' ', 00H, 'n', 00H, 'u', 00H, 'l', 00H, 'l', 00H, ' ', 00H, 'p'
	DB	00H, 'o', 00H, 'i', 00H, 'n', 00H, 't', 00H, 'e', 00H, 'r', 00H
	DB	00H, 00H					; `string'
CONST	ENDS
;	COMDAT ??_C@_0BI@CFPLBAOH@invalid?5string?5position?$AA@
CONST	SEGMENT
??_C@_0BI@CFPLBAOH@invalid?5string?5position?$AA@ DB 'invalid string posi'
	DB	'tion', 00H					; `string'
CONST	ENDS
;	COMDAT ??_C@_0BA@JFNIOLAK@string?5too?5long?$AA@
CONST	SEGMENT
??_C@_0BA@JFNIOLAK@string?5too?5long?$AA@ DB 'string too long', 00H ; `string'
CONST	ENDS
;	COMDAT ??_C@_1IO@JLPDPDPD@?$AAc?$AA?3?$AA?2?$AAp?$AAr?$AAo?$AAg?$AAr?$AAa?$AAm?$AA?5?$AAf?$AAi?$AAl?$AAe?$AAs?$AA?5?$AA?$CI?$AAx?$AA8?$AA6?$AA?$CJ?$AA?2?$AAm?$AAi?$AAc?$AAr?$AAo?$AAs?$AAo?$AAf?$AAt@
CONST	SEGMENT
??_C@_1IO@JLPDPDPD@?$AAc?$AA?3?$AA?2?$AAp?$AAr?$AAo?$AAg?$AAr?$AAa?$AAm?$AA?5?$AAf?$AAi?$AAl?$AAe?$AAs?$AA?5?$AA?$CI?$AAx?$AA8?$AA6?$AA?$CJ?$AA?2?$AAm?$AAi?$AAc?$AAr?$AAo?$AAs?$AAo?$AAf?$AAt@ DB 'c'
	DB	00H, ':', 00H, '\', 00H, 'p', 00H, 'r', 00H, 'o', 00H, 'g', 00H
	DB	'r', 00H, 'a', 00H, 'm', 00H, ' ', 00H, 'f', 00H, 'i', 00H, 'l'
	DB	00H, 'e', 00H, 's', 00H, ' ', 00H, '(', 00H, 'x', 00H, '8', 00H
	DB	'6', 00H, ')', 00H, '\', 00H, 'm', 00H, 'i', 00H, 'c', 00H, 'r'
	DB	00H, 'o', 00H, 's', 00H, 'o', 00H, 'f', 00H, 't', 00H, ' ', 00H
	DB	'v', 00H, 'i', 00H, 's', 00H, 'u', 00H, 'a', 00H, 'l', 00H, ' '
	DB	00H, 's', 00H, 't', 00H, 'u', 00H, 'd', 00H, 'i', 00H, 'o', 00H
	DB	' ', 00H, '1', 00H, '2', 00H, '.', 00H, '0', 00H, '\', 00H, 'v'
	DB	00H, 'c', 00H, '\', 00H, 'i', 00H, 'n', 00H, 'c', 00H, 'l', 00H
	DB	'u', 00H, 'd', 00H, 'e', 00H, '\', 00H, 'x', 00H, 's', 00H, 't'
	DB	00H, 'r', 00H, 'i', 00H, 'n', 00H, 'g', 00H, 00H, 00H ; `string'
CONST	ENDS
;	COMDAT ??_C@_19MNAGGFOC@?$AAp?$AAC?$AAo?$AAs?$AA?$AA@
CONST	SEGMENT
??_C@_19MNAGGFOC@?$AAp?$AAC?$AAo?$AAs?$AA?$AA@ DB 'p', 00H, 'C', 00H, 'o', 00H
	DB	's', 00H, 00H, 00H				; `string'
CONST	ENDS
;	COMDAT ??_C@_19MFJHDIJG@?$AAp?$AAS?$AAi?$AAn?$AA?$AA@
CONST	SEGMENT
??_C@_19MFJHDIJG@?$AAp?$AAS?$AAi?$AAn?$AA?$AA@ DB 'p', 00H, 'S', 00H, 'i', 00H
	DB	'n', 00H, 00H, 00H				; `string'
CONST	ENDS
;	COMDAT ?__LINE__Var@?1??XMScalarSinCos@DirectX@@YAXPAM0M@Z@4JA
_DATA	SEGMENT
?__LINE__Var@?1??XMScalarSinCos@DirectX@@YAXPAM0M@Z@4JA DD 0924H ; `DirectX::XMScalarSinCos'::`2'::__LINE__Var
_DATA	ENDS
;	COMDAT ??_C@_1IO@CGGKMODJ@?$AAc?$AA?3?$AA?2?$AAp?$AAr?$AAo?$AAg?$AAr?$AAa?$AAm?$AA?5?$AAf?$AAi?$AAl?$AAe?$AAs?$AA?5?$AA?$CI?$AAx?$AA8?$AA6?$AA?$CJ?$AA?2?$AAw?$AAi?$AAn?$AAd?$AAo?$AAw?$AAs?$AA?5?$AAk@
CONST	SEGMENT
??_C@_1IO@CGGKMODJ@?$AAc?$AA?3?$AA?2?$AAp?$AAr?$AAo?$AAg?$AAr?$AAa?$AAm?$AA?5?$AAf?$AAi?$AAl?$AAe?$AAs?$AA?5?$AA?$CI?$AAx?$AA8?$AA6?$AA?$CJ?$AA?2?$AAw?$AAi?$AAn?$AAd?$AAo?$AAw?$AAs?$AA?5?$AAk@ DB 'c'
	DB	00H, ':', 00H, '\', 00H, 'p', 00H, 'r', 00H, 'o', 00H, 'g', 00H
	DB	'r', 00H, 'a', 00H, 'm', 00H, ' ', 00H, 'f', 00H, 'i', 00H, 'l'
	DB	00H, 'e', 00H, 's', 00H, ' ', 00H, '(', 00H, 'x', 00H, '8', 00H
	DB	'6', 00H, ')', 00H, '\', 00H, 'w', 00H, 'i', 00H, 'n', 00H, 'd'
	DB	00H, 'o', 00H, 'w', 00H, 's', 00H, ' ', 00H, 'k', 00H, 'i', 00H
	DB	't', 00H, 's', 00H, '\', 00H, '8', 00H, '.', 00H, '1', 00H, '\'
	DB	00H, 'i', 00H, 'n', 00H, 'c', 00H, 'l', 00H, 'u', 00H, 'd', 00H
	DB	'e', 00H, '\', 00H, 'u', 00H, 'm', 00H, '\', 00H, 'd', 00H, 'i'
	DB	00H, 'r', 00H, 'e', 00H, 'c', 00H, 't', 00H, 'x', 00H, 'm', 00H
	DB	'a', 00H, 't', 00H, 'h', 00H, 'm', 00H, 'i', 00H, 's', 00H, 'c'
	DB	00H, '.', 00H, 'i', 00H, 'n', 00H, 'l', 00H, 00H, 00H ; `string'
CONST	ENDS
;	COMDAT ??_C@_1FO@IACFEINC@?$AA?$CB?$AAX?$AAM?$AAS?$AAc?$AAa?$AAl?$AAa?$AAr?$AAN?$AAe?$AAa?$AAr?$AAE?$AAq?$AAu?$AAa?$AAl?$AA?$CI?$AAA?$AAs?$AAp?$AAe?$AAc?$AAt?$AAH?$AAB?$AAy?$AAW?$AA?0?$AA?5?$AA0@
CONST	SEGMENT
??_C@_1FO@IACFEINC@?$AA?$CB?$AAX?$AAM?$AAS?$AAc?$AAa?$AAl?$AAa?$AAr?$AAN?$AAe?$AAa?$AAr?$AAE?$AAq?$AAu?$AAa?$AAl?$AA?$CI?$AAA?$AAs?$AAp?$AAe?$AAc?$AAt?$AAH?$AAB?$AAy?$AAW?$AA?0?$AA?5?$AA0@ DB '!'
	DB	00H, 'X', 00H, 'M', 00H, 'S', 00H, 'c', 00H, 'a', 00H, 'l', 00H
	DB	'a', 00H, 'r', 00H, 'N', 00H, 'e', 00H, 'a', 00H, 'r', 00H, 'E'
	DB	00H, 'q', 00H, 'u', 00H, 'a', 00H, 'l', 00H, '(', 00H, 'A', 00H
	DB	's', 00H, 'p', 00H, 'e', 00H, 'c', 00H, 't', 00H, 'H', 00H, 'B'
	DB	00H, 'y', 00H, 'W', 00H, ',', 00H, ' ', 00H, '0', 00H, '.', 00H
	DB	'0', 00H, 'f', 00H, ',', 00H, ' ', 00H, '0', 00H, '.', 00H, '0'
	DB	00H, '0', 00H, '0', 00H, '0', 00H, '1', 00H, 'f', 00H, ')', 00H
	DB	00H, 00H					; `string'
CONST	ENDS
;	COMDAT ??_C@_1GK@EFPMNDEN@?$AA?$CB?$AAX?$AAM?$AAS?$AAc?$AAa?$AAl?$AAa?$AAr?$AAN?$AAe?$AAa?$AAr?$AAE?$AAq?$AAu?$AAa?$AAl?$AA?$CI?$AAF?$AAo?$AAv?$AAA?$AAn?$AAg?$AAl?$AAe?$AAY?$AA?0?$AA?5?$AA0?$AA?4@
CONST	SEGMENT
??_C@_1GK@EFPMNDEN@?$AA?$CB?$AAX?$AAM?$AAS?$AAc?$AAa?$AAl?$AAa?$AAr?$AAN?$AAe?$AAa?$AAr?$AAE?$AAq?$AAu?$AAa?$AAl?$AA?$CI?$AAF?$AAo?$AAv?$AAA?$AAn?$AAg?$AAl?$AAe?$AAY?$AA?0?$AA?5?$AA0?$AA?4@ DB '!'
	DB	00H, 'X', 00H, 'M', 00H, 'S', 00H, 'c', 00H, 'a', 00H, 'l', 00H
	DB	'a', 00H, 'r', 00H, 'N', 00H, 'e', 00H, 'a', 00H, 'r', 00H, 'E'
	DB	00H, 'q', 00H, 'u', 00H, 'a', 00H, 'l', 00H, '(', 00H, 'F', 00H
	DB	'o', 00H, 'v', 00H, 'A', 00H, 'n', 00H, 'g', 00H, 'l', 00H, 'e'
	DB	00H, 'Y', 00H, ',', 00H, ' ', 00H, '0', 00H, '.', 00H, '0', 00H
	DB	'f', 00H, ',', 00H, ' ', 00H, '0', 00H, '.', 00H, '0', 00H, '0'
	DB	00H, '0', 00H, '0', 00H, '1', 00H, 'f', 00H, ' ', 00H, '*', 00H
	DB	' ', 00H, '2', 00H, '.', 00H, '0', 00H, 'f', 00H, ')', 00H, 00H
	DB	00H						; `string'
CONST	ENDS
;	COMDAT ?__LINE__Var@?1??XMMatrixPerspectiveFovLH@DirectX@@YQ?AUXMMATRIX@2@MMMM@Z@4JA
_DATA	SEGMENT
?__LINE__Var@?1??XMMatrixPerspectiveFovLH@DirectX@@YQ?AUXMMATRIX@2@MMMM@Z@4JA DD 0881H ; `DirectX::XMMatrixPerspectiveFovLH'::`2'::__LINE__Var
_DATA	ENDS
;	COMDAT ??_C@_1FE@IMEJOJAH@?$AA?$CB?$AAX?$AAM?$AAS?$AAc?$AAa?$AAl?$AAa?$AAr?$AAN?$AAe?$AAa?$AAr?$AAE?$AAq?$AAu?$AAa?$AAl?$AA?$CI?$AAF?$AAa?$AAr?$AAZ?$AA?0?$AA?5?$AAN?$AAe?$AAa?$AAr?$AAZ?$AA?0?$AA?5@
CONST	SEGMENT
??_C@_1FE@IMEJOJAH@?$AA?$CB?$AAX?$AAM?$AAS?$AAc?$AAa?$AAl?$AAa?$AAr?$AAN?$AAe?$AAa?$AAr?$AAE?$AAq?$AAu?$AAa?$AAl?$AA?$CI?$AAF?$AAa?$AAr?$AAZ?$AA?0?$AA?5?$AAN?$AAe?$AAa?$AAr?$AAZ?$AA?0?$AA?5@ DB '!'
	DB	00H, 'X', 00H, 'M', 00H, 'S', 00H, 'c', 00H, 'a', 00H, 'l', 00H
	DB	'a', 00H, 'r', 00H, 'N', 00H, 'e', 00H, 'a', 00H, 'r', 00H, 'E'
	DB	00H, 'q', 00H, 'u', 00H, 'a', 00H, 'l', 00H, '(', 00H, 'F', 00H
	DB	'a', 00H, 'r', 00H, 'Z', 00H, ',', 00H, ' ', 00H, 'N', 00H, 'e'
	DB	00H, 'a', 00H, 'r', 00H, 'Z', 00H, ',', 00H, ' ', 00H, '0', 00H
	DB	'.', 00H, '0', 00H, '0', 00H, '0', 00H, '0', 00H, '1', 00H, 'f'
	DB	00H, ')', 00H, 00H, 00H			; `string'
CONST	ENDS
;	COMDAT ??_C@_1DG@LLGFAECG@?$AA?$CB?$AAX?$AAM?$AAV?$AAe?$AAc?$AAt?$AAo?$AAr?$AA3?$AAI?$AAs?$AAI?$AAn?$AAf?$AAi?$AAn?$AAi?$AAt?$AAe?$AA?$CI?$AAA?$AAx?$AAi?$AAs?$AA?$CJ?$AA?$AA@
CONST	SEGMENT
??_C@_1DG@LLGFAECG@?$AA?$CB?$AAX?$AAM?$AAV?$AAe?$AAc?$AAt?$AAo?$AAr?$AA3?$AAI?$AAs?$AAI?$AAn?$AAf?$AAi?$AAn?$AAi?$AAt?$AAe?$AA?$CI?$AAA?$AAx?$AAi?$AAs?$AA?$CJ?$AA?$AA@ DB '!'
	DB	00H, 'X', 00H, 'M', 00H, 'V', 00H, 'e', 00H, 'c', 00H, 't', 00H
	DB	'o', 00H, 'r', 00H, '3', 00H, 'I', 00H, 's', 00H, 'I', 00H, 'n'
	DB	00H, 'f', 00H, 'i', 00H, 'n', 00H, 'i', 00H, 't', 00H, 'e', 00H
	DB	'(', 00H, 'A', 00H, 'x', 00H, 'i', 00H, 's', 00H, ')', 00H, 00H
	DB	00H						; `string'
CONST	ENDS
;	COMDAT ??_C@_1EM@PGKKLAMD@?$AA?$CB?$AAX?$AAM?$AAV?$AAe?$AAc?$AAt?$AAo?$AAr?$AA3?$AAE?$AAq?$AAu?$AAa?$AAl?$AA?$CI?$AAA?$AAx?$AAi?$AAs?$AA?0?$AA?5?$AAX?$AAM?$AAV?$AAe?$AAc?$AAt?$AAo?$AAr?$AAZ?$AAe@
CONST	SEGMENT
??_C@_1EM@PGKKLAMD@?$AA?$CB?$AAX?$AAM?$AAV?$AAe?$AAc?$AAt?$AAo?$AAr?$AA3?$AAE?$AAq?$AAu?$AAa?$AAl?$AA?$CI?$AAA?$AAx?$AAi?$AAs?$AA?0?$AA?5?$AAX?$AAM?$AAV?$AAe?$AAc?$AAt?$AAo?$AAr?$AAZ?$AAe@ DB '!'
	DB	00H, 'X', 00H, 'M', 00H, 'V', 00H, 'e', 00H, 'c', 00H, 't', 00H
	DB	'o', 00H, 'r', 00H, '3', 00H, 'E', 00H, 'q', 00H, 'u', 00H, 'a'
	DB	00H, 'l', 00H, '(', 00H, 'A', 00H, 'x', 00H, 'i', 00H, 's', 00H
	DB	',', 00H, ' ', 00H, 'X', 00H, 'M', 00H, 'V', 00H, 'e', 00H, 'c'
	DB	00H, 't', 00H, 'o', 00H, 'r', 00H, 'Z', 00H, 'e', 00H, 'r', 00H
	DB	'o', 00H, '(', 00H, ')', 00H, ')', 00H, 00H, 00H ; `string'
CONST	ENDS
;	COMDAT ?__LINE__Var@?1??XMMatrixRotationAxis@DirectX@@YQ?AUXMMATRIX@2@T__m128@@M@Z@4JA
_DATA	SEGMENT
?__LINE__Var@?1??XMMatrixRotationAxis@DirectX@@YQ?AUXMMATRIX@2@T__m128@@M@Z@4JA DD 064cH ; `DirectX::XMMatrixRotationAxis'::`2'::__LINE__Var
_DATA	ENDS
;	COMDAT ??_C@_1JC@EJCKKKJP@?$AAc?$AA?3?$AA?2?$AAp?$AAr?$AAo?$AAg?$AAr?$AAa?$AAm?$AA?5?$AAf?$AAi?$AAl?$AAe?$AAs?$AA?5?$AA?$CI?$AAx?$AA8?$AA6?$AA?$CJ?$AA?2?$AAw?$AAi?$AAn?$AAd?$AAo?$AAw?$AAs?$AA?5?$AAk@
CONST	SEGMENT
??_C@_1JC@EJCKKKJP@?$AAc?$AA?3?$AA?2?$AAp?$AAr?$AAo?$AAg?$AAr?$AAa?$AAm?$AA?5?$AAf?$AAi?$AAl?$AAe?$AAs?$AA?5?$AA?$CI?$AAx?$AA8?$AA6?$AA?$CJ?$AA?2?$AAw?$AAi?$AAn?$AAd?$AAo?$AAw?$AAs?$AA?5?$AAk@ DB 'c'
	DB	00H, ':', 00H, '\', 00H, 'p', 00H, 'r', 00H, 'o', 00H, 'g', 00H
	DB	'r', 00H, 'a', 00H, 'm', 00H, ' ', 00H, 'f', 00H, 'i', 00H, 'l'
	DB	00H, 'e', 00H, 's', 00H, ' ', 00H, '(', 00H, 'x', 00H, '8', 00H
	DB	'6', 00H, ')', 00H, '\', 00H, 'w', 00H, 'i', 00H, 'n', 00H, 'd'
	DB	00H, 'o', 00H, 'w', 00H, 's', 00H, ' ', 00H, 'k', 00H, 'i', 00H
	DB	't', 00H, 's', 00H, '\', 00H, '8', 00H, '.', 00H, '1', 00H, '\'
	DB	00H, 'i', 00H, 'n', 00H, 'c', 00H, 'l', 00H, 'u', 00H, 'd', 00H
	DB	'e', 00H, '\', 00H, 'u', 00H, 'm', 00H, '\', 00H, 'd', 00H, 'i'
	DB	00H, 'r', 00H, 'e', 00H, 'c', 00H, 't', 00H, 'x', 00H, 'm', 00H
	DB	'a', 00H, 't', 00H, 'h', 00H, 'm', 00H, 'a', 00H, 't', 00H, 'r'
	DB	00H, 'i', 00H, 'x', 00H, '.', 00H, 'i', 00H, 'n', 00H, 'l', 00H
	DB	00H, 00H					; `string'
CONST	ENDS
;	COMDAT ?g_XMReciprocalTwoPi@DirectX@@3UXMVECTORF32@1@B
_DATA	SEGMENT
?g_XMReciprocalTwoPi@DirectX@@3UXMVECTORF32@1@B	ORG $+16 ; DirectX::g_XMReciprocalTwoPi
_DATA	ENDS
;	COMDAT ?g_XMTwoPi@DirectX@@3UXMVECTORF32@1@B
_DATA	SEGMENT
?g_XMTwoPi@DirectX@@3UXMVECTORF32@1@B	ORG $+16		; DirectX::g_XMTwoPi
_DATA	ENDS
;	COMDAT ?g_XMReciprocalPi@DirectX@@3UXMVECTORF32@1@B
_DATA	SEGMENT
?g_XMReciprocalPi@DirectX@@3UXMVECTORF32@1@B	ORG $+16	; DirectX::g_XMReciprocalPi
_DATA	ENDS
;	COMDAT ?g_XMPi@DirectX@@3UXMVECTORF32@1@B
_DATA	SEGMENT
?g_XMPi@DirectX@@3UXMVECTORF32@1@B	ORG $+16		; DirectX::g_XMPi
_DATA	ENDS
;	COMDAT ?g_XMHalfPi@DirectX@@3UXMVECTORF32@1@B
_DATA	SEGMENT
?g_XMHalfPi@DirectX@@3UXMVECTORF32@1@B	ORG $+16		; DirectX::g_XMHalfPi
_DATA	ENDS
;	COMDAT ?g_XMNegativePi@DirectX@@3UXMVECTORF32@1@B
_DATA	SEGMENT
?g_XMNegativePi@DirectX@@3UXMVECTORF32@1@B	ORG $+16	; DirectX::g_XMNegativePi
_DATA	ENDS
;	COMDAT ?g_XMNegativeTwoPi@DirectX@@3UXMVECTORF32@1@B
_DATA	SEGMENT
?g_XMNegativeTwoPi@DirectX@@3UXMVECTORF32@1@B	ORG $+16	; DirectX::g_XMNegativeTwoPi
_DATA	ENDS
;	COMDAT ?g_XMPiConstants0@DirectX@@3UXMVECTORF32@1@B
_DATA	SEGMENT
?g_XMPiConstants0@DirectX@@3UXMVECTORF32@1@B	ORG $+16	; DirectX::g_XMPiConstants0
_DATA	ENDS
;	COMDAT ?g_XMTanEstCoefficients@DirectX@@3UXMVECTORF32@1@B
_DATA	SEGMENT
?g_XMTanEstCoefficients@DirectX@@3UXMVECTORF32@1@B DD 0401ef9dbr ; 2.484 ; DirectX::g_XMTanEstCoefficients
	DD	0be482f23r			; -0.195492
	DD	0401de9e6r			; 2.4674
	ORG $+4
_DATA	ENDS
;	COMDAT ??_C@_06FHFOAHML@system?$AA@
CONST	SEGMENT
??_C@_06FHFOAHML@system?$AA@ DB 'system', 00H		; `string'
CONST	ENDS
;	COMDAT ??_7_System_error_category@std@@6B@
CONST	SEGMENT
??_7_System_error_category@std@@6B@ DD FLAT:??_R4_System_error_category@std@@6B@ ; std::_System_error_category::`vftable'
	DD	FLAT:??_E_System_error_category@std@@UAEPAXI@Z
	DD	FLAT:?name@_System_error_category@std@@UBEPBDXZ
	DD	FLAT:?message@_System_error_category@std@@UBE?AV?$basic_string@DU?$char_traits@D@std@@V?$allocator@D@2@@2@H@Z
	DD	FLAT:?default_error_condition@_System_error_category@std@@UBE?AVerror_condition@2@H@Z
	DD	FLAT:?equivalent@error_category@std@@UBE_NABVerror_code@2@H@Z
	DD	FLAT:?equivalent@error_category@std@@UBE_NHABVerror_condition@2@@Z
CONST	ENDS
;	COMDAT ??_C@_0BG@PADBLCHM@iostream?5stream?5error?$AA@
CONST	SEGMENT
??_C@_0BG@PADBLCHM@iostream?5stream?5error?$AA@ DB 'iostream stream error'
	DB	00H						; `string'
CONST	ENDS
;	COMDAT ??_C@_08LLGCOLLL@iostream?$AA@
CONST	SEGMENT
??_C@_08LLGCOLLL@iostream?$AA@ DB 'iostream', 00H	; `string'
CONST	ENDS
;	COMDAT ??_7_Iostream_error_category@std@@6B@
CONST	SEGMENT
??_7_Iostream_error_category@std@@6B@ DD FLAT:??_R4_Iostream_error_category@std@@6B@ ; std::_Iostream_error_category::`vftable'
	DD	FLAT:??_E_Iostream_error_category@std@@UAEPAXI@Z
	DD	FLAT:?name@_Iostream_error_category@std@@UBEPBDXZ
	DD	FLAT:?message@_Iostream_error_category@std@@UBE?AV?$basic_string@DU?$char_traits@D@std@@V?$allocator@D@2@@2@H@Z
	DD	FLAT:?default_error_condition@error_category@std@@UBE?AVerror_condition@2@H@Z
	DD	FLAT:?equivalent@error_category@std@@UBE_NABVerror_code@2@H@Z
	DD	FLAT:?equivalent@error_category@std@@UBE_NHABVerror_condition@2@@Z
CONST	ENDS
;	COMDAT ??_C@_0O@BFJCFAAK@unknown?5error?$AA@
CONST	SEGMENT
??_C@_0O@BFJCFAAK@unknown?5error?$AA@ DB 'unknown error', 00H ; `string'
CONST	ENDS
;	COMDAT ??_C@_07DCLBNMLN@generic?$AA@
CONST	SEGMENT
??_C@_07DCLBNMLN@generic?$AA@ DB 'generic', 00H		; `string'
CONST	ENDS
;	COMDAT ??_7_Generic_error_category@std@@6B@
CONST	SEGMENT
??_7_Generic_error_category@std@@6B@ DD FLAT:??_R4_Generic_error_category@std@@6B@ ; std::_Generic_error_category::`vftable'
	DD	FLAT:??_E_Generic_error_category@std@@UAEPAXI@Z
	DD	FLAT:?name@_Generic_error_category@std@@UBEPBDXZ
	DD	FLAT:?message@_Generic_error_category@std@@UBE?AV?$basic_string@DU?$char_traits@D@std@@V?$allocator@D@2@@2@H@Z
	DD	FLAT:?default_error_condition@error_category@std@@UBE?AVerror_condition@2@H@Z
	DD	FLAT:?equivalent@error_category@std@@UBE_NABVerror_code@2@H@Z
	DD	FLAT:?equivalent@error_category@std@@UBE_NHABVerror_condition@2@@Z
CONST	ENDS
;	COMDAT ??_7error_category@std@@6B@
CONST	SEGMENT
??_7error_category@std@@6B@ DD FLAT:??_R4error_category@std@@6B@ ; std::error_category::`vftable'
	DD	FLAT:??_Eerror_category@std@@UAEPAXI@Z
	DD	FLAT:__purecall
	DD	FLAT:__purecall
	DD	FLAT:?default_error_condition@error_category@std@@UBE?AVerror_condition@2@H@Z
	DD	FLAT:?equivalent@error_category@std@@UBE_NABVerror_code@2@H@Z
	DD	FLAT:?equivalent@error_category@std@@UBE_NHABVerror_condition@2@@Z
CONST	ENDS
;	COMDAT xdata$x
xdata$x	SEGMENT
__unwindtable$??$construct@PADAAPAD@?$allocator@D@std@@QAEXPAPADAAPAD@Z DD 0ffffffffH
	DD	FLAT:__unwindfunclet$??$construct@PADAAPAD@?$allocator@D@std@@QAEXPAPADAAPAD@Z$0
__ehfuncinfo$??$construct@PADAAPAD@?$allocator@D@std@@QAEXPAPADAAPAD@Z DD 019930522H
	DD	01H
	DD	FLAT:__unwindtable$??$construct@PADAAPAD@?$allocator@D@std@@QAEXPAPADAAPAD@Z
	DD	2 DUP(00H)
	DD	2 DUP(00H)
	DD	00H
	DD	01H
xdata$x	ENDS
;	COMDAT xdata$x
xdata$x	SEGMENT
__unwindtable$??$construct@U_Container_proxy@std@@U12@@?$allocator@U_Container_proxy@std@@@std@@QAEXPAU_Container_proxy@1@$$QAU21@@Z DD 0ffffffffH
	DD	FLAT:__unwindfunclet$??$construct@U_Container_proxy@std@@U12@@?$allocator@U_Container_proxy@std@@@std@@QAEXPAU_Container_proxy@1@$$QAU21@@Z$0
__ehfuncinfo$??$construct@U_Container_proxy@std@@U12@@?$allocator@U_Container_proxy@std@@@std@@QAEXPAU_Container_proxy@1@$$QAU21@@Z DD 019930522H
	DD	01H
	DD	FLAT:__unwindtable$??$construct@U_Container_proxy@std@@U12@@?$allocator@U_Container_proxy@std@@@std@@QAEXPAU_Container_proxy@1@$$QAU21@@Z
	DD	2 DUP(00H)
	DD	2 DUP(00H)
	DD	00H
	DD	01H
xdata$x	ENDS
;	COMDAT xdata$x
xdata$x	SEGMENT
__catchsym$?_Copy@?$basic_string@DU?$char_traits@D@std@@V?$allocator@D@2@@std@@QAEXII@Z$5 DD 040H
	DD	00H
	DD	00H
	DD	FLAT:__catch$?_Copy@?$basic_string@DU?$char_traits@D@std@@V?$allocator@D@2@@std@@QAEXII@Z$0
__catchsym$?_Copy@?$basic_string@DU?$char_traits@D@std@@V?$allocator@D@2@@std@@QAEXII@Z$4 DD 040H
	DD	00H
	DD	00H
	DD	FLAT:__catch$?_Copy@?$basic_string@DU?$char_traits@D@std@@V?$allocator@D@2@@std@@QAEXII@Z$1
__unwindtable$?_Copy@?$basic_string@DU?$char_traits@D@std@@V?$allocator@D@2@@std@@QAEXII@Z DD 0ffffffffH
	DD	00H
	DD	0ffffffffH
	DD	00H
	DD	01H
	DD	00H
	DD	01H
	DD	00H
__ehfuncinfo$?_Copy@?$basic_string@DU?$char_traits@D@std@@V?$allocator@D@2@@std@@QAEXII@Z DD 019930522H
	DD	04H
	DD	FLAT:__unwindtable$?_Copy@?$basic_string@DU?$char_traits@D@std@@V?$allocator@D@2@@std@@QAEXII@Z
	DD	02H
	DD	FLAT:__tryblocktable$?_Copy@?$basic_string@DU?$char_traits@D@std@@V?$allocator@D@2@@std@@QAEXII@Z
	DD	2 DUP(00H)
	DD	00H
	DD	01H
__tryblocktable$?_Copy@?$basic_string@DU?$char_traits@D@std@@V?$allocator@D@2@@std@@QAEXII@Z DD 02H
	DD	02H
	DD	03H
	DD	01H
	DD	FLAT:__catchsym$?_Copy@?$basic_string@DU?$char_traits@D@std@@V?$allocator@D@2@@std@@QAEXII@Z$4
	DD	00H
	DD	00H
	DD	03H
	DD	01H
	DD	FLAT:__catchsym$?_Copy@?$basic_string@DU?$char_traits@D@std@@V?$allocator@D@2@@std@@QAEXII@Z$5
xdata$x	ENDS
;	COMDAT xdata$x
xdata$x	SEGMENT
__unwindtable$??0?$basic_string@DU?$char_traits@D@std@@V?$allocator@D@2@@std@@QAE@PBD@Z DD 0ffffffffH
	DD	FLAT:__unwindfunclet$??0?$basic_string@DU?$char_traits@D@std@@V?$allocator@D@2@@std@@QAE@PBD@Z$0
__ehfuncinfo$??0?$basic_string@DU?$char_traits@D@std@@V?$allocator@D@2@@std@@QAE@PBD@Z DD 019930522H
	DD	01H
	DD	FLAT:__unwindtable$??0?$basic_string@DU?$char_traits@D@std@@V?$allocator@D@2@@std@@QAE@PBD@Z
	DD	2 DUP(00H)
	DD	2 DUP(00H)
	DD	00H
	DD	01H
xdata$x	ENDS
;	COMDAT xdata$x
xdata$x	SEGMENT
__unwindtable$??0?$_String_alloc@$0A@U?$_String_base_types@DV?$allocator@D@std@@@std@@@std@@QAE@ABV?$allocator@D@1@@Z DD 0ffffffffH
	DD	FLAT:__unwindfunclet$??0?$_String_alloc@$0A@U?$_String_base_types@DV?$allocator@D@std@@@std@@@std@@QAE@ABV?$allocator@D@1@@Z$0
__ehfuncinfo$??0?$_String_alloc@$0A@U?$_String_base_types@DV?$allocator@D@std@@@std@@@std@@QAE@ABV?$allocator@D@1@@Z DD 019930522H
	DD	01H
	DD	FLAT:__unwindtable$??0?$_String_alloc@$0A@U?$_String_base_types@DV?$allocator@D@std@@@std@@@std@@QAE@ABV?$allocator@D@1@@Z
	DD	2 DUP(00H)
	DD	2 DUP(00H)
	DD	00H
	DD	01H
xdata$x	ENDS
CRT$XCU	SEGMENT
_allocator_arg$initializer$ DD FLAT:??__Eallocator_arg@std@@YAXXZ
CRT$XCU	ENDS
;	COMDAT CRT$XCU
CRT$XCU	SEGMENT
_g_XMTanEstCoefficients$initializer$ DD FLAT:??__Eg_XMTanEstCoefficients@DirectX@@YAXXZ
CRT$XCU	ENDS
;	COMDAT CRT$XCU
CRT$XCU	SEGMENT
_g_XMPiConstants0$initializer$ DD FLAT:??__Eg_XMPiConstants0@DirectX@@YAXXZ
CRT$XCU	ENDS
;	COMDAT CRT$XCU
CRT$XCU	SEGMENT
_g_XMNegativeTwoPi$initializer$ DD FLAT:??__Eg_XMNegativeTwoPi@DirectX@@YAXXZ
CRT$XCU	ENDS
;	COMDAT CRT$XCU
CRT$XCU	SEGMENT
_g_XMNegativePi$initializer$ DD FLAT:??__Eg_XMNegativePi@DirectX@@YAXXZ
CRT$XCU	ENDS
;	COMDAT CRT$XCU
CRT$XCU	SEGMENT
_g_XMHalfPi$initializer$ DD FLAT:??__Eg_XMHalfPi@DirectX@@YAXXZ
CRT$XCU	ENDS
;	COMDAT CRT$XCU
CRT$XCU	SEGMENT
_g_XMPi$initializer$ DD FLAT:??__Eg_XMPi@DirectX@@YAXXZ
CRT$XCU	ENDS
;	COMDAT CRT$XCU
CRT$XCU	SEGMENT
_g_XMReciprocalPi$initializer$ DD FLAT:??__Eg_XMReciprocalPi@DirectX@@YAXXZ
CRT$XCU	ENDS
;	COMDAT CRT$XCU
CRT$XCU	SEGMENT
_g_XMTwoPi$initializer$ DD FLAT:??__Eg_XMTwoPi@DirectX@@YAXXZ
CRT$XCU	ENDS
;	COMDAT CRT$XCU
CRT$XCU	SEGMENT
_g_XMReciprocalTwoPi$initializer$ DD FLAT:??__Eg_XMReciprocalTwoPi@DirectX@@YAXXZ
CRT$XCU	ENDS
CRT$XCU	SEGMENT
	ORG $-8
_XAXIS$initializer$ DD FLAT:??__EXAXIS@@YAXXZ
CRT$XCU	ENDS
CRT$XCU	SEGMENT
_YAXIS$initializer$ DD FLAT:??__EYAXIS@@YAXXZ
CRT$XCU	ENDS
CRT$XCU	SEGMENT
_ZAXIS$initializer$ DD FLAT:??__EZAXIS@@YAXXZ
CRT$XCU	ENDS
CRT$XCU	SEGMENT
_ORIGIN$initializer$ DD FLAT:??__EORIGIN@@YAXXZ
CRT$XCU	ENDS
CRT$XCU	SEGMENT
_NO_ROTATION$initializer$ DD FLAT:??__ENO_ROTATION@@YAXXZ
CRT$XCU	ENDS
CRT$XCU	SEGMENT
__BLACK$initializer$ DD FLAT:??__E_BLACK@@YAXXZ
CRT$XCU	ENDS
CRT$XCU	SEGMENT
__WHITE$initializer$ DD FLAT:??__E_WHITE@@YAXXZ
CRT$XCU	ENDS
CRT$XCU	SEGMENT
__RED$initializer$ DD FLAT:??__E_RED@@YAXXZ
CRT$XCU	ENDS
CRT$XCU	SEGMENT
__GREEN$initializer$ DD FLAT:??__E_GREEN@@YAXXZ
CRT$XCU	ENDS
CRT$XCU	SEGMENT
__ORANGE$initializer$ DD FLAT:??__E_ORANGE@@YAXXZ
CRT$XCU	ENDS
;	COMDAT CRT$XCU
CRT$XCU	SEGMENT
?_Generic_object$initializer$@?$_Error_objects@H@std@@2P6AXXZA DD FLAT:??__E?_Generic_object@?$_Error_objects@H@std@@2V_Generic_error_category@2@A@@YAXXZ ; std::_Error_objects<int>::_Generic_object$initializer$
CRT$XCU	ENDS
;	COMDAT CRT$XCU
CRT$XCU	SEGMENT
?_Iostream_object$initializer$@?$_Error_objects@H@std@@2P6AXXZA DD FLAT:??__E?_Iostream_object@?$_Error_objects@H@std@@2V_Iostream_error_category@2@A@@YAXXZ ; std::_Error_objects<int>::_Iostream_object$initializer$
CRT$XCU	ENDS
;	COMDAT CRT$XCU
CRT$XCU	SEGMENT
?_System_object$initializer$@?$_Error_objects@H@std@@2P6AXXZA DD FLAT:??__E?_System_object@?$_Error_objects@H@std@@2V_System_error_category@2@A@@YAXXZ ; std::_Error_objects<int>::_System_object$initializer$
CRT$XCU	ENDS
;	COMDAT CRT$XCU
CRT$XCU	SEGMENT
?id$initializer$@?$num_put@DV?$back_insert_iterator@V?$basic_string@DU?$char_traits@D@std@@V?$allocator@D@2@@std@@@std@@@std@@2P6AXXZA DD FLAT:??__E?id@?$num_put@DV?$back_insert_iterator@V?$basic_string@DU?$char_traits@D@std@@V?$allocator@D@2@@std@@@std@@@std@@2V0locale@2@A@@YAXXZ ; std::num_put<char,std::back_insert_iterator<std::basic_string<char,std::char_traits<char>,std::allocator<char> > > >::id$initializer$
CRT$XCU	ENDS
;	COMDAT CRT$XCU
CRT$XCU	SEGMENT
?id$initializer$@?$num_put@_WV?$back_insert_iterator@V?$basic_string@_WU?$char_traits@_W@std@@V?$allocator@_W@2@@std@@@std@@@std@@2P6AXXZA DD FLAT:??__E?id@?$num_put@_WV?$back_insert_iterator@V?$basic_string@_WU?$char_traits@_W@std@@V?$allocator@_W@2@@std@@@std@@@std@@2V0locale@2@A@@YAXXZ ; std::num_put<wchar_t,std::back_insert_iterator<std::basic_string<wchar_t,std::char_traits<wchar_t>,std::allocator<wchar_t> > > >::id$initializer$
CRT$XCU	ENDS
;	COMDAT CRT$XCU
CRT$XCU	SEGMENT
?id$initializer$@?$numpunct@D@std@@2P6AXXZA DD FLAT:??__E?id@?$numpunct@D@std@@2V0locale@2@A@@YAXXZ ; std::numpunct<char>::id$initializer$
CRT$XCU	ENDS
;	COMDAT CRT$XCU
CRT$XCU	SEGMENT
?id$initializer$@?$numpunct@_W@std@@2P6AXXZA DD FLAT:??__E?id@?$numpunct@_W@std@@2V0locale@2@A@@YAXXZ ; std::numpunct<wchar_t>::id$initializer$
CRT$XCU	ENDS
; Function compile flags: /Odtp /RTCsu /ZI
; File c:\program files (x86)\microsoft visual studio 12.0\vc\include\xmemory0
;	COMDAT ??$destroy@PAD@?$allocator@D@std@@QAEXPAPAD@Z
_TEXT	SEGMENT
_this$ = -8						; size = 4
__Ptr$ = 8						; size = 4
??$destroy@PAD@?$allocator@D@std@@QAEXPAPAD@Z PROC	; std::allocator<char>::destroy<char *>, COMDAT
; _this$ = ecx

; 605  : 		void destroy(_Uty *_Ptr)

	push	ebp
	mov	ebp, esp
	sub	esp, 204				; 000000ccH
	push	ebx
	push	esi
	push	edi
	push	ecx
	lea	edi, DWORD PTR [ebp-204]
	mov	ecx, 51					; 00000033H
	mov	eax, -858993460				; ccccccccH
	rep stosd
	pop	ecx
	mov	DWORD PTR _this$[ebp], ecx

; 606  : 		{	// destroy object at _Ptr
; 607  : 		_Ptr->~_Uty();
; 608  : 		}

	pop	edi
	pop	esi
	pop	ebx
	mov	esp, ebp
	pop	ebp
	ret	4
??$destroy@PAD@?$allocator@D@std@@QAEXPAPAD@Z ENDP	; std::allocator<char>::destroy<char *>
_TEXT	ENDS
; Function compile flags: /Odtp /RTCsu /ZI
; File c:\program files (x86)\microsoft visual studio 12.0\vc\include\xmemory0
;	COMDAT ??$construct@PADAAPAD@?$allocator@D@std@@QAEXPAPADAAPAD@Z
_TEXT	SEGMENT
tv73 = -244						; size = 4
$T2 = -236						; size = 4
$T3 = -224						; size = 4
_this$ = -20						; size = 4
__$EHRec$ = -12						; size = 12
__Ptr$ = 8						; size = 4
_<_Args_0>$ = 12					; size = 4
??$construct@PADAAPAD@?$allocator@D@std@@QAEXPAPADAAPAD@Z PROC ; std::allocator<char>::construct<char *,char * &>, COMDAT
; _this$ = ecx

; 598  : 		void construct(_Objty *_Ptr, _Types&&... _Args)

	push	ebp
	mov	ebp, esp
	push	-1
	push	__ehhandler$??$construct@PADAAPAD@?$allocator@D@std@@QAEXPAPADAAPAD@Z
	mov	eax, DWORD PTR fs:0
	push	eax
	sub	esp, 232				; 000000e8H
	push	ebx
	push	esi
	push	edi
	push	ecx
	lea	edi, DWORD PTR [ebp-244]
	mov	ecx, 58					; 0000003aH
	mov	eax, -858993460				; ccccccccH
	rep stosd
	pop	ecx
	mov	eax, DWORD PTR ___security_cookie
	xor	eax, ebp
	push	eax
	lea	eax, DWORD PTR __$EHRec$[ebp]
	mov	DWORD PTR fs:0, eax
	mov	DWORD PTR _this$[ebp], ecx

; 599  : 		{	// construct _Objty(_Types...) at _Ptr
; 600  : 		::new ((void *)_Ptr) _Objty(_STD forward<_Types>(_Args)...);

	mov	eax, DWORD PTR __Ptr$[ebp]
	push	eax
	push	4
	call	??2@YAPAXIPAX@Z				; operator new
	add	esp, 8
	mov	DWORD PTR $T3[ebp], eax
	mov	DWORD PTR __$EHRec$[ebp+8], 0
	cmp	DWORD PTR $T3[ebp], 0
	je	SHORT $LN3@construct
	mov	ecx, DWORD PTR _<_Args_0>$[ebp]
	push	ecx
	call	??$forward@AAPAD@std@@YAAAPADAAPAD@Z	; std::forward<char * &>
	add	esp, 4
	mov	edx, DWORD PTR $T3[ebp]
	mov	eax, DWORD PTR [eax]
	mov	DWORD PTR [edx], eax
	mov	ecx, DWORD PTR $T3[ebp]
	mov	DWORD PTR tv73[ebp], ecx
	jmp	SHORT $LN4@construct
$LN3@construct:
	mov	DWORD PTR tv73[ebp], 0
$LN4@construct:
	mov	edx, DWORD PTR tv73[ebp]
	mov	DWORD PTR $T2[ebp], edx
	mov	DWORD PTR __$EHRec$[ebp+8], -1

; 601  : 		}

	mov	ecx, DWORD PTR __$EHRec$[ebp]
	mov	DWORD PTR fs:0, ecx
	pop	ecx
	pop	edi
	pop	esi
	pop	ebx
	add	esp, 244				; 000000f4H
	cmp	ebp, esp
	call	__RTC_CheckEsp
	mov	esp, ebp
	pop	ebp
	ret	8
_TEXT	ENDS
;	COMDAT text$x
text$x	SEGMENT
__unwindfunclet$??$construct@PADAAPAD@?$allocator@D@std@@QAEXPAPADAAPAD@Z$0:
	mov	eax, DWORD PTR __Ptr$[ebp]
	push	eax
	mov	eax, DWORD PTR $T3[ebp]
	push	eax
	call	??3@YAXPAX0@Z				; operator delete
	add	esp, 8
	ret	0
__ehhandler$??$construct@PADAAPAD@?$allocator@D@std@@QAEXPAPADAAPAD@Z:
	mov	edx, DWORD PTR [esp+8]
	lea	eax, DWORD PTR [edx+12]
	mov	ecx, DWORD PTR [edx-248]
	xor	ecx, eax
	call	@__security_check_cookie@4
	mov	eax, OFFSET __ehfuncinfo$??$construct@PADAAPAD@?$allocator@D@std@@QAEXPAPADAAPAD@Z
	jmp	___CxxFrameHandler3
text$x	ENDS
??$construct@PADAAPAD@?$allocator@D@std@@QAEXPAPADAAPAD@Z ENDP ; std::allocator<char>::construct<char *,char * &>
; Function compile flags: /Odtp /RTCsu /ZI
; File c:\program files (x86)\microsoft visual studio 12.0\vc\include\xlocnum
;	COMDAT ??__E?id@?$numpunct@_W@std@@2V0locale@2@A@@YAXXZ
text$di	SEGMENT
??__E?id@?$numpunct@_W@std@@2V0locale@2@A@@YAXXZ PROC	; `dynamic initializer for 'std::numpunct<wchar_t>::id'', COMDAT

; 155  : 		void _Getvals(wchar_t, const lconv *_Ptr, _Locinfo::_Cvtvec)

	push	ebp
	mov	ebp, esp
	sub	esp, 192				; 000000c0H
	push	ebx
	push	esi
	push	edi
	lea	edi, DWORD PTR [ebp-192]
	mov	ecx, 48					; 00000030H
	mov	eax, -858993460				; ccccccccH
	rep stosd
	push	0
	mov	ecx, OFFSET ?id@?$numpunct@_W@std@@2V0locale@2@A ; std::numpunct<wchar_t>::id
	call	??0id@locale@std@@QAE@I@Z		; std::locale::id::id
	pop	edi
	pop	esi
	pop	ebx
	add	esp, 192				; 000000c0H
	cmp	ebp, esp
	call	__RTC_CheckEsp
	mov	esp, ebp
	pop	ebp
	ret	0
??__E?id@?$numpunct@_W@std@@2V0locale@2@A@@YAXXZ ENDP	; `dynamic initializer for 'std::numpunct<wchar_t>::id''
text$di	ENDS
; Function compile flags: /Odtp /RTCsu /ZI
; File c:\program files (x86)\microsoft visual studio 12.0\vc\include\xlocnum
;	COMDAT ??__E?id@?$numpunct@D@std@@2V0locale@2@A@@YAXXZ
text$di	SEGMENT
??__E?id@?$numpunct@D@std@@2V0locale@2@A@@YAXXZ PROC	; `dynamic initializer for 'std::numpunct<char>::id'', COMDAT

; 155  : 		void _Getvals(wchar_t, const lconv *_Ptr, _Locinfo::_Cvtvec)

	push	ebp
	mov	ebp, esp
	sub	esp, 192				; 000000c0H
	push	ebx
	push	esi
	push	edi
	lea	edi, DWORD PTR [ebp-192]
	mov	ecx, 48					; 00000030H
	mov	eax, -858993460				; ccccccccH
	rep stosd
	push	0
	mov	ecx, OFFSET ?id@?$numpunct@D@std@@2V0locale@2@A ; std::numpunct<char>::id
	call	??0id@locale@std@@QAE@I@Z		; std::locale::id::id
	pop	edi
	pop	esi
	pop	ebx
	add	esp, 192				; 000000c0H
	cmp	ebp, esp
	call	__RTC_CheckEsp
	mov	esp, ebp
	pop	ebp
	ret	0
??__E?id@?$numpunct@D@std@@2V0locale@2@A@@YAXXZ ENDP	; `dynamic initializer for 'std::numpunct<char>::id''
text$di	ENDS
; Function compile flags: /Odtp /RTCsu /ZI
; File c:\program files (x86)\microsoft visual studio 12.0\vc\include\xlocnum
;	COMDAT ??__E?id@?$num_put@_WV?$back_insert_iterator@V?$basic_string@_WU?$char_traits@_W@std@@V?$allocator@_W@2@@std@@@std@@@std@@2V0locale@2@A@@YAXXZ
text$di	SEGMENT
??__E?id@?$num_put@_WV?$back_insert_iterator@V?$basic_string@_WU?$char_traits@_W@std@@V?$allocator@_W@2@@std@@@std@@@std@@2V0locale@2@A@@YAXXZ PROC ; `dynamic initializer for 'std::num_put<wchar_t,std::back_insert_iterator<std::basic_string<wchar_t,std::char_traits<wchar_t>,std::allocator<wchar_t> > > >::id'', COMDAT

; 155  : 		void _Getvals(wchar_t, const lconv *_Ptr, _Locinfo::_Cvtvec)

	push	ebp
	mov	ebp, esp
	sub	esp, 192				; 000000c0H
	push	ebx
	push	esi
	push	edi
	lea	edi, DWORD PTR [ebp-192]
	mov	ecx, 48					; 00000030H
	mov	eax, -858993460				; ccccccccH
	rep stosd
	push	0
	mov	ecx, OFFSET ?id@?$num_put@_WV?$back_insert_iterator@V?$basic_string@_WU?$char_traits@_W@std@@V?$allocator@_W@2@@std@@@std@@@std@@2V0locale@2@A ; std::num_put<wchar_t,std::back_insert_iterator<std::basic_string<wchar_t,std::char_traits<wchar_t>,std::allocator<wchar_t> > > >::id
	call	??0id@locale@std@@QAE@I@Z		; std::locale::id::id
	pop	edi
	pop	esi
	pop	ebx
	add	esp, 192				; 000000c0H
	cmp	ebp, esp
	call	__RTC_CheckEsp
	mov	esp, ebp
	pop	ebp
	ret	0
??__E?id@?$num_put@_WV?$back_insert_iterator@V?$basic_string@_WU?$char_traits@_W@std@@V?$allocator@_W@2@@std@@@std@@@std@@2V0locale@2@A@@YAXXZ ENDP ; `dynamic initializer for 'std::num_put<wchar_t,std::back_insert_iterator<std::basic_string<wchar_t,std::char_traits<wchar_t>,std::allocator<wchar_t> > > >::id''
text$di	ENDS
; Function compile flags: /Odtp /RTCsu /ZI
; File c:\program files (x86)\microsoft visual studio 12.0\vc\include\xlocnum
;	COMDAT ??__E?id@?$num_put@DV?$back_insert_iterator@V?$basic_string@DU?$char_traits@D@std@@V?$allocator@D@2@@std@@@std@@@std@@2V0locale@2@A@@YAXXZ
text$di	SEGMENT
??__E?id@?$num_put@DV?$back_insert_iterator@V?$basic_string@DU?$char_traits@D@std@@V?$allocator@D@2@@std@@@std@@@std@@2V0locale@2@A@@YAXXZ PROC ; `dynamic initializer for 'std::num_put<char,std::back_insert_iterator<std::basic_string<char,std::char_traits<char>,std::allocator<char> > > >::id'', COMDAT

; 155  : 		void _Getvals(wchar_t, const lconv *_Ptr, _Locinfo::_Cvtvec)

	push	ebp
	mov	ebp, esp
	sub	esp, 192				; 000000c0H
	push	ebx
	push	esi
	push	edi
	lea	edi, DWORD PTR [ebp-192]
	mov	ecx, 48					; 00000030H
	mov	eax, -858993460				; ccccccccH
	rep stosd
	push	0
	mov	ecx, OFFSET ?id@?$num_put@DV?$back_insert_iterator@V?$basic_string@DU?$char_traits@D@std@@V?$allocator@D@2@@std@@@std@@@std@@2V0locale@2@A ; std::num_put<char,std::back_insert_iterator<std::basic_string<char,std::char_traits<char>,std::allocator<char> > > >::id
	call	??0id@locale@std@@QAE@I@Z		; std::locale::id::id
	pop	edi
	pop	esi
	pop	ebx
	add	esp, 192				; 000000c0H
	cmp	ebp, esp
	call	__RTC_CheckEsp
	mov	esp, ebp
	pop	ebp
	ret	0
??__E?id@?$num_put@DV?$back_insert_iterator@V?$basic_string@DU?$char_traits@D@std@@V?$allocator@D@2@@std@@@std@@@std@@2V0locale@2@A@@YAXXZ ENDP ; `dynamic initializer for 'std::num_put<char,std::back_insert_iterator<std::basic_string<char,std::char_traits<char>,std::allocator<char> > > >::id''
text$di	ENDS
; Function compile flags: /Odtp /RTCsu /ZI
; File c:\program files (x86)\microsoft visual studio 12.0\vc\include\type_traits
;	COMDAT ??$forward@U_Container_proxy@std@@@std@@YA$$QAU_Container_proxy@0@AAU10@@Z
_TEXT	SEGMENT
__Arg$ = 8						; size = 4
??$forward@U_Container_proxy@std@@@std@@YA$$QAU_Container_proxy@0@AAU10@@Z PROC ; std::forward<std::_Container_proxy>, COMDAT

; 1504 : 	{	// forward an lvalue

	push	ebp
	mov	ebp, esp
	sub	esp, 192				; 000000c0H
	push	ebx
	push	esi
	push	edi
	lea	edi, DWORD PTR [ebp-192]
	mov	ecx, 48					; 00000030H
	mov	eax, -858993460				; ccccccccH
	rep stosd

; 1505 : 	return (static_cast<_Ty&&>(_Arg));

	mov	eax, DWORD PTR __Arg$[ebp]

; 1506 : 	}

	pop	edi
	pop	esi
	pop	ebx
	mov	esp, ebp
	pop	ebp
	ret	0
??$forward@U_Container_proxy@std@@@std@@YA$$QAU_Container_proxy@0@AAU10@@Z ENDP ; std::forward<std::_Container_proxy>
_TEXT	ENDS
; Function compile flags: /Odtp /RTCsu /ZI
; File c:\program files (x86)\microsoft visual studio 12.0\vc\include\xmemory0
;	COMDAT ??$destroy@PAD@?$allocator_traits@V?$allocator@D@std@@@std@@SAXAAV?$allocator@D@1@PAPAD@Z
_TEXT	SEGMENT
__Al$ = 8						; size = 4
__Ptr$ = 12						; size = 4
??$destroy@PAD@?$allocator_traits@V?$allocator@D@std@@@std@@SAXAAV?$allocator@D@1@PAPAD@Z PROC ; std::allocator_traits<std::allocator<char> >::destroy<char *>, COMDAT

; 728  : 		static void destroy(_Alloc& _Al, _Uty *_Ptr)

	push	ebp
	mov	ebp, esp
	sub	esp, 192				; 000000c0H
	push	ebx
	push	esi
	push	edi
	lea	edi, DWORD PTR [ebp-192]
	mov	ecx, 48					; 00000030H
	mov	eax, -858993460				; ccccccccH
	rep stosd

; 729  : 		{	// destroy object at _Ptr
; 730  : 		_Al.destroy(_Ptr);

	mov	eax, DWORD PTR __Ptr$[ebp]
	push	eax
	mov	ecx, DWORD PTR __Al$[ebp]
	call	??$destroy@PAD@?$allocator@D@std@@QAEXPAPAD@Z ; std::allocator<char>::destroy<char *>

; 731  : 		}

	pop	edi
	pop	esi
	pop	ebx
	add	esp, 192				; 000000c0H
	cmp	ebp, esp
	call	__RTC_CheckEsp
	mov	esp, ebp
	pop	ebp
	ret	0
??$destroy@PAD@?$allocator_traits@V?$allocator@D@std@@@std@@SAXAAV?$allocator@D@1@PAPAD@Z ENDP ; std::allocator_traits<std::allocator<char> >::destroy<char *>
_TEXT	ENDS
; Function compile flags: /Odtp /RTCsu /ZI
; File c:\program files (x86)\microsoft visual studio 12.0\vc\include\xmemory0
;	COMDAT ??$construct@PADAAPAD@?$allocator_traits@V?$allocator@D@std@@@std@@SAXAAV?$allocator@D@1@PAPADAAPAD@Z
_TEXT	SEGMENT
__Al$ = 8						; size = 4
__Ptr$ = 12						; size = 4
_<_Args_0>$ = 16					; size = 4
??$construct@PADAAPAD@?$allocator_traits@V?$allocator@D@std@@@std@@SAXAAV?$allocator@D@1@PAPADAAPAD@Z PROC ; std::allocator_traits<std::allocator<char> >::construct<char *,char * &>, COMDAT

; 720  : 		static void construct(_Alloc& _Al, _Objty *_Ptr,

	push	ebp
	mov	ebp, esp
	sub	esp, 192				; 000000c0H
	push	ebx
	push	esi
	push	edi
	lea	edi, DWORD PTR [ebp-192]
	mov	ecx, 48					; 00000030H
	mov	eax, -858993460				; ccccccccH
	rep stosd

; 721  : 			_Types&&... _Args)
; 722  : 		{	// construct _Objty(_Types...) at _Ptr
; 723  : 		_Al.construct(_Ptr, _STD forward<_Types>(_Args)...);

	mov	eax, DWORD PTR _<_Args_0>$[ebp]
	push	eax
	call	??$forward@AAPAD@std@@YAAAPADAAPAD@Z	; std::forward<char * &>
	add	esp, 4
	push	eax
	mov	ecx, DWORD PTR __Ptr$[ebp]
	push	ecx
	mov	ecx, DWORD PTR __Al$[ebp]
	call	??$construct@PADAAPAD@?$allocator@D@std@@QAEXPAPADAAPAD@Z ; std::allocator<char>::construct<char *,char * &>

; 724  : 		}

	pop	edi
	pop	esi
	pop	ebx
	add	esp, 192				; 000000c0H
	cmp	ebp, esp
	call	__RTC_CheckEsp
	mov	esp, ebp
	pop	ebp
	ret	0
??$construct@PADAAPAD@?$allocator_traits@V?$allocator@D@std@@@std@@SAXAAV?$allocator@D@1@PAPADAAPAD@Z ENDP ; std::allocator_traits<std::allocator<char> >::construct<char *,char * &>
_TEXT	ENDS
; Function compile flags: /Odtp /RTCsu /ZI
; File c:\program files (x86)\microsoft visual studio 12.0\vc\include\type_traits
;	COMDAT ??$forward@AAPAD@std@@YAAAPADAAPAD@Z
_TEXT	SEGMENT
__Arg$ = 8						; size = 4
??$forward@AAPAD@std@@YAAAPADAAPAD@Z PROC		; std::forward<char * &>, COMDAT

; 1504 : 	{	// forward an lvalue

	push	ebp
	mov	ebp, esp
	sub	esp, 192				; 000000c0H
	push	ebx
	push	esi
	push	edi
	lea	edi, DWORD PTR [ebp-192]
	mov	ecx, 48					; 00000030H
	mov	eax, -858993460				; ccccccccH
	rep stosd

; 1505 : 	return (static_cast<_Ty&&>(_Arg));

	mov	eax, DWORD PTR __Arg$[ebp]

; 1506 : 	}

	pop	edi
	pop	esi
	pop	ebx
	mov	esp, ebp
	pop	ebp
	ret	0
??$forward@AAPAD@std@@YAAAPADAAPAD@Z ENDP		; std::forward<char * &>
_TEXT	ENDS
; Function compile flags: /Odtp /RTCsu /ZI
;	COMDAT ??__F?_System_object@?$_Error_objects@H@std@@2V_System_error_category@2@A@@YAXXZ
text$yd	SEGMENT
??__F?_System_object@?$_Error_objects@H@std@@2V_System_error_category@2@A@@YAXXZ PROC ; `dynamic atexit destructor for 'std::_Error_objects<int>::_System_object'', COMDAT
	push	ebp
	mov	ebp, esp
	sub	esp, 192				; 000000c0H
	push	ebx
	push	esi
	push	edi
	lea	edi, DWORD PTR [ebp-192]
	mov	ecx, 48					; 00000030H
	mov	eax, -858993460				; ccccccccH
	rep stosd
	mov	ecx, OFFSET ?_System_object@?$_Error_objects@H@std@@2V_System_error_category@2@A ; std::_Error_objects<int>::_System_object
	call	??1_System_error_category@std@@UAE@XZ
	pop	edi
	pop	esi
	pop	ebx
	add	esp, 192				; 000000c0H
	cmp	ebp, esp
	call	__RTC_CheckEsp
	mov	esp, ebp
	pop	ebp
	ret	0
??__F?_System_object@?$_Error_objects@H@std@@2V_System_error_category@2@A@@YAXXZ ENDP ; `dynamic atexit destructor for 'std::_Error_objects<int>::_System_object''
text$yd	ENDS
; Function compile flags: /Odtp /RTCsu /ZI
; File c:\program files (x86)\microsoft visual studio 12.0\vc\include\xmemory0
;	COMDAT ??__E?_System_object@?$_Error_objects@H@std@@2V_System_error_category@2@A@@YAXXZ
text$di	SEGMENT
??__E?_System_object@?$_Error_objects@H@std@@2V_System_error_category@2@A@@YAXXZ PROC ; `dynamic initializer for 'std::_Error_objects<int>::_System_object'', COMDAT

; 611  : 		{	// estimate maximum array size

	push	ebp
	mov	ebp, esp
	sub	esp, 192				; 000000c0H
	push	ebx
	push	esi
	push	edi
	lea	edi, DWORD PTR [ebp-192]
	mov	ecx, 48					; 00000030H
	mov	eax, -858993460				; ccccccccH
	rep stosd
	mov	ecx, OFFSET ?_System_object@?$_Error_objects@H@std@@2V_System_error_category@2@A ; std::_Error_objects<int>::_System_object
	call	??0_System_error_category@std@@QAE@XZ	; std::_System_error_category::_System_error_category
	push	OFFSET ??__F?_System_object@?$_Error_objects@H@std@@2V_System_error_category@2@A@@YAXXZ ; `dynamic atexit destructor for 'std::_Error_objects<int>::_System_object''
	call	_atexit
	add	esp, 4
	pop	edi
	pop	esi
	pop	ebx
	add	esp, 192				; 000000c0H
	cmp	ebp, esp
	call	__RTC_CheckEsp
	mov	esp, ebp
	pop	ebp
	ret	0
??__E?_System_object@?$_Error_objects@H@std@@2V_System_error_category@2@A@@YAXXZ ENDP ; `dynamic initializer for 'std::_Error_objects<int>::_System_object''
text$di	ENDS
; Function compile flags: /Odtp /RTCsu /ZI
;	COMDAT ??__F?_Iostream_object@?$_Error_objects@H@std@@2V_Iostream_error_category@2@A@@YAXXZ
text$yd	SEGMENT
??__F?_Iostream_object@?$_Error_objects@H@std@@2V_Iostream_error_category@2@A@@YAXXZ PROC ; `dynamic atexit destructor for 'std::_Error_objects<int>::_Iostream_object'', COMDAT
	push	ebp
	mov	ebp, esp
	sub	esp, 192				; 000000c0H
	push	ebx
	push	esi
	push	edi
	lea	edi, DWORD PTR [ebp-192]
	mov	ecx, 48					; 00000030H
	mov	eax, -858993460				; ccccccccH
	rep stosd
	mov	ecx, OFFSET ?_Iostream_object@?$_Error_objects@H@std@@2V_Iostream_error_category@2@A ; std::_Error_objects<int>::_Iostream_object
	call	??1_Iostream_error_category@std@@UAE@XZ
	pop	edi
	pop	esi
	pop	ebx
	add	esp, 192				; 000000c0H
	cmp	ebp, esp
	call	__RTC_CheckEsp
	mov	esp, ebp
	pop	ebp
	ret	0
??__F?_Iostream_object@?$_Error_objects@H@std@@2V_Iostream_error_category@2@A@@YAXXZ ENDP ; `dynamic atexit destructor for 'std::_Error_objects<int>::_Iostream_object''
text$yd	ENDS
; Function compile flags: /Odtp /RTCsu /ZI
; File c:\program files (x86)\microsoft visual studio 12.0\vc\include\xmemory0
;	COMDAT ??__E?_Iostream_object@?$_Error_objects@H@std@@2V_Iostream_error_category@2@A@@YAXXZ
text$di	SEGMENT
??__E?_Iostream_object@?$_Error_objects@H@std@@2V_Iostream_error_category@2@A@@YAXXZ PROC ; `dynamic initializer for 'std::_Error_objects<int>::_Iostream_object'', COMDAT

; 611  : 		{	// estimate maximum array size

	push	ebp
	mov	ebp, esp
	sub	esp, 192				; 000000c0H
	push	ebx
	push	esi
	push	edi
	lea	edi, DWORD PTR [ebp-192]
	mov	ecx, 48					; 00000030H
	mov	eax, -858993460				; ccccccccH
	rep stosd
	mov	ecx, OFFSET ?_Iostream_object@?$_Error_objects@H@std@@2V_Iostream_error_category@2@A ; std::_Error_objects<int>::_Iostream_object
	call	??0_Iostream_error_category@std@@QAE@XZ	; std::_Iostream_error_category::_Iostream_error_category
	push	OFFSET ??__F?_Iostream_object@?$_Error_objects@H@std@@2V_Iostream_error_category@2@A@@YAXXZ ; `dynamic atexit destructor for 'std::_Error_objects<int>::_Iostream_object''
	call	_atexit
	add	esp, 4
	pop	edi
	pop	esi
	pop	ebx
	add	esp, 192				; 000000c0H
	cmp	ebp, esp
	call	__RTC_CheckEsp
	mov	esp, ebp
	pop	ebp
	ret	0
??__E?_Iostream_object@?$_Error_objects@H@std@@2V_Iostream_error_category@2@A@@YAXXZ ENDP ; `dynamic initializer for 'std::_Error_objects<int>::_Iostream_object''
text$di	ENDS
; Function compile flags: /Odtp /RTCsu /ZI
;	COMDAT ??__F?_Generic_object@?$_Error_objects@H@std@@2V_Generic_error_category@2@A@@YAXXZ
text$yd	SEGMENT
??__F?_Generic_object@?$_Error_objects@H@std@@2V_Generic_error_category@2@A@@YAXXZ PROC ; `dynamic atexit destructor for 'std::_Error_objects<int>::_Generic_object'', COMDAT
	push	ebp
	mov	ebp, esp
	sub	esp, 192				; 000000c0H
	push	ebx
	push	esi
	push	edi
	lea	edi, DWORD PTR [ebp-192]
	mov	ecx, 48					; 00000030H
	mov	eax, -858993460				; ccccccccH
	rep stosd
	mov	ecx, OFFSET ?_Generic_object@?$_Error_objects@H@std@@2V_Generic_error_category@2@A ; std::_Error_objects<int>::_Generic_object
	call	??1_Generic_error_category@std@@UAE@XZ
	pop	edi
	pop	esi
	pop	ebx
	add	esp, 192				; 000000c0H
	cmp	ebp, esp
	call	__RTC_CheckEsp
	mov	esp, ebp
	pop	ebp
	ret	0
??__F?_Generic_object@?$_Error_objects@H@std@@2V_Generic_error_category@2@A@@YAXXZ ENDP ; `dynamic atexit destructor for 'std::_Error_objects<int>::_Generic_object''
text$yd	ENDS
; Function compile flags: /Odtp /RTCsu /ZI
; File c:\program files (x86)\microsoft visual studio 12.0\vc\include\xmemory0
;	COMDAT ??__E?_Generic_object@?$_Error_objects@H@std@@2V_Generic_error_category@2@A@@YAXXZ
text$di	SEGMENT
??__E?_Generic_object@?$_Error_objects@H@std@@2V_Generic_error_category@2@A@@YAXXZ PROC ; `dynamic initializer for 'std::_Error_objects<int>::_Generic_object'', COMDAT

; 611  : 		{	// estimate maximum array size

	push	ebp
	mov	ebp, esp
	sub	esp, 192				; 000000c0H
	push	ebx
	push	esi
	push	edi
	lea	edi, DWORD PTR [ebp-192]
	mov	ecx, 48					; 00000030H
	mov	eax, -858993460				; ccccccccH
	rep stosd
	mov	ecx, OFFSET ?_Generic_object@?$_Error_objects@H@std@@2V_Generic_error_category@2@A ; std::_Error_objects<int>::_Generic_object
	call	??0_Generic_error_category@std@@QAE@XZ	; std::_Generic_error_category::_Generic_error_category
	push	OFFSET ??__F?_Generic_object@?$_Error_objects@H@std@@2V_Generic_error_category@2@A@@YAXXZ ; `dynamic atexit destructor for 'std::_Error_objects<int>::_Generic_object''
	call	_atexit
	add	esp, 4
	pop	edi
	pop	esi
	pop	ebx
	add	esp, 192				; 000000c0H
	cmp	ebp, esp
	call	__RTC_CheckEsp
	mov	esp, ebp
	pop	ebp
	ret	0
??__E?_Generic_object@?$_Error_objects@H@std@@2V_Generic_error_category@2@A@@YAXXZ ENDP ; `dynamic initializer for 'std::_Error_objects<int>::_Generic_object''
text$di	ENDS
; Function compile flags: /Odtp /RTCsu /ZI
; File c:\program files (x86)\microsoft visual studio 12.0\vc\include\xmemory0
;	COMDAT ??$_Allocate@D@std@@YAPADIPAD@Z
_TEXT	SEGMENT
__Ptr$ = -8						; size = 4
__Count$ = 8						; size = 4
___formal$ = 12						; size = 4
??$_Allocate@D@std@@YAPADIPAD@Z PROC			; std::_Allocate<char>, COMDAT

; 22   : 	{	// allocate storage for _Count elements of type _Ty

	push	ebp
	mov	ebp, esp
	sub	esp, 204				; 000000ccH
	push	ebx
	push	esi
	push	edi
	lea	edi, DWORD PTR [ebp-204]
	mov	ecx, 51					; 00000033H
	mov	eax, -858993460				; ccccccccH
	rep stosd

; 23   : 	void *_Ptr = 0;

	mov	DWORD PTR __Ptr$[ebp], 0

; 24   : 
; 25   : 	if (_Count == 0)

	cmp	DWORD PTR __Count$[ebp], 0
	jne	SHORT $LN4@Allocate

; 26   : 		;
; 27   : 	else if (((size_t)(-1) / sizeof (_Ty) < _Count)

	jmp	SHORT $LN3@Allocate
$LN4@Allocate:

; 28   : 		|| (_Ptr = ::operator new(_Count * sizeof (_Ty))) == 0)

	cmp	DWORD PTR __Count$[ebp], -1
	ja	SHORT $LN1@Allocate
	mov	eax, DWORD PTR __Count$[ebp]
	push	eax
	call	??2@YAPAXI@Z				; operator new
	add	esp, 4
	mov	DWORD PTR __Ptr$[ebp], eax
	cmp	DWORD PTR __Ptr$[ebp], 0
	jne	SHORT $LN3@Allocate
$LN1@Allocate:

; 29   : 		_Xbad_alloc();	// report no memory

	call	?_Xbad_alloc@std@@YAXXZ			; std::_Xbad_alloc
$LN3@Allocate:

; 30   : 
; 31   : 	return ((_Ty *)_Ptr);

	mov	eax, DWORD PTR __Ptr$[ebp]
$LN6@Allocate:

; 32   : 	}

	pop	edi
	pop	esi
	pop	ebx
	add	esp, 204				; 000000ccH
	cmp	ebp, esp
	call	__RTC_CheckEsp
	mov	esp, ebp
	pop	ebp
	ret	0
??$_Allocate@D@std@@YAPADIPAD@Z ENDP			; std::_Allocate<char>
_TEXT	ENDS
; Function compile flags: /Odtp /RTCsu /ZI
; File c:\program files (x86)\microsoft visual studio 12.0\vc\include\xmemory0
;	COMDAT ??$_Allocate@U_Container_proxy@std@@@std@@YAPAU_Container_proxy@0@IPAU10@@Z
_TEXT	SEGMENT
__Ptr$ = -8						; size = 4
__Count$ = 8						; size = 4
___formal$ = 12						; size = 4
??$_Allocate@U_Container_proxy@std@@@std@@YAPAU_Container_proxy@0@IPAU10@@Z PROC ; std::_Allocate<std::_Container_proxy>, COMDAT

; 22   : 	{	// allocate storage for _Count elements of type _Ty

	push	ebp
	mov	ebp, esp
	sub	esp, 204				; 000000ccH
	push	ebx
	push	esi
	push	edi
	lea	edi, DWORD PTR [ebp-204]
	mov	ecx, 51					; 00000033H
	mov	eax, -858993460				; ccccccccH
	rep stosd

; 23   : 	void *_Ptr = 0;

	mov	DWORD PTR __Ptr$[ebp], 0

; 24   : 
; 25   : 	if (_Count == 0)

	cmp	DWORD PTR __Count$[ebp], 0
	jne	SHORT $LN4@Allocate

; 26   : 		;
; 27   : 	else if (((size_t)(-1) / sizeof (_Ty) < _Count)

	jmp	SHORT $LN3@Allocate
$LN4@Allocate:

; 28   : 		|| (_Ptr = ::operator new(_Count * sizeof (_Ty))) == 0)

	cmp	DWORD PTR __Count$[ebp], 536870911	; 1fffffffH
	ja	SHORT $LN1@Allocate
	mov	eax, DWORD PTR __Count$[ebp]
	shl	eax, 3
	push	eax
	call	??2@YAPAXI@Z				; operator new
	add	esp, 4
	mov	DWORD PTR __Ptr$[ebp], eax
	cmp	DWORD PTR __Ptr$[ebp], 0
	jne	SHORT $LN3@Allocate
$LN1@Allocate:

; 29   : 		_Xbad_alloc();	// report no memory

	call	?_Xbad_alloc@std@@YAXXZ			; std::_Xbad_alloc
$LN3@Allocate:

; 30   : 
; 31   : 	return ((_Ty *)_Ptr);

	mov	eax, DWORD PTR __Ptr$[ebp]
$LN6@Allocate:

; 32   : 	}

	pop	edi
	pop	esi
	pop	ebx
	add	esp, 204				; 000000ccH
	cmp	ebp, esp
	call	__RTC_CheckEsp
	mov	esp, ebp
	pop	ebp
	ret	0
??$_Allocate@U_Container_proxy@std@@@std@@YAPAU_Container_proxy@0@IPAU10@@Z ENDP ; std::_Allocate<std::_Container_proxy>
_TEXT	ENDS
; Function compile flags: /Odtp /RTCsu /ZI
; File c:\program files (x86)\microsoft visual studio 12.0\vc\include\xmemory0
;	COMDAT ??$destroy@U_Container_proxy@std@@@?$allocator@U_Container_proxy@std@@@std@@QAEXPAU_Container_proxy@1@@Z
_TEXT	SEGMENT
_this$ = -8						; size = 4
__Ptr$ = 8						; size = 4
??$destroy@U_Container_proxy@std@@@?$allocator@U_Container_proxy@std@@@std@@QAEXPAU_Container_proxy@1@@Z PROC ; std::allocator<std::_Container_proxy>::destroy<std::_Container_proxy>, COMDAT
; _this$ = ecx

; 605  : 		void destroy(_Uty *_Ptr)

	push	ebp
	mov	ebp, esp
	sub	esp, 204				; 000000ccH
	push	ebx
	push	esi
	push	edi
	push	ecx
	lea	edi, DWORD PTR [ebp-204]
	mov	ecx, 51					; 00000033H
	mov	eax, -858993460				; ccccccccH
	rep stosd
	pop	ecx
	mov	DWORD PTR _this$[ebp], ecx

; 606  : 		{	// destroy object at _Ptr
; 607  : 		_Ptr->~_Uty();
; 608  : 		}

	pop	edi
	pop	esi
	pop	ebx
	mov	esp, ebp
	pop	ebp
	ret	4
??$destroy@U_Container_proxy@std@@@?$allocator@U_Container_proxy@std@@@std@@QAEXPAU_Container_proxy@1@@Z ENDP ; std::allocator<std::_Container_proxy>::destroy<std::_Container_proxy>
_TEXT	ENDS
; Function compile flags: /Odtp /RTCsu /ZI
; File c:\program files (x86)\microsoft visual studio 12.0\vc\include\xmemory0
;	COMDAT ??$construct@U_Container_proxy@std@@U12@@?$allocator@U_Container_proxy@std@@@std@@QAEXPAU_Container_proxy@1@$$QAU21@@Z
_TEXT	SEGMENT
tv74 = -244						; size = 4
$T2 = -236						; size = 4
$T3 = -224						; size = 4
_this$ = -20						; size = 4
__$EHRec$ = -12						; size = 12
__Ptr$ = 8						; size = 4
_<_Args_0>$ = 12					; size = 4
??$construct@U_Container_proxy@std@@U12@@?$allocator@U_Container_proxy@std@@@std@@QAEXPAU_Container_proxy@1@$$QAU21@@Z PROC ; std::allocator<std::_Container_proxy>::construct<std::_Container_proxy,std::_Container_proxy>, COMDAT
; _this$ = ecx

; 598  : 		void construct(_Objty *_Ptr, _Types&&... _Args)

	push	ebp
	mov	ebp, esp
	push	-1
	push	__ehhandler$??$construct@U_Container_proxy@std@@U12@@?$allocator@U_Container_proxy@std@@@std@@QAEXPAU_Container_proxy@1@$$QAU21@@Z
	mov	eax, DWORD PTR fs:0
	push	eax
	sub	esp, 232				; 000000e8H
	push	ebx
	push	esi
	push	edi
	push	ecx
	lea	edi, DWORD PTR [ebp-244]
	mov	ecx, 58					; 0000003aH
	mov	eax, -858993460				; ccccccccH
	rep stosd
	pop	ecx
	mov	eax, DWORD PTR ___security_cookie
	xor	eax, ebp
	push	eax
	lea	eax, DWORD PTR __$EHRec$[ebp]
	mov	DWORD PTR fs:0, eax
	mov	DWORD PTR _this$[ebp], ecx

; 599  : 		{	// construct _Objty(_Types...) at _Ptr
; 600  : 		::new ((void *)_Ptr) _Objty(_STD forward<_Types>(_Args)...);

	mov	eax, DWORD PTR __Ptr$[ebp]
	push	eax
	push	8
	call	??2@YAPAXIPAX@Z				; operator new
	add	esp, 8
	mov	DWORD PTR $T3[ebp], eax
	mov	DWORD PTR __$EHRec$[ebp+8], 0
	cmp	DWORD PTR $T3[ebp], 0
	je	SHORT $LN3@construct
	mov	ecx, DWORD PTR _<_Args_0>$[ebp]
	push	ecx
	call	??$forward@U_Container_proxy@std@@@std@@YA$$QAU_Container_proxy@0@AAU10@@Z ; std::forward<std::_Container_proxy>
	add	esp, 4
	mov	edx, DWORD PTR [eax]
	mov	eax, DWORD PTR [eax+4]
	mov	ecx, DWORD PTR $T3[ebp]
	mov	DWORD PTR [ecx], edx
	mov	DWORD PTR [ecx+4], eax
	mov	edx, DWORD PTR $T3[ebp]
	mov	DWORD PTR tv74[ebp], edx
	jmp	SHORT $LN4@construct
$LN3@construct:
	mov	DWORD PTR tv74[ebp], 0
$LN4@construct:
	mov	eax, DWORD PTR tv74[ebp]
	mov	DWORD PTR $T2[ebp], eax
	mov	DWORD PTR __$EHRec$[ebp+8], -1

; 601  : 		}

	mov	ecx, DWORD PTR __$EHRec$[ebp]
	mov	DWORD PTR fs:0, ecx
	pop	ecx
	pop	edi
	pop	esi
	pop	ebx
	add	esp, 244				; 000000f4H
	cmp	ebp, esp
	call	__RTC_CheckEsp
	mov	esp, ebp
	pop	ebp
	ret	8
_TEXT	ENDS
;	COMDAT text$x
text$x	SEGMENT
__unwindfunclet$??$construct@U_Container_proxy@std@@U12@@?$allocator@U_Container_proxy@std@@@std@@QAEXPAU_Container_proxy@1@$$QAU21@@Z$0:
	mov	eax, DWORD PTR __Ptr$[ebp]
	push	eax
	mov	eax, DWORD PTR $T3[ebp]
	push	eax
	call	??3@YAXPAX0@Z				; operator delete
	add	esp, 8
	ret	0
__ehhandler$??$construct@U_Container_proxy@std@@U12@@?$allocator@U_Container_proxy@std@@@std@@QAEXPAU_Container_proxy@1@$$QAU21@@Z:
	mov	edx, DWORD PTR [esp+8]
	lea	eax, DWORD PTR [edx+12]
	mov	ecx, DWORD PTR [edx-248]
	xor	ecx, eax
	call	@__security_check_cookie@4
	mov	eax, OFFSET __ehfuncinfo$??$construct@U_Container_proxy@std@@U12@@?$allocator@U_Container_proxy@std@@@std@@QAEXPAU_Container_proxy@1@$$QAU21@@Z
	jmp	___CxxFrameHandler3
text$x	ENDS
??$construct@U_Container_proxy@std@@U12@@?$allocator@U_Container_proxy@std@@@std@@QAEXPAU_Container_proxy@1@$$QAU21@@Z ENDP ; std::allocator<std::_Container_proxy>::construct<std::_Container_proxy,std::_Container_proxy>
; Function compile flags: /Odtp /RTCsu /ZI
; File c:\program files (x86)\microsoft visual studio 12.0\vc\include\xmemory0
;	COMDAT ?allocate@?$allocator@U_Container_proxy@std@@@std@@QAEPAU_Container_proxy@2@I@Z
_TEXT	SEGMENT
_this$ = -8						; size = 4
__Count$ = 8						; size = 4
?allocate@?$allocator@U_Container_proxy@std@@@std@@QAEPAU_Container_proxy@2@I@Z PROC ; std::allocator<std::_Container_proxy>::allocate, COMDAT
; _this$ = ecx

; 577  : 		{	// allocate array of _Count elements

	push	ebp
	mov	ebp, esp
	sub	esp, 204				; 000000ccH
	push	ebx
	push	esi
	push	edi
	push	ecx
	lea	edi, DWORD PTR [ebp-204]
	mov	ecx, 51					; 00000033H
	mov	eax, -858993460				; ccccccccH
	rep stosd
	pop	ecx
	mov	DWORD PTR _this$[ebp], ecx

; 578  : 		return (_Allocate(_Count, (pointer)0));

	push	0
	mov	eax, DWORD PTR __Count$[ebp]
	push	eax
	call	??$_Allocate@U_Container_proxy@std@@@std@@YAPAU_Container_proxy@0@IPAU10@@Z ; std::_Allocate<std::_Container_proxy>
	add	esp, 8

; 579  : 		}

	pop	edi
	pop	esi
	pop	ebx
	add	esp, 204				; 000000ccH
	cmp	ebp, esp
	call	__RTC_CheckEsp
	mov	esp, ebp
	pop	ebp
	ret	4
?allocate@?$allocator@U_Container_proxy@std@@@std@@QAEPAU_Container_proxy@2@I@Z ENDP ; std::allocator<std::_Container_proxy>::allocate
_TEXT	ENDS
; Function compile flags: /Odtp /RTCsu /ZI
; File c:\program files (x86)\microsoft visual studio 12.0\vc\include\xmemory0
;	COMDAT ?deallocate@?$allocator@U_Container_proxy@std@@@std@@QAEXPAU_Container_proxy@2@I@Z
_TEXT	SEGMENT
_this$ = -8						; size = 4
__Ptr$ = 8						; size = 4
___formal$ = 12						; size = 4
?deallocate@?$allocator@U_Container_proxy@std@@@std@@QAEXPAU_Container_proxy@2@I@Z PROC ; std::allocator<std::_Container_proxy>::deallocate, COMDAT
; _this$ = ecx

; 572  : 		{	// deallocate object at _Ptr, ignore size

	push	ebp
	mov	ebp, esp
	sub	esp, 204				; 000000ccH
	push	ebx
	push	esi
	push	edi
	push	ecx
	lea	edi, DWORD PTR [ebp-204]
	mov	ecx, 51					; 00000033H
	mov	eax, -858993460				; ccccccccH
	rep stosd
	pop	ecx
	mov	DWORD PTR _this$[ebp], ecx

; 573  : 		::operator delete(_Ptr);

	mov	eax, DWORD PTR __Ptr$[ebp]
	push	eax
	call	??3@YAXPAX@Z				; operator delete
	add	esp, 4

; 574  : 		}

	pop	edi
	pop	esi
	pop	ebx
	add	esp, 204				; 000000ccH
	cmp	ebp, esp
	call	__RTC_CheckEsp
	mov	esp, ebp
	pop	ebp
	ret	8
?deallocate@?$allocator@U_Container_proxy@std@@@std@@QAEXPAU_Container_proxy@2@I@Z ENDP ; std::allocator<std::_Container_proxy>::deallocate
_TEXT	ENDS
; Function compile flags: /Odtp /RTCsu /ZI
; File c:\program files (x86)\microsoft visual studio 12.0\vc\include\xmemory0
;	COMDAT ??0?$allocator@U_Container_proxy@std@@@std@@QAE@XZ
_TEXT	SEGMENT
_this$ = -8						; size = 4
??0?$allocator@U_Container_proxy@std@@@std@@QAE@XZ PROC	; std::allocator<std::_Container_proxy>::allocator<std::_Container_proxy>, COMDAT
; _this$ = ecx

; 552  : 	allocator() _THROW0()

	push	ebp
	mov	ebp, esp
	sub	esp, 204				; 000000ccH
	push	ebx
	push	esi
	push	edi
	push	ecx
	lea	edi, DWORD PTR [ebp-204]
	mov	ecx, 51					; 00000033H
	mov	eax, -858993460				; ccccccccH
	rep stosd
	pop	ecx
	mov	DWORD PTR _this$[ebp], ecx

; 553  : 		{	// construct default allocator (do nothing)
; 554  : 		}

	mov	eax, DWORD PTR _this$[ebp]
	pop	edi
	pop	esi
	pop	ebx
	mov	esp, ebp
	pop	ebp
	ret	0
??0?$allocator@U_Container_proxy@std@@@std@@QAE@XZ ENDP	; std::allocator<std::_Container_proxy>::allocator<std::_Container_proxy>
_TEXT	ENDS
; Function compile flags: /Odtp /RTCsu /ZI
; File c:\program files (x86)\microsoft visual studio 12.0\vc\include\xstddef
;	COMDAT ??$addressof@D@std@@YAPADAAD@Z
_TEXT	SEGMENT
__Val$ = 8						; size = 4
??$addressof@D@std@@YAPADAAD@Z PROC			; std::addressof<char>, COMDAT

; 92   : 	{	// return address of _Val

	push	ebp
	mov	ebp, esp
	sub	esp, 192				; 000000c0H
	push	ebx
	push	esi
	push	edi
	lea	edi, DWORD PTR [ebp-192]
	mov	ecx, 48					; 00000030H
	mov	eax, -858993460				; ccccccccH
	rep stosd

; 93   : 	return (reinterpret_cast<_Ty *>(
; 94   : 		(&const_cast<char&>(
; 95   : 		reinterpret_cast<const volatile char&>(_Val)))));

	mov	eax, DWORD PTR __Val$[ebp]

; 96   : 	}

	pop	edi
	pop	esi
	pop	ebx
	mov	esp, ebp
	pop	ebp
	ret	0
??$addressof@D@std@@YAPADAAD@Z ENDP			; std::addressof<char>
_TEXT	ENDS
; Function compile flags: /Odtp /RTCsu /ZI
; File c:\program files (x86)\microsoft visual studio 12.0\vc\include\xmemory0
;	COMDAT ??$destroy@PAD@?$_Wrap_alloc@V?$allocator@D@std@@@std@@QAEXPAPAD@Z
_TEXT	SEGMENT
_this$ = -8						; size = 4
__Ptr$ = 8						; size = 4
??$destroy@PAD@?$_Wrap_alloc@V?$allocator@D@std@@@std@@QAEXPAPAD@Z PROC ; std::_Wrap_alloc<std::allocator<char> >::destroy<char *>, COMDAT
; _this$ = ecx

; 877  : 		void destroy(_Ty *_Ptr)

	push	ebp
	mov	ebp, esp
	sub	esp, 204				; 000000ccH
	push	ebx
	push	esi
	push	edi
	push	ecx
	lea	edi, DWORD PTR [ebp-204]
	mov	ecx, 51					; 00000033H
	mov	eax, -858993460				; ccccccccH
	rep stosd
	pop	ecx
	mov	DWORD PTR _this$[ebp], ecx

; 878  : 		{	// destroy object at _Ptr
; 879  : 		_Mytraits::destroy(*this, _Ptr);

	mov	eax, DWORD PTR __Ptr$[ebp]
	push	eax
	mov	ecx, DWORD PTR _this$[ebp]
	push	ecx
	call	??$destroy@PAD@?$allocator_traits@V?$allocator@D@std@@@std@@SAXAAV?$allocator@D@1@PAPAD@Z ; std::allocator_traits<std::allocator<char> >::destroy<char *>
	add	esp, 8

; 880  : 		}

	pop	edi
	pop	esi
	pop	ebx
	add	esp, 204				; 000000ccH
	cmp	ebp, esp
	call	__RTC_CheckEsp
	mov	esp, ebp
	pop	ebp
	ret	4
??$destroy@PAD@?$_Wrap_alloc@V?$allocator@D@std@@@std@@QAEXPAPAD@Z ENDP ; std::_Wrap_alloc<std::allocator<char> >::destroy<char *>
_TEXT	ENDS
; Function compile flags: /Odtp /RTCsu /ZI
; File c:\program files (x86)\microsoft visual studio 12.0\vc\include\xmemory0
;	COMDAT ??$construct@PADAAPAD@?$_Wrap_alloc@V?$allocator@D@std@@@std@@QAEXPAPADAAPAD@Z
_TEXT	SEGMENT
_this$ = -8						; size = 4
__Ptr$ = 8						; size = 4
_<_Args_0>$ = 12					; size = 4
??$construct@PADAAPAD@?$_Wrap_alloc@V?$allocator@D@std@@@std@@QAEXPAPADAAPAD@Z PROC ; std::_Wrap_alloc<std::allocator<char> >::construct<char *,char * &>, COMDAT
; _this$ = ecx

; 868  : 		void construct(_Ty *_Ptr,

	push	ebp
	mov	ebp, esp
	sub	esp, 204				; 000000ccH
	push	ebx
	push	esi
	push	edi
	push	ecx
	lea	edi, DWORD PTR [ebp-204]
	mov	ecx, 51					; 00000033H
	mov	eax, -858993460				; ccccccccH
	rep stosd
	pop	ecx
	mov	DWORD PTR _this$[ebp], ecx

; 869  : 			_Types&&... _Args)
; 870  : 		{	// construct _Ty(_Types...) at _Ptr
; 871  : 		_Mytraits::construct(*this, _Ptr,
; 872  : 			_STD forward<_Types>(_Args)...);

	mov	eax, DWORD PTR _<_Args_0>$[ebp]
	push	eax
	call	??$forward@AAPAD@std@@YAAAPADAAPAD@Z	; std::forward<char * &>
	add	esp, 4
	push	eax
	mov	ecx, DWORD PTR __Ptr$[ebp]
	push	ecx
	mov	edx, DWORD PTR _this$[ebp]
	push	edx
	call	??$construct@PADAAPAD@?$allocator_traits@V?$allocator@D@std@@@std@@SAXAAV?$allocator@D@1@PAPADAAPAD@Z ; std::allocator_traits<std::allocator<char> >::construct<char *,char * &>
	add	esp, 12					; 0000000cH

; 873  : 		}

	pop	edi
	pop	esi
	pop	ebx
	add	esp, 204				; 000000ccH
	cmp	ebp, esp
	call	__RTC_CheckEsp
	mov	esp, ebp
	pop	ebp
	ret	8
??$construct@PADAAPAD@?$_Wrap_alloc@V?$allocator@D@std@@@std@@QAEXPAPADAAPAD@Z ENDP ; std::_Wrap_alloc<std::allocator<char> >::construct<char *,char * &>
_TEXT	ENDS
; Function compile flags: /Odtp /RTCsu /ZI
; File c:\users\simon\documents\github\uclan-sparta\camera.cpp
;	COMDAT ?PixelFromWorldPt@CCamera@@QAE_NPAUXMFLOAT2@DirectX@@UXMFLOAT3@3@@Z
_TEXT	SEGMENT
$T1 = -320						; size = 16
$T2 = -288						; size = 16
_temp$ = -64						; size = 16
_WorldPick$ = -32					; size = 16
_this$ = -8						; size = 4
_pixel$ = 8						; size = 4
_world$ = 12						; size = 12
?PixelFromWorldPt@CCamera@@QAE_NPAUXMFLOAT2@DirectX@@UXMFLOAT3@3@@Z PROC ; CCamera::PixelFromWorldPt, COMDAT
; _this$ = ecx

; 122  : {

	push	ebx
	mov	ebx, esp
	sub	esp, 8
	and	esp, -16				; fffffff0H
	add	esp, 4
	push	ebp
	mov	ebp, DWORD PTR [ebx+4]
	mov	DWORD PTR [esp+4], ebp
	mov	ebp, esp
	sub	esp, 328				; 00000148H
	push	esi
	push	edi
	push	ecx
	lea	edi, DWORD PTR [ebp-328]
	mov	ecx, 82					; 00000052H
	mov	eax, -858993460				; ccccccccH
	rep stosd
	pop	ecx
	mov	DWORD PTR _this$[ebp], ecx

; 123  : 	DirectX::XMFLOAT4 WorldPick = DirectX::XMFLOAT4( world.x, world.y, world.z, 1.0f);

	push	ecx
	movss	xmm0, DWORD PTR __real@3f800000
	movss	DWORD PTR [esp], xmm0
	push	ecx
	movss	xmm0, DWORD PTR _world$[ebx+8]
	movss	DWORD PTR [esp], xmm0
	push	ecx
	movss	xmm0, DWORD PTR _world$[ebx+4]
	movss	DWORD PTR [esp], xmm0
	push	ecx
	movss	xmm0, DWORD PTR _world$[ebx]
	movss	DWORD PTR [esp], xmm0
	lea	ecx, DWORD PTR _WorldPick$[ebp]
	call	??0XMFLOAT4@DirectX@@QAE@MMMM@Z		; DirectX::XMFLOAT4::XMFLOAT4

; 124  : 	//D3DXVec4Transform(&WorldPick, &WorldPick, &m_ViewProjMatrix);
; 125  : 	DirectX::XMVECTOR temp;
; 126  : 	temp = DirectX::XMVector4Transform(DirectX::XMVectorSet(WorldPick.x, WorldPick.y, WorldPick.z, WorldPick.w), m_ViewProjMatrix);

	movss	xmm3, DWORD PTR _WorldPick$[ebp+12]
	movss	xmm2, DWORD PTR _WorldPick$[ebp+8]
	movss	xmm1, DWORD PTR _WorldPick$[ebp+4]
	movss	xmm0, DWORD PTR _WorldPick$[ebp]
	call	?XMVectorSet@DirectX@@YQ?AT__m128@@MMMM@Z ; DirectX::XMVectorSet
	movaps	XMMWORD PTR $T1[ebp], xmm0
	mov	eax, DWORD PTR _this$[ebp]
	add	eax, 240				; 000000f0H
	movaps	xmm0, XMMWORD PTR $T1[ebp]
	movaps	xmm1, XMMWORD PTR [eax]
	movaps	xmm2, XMMWORD PTR [eax+16]
	movaps	xmm3, XMMWORD PTR [eax+32]
	movaps	xmm4, XMMWORD PTR [eax+48]
	call	?XMVector4Transform@DirectX@@YQ?AT__m128@@T2@UXMMATRIX@1@@Z ; DirectX::XMVector4Transform
	movaps	XMMWORD PTR $T2[ebp], xmm0
	movaps	xmm0, XMMWORD PTR $T2[ebp]
	movaps	XMMWORD PTR _temp$[ebp], xmm0

; 127  : 	WorldPick.x = DirectX::XMVectorGetX(temp);

	movaps	xmm0, XMMWORD PTR _temp$[ebp]
	call	?XMVectorGetX@DirectX@@YQMT__m128@@@Z	; DirectX::XMVectorGetX
	movss	DWORD PTR _WorldPick$[ebp], xmm0

; 128  : 	WorldPick.y = DirectX::XMVectorGetY(temp);

	movaps	xmm0, XMMWORD PTR _temp$[ebp]
	call	?XMVectorGetY@DirectX@@YQMT__m128@@@Z	; DirectX::XMVectorGetY
	movss	DWORD PTR _WorldPick$[ebp+4], xmm0

; 129  : 	WorldPick.z = DirectX::XMVectorGetZ(temp);

	movaps	xmm0, XMMWORD PTR _temp$[ebp]
	call	?XMVectorGetZ@DirectX@@YQMT__m128@@@Z	; DirectX::XMVectorGetZ
	movss	DWORD PTR _WorldPick$[ebp+8], xmm0

; 130  : 	WorldPick.w = DirectX::XMVectorGetW(temp);

	movaps	xmm0, XMMWORD PTR _temp$[ebp]
	call	?XMVectorGetW@DirectX@@YQMT__m128@@@Z	; DirectX::XMVectorGetW
	movss	DWORD PTR _WorldPick$[ebp+12], xmm0

; 131  : 
; 132  : 	if( WorldPick.w >= 0 )

	movss	xmm0, DWORD PTR _WorldPick$[ebp+12]
	comiss	xmm0, DWORD PTR __real@00000000
	jb	SHORT $LN1@PixelFromW

; 133  : 	{
; 134  : 		WorldPick.x /= WorldPick.w;

	movss	xmm0, DWORD PTR _WorldPick$[ebp]
	divss	xmm0, DWORD PTR _WorldPick$[ebp+12]
	movss	DWORD PTR _WorldPick$[ebp], xmm0

; 135  : 		WorldPick.y /= WorldPick.w;

	movss	xmm0, DWORD PTR _WorldPick$[ebp+4]
	divss	xmm0, DWORD PTR _WorldPick$[ebp+12]
	movss	DWORD PTR _WorldPick$[ebp+4], xmm0

; 136  : 
; 137  : 		pixel->x = (WorldPick.x + 1) * mViewportWidth / 2;

	movss	xmm0, DWORD PTR _WorldPick$[ebp]
	addss	xmm0, DWORD PTR __real@3f800000
	cvtsi2ss xmm1, DWORD PTR ?mViewportWidth@CCamera@@0HA ; CCamera::mViewportWidth
	mulss	xmm0, xmm1
	divss	xmm0, DWORD PTR __real@40000000
	mov	eax, DWORD PTR _pixel$[ebx]
	movss	DWORD PTR [eax], xmm0

; 138  : 		pixel->y = (1 - WorldPick.y) * mViewportHeight / 2; 

	movss	xmm0, DWORD PTR __real@3f800000
	subss	xmm0, DWORD PTR _WorldPick$[ebp+4]
	cvtsi2ss xmm1, DWORD PTR ?mViewportHeight@CCamera@@0HA ; CCamera::mViewportHeight
	mulss	xmm0, xmm1
	divss	xmm0, DWORD PTR __real@40000000
	mov	eax, DWORD PTR _pixel$[ebx]
	movss	DWORD PTR [eax+4], xmm0

; 139  : 
; 140  : 		return true;

	mov	al, 1
	jmp	SHORT $LN2@PixelFromW
$LN1@PixelFromW:

; 141  : 	}
; 142  : 
; 143  : 	return false;

	xor	al, al
$LN2@PixelFromW:

; 144  : }

	push	edx
	mov	ecx, ebp
	push	eax
	lea	edx, DWORD PTR $LN6@PixelFromW
	call	@_RTC_CheckStackVars@8
	pop	eax
	pop	edx
	pop	edi
	pop	esi
	mov	esp, ebp
	pop	ebp
	mov	esp, ebx
	pop	ebx
	ret	16					; 00000010H
$LN6@PixelFromW:
	DD	1
	DD	$LN5@PixelFromW
$LN5@PixelFromW:
	DD	-32					; ffffffe0H
	DD	16					; 00000010H
	DD	$LN4@PixelFromW
$LN4@PixelFromW:
	DB	87					; 00000057H
	DB	111					; 0000006fH
	DB	114					; 00000072H
	DB	108					; 0000006cH
	DB	100					; 00000064H
	DB	80					; 00000050H
	DB	105					; 00000069H
	DB	99					; 00000063H
	DB	107					; 0000006bH
	DB	0
?PixelFromWorldPt@CCamera@@QAE_NPAUXMFLOAT2@DirectX@@UXMFLOAT3@3@@Z ENDP ; CCamera::PixelFromWorldPt
_TEXT	ENDS
; Function compile flags: /Odtp /RTCsu /ZI
; File c:\users\simon\documents\github\uclan-sparta\camera.cpp
;	COMDAT ?Control@CCamera@@QAEXMW4EKeyCode@@0000000@Z
_TEXT	SEGMENT
_this$ = -8						; size = 4
_frameTime$ = 8						; size = 4
_turnUp$ = 12						; size = 4
_turnDown$ = 16						; size = 4
_turnLeft$ = 20						; size = 4
_turnRight$ = 24					; size = 4
_moveForward$ = 28					; size = 4
_moveBackward$ = 32					; size = 4
_moveLeft$ = 36						; size = 4
_moveRight$ = 40					; size = 4
?Control@CCamera@@QAEXMW4EKeyCode@@0000000@Z PROC	; CCamera::Control, COMDAT
; _this$ = ecx

; 73   : {

	push	ebp
	mov	ebp, esp
	sub	esp, 204				; 000000ccH
	push	ebx
	push	esi
	push	edi
	push	ecx
	lea	edi, DWORD PTR [ebp-204]
	mov	ecx, 51					; 00000033H
	mov	eax, -858993460				; ccccccccH
	rep stosd
	pop	ecx
	mov	DWORD PTR _this$[ebp], ecx

; 74   : 	if (KeyHeld( turnDown ))

	mov	eax, DWORD PTR _turnDown$[ebp]
	push	eax
	call	?KeyHeld@@YA_NW4EKeyCode@@@Z		; KeyHeld
	add	esp, 4
	movzx	ecx, al
	test	ecx, ecx
	je	SHORT $LN8@Control

; 75   : 	{
; 76   : 		m_Rotation.x += RotSpeed * frameTime;

	mov	eax, DWORD PTR _this$[ebp]
	movss	xmm0, DWORD PTR [eax+4]
	mulss	xmm0, DWORD PTR _frameTime$[ebp]
	mov	ecx, DWORD PTR _this$[ebp]
	addss	xmm0, DWORD PTR [ecx+20]
	mov	edx, DWORD PTR _this$[ebp]
	movss	DWORD PTR [edx+20], xmm0
$LN8@Control:

; 77   : 	}
; 78   : 	if (KeyHeld( turnUp ))

	mov	eax, DWORD PTR _turnUp$[ebp]
	push	eax
	call	?KeyHeld@@YA_NW4EKeyCode@@@Z		; KeyHeld
	add	esp, 4
	movzx	ecx, al
	test	ecx, ecx
	je	SHORT $LN7@Control

; 79   : 	{
; 80   : 		m_Rotation.x -= RotSpeed * frameTime;

	mov	eax, DWORD PTR _this$[ebp]
	movss	xmm0, DWORD PTR [eax+4]
	mulss	xmm0, DWORD PTR _frameTime$[ebp]
	mov	ecx, DWORD PTR _this$[ebp]
	movss	xmm1, DWORD PTR [ecx+20]
	subss	xmm1, xmm0
	mov	edx, DWORD PTR _this$[ebp]
	movss	DWORD PTR [edx+20], xmm1
$LN7@Control:

; 81   : 	}
; 82   : 	if (KeyHeld( turnRight ))

	mov	eax, DWORD PTR _turnRight$[ebp]
	push	eax
	call	?KeyHeld@@YA_NW4EKeyCode@@@Z		; KeyHeld
	add	esp, 4
	movzx	ecx, al
	test	ecx, ecx
	je	SHORT $LN6@Control

; 83   : 	{
; 84   : 		m_Rotation.y += RotSpeed * frameTime;

	mov	eax, DWORD PTR _this$[ebp]
	movss	xmm0, DWORD PTR [eax+4]
	mulss	xmm0, DWORD PTR _frameTime$[ebp]
	mov	ecx, DWORD PTR _this$[ebp]
	addss	xmm0, DWORD PTR [ecx+24]
	mov	edx, DWORD PTR _this$[ebp]
	movss	DWORD PTR [edx+24], xmm0
$LN6@Control:

; 85   : 	}
; 86   : 	if (KeyHeld( turnLeft ))

	mov	eax, DWORD PTR _turnLeft$[ebp]
	push	eax
	call	?KeyHeld@@YA_NW4EKeyCode@@@Z		; KeyHeld
	add	esp, 4
	movzx	ecx, al
	test	ecx, ecx
	je	SHORT $LN5@Control

; 87   : 	{
; 88   : 		m_Rotation.y -= RotSpeed * frameTime;

	mov	eax, DWORD PTR _this$[ebp]
	movss	xmm0, DWORD PTR [eax+4]
	mulss	xmm0, DWORD PTR _frameTime$[ebp]
	mov	ecx, DWORD PTR _this$[ebp]
	movss	xmm1, DWORD PTR [ecx+24]
	subss	xmm1, xmm0
	mov	edx, DWORD PTR _this$[ebp]
	movss	DWORD PTR [edx+24], xmm1
$LN5@Control:

; 89   : 	}
; 90   : 
; 91   : 	// Local X movement - move in the direction of the X axis, get axis from camera's "world" matrix
; 92   : 	if (KeyHeld( moveRight ))

	mov	eax, DWORD PTR _moveRight$[ebp]
	push	eax
	call	?KeyHeld@@YA_NW4EKeyCode@@@Z		; KeyHeld
	add	esp, 4
	movzx	ecx, al
	test	ecx, ecx
	je	$LN4@Control

; 93   : 	{
; 94   : 		m_Position.x += m_WorldMatrix.r[0].m128_f32[0] * MoveSpeed * frameTime;

	mov	eax, 16					; 00000010H
	imul	ecx, eax, 0
	mov	edx, DWORD PTR _this$[ebp]
	lea	eax, DWORD PTR [edx+ecx+48]
	mov	ecx, 4
	imul	edx, ecx, 0
	mov	ecx, DWORD PTR _this$[ebp]
	movss	xmm0, DWORD PTR [eax+edx]
	mulss	xmm0, DWORD PTR [ecx]
	mulss	xmm0, DWORD PTR _frameTime$[ebp]
	mov	edx, DWORD PTR _this$[ebp]
	addss	xmm0, DWORD PTR [edx+8]
	mov	eax, DWORD PTR _this$[ebp]
	movss	DWORD PTR [eax+8], xmm0

; 95   : 		m_Position.y += m_WorldMatrix.r[0].m128_f32[1] * MoveSpeed * frameTime;

	mov	eax, 16					; 00000010H
	imul	ecx, eax, 0
	mov	edx, DWORD PTR _this$[ebp]
	lea	eax, DWORD PTR [edx+ecx+48]
	mov	ecx, 4
	shl	ecx, 0
	mov	edx, DWORD PTR _this$[ebp]
	movss	xmm0, DWORD PTR [eax+ecx]
	mulss	xmm0, DWORD PTR [edx]
	mulss	xmm0, DWORD PTR _frameTime$[ebp]
	mov	eax, DWORD PTR _this$[ebp]
	addss	xmm0, DWORD PTR [eax+12]
	mov	ecx, DWORD PTR _this$[ebp]
	movss	DWORD PTR [ecx+12], xmm0

; 96   : 		m_Position.z += m_WorldMatrix.r[0].m128_f32[2] * MoveSpeed * frameTime;

	mov	eax, 16					; 00000010H
	imul	ecx, eax, 0
	mov	edx, DWORD PTR _this$[ebp]
	lea	eax, DWORD PTR [edx+ecx+48]
	mov	ecx, 4
	shl	ecx, 1
	mov	edx, DWORD PTR _this$[ebp]
	movss	xmm0, DWORD PTR [eax+ecx]
	mulss	xmm0, DWORD PTR [edx]
	mulss	xmm0, DWORD PTR _frameTime$[ebp]
	mov	eax, DWORD PTR _this$[ebp]
	addss	xmm0, DWORD PTR [eax+16]
	mov	ecx, DWORD PTR _this$[ebp]
	movss	DWORD PTR [ecx+16], xmm0
$LN4@Control:

; 97   : 	}
; 98   : 	if (KeyHeld( moveLeft ))

	mov	eax, DWORD PTR _moveLeft$[ebp]
	push	eax
	call	?KeyHeld@@YA_NW4EKeyCode@@@Z		; KeyHeld
	add	esp, 4
	movzx	ecx, al
	test	ecx, ecx
	je	$LN3@Control

; 99   : 	{
; 100  : 		m_Position.x -= m_WorldMatrix.r[0].m128_f32[0] * MoveSpeed * frameTime;

	mov	eax, 16					; 00000010H
	imul	ecx, eax, 0
	mov	edx, DWORD PTR _this$[ebp]
	lea	eax, DWORD PTR [edx+ecx+48]
	mov	ecx, 4
	imul	edx, ecx, 0
	mov	ecx, DWORD PTR _this$[ebp]
	movss	xmm0, DWORD PTR [eax+edx]
	mulss	xmm0, DWORD PTR [ecx]
	mulss	xmm0, DWORD PTR _frameTime$[ebp]
	mov	edx, DWORD PTR _this$[ebp]
	movss	xmm1, DWORD PTR [edx+8]
	subss	xmm1, xmm0
	mov	eax, DWORD PTR _this$[ebp]
	movss	DWORD PTR [eax+8], xmm1

; 101  : 		m_Position.y -= m_WorldMatrix.r[0].m128_f32[1] * MoveSpeed * frameTime;

	mov	eax, 16					; 00000010H
	imul	ecx, eax, 0
	mov	edx, DWORD PTR _this$[ebp]
	lea	eax, DWORD PTR [edx+ecx+48]
	mov	ecx, 4
	shl	ecx, 0
	mov	edx, DWORD PTR _this$[ebp]
	movss	xmm0, DWORD PTR [eax+ecx]
	mulss	xmm0, DWORD PTR [edx]
	mulss	xmm0, DWORD PTR _frameTime$[ebp]
	mov	eax, DWORD PTR _this$[ebp]
	movss	xmm1, DWORD PTR [eax+12]
	subss	xmm1, xmm0
	mov	ecx, DWORD PTR _this$[ebp]
	movss	DWORD PTR [ecx+12], xmm1

; 102  : 		m_Position.z -= m_WorldMatrix.r[0].m128_f32[2] * MoveSpeed * frameTime;

	mov	eax, 16					; 00000010H
	imul	ecx, eax, 0
	mov	edx, DWORD PTR _this$[ebp]
	lea	eax, DWORD PTR [edx+ecx+48]
	mov	ecx, 4
	shl	ecx, 1
	mov	edx, DWORD PTR _this$[ebp]
	movss	xmm0, DWORD PTR [eax+ecx]
	mulss	xmm0, DWORD PTR [edx]
	mulss	xmm0, DWORD PTR _frameTime$[ebp]
	mov	eax, DWORD PTR _this$[ebp]
	movss	xmm1, DWORD PTR [eax+16]
	subss	xmm1, xmm0
	mov	ecx, DWORD PTR _this$[ebp]
	movss	DWORD PTR [ecx+16], xmm1
$LN3@Control:

; 103  : 	}
; 104  : 
; 105  : 	// Local Z movement - move in the direction of the Z axis, get axis from view matrix
; 106  : 	if (KeyHeld( moveForward ))

	mov	eax, DWORD PTR _moveForward$[ebp]
	push	eax
	call	?KeyHeld@@YA_NW4EKeyCode@@@Z		; KeyHeld
	add	esp, 4
	movzx	ecx, al
	test	ecx, ecx
	je	$LN2@Control

; 107  : 	{
; 108  : 		m_Position.x += m_WorldMatrix.r[2].m128_f32[0] * MoveSpeed * frameTime;

	mov	eax, 16					; 00000010H
	shl	eax, 1
	mov	ecx, DWORD PTR _this$[ebp]
	lea	edx, DWORD PTR [ecx+eax+48]
	mov	eax, 4
	imul	ecx, eax, 0
	mov	eax, DWORD PTR _this$[ebp]
	movss	xmm0, DWORD PTR [edx+ecx]
	mulss	xmm0, DWORD PTR [eax]
	mulss	xmm0, DWORD PTR _frameTime$[ebp]
	mov	ecx, DWORD PTR _this$[ebp]
	addss	xmm0, DWORD PTR [ecx+8]
	mov	edx, DWORD PTR _this$[ebp]
	movss	DWORD PTR [edx+8], xmm0

; 109  : 		m_Position.y += m_WorldMatrix.r[2].m128_f32[1] * MoveSpeed * frameTime;

	mov	eax, 16					; 00000010H
	shl	eax, 1
	mov	ecx, DWORD PTR _this$[ebp]
	lea	edx, DWORD PTR [ecx+eax+48]
	mov	eax, 4
	shl	eax, 0
	mov	ecx, DWORD PTR _this$[ebp]
	movss	xmm0, DWORD PTR [edx+eax]
	mulss	xmm0, DWORD PTR [ecx]
	mulss	xmm0, DWORD PTR _frameTime$[ebp]
	mov	edx, DWORD PTR _this$[ebp]
	addss	xmm0, DWORD PTR [edx+12]
	mov	eax, DWORD PTR _this$[ebp]
	movss	DWORD PTR [eax+12], xmm0

; 110  : 		m_Position.z += m_WorldMatrix.r[2].m128_f32[2] * MoveSpeed * frameTime;

	mov	eax, 16					; 00000010H
	shl	eax, 1
	mov	ecx, DWORD PTR _this$[ebp]
	lea	edx, DWORD PTR [ecx+eax+48]
	mov	eax, 4
	shl	eax, 1
	mov	ecx, DWORD PTR _this$[ebp]
	movss	xmm0, DWORD PTR [edx+eax]
	mulss	xmm0, DWORD PTR [ecx]
	mulss	xmm0, DWORD PTR _frameTime$[ebp]
	mov	edx, DWORD PTR _this$[ebp]
	addss	xmm0, DWORD PTR [edx+16]
	mov	eax, DWORD PTR _this$[ebp]
	movss	DWORD PTR [eax+16], xmm0
$LN2@Control:

; 111  : 	}
; 112  : 	if (KeyHeld( moveBackward ))

	mov	eax, DWORD PTR _moveBackward$[ebp]
	push	eax
	call	?KeyHeld@@YA_NW4EKeyCode@@@Z		; KeyHeld
	add	esp, 4
	movzx	ecx, al
	test	ecx, ecx
	je	$LN1@Control

; 113  : 	{
; 114  : 		m_Position.x -= m_WorldMatrix.r[2].m128_f32[0] * MoveSpeed * frameTime;

	mov	eax, 16					; 00000010H
	shl	eax, 1
	mov	ecx, DWORD PTR _this$[ebp]
	lea	edx, DWORD PTR [ecx+eax+48]
	mov	eax, 4
	imul	ecx, eax, 0
	mov	eax, DWORD PTR _this$[ebp]
	movss	xmm0, DWORD PTR [edx+ecx]
	mulss	xmm0, DWORD PTR [eax]
	mulss	xmm0, DWORD PTR _frameTime$[ebp]
	mov	ecx, DWORD PTR _this$[ebp]
	movss	xmm1, DWORD PTR [ecx+8]
	subss	xmm1, xmm0
	mov	edx, DWORD PTR _this$[ebp]
	movss	DWORD PTR [edx+8], xmm1

; 115  : 		m_Position.y -= m_WorldMatrix.r[2].m128_f32[1] * MoveSpeed * frameTime;

	mov	eax, 16					; 00000010H
	shl	eax, 1
	mov	ecx, DWORD PTR _this$[ebp]
	lea	edx, DWORD PTR [ecx+eax+48]
	mov	eax, 4
	shl	eax, 0
	mov	ecx, DWORD PTR _this$[ebp]
	movss	xmm0, DWORD PTR [edx+eax]
	mulss	xmm0, DWORD PTR [ecx]
	mulss	xmm0, DWORD PTR _frameTime$[ebp]
	mov	edx, DWORD PTR _this$[ebp]
	movss	xmm1, DWORD PTR [edx+12]
	subss	xmm1, xmm0
	mov	eax, DWORD PTR _this$[ebp]
	movss	DWORD PTR [eax+12], xmm1

; 116  : 		m_Position.z -= m_WorldMatrix.r[2].m128_f32[2] * MoveSpeed * frameTime;

	mov	eax, 16					; 00000010H
	shl	eax, 1
	mov	ecx, DWORD PTR _this$[ebp]
	lea	edx, DWORD PTR [ecx+eax+48]
	mov	eax, 4
	shl	eax, 1
	mov	ecx, DWORD PTR _this$[ebp]
	movss	xmm0, DWORD PTR [edx+eax]
	mulss	xmm0, DWORD PTR [ecx]
	mulss	xmm0, DWORD PTR _frameTime$[ebp]
	mov	edx, DWORD PTR _this$[ebp]
	movss	xmm1, DWORD PTR [edx+16]
	subss	xmm1, xmm0
	mov	eax, DWORD PTR _this$[ebp]
	movss	DWORD PTR [eax+16], xmm1
$LN1@Control:

; 117  : 	}
; 118  : }

	pop	edi
	pop	esi
	pop	ebx
	add	esp, 204				; 000000ccH
	cmp	ebp, esp
	call	__RTC_CheckEsp
	mov	esp, ebp
	pop	ebp
	ret	36					; 00000024H
?Control@CCamera@@QAEXMW4EKeyCode@@0000000@Z ENDP	; CCamera::Control
_TEXT	ENDS
; Function compile flags: /Odtp /RTCsu /ZI
; File c:\users\simon\documents\github\uclan-sparta\camera.cpp
;	COMDAT ?UpdateMatrices@CCamera@@QAEXXZ
_TEXT	SEGMENT
$T1 = -1824						; size = 64
$T2 = -1744						; size = 64
$T3 = -1664						; size = 64
$T4 = -1584						; size = 64
$T5 = -1504						; size = 64
$T6 = -1424						; size = 64
$T7 = -1344						; size = 64
$T8 = -1264						; size = 64
$T9 = -1184						; size = 64
$T10 = -1104						; size = 64
$T11 = -1024						; size = 64
$T12 = -944						; size = 64
$T13 = -864						; size = 64
$T14 = -784						; size = 64
$T15 = -704						; size = 64
$T16 = -624						; size = 64
_aspect$ = -348						; size = 4
_matrixTranslation$ = -336				; size = 64
_matrixZRot$ = -256					; size = 64
_matrixYRot$ = -176					; size = 64
_matrixXRot$ = -96					; size = 64
_this$ = -12						; size = 4
__$ArrayPad$ = -4					; size = 4
?UpdateMatrices@CCamera@@QAEXXZ PROC			; CCamera::UpdateMatrices, COMDAT
; _this$ = ecx

; 38   : {

	push	ebx
	mov	ebx, esp
	sub	esp, 8
	and	esp, -16				; fffffff0H
	add	esp, 4
	push	ebp
	mov	ebp, DWORD PTR [ebx+4]
	mov	DWORD PTR [esp+4], ebp
	mov	ebp, esp
	sub	esp, 1832				; 00000728H
	push	esi
	push	edi
	push	ecx
	lea	edi, DWORD PTR [ebp-1832]
	mov	ecx, 458				; 000001caH
	mov	eax, -858993460				; ccccccccH
	rep stosd
	pop	ecx
	mov	eax, DWORD PTR ___security_cookie
	xor	eax, ebp
	mov	DWORD PTR __$ArrayPad$[ebp], eax
	mov	DWORD PTR _this$[ebp], ecx

; 39   : 	// Make matrices for position and rotations, then multiply together to get a "camera world matrix"
; 40   : 	DirectX::XMMATRIX matrixXRot, matrixYRot, matrixZRot, matrixTranslation;

	lea	ecx, DWORD PTR _matrixXRot$[ebp]
	call	??0XMMATRIX@DirectX@@QAE@XZ		; DirectX::XMMATRIX::XMMATRIX
	lea	ecx, DWORD PTR _matrixYRot$[ebp]
	call	??0XMMATRIX@DirectX@@QAE@XZ		; DirectX::XMMATRIX::XMMATRIX
	lea	ecx, DWORD PTR _matrixZRot$[ebp]
	call	??0XMMATRIX@DirectX@@QAE@XZ		; DirectX::XMMATRIX::XMMATRIX
	lea	ecx, DWORD PTR _matrixTranslation$[ebp]
	call	??0XMMATRIX@DirectX@@QAE@XZ		; DirectX::XMMATRIX::XMMATRIX

; 41   : 	matrixXRot = DirectX::XMMatrixRotationAxis( XAXIS, m_Rotation.x );

	movaps	xmm0, XMMWORD PTR _XAXIS
	mov	eax, DWORD PTR _this$[ebp]
	movss	xmm1, DWORD PTR [eax+20]
	call	?XMMatrixRotationAxis@DirectX@@YQ?AUXMMATRIX@1@T__m128@@M@Z ; DirectX::XMMatrixRotationAxis
	movaps	XMMWORD PTR $T1[ebp+48], xmm3
	movaps	XMMWORD PTR $T1[ebp+32], xmm2
	movaps	XMMWORD PTR $T1[ebp+16], xmm1
	movaps	XMMWORD PTR $T1[ebp], xmm0
	mov	ecx, 16					; 00000010H
	lea	esi, DWORD PTR $T1[ebp]
	lea	edi, DWORD PTR $T7[ebp]
	rep movsd
	lea	ecx, DWORD PTR $T7[ebp]
	push	ecx
	lea	ecx, DWORD PTR _matrixXRot$[ebp]
	call	??4XMMATRIX@DirectX@@QAEAAU01@ABU01@@Z	; DirectX::XMMATRIX::operator=

; 42   : 	matrixYRot = DirectX::XMMatrixRotationAxis( YAXIS, m_Rotation.y );

	movaps	xmm0, XMMWORD PTR _YAXIS
	mov	eax, DWORD PTR _this$[ebp]
	movss	xmm1, DWORD PTR [eax+24]
	call	?XMMatrixRotationAxis@DirectX@@YQ?AUXMMATRIX@1@T__m128@@M@Z ; DirectX::XMMatrixRotationAxis
	movaps	XMMWORD PTR $T2[ebp+48], xmm3
	movaps	XMMWORD PTR $T2[ebp+32], xmm2
	movaps	XMMWORD PTR $T2[ebp+16], xmm1
	movaps	XMMWORD PTR $T2[ebp], xmm0
	mov	ecx, 16					; 00000010H
	lea	esi, DWORD PTR $T2[ebp]
	lea	edi, DWORD PTR $T8[ebp]
	rep movsd
	lea	ecx, DWORD PTR $T8[ebp]
	push	ecx
	lea	ecx, DWORD PTR _matrixYRot$[ebp]
	call	??4XMMATRIX@DirectX@@QAEAAU01@ABU01@@Z	; DirectX::XMMATRIX::operator=

; 43   : 	matrixZRot = DirectX::XMMatrixRotationAxis( ZAXIS, m_Rotation.z );

	movaps	xmm0, XMMWORD PTR _ZAXIS
	mov	eax, DWORD PTR _this$[ebp]
	movss	xmm1, DWORD PTR [eax+28]
	call	?XMMatrixRotationAxis@DirectX@@YQ?AUXMMATRIX@1@T__m128@@M@Z ; DirectX::XMMatrixRotationAxis
	movaps	XMMWORD PTR $T3[ebp+48], xmm3
	movaps	XMMWORD PTR $T3[ebp+32], xmm2
	movaps	XMMWORD PTR $T3[ebp+16], xmm1
	movaps	XMMWORD PTR $T3[ebp], xmm0
	mov	ecx, 16					; 00000010H
	lea	esi, DWORD PTR $T3[ebp]
	lea	edi, DWORD PTR $T9[ebp]
	rep movsd
	lea	ecx, DWORD PTR $T9[ebp]
	push	ecx
	lea	ecx, DWORD PTR _matrixZRot$[ebp]
	call	??4XMMATRIX@DirectX@@QAEAAU01@ABU01@@Z	; DirectX::XMMATRIX::operator=

; 44   : 
; 45   : 	matrixTranslation = DirectX::XMMatrixTranslation(m_Position.x, m_Position.y, m_Position.z);

	mov	eax, DWORD PTR _this$[ebp]
	movss	xmm2, DWORD PTR [eax+16]
	mov	ecx, DWORD PTR _this$[ebp]
	movss	xmm1, DWORD PTR [ecx+12]
	mov	edx, DWORD PTR _this$[ebp]
	movss	xmm0, DWORD PTR [edx+8]
	call	?XMMatrixTranslation@DirectX@@YQ?AUXMMATRIX@1@MMM@Z ; DirectX::XMMatrixTranslation
	movaps	XMMWORD PTR $T4[ebp+48], xmm3
	movaps	XMMWORD PTR $T4[ebp+32], xmm2
	movaps	XMMWORD PTR $T4[ebp+16], xmm1
	movaps	XMMWORD PTR $T4[ebp], xmm0
	mov	ecx, 16					; 00000010H
	lea	esi, DWORD PTR $T4[ebp]
	lea	edi, DWORD PTR $T10[ebp]
	rep movsd
	lea	eax, DWORD PTR $T10[ebp]
	push	eax
	lea	ecx, DWORD PTR _matrixTranslation$[ebp]
	call	??4XMMATRIX@DirectX@@QAEAAU01@ABU01@@Z	; DirectX::XMMATRIX::operator=

; 46   : 	//D3DXMatrixTranslation( &matrixTranslation, m_Position.x, m_Position.y, m_Position.z);
; 47   : 	m_WorldMatrix = matrixZRot * matrixXRot * matrixYRot * matrixTranslation;

	lea	edx, DWORD PTR $T11[ebp]
	lea	ecx, DWORD PTR _matrixZRot$[ebp]
	movaps	xmm0, XMMWORD PTR _matrixXRot$[ebp]
	movaps	xmm1, XMMWORD PTR _matrixXRot$[ebp+16]
	movaps	xmm2, XMMWORD PTR _matrixXRot$[ebp+32]
	movaps	xmm3, XMMWORD PTR _matrixXRot$[ebp+48]
	call	??DXMMATRIX@DirectX@@QBQ?AU01@U01@@Z	; DirectX::XMMATRIX::operator*
	lea	edx, DWORD PTR $T12[ebp]
	mov	ecx, eax
	movaps	xmm0, XMMWORD PTR _matrixYRot$[ebp]
	movaps	xmm1, XMMWORD PTR _matrixYRot$[ebp+16]
	movaps	xmm2, XMMWORD PTR _matrixYRot$[ebp+32]
	movaps	xmm3, XMMWORD PTR _matrixYRot$[ebp+48]
	call	??DXMMATRIX@DirectX@@QBQ?AU01@U01@@Z	; DirectX::XMMATRIX::operator*
	lea	edx, DWORD PTR $T13[ebp]
	mov	ecx, eax
	movaps	xmm0, XMMWORD PTR _matrixTranslation$[ebp]
	movaps	xmm1, XMMWORD PTR _matrixTranslation$[ebp+16]
	movaps	xmm2, XMMWORD PTR _matrixTranslation$[ebp+32]
	movaps	xmm3, XMMWORD PTR _matrixTranslation$[ebp+48]
	call	??DXMMATRIX@DirectX@@QBQ?AU01@U01@@Z	; DirectX::XMMATRIX::operator*
	push	eax
	mov	ecx, DWORD PTR _this$[ebp]
	add	ecx, 48					; 00000030H
	call	??4XMMATRIX@DirectX@@QAEAAU01@ABU01@@Z	; DirectX::XMMATRIX::operator=

; 48   : 
; 49   : 	// The rendering pipeline actually needs the inverse of the camera world matrix - called the view matrix. Creating an inverse is easy with DirectX:
; 50   :     //D3DXMatrixInverse( &m_ViewMatrix, NULL, &m_WorldMatrix );
; 51   : 	//don't need this, but the parameter is not optional in some versions
; 52   : 	//DirectX::XMVECTOR tempVector;
; 53   : 
; 54   : 	//DirectX::XMMATRIX aMatrix = m_WorldMatrix;
; 55   : 
; 56   : 	m_ViewMatrix = DirectX::XMMatrixInverse(NULL, m_WorldMatrix );

	mov	eax, DWORD PTR _this$[ebp]
	add	eax, 48					; 00000030H
	xor	ecx, ecx
	movaps	xmm0, XMMWORD PTR [eax]
	movaps	xmm1, XMMWORD PTR [eax+16]
	movaps	xmm2, XMMWORD PTR [eax+32]
	movaps	xmm3, XMMWORD PTR [eax+48]
	call	?XMMatrixInverse@DirectX@@YQ?AUXMMATRIX@1@PAT__m128@@U21@@Z ; DirectX::XMMatrixInverse
	movaps	XMMWORD PTR $T5[ebp+48], xmm3
	movaps	XMMWORD PTR $T5[ebp+32], xmm2
	movaps	XMMWORD PTR $T5[ebp+16], xmm1
	movaps	XMMWORD PTR $T5[ebp], xmm0
	mov	ecx, 16					; 00000010H
	lea	esi, DWORD PTR $T5[ebp]
	lea	edi, DWORD PTR $T14[ebp]
	rep movsd
	lea	ecx, DWORD PTR $T14[ebp]
	push	ecx
	mov	ecx, DWORD PTR _this$[ebp]
	add	ecx, 112				; 00000070H
	call	??4XMMATRIX@DirectX@@QAEAAU01@ABU01@@Z	; DirectX::XMMATRIX::operator=

; 57   : 
; 58   : 	// Initialize the projection matrix. This determines viewing properties of the camera such as field of view (FOV) and near clip distance
; 59   : 	// One other factor in the projection matrix is the aspect ratio of screen (width/height) - used to adjust FOV between horizontal and vertical
; 60   : 	float aspect = (float)mViewportWidth / mViewportHeight; 

	cvtsi2ss xmm0, DWORD PTR ?mViewportWidth@CCamera@@0HA ; CCamera::mViewportWidth
	cvtsi2ss xmm1, DWORD PTR ?mViewportHeight@CCamera@@0HA ; CCamera::mViewportHeight
	divss	xmm0, xmm1
	movss	DWORD PTR _aspect$[ebp], xmm0

; 61   : 	//D3DXMatrixPerspectiveFovLH( &m_ProjMatrix, m_FOV, aspect, m_NearClip, m_FarClip );
; 62   : 	m_ProjMatrix = DirectX::XMMatrixPerspectiveFovLH( m_FOV, aspect, m_NearClip, m_FarClip );

	mov	eax, DWORD PTR _this$[ebp]
	movss	xmm3, DWORD PTR [eax+40]
	mov	ecx, DWORD PTR _this$[ebp]
	movss	xmm2, DWORD PTR [ecx+36]
	movss	xmm1, DWORD PTR _aspect$[ebp]
	mov	edx, DWORD PTR _this$[ebp]
	movss	xmm0, DWORD PTR [edx+32]
	call	?XMMatrixPerspectiveFovLH@DirectX@@YQ?AUXMMATRIX@1@MMMM@Z ; DirectX::XMMatrixPerspectiveFovLH
	movaps	XMMWORD PTR $T6[ebp+48], xmm3
	movaps	XMMWORD PTR $T6[ebp+32], xmm2
	movaps	XMMWORD PTR $T6[ebp+16], xmm1
	movaps	XMMWORD PTR $T6[ebp], xmm0
	mov	ecx, 16					; 00000010H
	lea	esi, DWORD PTR $T6[ebp]
	lea	edi, DWORD PTR $T15[ebp]
	rep movsd
	lea	eax, DWORD PTR $T15[ebp]
	push	eax
	mov	ecx, DWORD PTR _this$[ebp]
	add	ecx, 176				; 000000b0H
	call	??4XMMATRIX@DirectX@@QAEAAU01@ABU01@@Z	; DirectX::XMMATRIX::operator=

; 63   : 
; 64   : 	// Combine the view and projection matrix into a single matrix - which can (optionally) be used in the vertex shaders to save one matrix multiply per vertex
; 65   : 	//DirectX::XMMATRIX aVM = m_ViewMatrix, aPM = m_ProjMatrix;
; 66   : 	m_ViewProjMatrix = m_ViewMatrix * m_ProjMatrix;

	mov	eax, DWORD PTR _this$[ebp]
	add	eax, 176				; 000000b0H
	mov	ecx, DWORD PTR _this$[ebp]
	add	ecx, 112				; 00000070H
	lea	edx, DWORD PTR $T16[ebp]
	movaps	xmm0, XMMWORD PTR [eax]
	movaps	xmm1, XMMWORD PTR [eax+16]
	movaps	xmm2, XMMWORD PTR [eax+32]
	movaps	xmm3, XMMWORD PTR [eax+48]
	call	??DXMMATRIX@DirectX@@QBQ?AU01@U01@@Z	; DirectX::XMMATRIX::operator*
	push	eax
	mov	ecx, DWORD PTR _this$[ebp]
	add	ecx, 240				; 000000f0H
	call	??4XMMATRIX@DirectX@@QAEAAU01@ABU01@@Z	; DirectX::XMMATRIX::operator=

; 67   : }

	push	edx
	mov	ecx, ebp
	push	eax
	lea	edx, DWORD PTR $LN8@UpdateMatr
	call	@_RTC_CheckStackVars@8
	pop	eax
	pop	edx
	pop	edi
	pop	esi
	mov	ecx, DWORD PTR __$ArrayPad$[ebp]
	xor	ecx, ebp
	call	@__security_check_cookie@4
	mov	esp, ebp
	pop	ebp
	mov	esp, ebx
	pop	ebx
	ret	0
	npad	1
$LN8@UpdateMatr:
	DD	4
	DD	$LN7@UpdateMatr
$LN7@UpdateMatr:
	DD	-96					; ffffffa0H
	DD	64					; 00000040H
	DD	$LN3@UpdateMatr
	DD	-176					; ffffff50H
	DD	64					; 00000040H
	DD	$LN4@UpdateMatr
	DD	-256					; ffffff00H
	DD	64					; 00000040H
	DD	$LN5@UpdateMatr
	DD	-336					; fffffeb0H
	DD	64					; 00000040H
	DD	$LN6@UpdateMatr
$LN6@UpdateMatr:
	DB	109					; 0000006dH
	DB	97					; 00000061H
	DB	116					; 00000074H
	DB	114					; 00000072H
	DB	105					; 00000069H
	DB	120					; 00000078H
	DB	84					; 00000054H
	DB	114					; 00000072H
	DB	97					; 00000061H
	DB	110					; 0000006eH
	DB	115					; 00000073H
	DB	108					; 0000006cH
	DB	97					; 00000061H
	DB	116					; 00000074H
	DB	105					; 00000069H
	DB	111					; 0000006fH
	DB	110					; 0000006eH
	DB	0
$LN5@UpdateMatr:
	DB	109					; 0000006dH
	DB	97					; 00000061H
	DB	116					; 00000074H
	DB	114					; 00000072H
	DB	105					; 00000069H
	DB	120					; 00000078H
	DB	90					; 0000005aH
	DB	82					; 00000052H
	DB	111					; 0000006fH
	DB	116					; 00000074H
	DB	0
$LN4@UpdateMatr:
	DB	109					; 0000006dH
	DB	97					; 00000061H
	DB	116					; 00000074H
	DB	114					; 00000072H
	DB	105					; 00000069H
	DB	120					; 00000078H
	DB	89					; 00000059H
	DB	82					; 00000052H
	DB	111					; 0000006fH
	DB	116					; 00000074H
	DB	0
$LN3@UpdateMatr:
	DB	109					; 0000006dH
	DB	97					; 00000061H
	DB	116					; 00000074H
	DB	114					; 00000072H
	DB	105					; 00000069H
	DB	120					; 00000078H
	DB	88					; 00000058H
	DB	82					; 00000052H
	DB	111					; 0000006fH
	DB	116					; 00000074H
	DB	0
?UpdateMatrices@CCamera@@QAEXXZ ENDP			; CCamera::UpdateMatrices
_TEXT	ENDS
; Function compile flags: /Odtp /RTCsu /ZI
; File c:\users\simon\documents\github\uclan-sparta\camera.h
;	COMDAT ?SetFarClip@CCamera@@QAEXM@Z
_TEXT	SEGMENT
_this$ = -8						; size = 4
_farClip$ = 8						; size = 4
?SetFarClip@CCamera@@QAEXM@Z PROC			; CCamera::SetFarClip, COMDAT
; _this$ = ecx

; 116  : 	{

	push	ebp
	mov	ebp, esp
	sub	esp, 204				; 000000ccH
	push	ebx
	push	esi
	push	edi
	push	ecx
	lea	edi, DWORD PTR [ebp-204]
	mov	ecx, 51					; 00000033H
	mov	eax, -858993460				; ccccccccH
	rep stosd
	pop	ecx
	mov	DWORD PTR _this$[ebp], ecx

; 117  : 		m_FarClip = farClip;

	mov	eax, DWORD PTR _this$[ebp]
	movss	xmm0, DWORD PTR _farClip$[ebp]
	movss	DWORD PTR [eax+40], xmm0

; 118  : 	}

	pop	edi
	pop	esi
	pop	ebx
	mov	esp, ebp
	pop	ebp
	ret	4
?SetFarClip@CCamera@@QAEXM@Z ENDP			; CCamera::SetFarClip
_TEXT	ENDS
; Function compile flags: /Odtp /RTCsu /ZI
; File c:\users\simon\documents\github\uclan-sparta\camera.h
;	COMDAT ?SetNearClip@CCamera@@QAEXM@Z
_TEXT	SEGMENT
_this$ = -8						; size = 4
_nearClip$ = 8						; size = 4
?SetNearClip@CCamera@@QAEXM@Z PROC			; CCamera::SetNearClip, COMDAT
; _this$ = ecx

; 112  : 	{

	push	ebp
	mov	ebp, esp
	sub	esp, 204				; 000000ccH
	push	ebx
	push	esi
	push	edi
	push	ecx
	lea	edi, DWORD PTR [ebp-204]
	mov	ecx, 51					; 00000033H
	mov	eax, -858993460				; ccccccccH
	rep stosd
	pop	ecx
	mov	DWORD PTR _this$[ebp], ecx

; 113  : 		m_NearClip = nearClip;

	mov	eax, DWORD PTR _this$[ebp]
	movss	xmm0, DWORD PTR _nearClip$[ebp]
	movss	DWORD PTR [eax+36], xmm0

; 114  : 	}

	pop	edi
	pop	esi
	pop	ebx
	mov	esp, ebp
	pop	ebp
	ret	4
?SetNearClip@CCamera@@QAEXM@Z ENDP			; CCamera::SetNearClip
_TEXT	ENDS
; Function compile flags: /Odtp /RTCsu /ZI
; File c:\users\simon\documents\github\uclan-sparta\camera.h
;	COMDAT ?SetFOV@CCamera@@QAEXM@Z
_TEXT	SEGMENT
_this$ = -8						; size = 4
_fov$ = 8						; size = 4
?SetFOV@CCamera@@QAEXM@Z PROC				; CCamera::SetFOV, COMDAT
; _this$ = ecx

; 108  : 	{

	push	ebp
	mov	ebp, esp
	sub	esp, 204				; 000000ccH
	push	ebx
	push	esi
	push	edi
	push	ecx
	lea	edi, DWORD PTR [ebp-204]
	mov	ecx, 51					; 00000033H
	mov	eax, -858993460				; ccccccccH
	rep stosd
	pop	ecx
	mov	DWORD PTR _this$[ebp], ecx

; 109  : 		m_FOV = fov;

	mov	eax, DWORD PTR _this$[ebp]
	movss	xmm0, DWORD PTR _fov$[ebp]
	movss	DWORD PTR [eax+32], xmm0

; 110  : 	}

	pop	edi
	pop	esi
	pop	ebx
	mov	esp, ebp
	pop	ebp
	ret	4
?SetFOV@CCamera@@QAEXM@Z ENDP				; CCamera::SetFOV
_TEXT	ENDS
; Function compile flags: /Odtp /RTCsu /ZI
; File c:\users\simon\documents\github\uclan-sparta\camera.cpp
;	COMDAT ??0CCamera@@QAE@UXMFLOAT3@DirectX@@0MMM@Z
_TEXT	SEGMENT
_this$ = -8						; size = 4
_position$ = 8						; size = 12
_rotation$ = 20						; size = 12
_fov$ = 32						; size = 4
_nearClip$ = 36						; size = 4
_farClip$ = 40						; size = 4
??0CCamera@@QAE@UXMFLOAT3@DirectX@@0MMM@Z PROC		; CCamera::CCamera, COMDAT
; _this$ = ecx

; 16   : {

	push	ebp
	mov	ebp, esp
	sub	esp, 204				; 000000ccH
	push	ebx
	push	esi
	push	edi
	push	ecx
	lea	edi, DWORD PTR [ebp-204]
	mov	ecx, 51					; 00000033H
	mov	eax, -858993460				; ccccccccH
	rep stosd
	pop	ecx
	mov	DWORD PTR _this$[ebp], ecx
	mov	ecx, DWORD PTR _this$[ebp]
	add	ecx, 8
	call	??0XMFLOAT3@DirectX@@QAE@XZ		; DirectX::XMFLOAT3::XMFLOAT3
	mov	ecx, DWORD PTR _this$[ebp]
	add	ecx, 20					; 00000014H
	call	??0XMFLOAT3@DirectX@@QAE@XZ		; DirectX::XMFLOAT3::XMFLOAT3
	mov	ecx, DWORD PTR _this$[ebp]
	add	ecx, 48					; 00000030H
	call	??0XMMATRIX@DirectX@@QAE@XZ		; DirectX::XMMATRIX::XMMATRIX
	mov	ecx, DWORD PTR _this$[ebp]
	add	ecx, 112				; 00000070H
	call	??0XMMATRIX@DirectX@@QAE@XZ		; DirectX::XMMATRIX::XMMATRIX
	mov	ecx, DWORD PTR _this$[ebp]
	add	ecx, 176				; 000000b0H
	call	??0XMMATRIX@DirectX@@QAE@XZ		; DirectX::XMMATRIX::XMMATRIX
	mov	ecx, DWORD PTR _this$[ebp]
	add	ecx, 240				; 000000f0H
	call	??0XMMATRIX@DirectX@@QAE@XZ		; DirectX::XMMATRIX::XMMATRIX

; 17   : 	m_Position = position;

	lea	eax, DWORD PTR _position$[ebp]
	push	eax
	mov	ecx, DWORD PTR _this$[ebp]
	add	ecx, 8
	call	??4XMFLOAT3@DirectX@@QAEAAU01@ABU01@@Z	; DirectX::XMFLOAT3::operator=

; 18   : 	m_Rotation = rotation;

	lea	eax, DWORD PTR _rotation$[ebp]
	push	eax
	mov	ecx, DWORD PTR _this$[ebp]
	add	ecx, 20					; 00000014H
	call	??4XMFLOAT3@DirectX@@QAEAAU01@ABU01@@Z	; DirectX::XMFLOAT3::operator=

; 19   : 	
; 20   : 
; 21   : 	SetFOV( fov );

	push	ecx
	movss	xmm0, DWORD PTR _fov$[ebp]
	movss	DWORD PTR [esp], xmm0
	mov	ecx, DWORD PTR _this$[ebp]
	call	?SetFOV@CCamera@@QAEXM@Z		; CCamera::SetFOV

; 22   : 	SetNearClip( nearClip );

	push	ecx
	movss	xmm0, DWORD PTR _nearClip$[ebp]
	movss	DWORD PTR [esp], xmm0
	mov	ecx, DWORD PTR _this$[ebp]
	call	?SetNearClip@CCamera@@QAEXM@Z		; CCamera::SetNearClip

; 23   : 	SetFarClip( farClip );

	push	ecx
	movss	xmm0, DWORD PTR _farClip$[ebp]
	movss	DWORD PTR [esp], xmm0
	mov	ecx, DWORD PTR _this$[ebp]
	call	?SetFarClip@CCamera@@QAEXM@Z		; CCamera::SetFarClip

; 24   : 
; 25   : 	MoveSpeed = 50.0f;

	mov	eax, DWORD PTR _this$[ebp]
	movss	xmm0, DWORD PTR __real@42480000
	movss	DWORD PTR [eax], xmm0

; 26   : 	RotSpeed = 2.0f;

	mov	eax, DWORD PTR _this$[ebp]
	movss	xmm0, DWORD PTR __real@40000000
	movss	DWORD PTR [eax+4], xmm0

; 27   : 
; 28   : 	UpdateMatrices();

	mov	ecx, DWORD PTR _this$[ebp]
	call	?UpdateMatrices@CCamera@@QAEXXZ		; CCamera::UpdateMatrices

; 29   : }

	mov	eax, DWORD PTR _this$[ebp]
	pop	edi
	pop	esi
	pop	ebx
	add	esp, 204				; 000000ccH
	cmp	ebp, esp
	call	__RTC_CheckEsp
	mov	esp, ebp
	pop	ebp
	ret	36					; 00000024H
??0CCamera@@QAE@UXMFLOAT3@DirectX@@0MMM@Z ENDP		; CCamera::CCamera
_TEXT	ENDS
; Function compile flags: /Odtp /RTCsu /ZI
; File c:\users\simon\documents\github\uclan-sparta\defines.h
;	COMDAT ??__E_ORANGE@@YAXXZ
text$di	SEGMENT
??__E_ORANGE@@YAXXZ PROC				; `dynamic initializer for '_ORANGE'', COMDAT

; 82   : const DirectX::XMFLOAT3 _ORANGE = DirectX::XMFLOAT3(1.0f, 0.5f, 0.1f);

	push	ebp
	mov	ebp, esp
	sub	esp, 192				; 000000c0H
	push	ebx
	push	esi
	push	edi
	lea	edi, DWORD PTR [ebp-192]
	mov	ecx, 48					; 00000030H
	mov	eax, -858993460				; ccccccccH
	rep stosd
	push	ecx
	movss	xmm0, DWORD PTR __real@3dcccccd
	movss	DWORD PTR [esp], xmm0
	push	ecx
	movss	xmm0, DWORD PTR __real@3f000000
	movss	DWORD PTR [esp], xmm0
	push	ecx
	movss	xmm0, DWORD PTR __real@3f800000
	movss	DWORD PTR [esp], xmm0
	mov	ecx, OFFSET __ORANGE
	call	??0XMFLOAT3@DirectX@@QAE@MMM@Z		; DirectX::XMFLOAT3::XMFLOAT3
	pop	edi
	pop	esi
	pop	ebx
	add	esp, 192				; 000000c0H
	cmp	ebp, esp
	call	__RTC_CheckEsp
	mov	esp, ebp
	pop	ebp
	ret	0
??__E_ORANGE@@YAXXZ ENDP				; `dynamic initializer for '_ORANGE''
text$di	ENDS
; Function compile flags: /Odtp /RTCsu /ZI
; File c:\users\simon\documents\github\uclan-sparta\defines.h
;	COMDAT ??__E_GREEN@@YAXXZ
text$di	SEGMENT
??__E_GREEN@@YAXXZ PROC					; `dynamic initializer for '_GREEN'', COMDAT

; 81   : const DirectX::XMFLOAT3 _GREEN = DirectX::XMFLOAT3( 0.0f, 0.8f, 0.0f );

	push	ebp
	mov	ebp, esp
	sub	esp, 192				; 000000c0H
	push	ebx
	push	esi
	push	edi
	lea	edi, DWORD PTR [ebp-192]
	mov	ecx, 48					; 00000030H
	mov	eax, -858993460				; ccccccccH
	rep stosd
	push	ecx
	movss	xmm0, DWORD PTR __real@00000000
	movss	DWORD PTR [esp], xmm0
	push	ecx
	movss	xmm0, DWORD PTR __real@3f4ccccd
	movss	DWORD PTR [esp], xmm0
	push	ecx
	movss	xmm0, DWORD PTR __real@00000000
	movss	DWORD PTR [esp], xmm0
	mov	ecx, OFFSET __GREEN
	call	??0XMFLOAT3@DirectX@@QAE@MMM@Z		; DirectX::XMFLOAT3::XMFLOAT3
	pop	edi
	pop	esi
	pop	ebx
	add	esp, 192				; 000000c0H
	cmp	ebp, esp
	call	__RTC_CheckEsp
	mov	esp, ebp
	pop	ebp
	ret	0
??__E_GREEN@@YAXXZ ENDP					; `dynamic initializer for '_GREEN''
text$di	ENDS
; Function compile flags: /Odtp /RTCsu /ZI
; File c:\users\simon\documents\github\uclan-sparta\defines.h
;	COMDAT ??__E_RED@@YAXXZ
text$di	SEGMENT
??__E_RED@@YAXXZ PROC					; `dynamic initializer for '_RED'', COMDAT

; 80   : const DirectX::XMFLOAT3 _RED = DirectX::XMFLOAT3( 0.8f, 0.0f, 0.0f );

	push	ebp
	mov	ebp, esp
	sub	esp, 192				; 000000c0H
	push	ebx
	push	esi
	push	edi
	lea	edi, DWORD PTR [ebp-192]
	mov	ecx, 48					; 00000030H
	mov	eax, -858993460				; ccccccccH
	rep stosd
	push	ecx
	movss	xmm0, DWORD PTR __real@00000000
	movss	DWORD PTR [esp], xmm0
	push	ecx
	movss	xmm0, DWORD PTR __real@00000000
	movss	DWORD PTR [esp], xmm0
	push	ecx
	movss	xmm0, DWORD PTR __real@3f4ccccd
	movss	DWORD PTR [esp], xmm0
	mov	ecx, OFFSET __RED
	call	??0XMFLOAT3@DirectX@@QAE@MMM@Z		; DirectX::XMFLOAT3::XMFLOAT3
	pop	edi
	pop	esi
	pop	ebx
	add	esp, 192				; 000000c0H
	cmp	ebp, esp
	call	__RTC_CheckEsp
	mov	esp, ebp
	pop	ebp
	ret	0
??__E_RED@@YAXXZ ENDP					; `dynamic initializer for '_RED''
text$di	ENDS
; Function compile flags: /Odtp /RTCsu /ZI
; File c:\users\simon\documents\github\uclan-sparta\defines.h
;	COMDAT ??__E_WHITE@@YAXXZ
text$di	SEGMENT
??__E_WHITE@@YAXXZ PROC					; `dynamic initializer for '_WHITE'', COMDAT

; 79   : const DirectX::XMFLOAT3 _WHITE = DirectX::XMFLOAT3( 1.0f, 1.0f, 1.0f );

	push	ebp
	mov	ebp, esp
	sub	esp, 192				; 000000c0H
	push	ebx
	push	esi
	push	edi
	lea	edi, DWORD PTR [ebp-192]
	mov	ecx, 48					; 00000030H
	mov	eax, -858993460				; ccccccccH
	rep stosd
	push	ecx
	movss	xmm0, DWORD PTR __real@3f800000
	movss	DWORD PTR [esp], xmm0
	push	ecx
	movss	xmm0, DWORD PTR __real@3f800000
	movss	DWORD PTR [esp], xmm0
	push	ecx
	movss	xmm0, DWORD PTR __real@3f800000
	movss	DWORD PTR [esp], xmm0
	mov	ecx, OFFSET __WHITE
	call	??0XMFLOAT3@DirectX@@QAE@MMM@Z		; DirectX::XMFLOAT3::XMFLOAT3
	pop	edi
	pop	esi
	pop	ebx
	add	esp, 192				; 000000c0H
	cmp	ebp, esp
	call	__RTC_CheckEsp
	mov	esp, ebp
	pop	ebp
	ret	0
??__E_WHITE@@YAXXZ ENDP					; `dynamic initializer for '_WHITE''
text$di	ENDS
; Function compile flags: /Odtp /RTCsu /ZI
; File c:\users\simon\documents\github\uclan-sparta\defines.h
;	COMDAT ??__E_BLACK@@YAXXZ
text$di	SEGMENT
??__E_BLACK@@YAXXZ PROC					; `dynamic initializer for '_BLACK'', COMDAT

; 78   : const DirectX::XMFLOAT3 _BLACK = DirectX::XMFLOAT3( 0.0f, 0.0f, 0.0f );

	push	ebp
	mov	ebp, esp
	sub	esp, 192				; 000000c0H
	push	ebx
	push	esi
	push	edi
	lea	edi, DWORD PTR [ebp-192]
	mov	ecx, 48					; 00000030H
	mov	eax, -858993460				; ccccccccH
	rep stosd
	push	ecx
	movss	xmm0, DWORD PTR __real@00000000
	movss	DWORD PTR [esp], xmm0
	push	ecx
	movss	xmm0, DWORD PTR __real@00000000
	movss	DWORD PTR [esp], xmm0
	push	ecx
	movss	xmm0, DWORD PTR __real@00000000
	movss	DWORD PTR [esp], xmm0
	mov	ecx, OFFSET __BLACK
	call	??0XMFLOAT3@DirectX@@QAE@MMM@Z		; DirectX::XMFLOAT3::XMFLOAT3
	pop	edi
	pop	esi
	pop	ebx
	add	esp, 192				; 000000c0H
	cmp	ebp, esp
	call	__RTC_CheckEsp
	mov	esp, ebp
	pop	ebp
	ret	0
??__E_BLACK@@YAXXZ ENDP					; `dynamic initializer for '_BLACK''
text$di	ENDS
; Function compile flags: /Odtp /RTCsu /ZI
; File c:\users\simon\documents\github\uclan-sparta\defines.h
;	COMDAT ??__ENO_ROTATION@@YAXXZ
text$di	SEGMENT
??__ENO_ROTATION@@YAXXZ PROC				; `dynamic initializer for 'NO_ROTATION'', COMDAT

; 76   : const DirectX::XMFLOAT3 NO_ROTATION = DirectX::XMFLOAT3( 0.0f, 0.0f, 0.0f );

	push	ebp
	mov	ebp, esp
	sub	esp, 192				; 000000c0H
	push	ebx
	push	esi
	push	edi
	lea	edi, DWORD PTR [ebp-192]
	mov	ecx, 48					; 00000030H
	mov	eax, -858993460				; ccccccccH
	rep stosd
	push	ecx
	movss	xmm0, DWORD PTR __real@00000000
	movss	DWORD PTR [esp], xmm0
	push	ecx
	movss	xmm0, DWORD PTR __real@00000000
	movss	DWORD PTR [esp], xmm0
	push	ecx
	movss	xmm0, DWORD PTR __real@00000000
	movss	DWORD PTR [esp], xmm0
	mov	ecx, OFFSET _NO_ROTATION
	call	??0XMFLOAT3@DirectX@@QAE@MMM@Z		; DirectX::XMFLOAT3::XMFLOAT3
	pop	edi
	pop	esi
	pop	ebx
	add	esp, 192				; 000000c0H
	cmp	ebp, esp
	call	__RTC_CheckEsp
	mov	esp, ebp
	pop	ebp
	ret	0
??__ENO_ROTATION@@YAXXZ ENDP				; `dynamic initializer for 'NO_ROTATION''
text$di	ENDS
; Function compile flags: /Odtp /RTCsu /ZI
; File c:\users\simon\documents\github\uclan-sparta\defines.h
;	COMDAT ??__EORIGIN@@YAXXZ
text$di	SEGMENT
??__EORIGIN@@YAXXZ PROC					; `dynamic initializer for 'ORIGIN'', COMDAT

; 75   : const DirectX::XMFLOAT3 ORIGIN = DirectX::XMFLOAT3(0.0f,0.0f,0.0f);

	push	ebp
	mov	ebp, esp
	sub	esp, 192				; 000000c0H
	push	ebx
	push	esi
	push	edi
	lea	edi, DWORD PTR [ebp-192]
	mov	ecx, 48					; 00000030H
	mov	eax, -858993460				; ccccccccH
	rep stosd
	push	ecx
	movss	xmm0, DWORD PTR __real@00000000
	movss	DWORD PTR [esp], xmm0
	push	ecx
	movss	xmm0, DWORD PTR __real@00000000
	movss	DWORD PTR [esp], xmm0
	push	ecx
	movss	xmm0, DWORD PTR __real@00000000
	movss	DWORD PTR [esp], xmm0
	mov	ecx, OFFSET _ORIGIN
	call	??0XMFLOAT3@DirectX@@QAE@MMM@Z		; DirectX::XMFLOAT3::XMFLOAT3
	pop	edi
	pop	esi
	pop	ebx
	add	esp, 192				; 000000c0H
	cmp	ebp, esp
	call	__RTC_CheckEsp
	mov	esp, ebp
	pop	ebp
	ret	0
??__EORIGIN@@YAXXZ ENDP					; `dynamic initializer for 'ORIGIN''
text$di	ENDS
; Function compile flags: /Odtp /RTCsu /ZI
; File c:\users\simon\documents\github\uclan-sparta\defines.h
;	COMDAT ??__EZAXIS@@YAXXZ
text$di	SEGMENT
$T1 = -224						; size = 16
??__EZAXIS@@YAXXZ PROC					; `dynamic initializer for 'ZAXIS'', COMDAT

; 73   : const DirectX::XMVECTOR ZAXIS = DirectX::XMVectorSet(0.0f,0.0f,1.0f,1.0f);

	push	ebx
	mov	ebx, esp
	sub	esp, 8
	and	esp, -16				; fffffff0H
	add	esp, 4
	push	ebp
	mov	ebp, DWORD PTR [ebx+4]
	mov	DWORD PTR [esp+4], ebp
	mov	ebp, esp
	sub	esp, 232				; 000000e8H
	push	esi
	push	edi
	lea	edi, DWORD PTR [ebp-232]
	mov	ecx, 58					; 0000003aH
	mov	eax, -858993460				; ccccccccH
	rep stosd
	movss	xmm3, DWORD PTR __real@3f800000
	movss	xmm2, DWORD PTR __real@3f800000
	movss	xmm1, DWORD PTR __real@00000000
	movss	xmm0, DWORD PTR __real@00000000
	call	?XMVectorSet@DirectX@@YQ?AT__m128@@MMMM@Z ; DirectX::XMVectorSet
	movaps	XMMWORD PTR $T1[ebp], xmm0
	movaps	xmm0, XMMWORD PTR $T1[ebp]
	movaps	XMMWORD PTR _ZAXIS, xmm0
	pop	edi
	pop	esi
	mov	esp, ebp
	pop	ebp
	mov	esp, ebx
	pop	ebx
	ret	0
??__EZAXIS@@YAXXZ ENDP					; `dynamic initializer for 'ZAXIS''
text$di	ENDS
; Function compile flags: /Odtp /RTCsu /ZI
; File c:\users\simon\documents\github\uclan-sparta\defines.h
;	COMDAT ??__EYAXIS@@YAXXZ
text$di	SEGMENT
$T1 = -224						; size = 16
??__EYAXIS@@YAXXZ PROC					; `dynamic initializer for 'YAXIS'', COMDAT

; 72   : const DirectX::XMVECTOR YAXIS = DirectX::XMVectorSet(0.0f,1.0f,0.0f,1.0f);

	push	ebx
	mov	ebx, esp
	sub	esp, 8
	and	esp, -16				; fffffff0H
	add	esp, 4
	push	ebp
	mov	ebp, DWORD PTR [ebx+4]
	mov	DWORD PTR [esp+4], ebp
	mov	ebp, esp
	sub	esp, 232				; 000000e8H
	push	esi
	push	edi
	lea	edi, DWORD PTR [ebp-232]
	mov	ecx, 58					; 0000003aH
	mov	eax, -858993460				; ccccccccH
	rep stosd
	movss	xmm3, DWORD PTR __real@3f800000
	movss	xmm2, DWORD PTR __real@00000000
	movss	xmm1, DWORD PTR __real@3f800000
	movss	xmm0, DWORD PTR __real@00000000
	call	?XMVectorSet@DirectX@@YQ?AT__m128@@MMMM@Z ; DirectX::XMVectorSet
	movaps	XMMWORD PTR $T1[ebp], xmm0
	movaps	xmm0, XMMWORD PTR $T1[ebp]
	movaps	XMMWORD PTR _YAXIS, xmm0
	pop	edi
	pop	esi
	mov	esp, ebp
	pop	ebp
	mov	esp, ebx
	pop	ebx
	ret	0
??__EYAXIS@@YAXXZ ENDP					; `dynamic initializer for 'YAXIS''
text$di	ENDS
; Function compile flags: /Odtp /RTCsu /ZI
; File c:\users\simon\documents\github\uclan-sparta\defines.h
;	COMDAT ??__EXAXIS@@YAXXZ
text$di	SEGMENT
$T1 = -224						; size = 16
??__EXAXIS@@YAXXZ PROC					; `dynamic initializer for 'XAXIS'', COMDAT

; 71   : const DirectX::XMVECTOR XAXIS = DirectX::XMVectorSet(1.0f,0.0f,0.0f,1.0f);

	push	ebx
	mov	ebx, esp
	sub	esp, 8
	and	esp, -16				; fffffff0H
	add	esp, 4
	push	ebp
	mov	ebp, DWORD PTR [ebx+4]
	mov	DWORD PTR [esp+4], ebp
	mov	ebp, esp
	sub	esp, 232				; 000000e8H
	push	esi
	push	edi
	lea	edi, DWORD PTR [ebp-232]
	mov	ecx, 58					; 0000003aH
	mov	eax, -858993460				; ccccccccH
	rep stosd
	movss	xmm3, DWORD PTR __real@3f800000
	movss	xmm2, DWORD PTR __real@00000000
	movss	xmm1, DWORD PTR __real@00000000
	movss	xmm0, DWORD PTR __real@3f800000
	call	?XMVectorSet@DirectX@@YQ?AT__m128@@MMMM@Z ; DirectX::XMVectorSet
	movaps	XMMWORD PTR $T1[ebp], xmm0
	movaps	xmm0, XMMWORD PTR $T1[ebp]
	movaps	XMMWORD PTR _XAXIS, xmm0
	pop	edi
	pop	esi
	mov	esp, ebp
	pop	ebp
	mov	esp, ebx
	pop	ebx
	ret	0
??__EXAXIS@@YAXXZ ENDP					; `dynamic initializer for 'XAXIS''
text$di	ENDS
; Function compile flags: /Odtp /RTCsu /ZI
; File c:\program files (x86)\windows kits\8.1\include\um\directxmath.h
;	COMDAT ??__Eg_XMReciprocalTwoPi@DirectX@@YAXXZ
text$di	SEGMENT
??__Eg_XMReciprocalTwoPi@DirectX@@YAXXZ PROC		; DirectX::`dynamic initializer for 'g_XMReciprocalTwoPi'', COMDAT

; 1736 : XMGLOBALCONST XMVECTORF32 g_XMReciprocalTwoPi   = {XM_1DIV2PI, XM_1DIV2PI, XM_1DIV2PI, XM_1DIV2PI};

	push	ebp
	mov	ebp, esp
	sub	esp, 192				; 000000c0H
	push	ebx
	push	esi
	push	edi
	lea	edi, DWORD PTR [ebp-192]
	mov	ecx, 48					; 00000030H
	mov	eax, -858993460				; ccccccccH
	rep stosd
	movss	xmm0, DWORD PTR _XM_1DIV2PI
	movss	DWORD PTR ?g_XMReciprocalTwoPi@DirectX@@3UXMVECTORF32@1@B, xmm0
	movss	xmm0, DWORD PTR _XM_1DIV2PI
	movss	DWORD PTR ?g_XMReciprocalTwoPi@DirectX@@3UXMVECTORF32@1@B+4, xmm0
	movss	xmm0, DWORD PTR _XM_1DIV2PI
	movss	DWORD PTR ?g_XMReciprocalTwoPi@DirectX@@3UXMVECTORF32@1@B+8, xmm0
	movss	xmm0, DWORD PTR _XM_1DIV2PI
	movss	DWORD PTR ?g_XMReciprocalTwoPi@DirectX@@3UXMVECTORF32@1@B+12, xmm0
	pop	edi
	pop	esi
	pop	ebx
	mov	esp, ebp
	pop	ebp
	ret	0
??__Eg_XMReciprocalTwoPi@DirectX@@YAXXZ ENDP		; DirectX::`dynamic initializer for 'g_XMReciprocalTwoPi''
text$di	ENDS
; Function compile flags: /Odtp /RTCsu /ZI
; File c:\program files (x86)\windows kits\8.1\include\um\directxmath.h
;	COMDAT ??__Eg_XMTwoPi@DirectX@@YAXXZ
text$di	SEGMENT
??__Eg_XMTwoPi@DirectX@@YAXXZ PROC			; DirectX::`dynamic initializer for 'g_XMTwoPi'', COMDAT

; 1735 : XMGLOBALCONST XMVECTORF32 g_XMTwoPi             = {XM_2PI, XM_2PI, XM_2PI, XM_2PI};

	push	ebp
	mov	ebp, esp
	sub	esp, 192				; 000000c0H
	push	ebx
	push	esi
	push	edi
	lea	edi, DWORD PTR [ebp-192]
	mov	ecx, 48					; 00000030H
	mov	eax, -858993460				; ccccccccH
	rep stosd
	movss	xmm0, DWORD PTR _XM_2PI
	movss	DWORD PTR ?g_XMTwoPi@DirectX@@3UXMVECTORF32@1@B, xmm0
	movss	xmm0, DWORD PTR _XM_2PI
	movss	DWORD PTR ?g_XMTwoPi@DirectX@@3UXMVECTORF32@1@B+4, xmm0
	movss	xmm0, DWORD PTR _XM_2PI
	movss	DWORD PTR ?g_XMTwoPi@DirectX@@3UXMVECTORF32@1@B+8, xmm0
	movss	xmm0, DWORD PTR _XM_2PI
	movss	DWORD PTR ?g_XMTwoPi@DirectX@@3UXMVECTORF32@1@B+12, xmm0
	pop	edi
	pop	esi
	pop	ebx
	mov	esp, ebp
	pop	ebp
	ret	0
??__Eg_XMTwoPi@DirectX@@YAXXZ ENDP			; DirectX::`dynamic initializer for 'g_XMTwoPi''
text$di	ENDS
; Function compile flags: /Odtp /RTCsu /ZI
; File c:\program files (x86)\windows kits\8.1\include\um\directxmath.h
;	COMDAT ??__Eg_XMReciprocalPi@DirectX@@YAXXZ
text$di	SEGMENT
??__Eg_XMReciprocalPi@DirectX@@YAXXZ PROC		; DirectX::`dynamic initializer for 'g_XMReciprocalPi'', COMDAT

; 1734 : XMGLOBALCONST XMVECTORF32 g_XMReciprocalPi      = {XM_1DIVPI, XM_1DIVPI, XM_1DIVPI, XM_1DIVPI};

	push	ebp
	mov	ebp, esp
	sub	esp, 192				; 000000c0H
	push	ebx
	push	esi
	push	edi
	lea	edi, DWORD PTR [ebp-192]
	mov	ecx, 48					; 00000030H
	mov	eax, -858993460				; ccccccccH
	rep stosd
	movss	xmm0, DWORD PTR _XM_1DIVPI
	movss	DWORD PTR ?g_XMReciprocalPi@DirectX@@3UXMVECTORF32@1@B, xmm0
	movss	xmm0, DWORD PTR _XM_1DIVPI
	movss	DWORD PTR ?g_XMReciprocalPi@DirectX@@3UXMVECTORF32@1@B+4, xmm0
	movss	xmm0, DWORD PTR _XM_1DIVPI
	movss	DWORD PTR ?g_XMReciprocalPi@DirectX@@3UXMVECTORF32@1@B+8, xmm0
	movss	xmm0, DWORD PTR _XM_1DIVPI
	movss	DWORD PTR ?g_XMReciprocalPi@DirectX@@3UXMVECTORF32@1@B+12, xmm0
	pop	edi
	pop	esi
	pop	ebx
	mov	esp, ebp
	pop	ebp
	ret	0
??__Eg_XMReciprocalPi@DirectX@@YAXXZ ENDP		; DirectX::`dynamic initializer for 'g_XMReciprocalPi''
text$di	ENDS
; Function compile flags: /Odtp /RTCsu /ZI
; File c:\program files (x86)\windows kits\8.1\include\um\directxmath.h
;	COMDAT ??__Eg_XMPi@DirectX@@YAXXZ
text$di	SEGMENT
??__Eg_XMPi@DirectX@@YAXXZ PROC				; DirectX::`dynamic initializer for 'g_XMPi'', COMDAT

; 1733 : XMGLOBALCONST XMVECTORF32 g_XMPi                = {XM_PI, XM_PI, XM_PI, XM_PI};

	push	ebp
	mov	ebp, esp
	sub	esp, 192				; 000000c0H
	push	ebx
	push	esi
	push	edi
	lea	edi, DWORD PTR [ebp-192]
	mov	ecx, 48					; 00000030H
	mov	eax, -858993460				; ccccccccH
	rep stosd
	movss	xmm0, DWORD PTR _XM_PI
	movss	DWORD PTR ?g_XMPi@DirectX@@3UXMVECTORF32@1@B, xmm0
	movss	xmm0, DWORD PTR _XM_PI
	movss	DWORD PTR ?g_XMPi@DirectX@@3UXMVECTORF32@1@B+4, xmm0
	movss	xmm0, DWORD PTR _XM_PI
	movss	DWORD PTR ?g_XMPi@DirectX@@3UXMVECTORF32@1@B+8, xmm0
	movss	xmm0, DWORD PTR _XM_PI
	movss	DWORD PTR ?g_XMPi@DirectX@@3UXMVECTORF32@1@B+12, xmm0
	pop	edi
	pop	esi
	pop	ebx
	mov	esp, ebp
	pop	ebp
	ret	0
??__Eg_XMPi@DirectX@@YAXXZ ENDP				; DirectX::`dynamic initializer for 'g_XMPi''
text$di	ENDS
; Function compile flags: /Odtp /RTCsu /ZI
; File c:\program files (x86)\windows kits\8.1\include\um\directxmath.h
;	COMDAT ??__Eg_XMHalfPi@DirectX@@YAXXZ
text$di	SEGMENT
??__Eg_XMHalfPi@DirectX@@YAXXZ PROC			; DirectX::`dynamic initializer for 'g_XMHalfPi'', COMDAT

; 1732 : XMGLOBALCONST XMVECTORF32 g_XMHalfPi            = {XM_PIDIV2, XM_PIDIV2, XM_PIDIV2, XM_PIDIV2};

	push	ebp
	mov	ebp, esp
	sub	esp, 192				; 000000c0H
	push	ebx
	push	esi
	push	edi
	lea	edi, DWORD PTR [ebp-192]
	mov	ecx, 48					; 00000030H
	mov	eax, -858993460				; ccccccccH
	rep stosd
	movss	xmm0, DWORD PTR _XM_PIDIV2
	movss	DWORD PTR ?g_XMHalfPi@DirectX@@3UXMVECTORF32@1@B, xmm0
	movss	xmm0, DWORD PTR _XM_PIDIV2
	movss	DWORD PTR ?g_XMHalfPi@DirectX@@3UXMVECTORF32@1@B+4, xmm0
	movss	xmm0, DWORD PTR _XM_PIDIV2
	movss	DWORD PTR ?g_XMHalfPi@DirectX@@3UXMVECTORF32@1@B+8, xmm0
	movss	xmm0, DWORD PTR _XM_PIDIV2
	movss	DWORD PTR ?g_XMHalfPi@DirectX@@3UXMVECTORF32@1@B+12, xmm0
	pop	edi
	pop	esi
	pop	ebx
	mov	esp, ebp
	pop	ebp
	ret	0
??__Eg_XMHalfPi@DirectX@@YAXXZ ENDP			; DirectX::`dynamic initializer for 'g_XMHalfPi''
text$di	ENDS
; Function compile flags: /Odtp /RTCsu /ZI
; File c:\program files (x86)\windows kits\8.1\include\um\directxmath.h
;	COMDAT ??__Eg_XMNegativePi@DirectX@@YAXXZ
text$di	SEGMENT
??__Eg_XMNegativePi@DirectX@@YAXXZ PROC			; DirectX::`dynamic initializer for 'g_XMNegativePi'', COMDAT

; 1731 : XMGLOBALCONST XMVECTORF32 g_XMNegativePi        = {-XM_PI, -XM_PI, -XM_PI, -XM_PI};

	push	ebp
	mov	ebp, esp
	sub	esp, 192				; 000000c0H
	push	ebx
	push	esi
	push	edi
	lea	edi, DWORD PTR [ebp-192]
	mov	ecx, 48					; 00000030H
	mov	eax, -858993460				; ccccccccH
	rep stosd
	movss	xmm0, DWORD PTR _XM_PI
	xorps	xmm0, DWORD PTR __xmm@80000000800000008000000080000000
	movss	DWORD PTR ?g_XMNegativePi@DirectX@@3UXMVECTORF32@1@B, xmm0
	movss	xmm0, DWORD PTR _XM_PI
	xorps	xmm0, DWORD PTR __xmm@80000000800000008000000080000000
	movss	DWORD PTR ?g_XMNegativePi@DirectX@@3UXMVECTORF32@1@B+4, xmm0
	movss	xmm0, DWORD PTR _XM_PI
	xorps	xmm0, DWORD PTR __xmm@80000000800000008000000080000000
	movss	DWORD PTR ?g_XMNegativePi@DirectX@@3UXMVECTORF32@1@B+8, xmm0
	movss	xmm0, DWORD PTR _XM_PI
	xorps	xmm0, DWORD PTR __xmm@80000000800000008000000080000000
	movss	DWORD PTR ?g_XMNegativePi@DirectX@@3UXMVECTORF32@1@B+12, xmm0
	pop	edi
	pop	esi
	pop	ebx
	mov	esp, ebp
	pop	ebp
	ret	0
??__Eg_XMNegativePi@DirectX@@YAXXZ ENDP			; DirectX::`dynamic initializer for 'g_XMNegativePi''
text$di	ENDS
; Function compile flags: /Odtp /RTCsu /ZI
; File c:\program files (x86)\windows kits\8.1\include\um\directxmath.h
;	COMDAT ??__Eg_XMNegativeTwoPi@DirectX@@YAXXZ
text$di	SEGMENT
??__Eg_XMNegativeTwoPi@DirectX@@YAXXZ PROC		; DirectX::`dynamic initializer for 'g_XMNegativeTwoPi'', COMDAT

; 1730 : XMGLOBALCONST XMVECTORF32 g_XMNegativeTwoPi     = {-XM_2PI, -XM_2PI, -XM_2PI, -XM_2PI};

	push	ebp
	mov	ebp, esp
	sub	esp, 192				; 000000c0H
	push	ebx
	push	esi
	push	edi
	lea	edi, DWORD PTR [ebp-192]
	mov	ecx, 48					; 00000030H
	mov	eax, -858993460				; ccccccccH
	rep stosd
	movss	xmm0, DWORD PTR _XM_2PI
	xorps	xmm0, DWORD PTR __xmm@80000000800000008000000080000000
	movss	DWORD PTR ?g_XMNegativeTwoPi@DirectX@@3UXMVECTORF32@1@B, xmm0
	movss	xmm0, DWORD PTR _XM_2PI
	xorps	xmm0, DWORD PTR __xmm@80000000800000008000000080000000
	movss	DWORD PTR ?g_XMNegativeTwoPi@DirectX@@3UXMVECTORF32@1@B+4, xmm0
	movss	xmm0, DWORD PTR _XM_2PI
	xorps	xmm0, DWORD PTR __xmm@80000000800000008000000080000000
	movss	DWORD PTR ?g_XMNegativeTwoPi@DirectX@@3UXMVECTORF32@1@B+8, xmm0
	movss	xmm0, DWORD PTR _XM_2PI
	xorps	xmm0, DWORD PTR __xmm@80000000800000008000000080000000
	movss	DWORD PTR ?g_XMNegativeTwoPi@DirectX@@3UXMVECTORF32@1@B+12, xmm0
	pop	edi
	pop	esi
	pop	ebx
	mov	esp, ebp
	pop	ebp
	ret	0
??__Eg_XMNegativeTwoPi@DirectX@@YAXXZ ENDP		; DirectX::`dynamic initializer for 'g_XMNegativeTwoPi''
text$di	ENDS
; Function compile flags: /Odtp /RTCsu /ZI
; File c:\program files (x86)\windows kits\8.1\include\um\directxmath.h
;	COMDAT ??__Eg_XMPiConstants0@DirectX@@YAXXZ
text$di	SEGMENT
??__Eg_XMPiConstants0@DirectX@@YAXXZ PROC		; DirectX::`dynamic initializer for 'g_XMPiConstants0'', COMDAT

; 1705 : XMGLOBALCONST XMVECTORF32 g_XMPiConstants0        = {XM_PI, XM_2PI, XM_1DIVPI, XM_1DIV2PI};

	push	ebp
	mov	ebp, esp
	sub	esp, 192				; 000000c0H
	push	ebx
	push	esi
	push	edi
	lea	edi, DWORD PTR [ebp-192]
	mov	ecx, 48					; 00000030H
	mov	eax, -858993460				; ccccccccH
	rep stosd
	movss	xmm0, DWORD PTR _XM_PI
	movss	DWORD PTR ?g_XMPiConstants0@DirectX@@3UXMVECTORF32@1@B, xmm0
	movss	xmm0, DWORD PTR _XM_2PI
	movss	DWORD PTR ?g_XMPiConstants0@DirectX@@3UXMVECTORF32@1@B+4, xmm0
	movss	xmm0, DWORD PTR _XM_1DIVPI
	movss	DWORD PTR ?g_XMPiConstants0@DirectX@@3UXMVECTORF32@1@B+8, xmm0
	movss	xmm0, DWORD PTR _XM_1DIV2PI
	movss	DWORD PTR ?g_XMPiConstants0@DirectX@@3UXMVECTORF32@1@B+12, xmm0
	pop	edi
	pop	esi
	pop	ebx
	mov	esp, ebp
	pop	ebp
	ret	0
??__Eg_XMPiConstants0@DirectX@@YAXXZ ENDP		; DirectX::`dynamic initializer for 'g_XMPiConstants0''
text$di	ENDS
; Function compile flags: /Odtp /RTCsu /ZI
; File c:\program files (x86)\windows kits\8.1\include\um\directxmath.h
;	COMDAT ??__Eg_XMTanEstCoefficients@DirectX@@YAXXZ
text$di	SEGMENT
??__Eg_XMTanEstCoefficients@DirectX@@YAXXZ PROC		; DirectX::`dynamic initializer for 'g_XMTanEstCoefficients'', COMDAT

; 1703 : XMGLOBALCONST XMVECTORF32 g_XMTanEstCoefficients  = {2.484f, -1.954923183e-1f, 2.467401101f, XM_1DIVPI};

	push	ebp
	mov	ebp, esp
	sub	esp, 192				; 000000c0H
	push	ebx
	push	esi
	push	edi
	lea	edi, DWORD PTR [ebp-192]
	mov	ecx, 48					; 00000030H
	mov	eax, -858993460				; ccccccccH
	rep stosd
	movss	xmm0, DWORD PTR _XM_1DIVPI
	movss	DWORD PTR ?g_XMTanEstCoefficients@DirectX@@3UXMVECTORF32@1@B+12, xmm0
	pop	edi
	pop	esi
	pop	ebx
	mov	esp, ebp
	pop	ebp
	ret	0
??__Eg_XMTanEstCoefficients@DirectX@@YAXXZ ENDP		; DirectX::`dynamic initializer for 'g_XMTanEstCoefficients''
text$di	ENDS
; Function compile flags: /Odtp /RTCsu /ZI
; File c:\program files (x86)\windows kits\8.1\include\um\directxmathmisc.inl
;	COMDAT ?XMScalarSinCos@DirectX@@YAXPAM0M@Z
_TEXT	SEGMENT
_p$ = -56						; size = 4
_y2$ = -44						; size = 4
_sign$ = -32						; size = 4
_y$ = -20						; size = 4
_quotient$ = -8						; size = 4
_pSin$ = 8						; size = 4
_pCos$ = 12						; size = 4
_Value$ = 16						; size = 4
?XMScalarSinCos@DirectX@@YAXPAM0M@Z PROC		; DirectX::XMScalarSinCos, COMDAT

; 2340 : {

	push	ebp
	mov	ebp, esp
	sub	esp, 252				; 000000fcH
	push	ebx
	push	esi
	push	edi
	lea	edi, DWORD PTR [ebp-252]
	mov	ecx, 63					; 0000003fH
	mov	eax, -858993460				; ccccccccH
	rep stosd

; 2341 :     assert(pSin);

	cmp	DWORD PTR _pSin$[ebp], 0
	jne	SHORT $LN9@XMScalarSi
	mov	eax, DWORD PTR ?__LINE__Var@?1??XMScalarSinCos@DirectX@@YAXPAM0M@Z@4JA
	add	eax, 1
	push	eax
	push	OFFSET ??_C@_1IO@CGGKMODJ@?$AAc?$AA?3?$AA?2?$AAp?$AAr?$AAo?$AAg?$AAr?$AAa?$AAm?$AA?5?$AAf?$AAi?$AAl?$AAe?$AAs?$AA?5?$AA?$CI?$AAx?$AA8?$AA6?$AA?$CJ?$AA?2?$AAw?$AAi?$AAn?$AAd?$AAo?$AAw?$AAs?$AA?5?$AAk@
	push	OFFSET ??_C@_19MFJHDIJG@?$AAp?$AAS?$AAi?$AAn?$AA?$AA@
	call	__wassert
	add	esp, 12					; 0000000cH
$LN9@XMScalarSi:

; 2342 :     assert(pCos);

	cmp	DWORD PTR _pCos$[ebp], 0
	jne	SHORT $LN10@XMScalarSi
	mov	eax, DWORD PTR ?__LINE__Var@?1??XMScalarSinCos@DirectX@@YAXPAM0M@Z@4JA
	add	eax, 2
	push	eax
	push	OFFSET ??_C@_1IO@CGGKMODJ@?$AAc?$AA?3?$AA?2?$AAp?$AAr?$AAo?$AAg?$AAr?$AAa?$AAm?$AA?5?$AAf?$AAi?$AAl?$AAe?$AAs?$AA?5?$AA?$CI?$AAx?$AA8?$AA6?$AA?$CJ?$AA?2?$AAw?$AAi?$AAn?$AAd?$AAo?$AAw?$AAs?$AA?5?$AAk@
	push	OFFSET ??_C@_19MNAGGFOC@?$AAp?$AAC?$AAo?$AAs?$AA?$AA@
	call	__wassert
	add	esp, 12					; 0000000cH
$LN10@XMScalarSi:

; 2343 : 
; 2344 :     // Map Value to y in [-pi,pi], x = 2*pi*quotient + remainder.
; 2345 :     float quotient = XM_1DIV2PI*Value;

	movss	xmm0, DWORD PTR _XM_1DIV2PI
	mulss	xmm0, DWORD PTR _Value$[ebp]
	movss	DWORD PTR _quotient$[ebp], xmm0

; 2346 :     if (Value >= 0.0f)

	movss	xmm0, DWORD PTR _Value$[ebp]
	comiss	xmm0, DWORD PTR __real@00000000
	jb	SHORT $LN6@XMScalarSi

; 2347 :     {
; 2348 :         quotient = (float)((int)(quotient + 0.5f));

	movss	xmm0, DWORD PTR _quotient$[ebp]
	addss	xmm0, DWORD PTR __real@3f000000
	cvttss2si eax, xmm0
	cvtsi2ss xmm0, eax
	movss	DWORD PTR _quotient$[ebp], xmm0

; 2349 :     }
; 2350 :     else

	jmp	SHORT $LN5@XMScalarSi
$LN6@XMScalarSi:

; 2351 :     {
; 2352 :         quotient = (float)((int)(quotient - 0.5f));

	movss	xmm0, DWORD PTR _quotient$[ebp]
	subss	xmm0, DWORD PTR __real@3f000000
	cvttss2si eax, xmm0
	cvtsi2ss xmm0, eax
	movss	DWORD PTR _quotient$[ebp], xmm0
$LN5@XMScalarSi:

; 2353 :     }
; 2354 :     float y = Value - XM_2PI*quotient;

	movss	xmm0, DWORD PTR _XM_2PI
	mulss	xmm0, DWORD PTR _quotient$[ebp]
	movss	xmm1, DWORD PTR _Value$[ebp]
	subss	xmm1, xmm0
	movss	DWORD PTR _y$[ebp], xmm1

; 2355 : 
; 2356 :     // Map y to [-pi/2,pi/2] with sin(y) = sin(Value).
; 2357 :     float sign;
; 2358 :     if (y > XM_PIDIV2)

	movss	xmm0, DWORD PTR _y$[ebp]
	comiss	xmm0, DWORD PTR _XM_PIDIV2
	jbe	SHORT $LN4@XMScalarSi

; 2359 :     {
; 2360 :         y = XM_PI - y;

	movss	xmm0, DWORD PTR _XM_PI
	subss	xmm0, DWORD PTR _y$[ebp]
	movss	DWORD PTR _y$[ebp], xmm0

; 2361 :         sign = -1.0f;

	movss	xmm0, DWORD PTR __real@bf800000
	movss	DWORD PTR _sign$[ebp], xmm0
	jmp	SHORT $LN1@XMScalarSi
$LN4@XMScalarSi:

; 2362 :     }
; 2363 :     else if (y < -XM_PIDIV2)

	movss	xmm0, DWORD PTR _XM_PIDIV2
	xorps	xmm0, DWORD PTR __xmm@80000000800000008000000080000000
	comiss	xmm0, DWORD PTR _y$[ebp]
	jbe	SHORT $LN2@XMScalarSi

; 2364 :     {
; 2365 :         y = -XM_PI - y;

	movss	xmm0, DWORD PTR _XM_PI
	xorps	xmm0, DWORD PTR __xmm@80000000800000008000000080000000
	subss	xmm0, DWORD PTR _y$[ebp]
	movss	DWORD PTR _y$[ebp], xmm0

; 2366 :         sign = -1.0f;

	movss	xmm0, DWORD PTR __real@bf800000
	movss	DWORD PTR _sign$[ebp], xmm0

; 2367 :     }
; 2368 :     else

	jmp	SHORT $LN1@XMScalarSi
$LN2@XMScalarSi:

; 2369 :     {
; 2370 :         sign = +1.0f;

	movss	xmm0, DWORD PTR __real@3f800000
	movss	DWORD PTR _sign$[ebp], xmm0
$LN1@XMScalarSi:

; 2371 :     }
; 2372 : 
; 2373 :     float y2 = y * y;

	movss	xmm0, DWORD PTR _y$[ebp]
	mulss	xmm0, DWORD PTR _y$[ebp]
	movss	DWORD PTR _y2$[ebp], xmm0

; 2374 : 
; 2375 :     // 11-degree minimax approximation
; 2376 :     *pSin = ( ( ( ( (-2.3889859e-08f * y2 + 2.7525562e-06f) * y2 - 0.00019840874f ) * y2 + 0.0083333310f ) * y2 - 0.16666667f ) * y2 + 1.0f ) * y;

	movss	xmm0, DWORD PTR __real@b2cd365b
	mulss	xmm0, DWORD PTR _y2$[ebp]
	addss	xmm0, DWORD PTR __real@3638b88e
	mulss	xmm0, DWORD PTR _y2$[ebp]
	subss	xmm0, DWORD PTR __real@39500bf1
	mulss	xmm0, DWORD PTR _y2$[ebp]
	addss	xmm0, DWORD PTR __real@3c088886
	mulss	xmm0, DWORD PTR _y2$[ebp]
	subss	xmm0, DWORD PTR __real@3e2aaaab
	mulss	xmm0, DWORD PTR _y2$[ebp]
	addss	xmm0, DWORD PTR __real@3f800000
	mulss	xmm0, DWORD PTR _y$[ebp]
	mov	eax, DWORD PTR _pSin$[ebp]
	movss	DWORD PTR [eax], xmm0

; 2377 : 
; 2378 :     // 10-degree minimax approximation
; 2379 :     float p = ( ( ( ( -2.6051615e-07f * y2 + 2.4760495e-05f ) * y2 - 0.0013888378f ) * y2 + 0.041666638f ) * y2 - 0.5f ) * y2 + 1.0f;

	movss	xmm0, DWORD PTR __real@b48bdd11
	mulss	xmm0, DWORD PTR _y2$[ebp]
	addss	xmm0, DWORD PTR __real@37cfb4c2
	mulss	xmm0, DWORD PTR _y2$[ebp]
	subss	xmm0, DWORD PTR __real@3ab609aa
	mulss	xmm0, DWORD PTR _y2$[ebp]
	addss	xmm0, DWORD PTR __real@3d2aaaa3
	mulss	xmm0, DWORD PTR _y2$[ebp]
	subss	xmm0, DWORD PTR __real@3f000000
	mulss	xmm0, DWORD PTR _y2$[ebp]
	addss	xmm0, DWORD PTR __real@3f800000
	movss	DWORD PTR _p$[ebp], xmm0

; 2380 :     *pCos = sign*p;

	movss	xmm0, DWORD PTR _sign$[ebp]
	mulss	xmm0, DWORD PTR _p$[ebp]
	mov	eax, DWORD PTR _pCos$[ebp]
	movss	DWORD PTR [eax], xmm0

; 2381 : }

	pop	edi
	pop	esi
	pop	ebx
	add	esp, 252				; 000000fcH
	cmp	ebp, esp
	call	__RTC_CheckEsp
	mov	esp, ebp
	pop	ebp
	ret	0
?XMScalarSinCos@DirectX@@YAXPAM0M@Z ENDP		; DirectX::XMScalarSinCos
_TEXT	ENDS
; Function compile flags: /Odtp /RTCsu /ZI
; File c:\program files (x86)\windows kits\8.1\include\um\directxmathmisc.inl
;	COMDAT ?XMScalarNearEqual@DirectX@@YA_NMMM@Z
_TEXT	SEGMENT
tv68 = -212						; size = 4
tv76 = -208						; size = 4
_Delta$ = -8						; size = 4
_S1$ = 8						; size = 4
_S2$ = 12						; size = 4
_Epsilon$ = 16						; size = 4
?XMScalarNearEqual@DirectX@@YA_NMMM@Z PROC		; DirectX::XMScalarNearEqual, COMDAT

; 2150 : {

	push	ebp
	mov	ebp, esp
	sub	esp, 212				; 000000d4H
	push	ebx
	push	esi
	push	edi
	lea	edi, DWORD PTR [ebp-212]
	mov	ecx, 53					; 00000035H
	mov	eax, -858993460				; ccccccccH
	rep stosd

; 2151 :     float Delta = S1 - S2;

	movss	xmm0, DWORD PTR _S1$[ebp]
	subss	xmm0, DWORD PTR _S2$[ebp]
	movss	DWORD PTR _Delta$[ebp], xmm0

; 2152 :     return (fabsf(Delta) <= Epsilon);

	push	ecx
	movss	xmm0, DWORD PTR _Delta$[ebp]
	movss	DWORD PTR [esp], xmm0
	call	_fabsf
	add	esp, 4
	fstp	DWORD PTR tv76[ebp]
	movss	xmm0, DWORD PTR _Epsilon$[ebp]
	comiss	xmm0, DWORD PTR tv76[ebp]
	jb	SHORT $LN3@XMScalarNe
	mov	DWORD PTR tv68[ebp], 1
	jmp	SHORT $LN4@XMScalarNe
$LN3@XMScalarNe:
	mov	DWORD PTR tv68[ebp], 0
$LN4@XMScalarNe:
	mov	al, BYTE PTR tv68[ebp]

; 2153 : }

	pop	edi
	pop	esi
	pop	ebx
	add	esp, 212				; 000000d4H
	cmp	ebp, esp
	call	__RTC_CheckEsp
	mov	esp, ebp
	pop	ebp
	ret	0
?XMScalarNearEqual@DirectX@@YA_NMMM@Z ENDP		; DirectX::XMScalarNearEqual
_TEXT	ENDS
; Function compile flags: /Odtp /RTCsu /ZI
; File c:\program files (x86)\windows kits\8.1\include\um\directxmathmatrix.inl
;	COMDAT ?XMMatrixPerspectiveFovLH@DirectX@@YQ?AUXMMATRIX@1@MMMM@Z
_TEXT	SEGMENT
$T1 = -752						; size = 16
$T2 = -720						; size = 16
$T3 = -688						; size = 16
$T4 = -656						; size = 16
$T5 = -624						; size = 16
$T6 = -592						; size = 16
$T7 = -560						; size = 16
$T8 = -528						; size = 16
$T9 = -496						; size = 16
_M$ = -272						; size = 64
_vTemp$ = -192						; size = 16
_vValues$ = -160					; size = 16
_rMem$ = -128						; size = 16
_Height$ = -96						; size = 4
_fRange$ = -84						; size = 4
_CosFov$ = -72						; size = 4
_SinFov$ = -60						; size = 4
_FarZ$ = -48						; size = 4
_NearZ$ = -36						; size = 4
_AspectHByW$ = -24					; size = 4
_FovAngleY$ = -12					; size = 4
__$ArrayPad$ = -4					; size = 4
?XMMatrixPerspectiveFovLH@DirectX@@YQ?AUXMMATRIX@1@MMMM@Z PROC ; DirectX::XMMatrixPerspectiveFovLH, COMDAT
; _FovAngleY$ = xmm0s
; _AspectHByW$ = xmm1s
; _NearZ$ = xmm2s
; _FarZ$ = xmm3s

; 2177 : {

	push	ebx
	mov	ebx, esp
	sub	esp, 8
	and	esp, -16				; fffffff0H
	add	esp, 4
	push	ebp
	mov	ebp, DWORD PTR [ebx+4]
	mov	DWORD PTR [esp+4], ebp
	mov	ebp, esp
	sub	esp, 760				; 000002f8H
	push	esi
	push	edi
	push	ecx
	lea	edi, DWORD PTR [ebp-760]
	mov	ecx, 190				; 000000beH
	mov	eax, -858993460				; ccccccccH
	rep stosd
	pop	ecx
	mov	eax, DWORD PTR ___security_cookie
	xor	eax, ebp
	mov	DWORD PTR __$ArrayPad$[ebp], eax
	movss	DWORD PTR _FarZ$[ebp], xmm3
	movss	DWORD PTR _NearZ$[ebp], xmm2
	movss	DWORD PTR _AspectHByW$[ebp], xmm1
	movss	DWORD PTR _FovAngleY$[ebp], xmm0

; 2178 :     assert(!XMScalarNearEqual(FovAngleY, 0.0f, 0.00001f * 2.0f));

	push	ecx
	movss	xmm0, DWORD PTR __real@37a7c5ac
	movss	DWORD PTR [esp], xmm0
	push	ecx
	movss	xmm0, DWORD PTR __real@00000000
	movss	DWORD PTR [esp], xmm0
	push	ecx
	movss	xmm0, DWORD PTR _FovAngleY$[ebp]
	movss	DWORD PTR [esp], xmm0
	call	?XMScalarNearEqual@DirectX@@YA_NMMM@Z	; DirectX::XMScalarNearEqual
	add	esp, 12					; 0000000cH
	movzx	eax, al
	test	eax, eax
	je	SHORT $LN3@XMMatrixPe
	mov	ecx, DWORD PTR ?__LINE__Var@?1??XMMatrixPerspectiveFovLH@DirectX@@YQ?AUXMMATRIX@2@MMMM@Z@4JA
	add	ecx, 1
	push	ecx
	push	OFFSET ??_C@_1JC@EJCKKKJP@?$AAc?$AA?3?$AA?2?$AAp?$AAr?$AAo?$AAg?$AAr?$AAa?$AAm?$AA?5?$AAf?$AAi?$AAl?$AAe?$AAs?$AA?5?$AA?$CI?$AAx?$AA8?$AA6?$AA?$CJ?$AA?2?$AAw?$AAi?$AAn?$AAd?$AAo?$AAw?$AAs?$AA?5?$AAk@
	push	OFFSET ??_C@_1GK@EFPMNDEN@?$AA?$CB?$AAX?$AAM?$AAS?$AAc?$AAa?$AAl?$AAa?$AAr?$AAN?$AAe?$AAa?$AAr?$AAE?$AAq?$AAu?$AAa?$AAl?$AA?$CI?$AAF?$AAo?$AAv?$AAA?$AAn?$AAg?$AAl?$AAe?$AAY?$AA?0?$AA?5?$AA0?$AA?4@
	call	__wassert
	add	esp, 12					; 0000000cH
$LN3@XMMatrixPe:

; 2179 :     assert(!XMScalarNearEqual(AspectHByW, 0.0f, 0.00001f));

	push	ecx
	movss	xmm0, DWORD PTR __real@3727c5ac
	movss	DWORD PTR [esp], xmm0
	push	ecx
	movss	xmm0, DWORD PTR __real@00000000
	movss	DWORD PTR [esp], xmm0
	push	ecx
	movss	xmm0, DWORD PTR _AspectHByW$[ebp]
	movss	DWORD PTR [esp], xmm0
	call	?XMScalarNearEqual@DirectX@@YA_NMMM@Z	; DirectX::XMScalarNearEqual
	add	esp, 12					; 0000000cH
	movzx	eax, al
	test	eax, eax
	je	SHORT $LN4@XMMatrixPe
	mov	ecx, DWORD PTR ?__LINE__Var@?1??XMMatrixPerspectiveFovLH@DirectX@@YQ?AUXMMATRIX@2@MMMM@Z@4JA
	add	ecx, 2
	push	ecx
	push	OFFSET ??_C@_1JC@EJCKKKJP@?$AAc?$AA?3?$AA?2?$AAp?$AAr?$AAo?$AAg?$AAr?$AAa?$AAm?$AA?5?$AAf?$AAi?$AAl?$AAe?$AAs?$AA?5?$AA?$CI?$AAx?$AA8?$AA6?$AA?$CJ?$AA?2?$AAw?$AAi?$AAn?$AAd?$AAo?$AAw?$AAs?$AA?5?$AAk@
	push	OFFSET ??_C@_1FO@IACFEINC@?$AA?$CB?$AAX?$AAM?$AAS?$AAc?$AAa?$AAl?$AAa?$AAr?$AAN?$AAe?$AAa?$AAr?$AAE?$AAq?$AAu?$AAa?$AAl?$AA?$CI?$AAA?$AAs?$AAp?$AAe?$AAc?$AAt?$AAH?$AAB?$AAy?$AAW?$AA?0?$AA?5?$AA0@
	call	__wassert
	add	esp, 12					; 0000000cH
$LN4@XMMatrixPe:

; 2180 :     assert(!XMScalarNearEqual(FarZ, NearZ, 0.00001f));

	push	ecx
	movss	xmm0, DWORD PTR __real@3727c5ac
	movss	DWORD PTR [esp], xmm0
	push	ecx
	movss	xmm0, DWORD PTR _NearZ$[ebp]
	movss	DWORD PTR [esp], xmm0
	push	ecx
	movss	xmm0, DWORD PTR _FarZ$[ebp]
	movss	DWORD PTR [esp], xmm0
	call	?XMScalarNearEqual@DirectX@@YA_NMMM@Z	; DirectX::XMScalarNearEqual
	add	esp, 12					; 0000000cH
	movzx	eax, al
	test	eax, eax
	je	SHORT $LN5@XMMatrixPe
	mov	ecx, DWORD PTR ?__LINE__Var@?1??XMMatrixPerspectiveFovLH@DirectX@@YQ?AUXMMATRIX@2@MMMM@Z@4JA
	add	ecx, 3
	push	ecx
	push	OFFSET ??_C@_1JC@EJCKKKJP@?$AAc?$AA?3?$AA?2?$AAp?$AAr?$AAo?$AAg?$AAr?$AAa?$AAm?$AA?5?$AAf?$AAi?$AAl?$AAe?$AAs?$AA?5?$AA?$CI?$AAx?$AA8?$AA6?$AA?$CJ?$AA?2?$AAw?$AAi?$AAn?$AAd?$AAo?$AAw?$AAs?$AA?5?$AAk@
	push	OFFSET ??_C@_1FE@IMEJOJAH@?$AA?$CB?$AAX?$AAM?$AAS?$AAc?$AAa?$AAl?$AAa?$AAr?$AAN?$AAe?$AAa?$AAr?$AAE?$AAq?$AAu?$AAa?$AAl?$AA?$CI?$AAF?$AAa?$AAr?$AAZ?$AA?0?$AA?5?$AAN?$AAe?$AAa?$AAr?$AAZ?$AA?0?$AA?5@
	call	__wassert
	add	esp, 12					; 0000000cH
$LN5@XMMatrixPe:

; 2181 : 
; 2182 : #if defined(_XM_NO_INTRINSICS_)
; 2183 : 
; 2184 :     float    SinFov;
; 2185 :     float    CosFov;
; 2186 :     XMScalarSinCos(&SinFov, &CosFov, 0.5f * FovAngleY);
; 2187 : 
; 2188 :     float Height = CosFov / SinFov;
; 2189 :     float Width = Height / AspectHByW;
; 2190 :     float fRange = FarZ / (FarZ-NearZ);
; 2191 : 
; 2192 :     XMMATRIX M;
; 2193 :     M.m[0][0] = Width;
; 2194 :     M.m[0][1] = 0.0f;
; 2195 :     M.m[0][2] = 0.0f;
; 2196 :     M.m[0][3] = 0.0f;
; 2197 : 
; 2198 :     M.m[1][0] = 0.0f;
; 2199 :     M.m[1][1] = Height;
; 2200 :     M.m[1][2] = 0.0f;
; 2201 :     M.m[1][3] = 0.0f;
; 2202 : 
; 2203 :     M.m[2][0] = 0.0f;
; 2204 :     M.m[2][1] = 0.0f;
; 2205 :     M.m[2][2] = fRange;
; 2206 :     M.m[2][3] = 1.0f;
; 2207 : 
; 2208 :     M.m[3][0] = 0.0f;
; 2209 :     M.m[3][1] = 0.0f;
; 2210 :     M.m[3][2] = -fRange * NearZ;
; 2211 :     M.m[3][3] = 0.0f;
; 2212 :     return M;
; 2213 : 
; 2214 : #elif defined(_XM_ARM_NEON_INTRINSICS_)
; 2215 :     float    SinFov;
; 2216 :     float    CosFov;
; 2217 :     XMScalarSinCos(&SinFov, &CosFov, 0.5f * FovAngleY);
; 2218 : 
; 2219 :     float fRange = FarZ / (FarZ-NearZ);
; 2220 :     float Height = CosFov / SinFov;
; 2221 :     float Width = Height / AspectHByW;
; 2222 :     const XMVECTOR Zero = vdupq_n_f32(0);
; 2223 : 
; 2224 :     XMMATRIX M;
; 2225 :     M.r[0] = vsetq_lane_f32( Width, Zero, 0 );
; 2226 :     M.r[1] = vsetq_lane_f32( Height, Zero, 1 );
; 2227 :     M.r[2] = vsetq_lane_f32( fRange, g_XMIdentityR3.v, 2 );
; 2228 :     M.r[3] = vsetq_lane_f32( -fRange * NearZ, Zero, 2 );
; 2229 :     return M;
; 2230 : #elif defined(_XM_SSE_INTRINSICS_)
; 2231 :     float    SinFov;
; 2232 :     float    CosFov;
; 2233 :     XMScalarSinCos(&SinFov, &CosFov, 0.5f * FovAngleY);

	movss	xmm0, DWORD PTR __real@3f000000
	mulss	xmm0, DWORD PTR _FovAngleY$[ebp]
	push	ecx
	movss	DWORD PTR [esp], xmm0
	lea	eax, DWORD PTR _CosFov$[ebp]
	push	eax
	lea	ecx, DWORD PTR _SinFov$[ebp]
	push	ecx
	call	?XMScalarSinCos@DirectX@@YAXPAM0M@Z	; DirectX::XMScalarSinCos
	add	esp, 12					; 0000000cH

; 2234 : 
; 2235 :     float fRange = FarZ / (FarZ-NearZ);

	movss	xmm0, DWORD PTR _FarZ$[ebp]
	subss	xmm0, DWORD PTR _NearZ$[ebp]
	movss	xmm1, DWORD PTR _FarZ$[ebp]
	divss	xmm1, xmm0
	movss	DWORD PTR _fRange$[ebp], xmm1

; 2236 :     // Note: This is recorded on the stack
; 2237 :     float Height = CosFov / SinFov;

	movss	xmm0, DWORD PTR _CosFov$[ebp]
	divss	xmm0, DWORD PTR _SinFov$[ebp]
	movss	DWORD PTR _Height$[ebp], xmm0

; 2238 :     XMVECTOR rMem = {
; 2239 :         Height / AspectHByW,
; 2240 :         Height,
; 2241 :         fRange,
; 2242 :         -fRange * NearZ
; 2243 :     };

	movss	xmm0, DWORD PTR _Height$[ebp]
	divss	xmm0, DWORD PTR _AspectHByW$[ebp]
	movss	DWORD PTR _rMem$[ebp], xmm0
	movss	xmm0, DWORD PTR _Height$[ebp]
	movss	DWORD PTR _rMem$[ebp+4], xmm0
	movss	xmm0, DWORD PTR _fRange$[ebp]
	movss	DWORD PTR _rMem$[ebp+8], xmm0
	movss	xmm0, DWORD PTR _fRange$[ebp]
	xorps	xmm0, DWORD PTR __xmm@80000000800000008000000080000000
	mulss	xmm0, DWORD PTR _NearZ$[ebp]
	movss	DWORD PTR _rMem$[ebp+12], xmm0

; 2244 :     // Copy from memory to SSE register
; 2245 :     XMVECTOR vValues = rMem;

	movaps	xmm0, XMMWORD PTR _rMem$[ebp]
	movaps	XMMWORD PTR _vValues$[ebp], xmm0

; 2246 :     XMVECTOR vTemp = _mm_setzero_ps(); 

	xorps	xmm0, xmm0
	movaps	XMMWORD PTR $T1[ebp], xmm0
	movaps	xmm0, XMMWORD PTR $T1[ebp]
	movaps	XMMWORD PTR _vTemp$[ebp], xmm0

; 2247 :     // Copy x only
; 2248 :     vTemp = _mm_move_ss(vTemp,vValues);

	movaps	xmm0, XMMWORD PTR _vValues$[ebp]
	movaps	xmm1, XMMWORD PTR _vTemp$[ebp]
	_movss	xmm1, xmm0
	movaps	XMMWORD PTR $T2[ebp], xmm1
	movaps	xmm0, XMMWORD PTR $T2[ebp]
	movaps	XMMWORD PTR _vTemp$[ebp], xmm0

; 2249 :     // CosFov / SinFov,0,0,0
; 2250 :     XMMATRIX M;

	lea	ecx, DWORD PTR _M$[ebp]
	call	??0XMMATRIX@DirectX@@QAE@XZ		; DirectX::XMMATRIX::XMMATRIX

; 2251 :     M.r[0] = vTemp;

	mov	eax, 16					; 00000010H
	imul	ecx, eax, 0
	movups	xmm0, XMMWORD PTR _vTemp$[ebp]
	movups	XMMWORD PTR _M$[ebp+ecx], xmm0

; 2252 :     // 0,Height / AspectHByW,0,0
; 2253 :     vTemp = vValues;

	movaps	xmm0, XMMWORD PTR _vValues$[ebp]
	movaps	XMMWORD PTR _vTemp$[ebp], xmm0

; 2254 :     vTemp = _mm_and_ps(vTemp,g_XMMaskY);

	lea	eax, DWORD PTR $T3[ebp]
	push	eax
	mov	ecx, OFFSET ?g_XMMaskY@DirectX@@3UXMVECTORI32@1@B ; DirectX::g_XMMaskY
	call	??BXMVECTORI32@DirectX@@QBE?AT__m128@@XZ ; DirectX::XMVECTORI32::operator __m128
	movups	xmm0, XMMWORD PTR [eax]
	movaps	xmm1, XMMWORD PTR _vTemp$[ebp]
	andps	xmm1, xmm0
	movaps	XMMWORD PTR $T4[ebp], xmm1
	movaps	xmm0, XMMWORD PTR $T4[ebp]
	movaps	XMMWORD PTR _vTemp$[ebp], xmm0

; 2255 :     M.r[1] = vTemp;

	mov	eax, 16					; 00000010H
	shl	eax, 0
	movups	xmm0, XMMWORD PTR _vTemp$[ebp]
	movups	XMMWORD PTR _M$[ebp+eax], xmm0

; 2256 :     // x=fRange,y=-fRange * NearZ,0,1.0f
; 2257 :     vTemp = _mm_setzero_ps();

	xorps	xmm0, xmm0
	movaps	XMMWORD PTR $T5[ebp], xmm0
	movaps	xmm0, XMMWORD PTR $T5[ebp]
	movaps	XMMWORD PTR _vTemp$[ebp], xmm0

; 2258 :     vValues = _mm_shuffle_ps(vValues,g_XMIdentityR3,_MM_SHUFFLE(3,2,3,2));

	lea	eax, DWORD PTR $T6[ebp]
	push	eax
	mov	ecx, OFFSET ?g_XMIdentityR3@DirectX@@3UXMVECTORF32@1@B ; DirectX::g_XMIdentityR3
	call	??BXMVECTORF32@DirectX@@QBE?AT__m128@@XZ ; DirectX::XMVECTORF32::operator __m128
	movups	xmm0, XMMWORD PTR [eax]
	movaps	xmm1, XMMWORD PTR _vValues$[ebp]
	shufps	xmm1, xmm0, 238				; 000000eeH
	movaps	XMMWORD PTR $T7[ebp], xmm1
	movaps	xmm0, XMMWORD PTR $T7[ebp]
	movaps	XMMWORD PTR _vValues$[ebp], xmm0

; 2259 :     // 0,0,fRange,1.0f
; 2260 :     vTemp = _mm_shuffle_ps(vTemp,vValues,_MM_SHUFFLE(3,0,0,0));

	movaps	xmm0, XMMWORD PTR _vTemp$[ebp]
	shufps	xmm0, XMMWORD PTR _vValues$[ebp], 192	; 000000c0H
	movaps	XMMWORD PTR $T8[ebp], xmm0
	movaps	xmm0, XMMWORD PTR $T8[ebp]
	movaps	XMMWORD PTR _vTemp$[ebp], xmm0

; 2261 :     M.r[2] = vTemp;

	mov	eax, 16					; 00000010H
	shl	eax, 1
	movups	xmm0, XMMWORD PTR _vTemp$[ebp]
	movups	XMMWORD PTR _M$[ebp+eax], xmm0

; 2262 :     // 0,0,-fRange * NearZ,0.0f
; 2263 :     vTemp = _mm_shuffle_ps(vTemp,vValues,_MM_SHUFFLE(2,1,0,0));

	movaps	xmm0, XMMWORD PTR _vTemp$[ebp]
	shufps	xmm0, XMMWORD PTR _vValues$[ebp], 144	; 00000090H
	movaps	XMMWORD PTR $T9[ebp], xmm0
	movaps	xmm0, XMMWORD PTR $T9[ebp]
	movaps	XMMWORD PTR _vTemp$[ebp], xmm0

; 2264 :     M.r[3] = vTemp;

	mov	eax, 16					; 00000010H
	imul	ecx, eax, 3
	movups	xmm0, XMMWORD PTR _vTemp$[ebp]
	movups	XMMWORD PTR _M$[ebp+ecx], xmm0

; 2265 :     return M;

	movaps	xmm0, XMMWORD PTR _M$[ebp]
	movaps	xmm1, XMMWORD PTR _M$[ebp+16]
	movaps	xmm2, XMMWORD PTR _M$[ebp+32]
	movaps	xmm3, XMMWORD PTR _M$[ebp+48]

; 2266 : #else // _XM_VMX128_INTRINSICS_
; 2267 : #endif // _XM_VMX128_INTRINSICS_
; 2268 : }

	push	edx
	mov	ecx, ebp
	push	eax
	lea	edx, DWORD PTR $LN10@XMMatrixPe
	call	@_RTC_CheckStackVars@8
	pop	eax
	pop	edx
	pop	edi
	pop	esi
	mov	ecx, DWORD PTR __$ArrayPad$[ebp]
	xor	ecx, ebp
	call	@__security_check_cookie@4
	mov	esp, ebp
	pop	ebp
	mov	esp, ebx
	pop	ebx
	ret	0
	npad	1
$LN10@XMMatrixPe:
	DD	3
	DD	$LN9@XMMatrixPe
$LN9@XMMatrixPe:
	DD	-60					; ffffffc4H
	DD	4
	DD	$LN6@XMMatrixPe
	DD	-72					; ffffffb8H
	DD	4
	DD	$LN7@XMMatrixPe
	DD	-272					; fffffef0H
	DD	64					; 00000040H
	DD	$LN8@XMMatrixPe
$LN8@XMMatrixPe:
	DB	77					; 0000004dH
	DB	0
$LN7@XMMatrixPe:
	DB	67					; 00000043H
	DB	111					; 0000006fH
	DB	115					; 00000073H
	DB	70					; 00000046H
	DB	111					; 0000006fH
	DB	118					; 00000076H
	DB	0
$LN6@XMMatrixPe:
	DB	83					; 00000053H
	DB	105					; 00000069H
	DB	110					; 0000006eH
	DB	70					; 00000046H
	DB	111					; 0000006fH
	DB	118					; 00000076H
	DB	0
?XMMatrixPerspectiveFovLH@DirectX@@YQ?AUXMMATRIX@1@MMMM@Z ENDP ; DirectX::XMMatrixPerspectiveFovLH
_TEXT	ENDS
; Function compile flags: /Odtp /RTCsu /ZI
; File c:\program files (x86)\windows kits\8.1\include\um\directxmathmatrix.inl
;	COMDAT ?XMMatrixRotationAxis@DirectX@@YQ?AUXMMATRIX@1@T__m128@@M@Z
_TEXT	SEGMENT
$T1 = -496						; size = 64
$T2 = -416						; size = 16
$T3 = -384						; size = 16
$T4 = -352						; size = 64
_Normal$ = -80						; size = 16
_Angle$ = -44						; size = 4
_Axis$ = -32						; size = 16
__$ArrayPad$ = -4					; size = 4
?XMMatrixRotationAxis@DirectX@@YQ?AUXMMATRIX@1@T__m128@@M@Z PROC ; DirectX::XMMatrixRotationAxis, COMDAT
; _Axis$ = xmm0
; _Angle$ = xmm1s

; 1612 : {

	push	ebx
	mov	ebx, esp
	sub	esp, 8
	and	esp, -16				; fffffff0H
	add	esp, 4
	push	ebp
	mov	ebp, DWORD PTR [ebx+4]
	mov	DWORD PTR [esp+4], ebp
	mov	ebp, esp
	sub	esp, 504				; 000001f8H
	push	esi
	push	edi
	push	ecx
	lea	edi, DWORD PTR [ebp-504]
	mov	ecx, 126				; 0000007eH
	mov	eax, -858993460				; ccccccccH
	rep stosd
	pop	ecx
	mov	eax, DWORD PTR ___security_cookie
	xor	eax, ebp
	mov	DWORD PTR __$ArrayPad$[ebp], eax
	movss	DWORD PTR _Angle$[ebp], xmm1
	movaps	XMMWORD PTR _Axis$[ebp], xmm0

; 1613 :     assert(!XMVector3Equal(Axis, XMVectorZero()));

	call	?XMVectorZero@DirectX@@YQ?AT__m128@@XZ	; DirectX::XMVectorZero
	movaps	XMMWORD PTR $T2[ebp], xmm0
	movaps	xmm1, XMMWORD PTR $T2[ebp]
	movaps	xmm0, XMMWORD PTR _Axis$[ebp]
	call	?XMVector3Equal@DirectX@@YQ_NT__m128@@0@Z ; DirectX::XMVector3Equal
	movzx	eax, al
	test	eax, eax
	je	SHORT $LN3@XMMatrixRo
	mov	ecx, DWORD PTR ?__LINE__Var@?1??XMMatrixRotationAxis@DirectX@@YQ?AUXMMATRIX@2@T__m128@@M@Z@4JA
	add	ecx, 1
	push	ecx
	push	OFFSET ??_C@_1JC@EJCKKKJP@?$AAc?$AA?3?$AA?2?$AAp?$AAr?$AAo?$AAg?$AAr?$AAa?$AAm?$AA?5?$AAf?$AAi?$AAl?$AAe?$AAs?$AA?5?$AA?$CI?$AAx?$AA8?$AA6?$AA?$CJ?$AA?2?$AAw?$AAi?$AAn?$AAd?$AAo?$AAw?$AAs?$AA?5?$AAk@
	push	OFFSET ??_C@_1EM@PGKKLAMD@?$AA?$CB?$AAX?$AAM?$AAV?$AAe?$AAc?$AAt?$AAo?$AAr?$AA3?$AAE?$AAq?$AAu?$AAa?$AAl?$AA?$CI?$AAA?$AAx?$AAi?$AAs?$AA?0?$AA?5?$AAX?$AAM?$AAV?$AAe?$AAc?$AAt?$AAo?$AAr?$AAZ?$AAe@
	call	__wassert
	add	esp, 12					; 0000000cH
$LN3@XMMatrixRo:

; 1614 :     assert(!XMVector3IsInfinite(Axis));

	movaps	xmm0, XMMWORD PTR _Axis$[ebp]
	call	?XMVector3IsInfinite@DirectX@@YQ_NT__m128@@@Z ; DirectX::XMVector3IsInfinite
	movzx	eax, al
	test	eax, eax
	je	SHORT $LN4@XMMatrixRo
	mov	ecx, DWORD PTR ?__LINE__Var@?1??XMMatrixRotationAxis@DirectX@@YQ?AUXMMATRIX@2@T__m128@@M@Z@4JA
	add	ecx, 2
	push	ecx
	push	OFFSET ??_C@_1JC@EJCKKKJP@?$AAc?$AA?3?$AA?2?$AAp?$AAr?$AAo?$AAg?$AAr?$AAa?$AAm?$AA?5?$AAf?$AAi?$AAl?$AAe?$AAs?$AA?5?$AA?$CI?$AAx?$AA8?$AA6?$AA?$CJ?$AA?2?$AAw?$AAi?$AAn?$AAd?$AAo?$AAw?$AAs?$AA?5?$AAk@
	push	OFFSET ??_C@_1DG@LLGFAECG@?$AA?$CB?$AAX?$AAM?$AAV?$AAe?$AAc?$AAt?$AAo?$AAr?$AA3?$AAI?$AAs?$AAI?$AAn?$AAf?$AAi?$AAn?$AAi?$AAt?$AAe?$AA?$CI?$AAA?$AAx?$AAi?$AAs?$AA?$CJ?$AA?$AA@
	call	__wassert
	add	esp, 12					; 0000000cH
$LN4@XMMatrixRo:

; 1615 : 
; 1616 : #if defined(_XM_NO_INTRINSICS_) || defined(_XM_SSE_INTRINSICS_) || defined(_XM_ARM_NEON_INTRINSICS_)
; 1617 : 
; 1618 :     XMVECTOR Normal = XMVector3Normalize(Axis);

	movaps	xmm0, XMMWORD PTR _Axis$[ebp]
	call	?XMVector3Normalize@DirectX@@YQ?AT__m128@@T2@@Z ; DirectX::XMVector3Normalize
	movaps	XMMWORD PTR $T3[ebp], xmm0
	movaps	xmm0, XMMWORD PTR $T3[ebp]
	movaps	XMMWORD PTR _Normal$[ebp], xmm0

; 1619 :     return XMMatrixRotationNormal(Normal, Angle);

	movaps	xmm0, XMMWORD PTR _Normal$[ebp]
	movss	xmm1, DWORD PTR _Angle$[ebp]
	call	?XMMatrixRotationNormal@DirectX@@YQ?AUXMMATRIX@1@T__m128@@M@Z ; DirectX::XMMatrixRotationNormal
	movaps	XMMWORD PTR $T1[ebp+48], xmm3
	movaps	XMMWORD PTR $T1[ebp+32], xmm2
	movaps	XMMWORD PTR $T1[ebp+16], xmm1
	movaps	XMMWORD PTR $T1[ebp], xmm0
	mov	ecx, 16					; 00000010H
	lea	esi, DWORD PTR $T1[ebp]
	lea	edi, DWORD PTR $T4[ebp]
	rep movsd
	movaps	xmm0, XMMWORD PTR $T4[ebp]
	movaps	xmm1, XMMWORD PTR $T4[ebp+16]
	movaps	xmm2, XMMWORD PTR $T4[ebp+32]
	movaps	xmm3, XMMWORD PTR $T4[ebp+48]

; 1620 : 
; 1621 : #else // _XM_VMX128_INTRINSICS_
; 1622 : #endif // _XM_VMX128_INTRINSICS_
; 1623 : }

	pop	edi
	pop	esi
	mov	ecx, DWORD PTR __$ArrayPad$[ebp]
	xor	ecx, ebp
	call	@__security_check_cookie@4
	mov	esp, ebp
	pop	ebp
	mov	esp, ebx
	pop	ebx
	ret	0
?XMMatrixRotationAxis@DirectX@@YQ?AUXMMATRIX@1@T__m128@@M@Z ENDP ; DirectX::XMMatrixRotationAxis
_TEXT	ENDS
; Function compile flags: /Odtp /RTCsu /ZI
; File c:\program files (x86)\windows kits\8.1\include\um\directxmathmatrix.inl
;	COMDAT ?XMMatrixRotationNormal@DirectX@@YQ?AUXMMATRIX@1@T__m128@@M@Z
_TEXT	SEGMENT
$T1 = -1488						; size = 16
$T2 = -1456						; size = 16
$T3 = -1424						; size = 16
$T4 = -1392						; size = 16
$T5 = -1360						; size = 16
$T6 = -1328						; size = 16
$T7 = -1296						; size = 16
$T8 = -1264						; size = 16
$T9 = -1232						; size = 16
$T10 = -1200						; size = 16
$T11 = -1168						; size = 16
$T12 = -1136						; size = 16
$T13 = -1104						; size = 16
$T14 = -1072						; size = 16
$T15 = -1040						; size = 16
$T16 = -1008						; size = 16
$T17 = -976						; size = 16
$T18 = -944						; size = 16
$T19 = -912						; size = 16
$T20 = -880						; size = 16
$T21 = -848						; size = 16
$T22 = -816						; size = 16
$T23 = -784						; size = 16
$T24 = -752						; size = 16
$T25 = -720						; size = 16
_M$ = -496						; size = 64
_V2$ = -416						; size = 16
_V1$ = -384						; size = 16
_R2$ = -352						; size = 16
_R1$ = -320						; size = 16
_R0$ = -288						; size = 16
_V0$ = -256						; size = 16
_N1$ = -224						; size = 16
_N0$ = -192						; size = 16
_C0$ = -160						; size = 16
_C1$ = -128						; size = 16
_C2$ = -96						; size = 16
_fCosAngle$ = -68					; size = 4
_fSinAngle$ = -56					; size = 4
_Angle$ = -44						; size = 4
_NormalAxis$ = -32					; size = 16
__$ArrayPad$ = -4					; size = 4
?XMMatrixRotationNormal@DirectX@@YQ?AUXMMATRIX@1@T__m128@@M@Z PROC ; DirectX::XMMatrixRotationNormal, COMDAT
; _NormalAxis$ = xmm0
; _Angle$ = xmm1s

; 1521 : {

	push	ebx
	mov	ebx, esp
	sub	esp, 8
	and	esp, -16				; fffffff0H
	add	esp, 4
	push	ebp
	mov	ebp, DWORD PTR [ebx+4]
	mov	DWORD PTR [esp+4], ebp
	mov	ebp, esp
	sub	esp, 1496				; 000005d8H
	push	esi
	push	edi
	push	ecx
	lea	edi, DWORD PTR [ebp-1496]
	mov	ecx, 374				; 00000176H
	mov	eax, -858993460				; ccccccccH
	rep stosd
	pop	ecx
	mov	eax, DWORD PTR ___security_cookie
	xor	eax, ebp
	mov	DWORD PTR __$ArrayPad$[ebp], eax
	movss	DWORD PTR _Angle$[ebp], xmm1
	movaps	XMMWORD PTR _NormalAxis$[ebp], xmm0

; 1522 : #if defined(_XM_NO_INTRINSICS_) || defined(_XM_ARM_NEON_INTRINSICS_)
; 1523 : 
; 1524 :     float    fSinAngle;
; 1525 :     float    fCosAngle;
; 1526 :     XMScalarSinCos(&fSinAngle, &fCosAngle, Angle);
; 1527 : 
; 1528 :     XMVECTOR A = XMVectorSet(fSinAngle, fCosAngle, 1.0f - fCosAngle, 0.0f);
; 1529 : 
; 1530 :     XMVECTOR C2 = XMVectorSplatZ(A);
; 1531 :     XMVECTOR C1 = XMVectorSplatY(A);
; 1532 :     XMVECTOR C0 = XMVectorSplatX(A);
; 1533 : 
; 1534 :     XMVECTOR N0 = XMVectorSwizzle<XM_SWIZZLE_Y, XM_SWIZZLE_Z, XM_SWIZZLE_X, XM_SWIZZLE_W>(NormalAxis);
; 1535 :     XMVECTOR N1 = XMVectorSwizzle<XM_SWIZZLE_Z, XM_SWIZZLE_X, XM_SWIZZLE_Y, XM_SWIZZLE_W>(NormalAxis);
; 1536 : 
; 1537 :     XMVECTOR V0 = XMVectorMultiply(C2, N0);
; 1538 :     V0 = XMVectorMultiply(V0, N1);
; 1539 : 
; 1540 :     XMVECTOR R0 = XMVectorMultiply(C2, NormalAxis);
; 1541 :     R0 = XMVectorMultiplyAdd(R0, NormalAxis, C1);
; 1542 : 
; 1543 :     XMVECTOR R1 = XMVectorMultiplyAdd(C0, NormalAxis, V0);
; 1544 :     XMVECTOR R2 = XMVectorNegativeMultiplySubtract(C0, NormalAxis, V0);
; 1545 : 
; 1546 :     V0 = XMVectorSelect(A, R0, g_XMSelect1110.v);
; 1547 :     XMVECTOR V1 = XMVectorPermute<XM_PERMUTE_0Z, XM_PERMUTE_1Y, XM_PERMUTE_1Z, XM_PERMUTE_0X>(R1, R2);
; 1548 :     XMVECTOR V2 = XMVectorPermute<XM_PERMUTE_0Y, XM_PERMUTE_1X, XM_PERMUTE_0Y, XM_PERMUTE_1X>(R1, R2);
; 1549 : 
; 1550 :     XMMATRIX M;
; 1551 :     M.r[0] = XMVectorPermute<XM_PERMUTE_0X, XM_PERMUTE_1X, XM_PERMUTE_1Y, XM_PERMUTE_0W>(V0, V1);
; 1552 :     M.r[1] = XMVectorPermute<XM_PERMUTE_1Z, XM_PERMUTE_0Y, XM_PERMUTE_1W, XM_PERMUTE_0W>(V0, V1);
; 1553 :     M.r[2] = XMVectorPermute<XM_PERMUTE_1X, XM_PERMUTE_1Y, XM_PERMUTE_0Z, XM_PERMUTE_0W>(V0, V2);
; 1554 :     M.r[3] = g_XMIdentityR3.v;
; 1555 :     return M;
; 1556 : 
; 1557 : #elif defined(_XM_SSE_INTRINSICS_)
; 1558 :     float    fSinAngle;
; 1559 :     float    fCosAngle;
; 1560 :     XMScalarSinCos(&fSinAngle, &fCosAngle, Angle);

	push	ecx
	movss	xmm0, DWORD PTR _Angle$[ebp]
	movss	DWORD PTR [esp], xmm0
	lea	eax, DWORD PTR _fCosAngle$[ebp]
	push	eax
	lea	ecx, DWORD PTR _fSinAngle$[ebp]
	push	ecx
	call	?XMScalarSinCos@DirectX@@YAXPAM0M@Z	; DirectX::XMScalarSinCos
	add	esp, 12					; 0000000cH

; 1561 : 
; 1562 :     XMVECTOR C2 = _mm_set_ps1(1.0f - fCosAngle);

	movss	xmm0, DWORD PTR __real@3f800000
	subss	xmm0, DWORD PTR _fCosAngle$[ebp]
	movss	xmm0, xmm0
	shufps	xmm0, xmm0, 0
	movaps	XMMWORD PTR $T1[ebp], xmm0
	movaps	xmm0, XMMWORD PTR $T1[ebp]
	movaps	XMMWORD PTR _C2$[ebp], xmm0

; 1563 :     XMVECTOR C1 = _mm_set_ps1(fCosAngle);

	movss	xmm0, DWORD PTR _fCosAngle$[ebp]
	shufps	xmm0, xmm0, 0
	movaps	XMMWORD PTR $T2[ebp], xmm0
	movaps	xmm0, XMMWORD PTR $T2[ebp]
	movaps	XMMWORD PTR _C1$[ebp], xmm0

; 1564 :     XMVECTOR C0 = _mm_set_ps1(fSinAngle);

	movss	xmm0, DWORD PTR _fSinAngle$[ebp]
	shufps	xmm0, xmm0, 0
	movaps	XMMWORD PTR $T3[ebp], xmm0
	movaps	xmm0, XMMWORD PTR $T3[ebp]
	movaps	XMMWORD PTR _C0$[ebp], xmm0

; 1565 : 
; 1566 :     XMVECTOR N0 = XM_PERMUTE_PS(NormalAxis,_MM_SHUFFLE(3,0,2,1));

	movaps	xmm0, XMMWORD PTR _NormalAxis$[ebp]
	shufps	xmm0, XMMWORD PTR _NormalAxis$[ebp], 201 ; 000000c9H
	movaps	XMMWORD PTR $T4[ebp], xmm0
	movaps	xmm0, XMMWORD PTR $T4[ebp]
	movaps	XMMWORD PTR _N0$[ebp], xmm0

; 1567 :     XMVECTOR N1 = XM_PERMUTE_PS(NormalAxis,_MM_SHUFFLE(3,1,0,2));

	movaps	xmm0, XMMWORD PTR _NormalAxis$[ebp]
	shufps	xmm0, XMMWORD PTR _NormalAxis$[ebp], 210 ; 000000d2H
	movaps	XMMWORD PTR $T5[ebp], xmm0
	movaps	xmm0, XMMWORD PTR $T5[ebp]
	movaps	XMMWORD PTR _N1$[ebp], xmm0

; 1568 : 
; 1569 :     XMVECTOR V0 = _mm_mul_ps(C2, N0);

	movaps	xmm0, XMMWORD PTR _C2$[ebp]
	mulps	xmm0, XMMWORD PTR _N0$[ebp]
	movaps	XMMWORD PTR $T6[ebp], xmm0
	movaps	xmm0, XMMWORD PTR $T6[ebp]
	movaps	XMMWORD PTR _V0$[ebp], xmm0

; 1570 :     V0 = _mm_mul_ps(V0, N1);

	movaps	xmm0, XMMWORD PTR _V0$[ebp]
	mulps	xmm0, XMMWORD PTR _N1$[ebp]
	movaps	XMMWORD PTR $T7[ebp], xmm0
	movaps	xmm0, XMMWORD PTR $T7[ebp]
	movaps	XMMWORD PTR _V0$[ebp], xmm0

; 1571 : 
; 1572 :     XMVECTOR R0 = _mm_mul_ps(C2, NormalAxis);

	movaps	xmm0, XMMWORD PTR _C2$[ebp]
	mulps	xmm0, XMMWORD PTR _NormalAxis$[ebp]
	movaps	XMMWORD PTR $T8[ebp], xmm0
	movaps	xmm0, XMMWORD PTR $T8[ebp]
	movaps	XMMWORD PTR _R0$[ebp], xmm0

; 1573 :     R0 = _mm_mul_ps(R0, NormalAxis);

	movaps	xmm0, XMMWORD PTR _R0$[ebp]
	mulps	xmm0, XMMWORD PTR _NormalAxis$[ebp]
	movaps	XMMWORD PTR $T9[ebp], xmm0
	movaps	xmm0, XMMWORD PTR $T9[ebp]
	movaps	XMMWORD PTR _R0$[ebp], xmm0

; 1574 :     R0 = _mm_add_ps(R0, C1);

	movaps	xmm0, XMMWORD PTR _R0$[ebp]
	addps	xmm0, XMMWORD PTR _C1$[ebp]
	movaps	XMMWORD PTR $T10[ebp], xmm0
	movaps	xmm0, XMMWORD PTR $T10[ebp]
	movaps	XMMWORD PTR _R0$[ebp], xmm0

; 1575 : 
; 1576 :     XMVECTOR R1 = _mm_mul_ps(C0, NormalAxis);

	movaps	xmm0, XMMWORD PTR _C0$[ebp]
	mulps	xmm0, XMMWORD PTR _NormalAxis$[ebp]
	movaps	XMMWORD PTR $T11[ebp], xmm0
	movaps	xmm0, XMMWORD PTR $T11[ebp]
	movaps	XMMWORD PTR _R1$[ebp], xmm0

; 1577 :     R1 = _mm_add_ps(R1, V0);

	movaps	xmm0, XMMWORD PTR _R1$[ebp]
	addps	xmm0, XMMWORD PTR _V0$[ebp]
	movaps	XMMWORD PTR $T12[ebp], xmm0
	movaps	xmm0, XMMWORD PTR $T12[ebp]
	movaps	XMMWORD PTR _R1$[ebp], xmm0

; 1578 :     XMVECTOR R2 = _mm_mul_ps(C0, NormalAxis);

	movaps	xmm0, XMMWORD PTR _C0$[ebp]
	mulps	xmm0, XMMWORD PTR _NormalAxis$[ebp]
	movaps	XMMWORD PTR $T13[ebp], xmm0
	movaps	xmm0, XMMWORD PTR $T13[ebp]
	movaps	XMMWORD PTR _R2$[ebp], xmm0

; 1579 :     R2 = _mm_sub_ps(V0,R2);

	movaps	xmm0, XMMWORD PTR _V0$[ebp]
	subps	xmm0, XMMWORD PTR _R2$[ebp]
	movaps	XMMWORD PTR $T14[ebp], xmm0
	movaps	xmm0, XMMWORD PTR $T14[ebp]
	movaps	XMMWORD PTR _R2$[ebp], xmm0

; 1580 : 
; 1581 :     V0 = _mm_and_ps(R0,g_XMMask3);

	lea	eax, DWORD PTR $T15[ebp]
	push	eax
	mov	ecx, OFFSET ?g_XMMask3@DirectX@@3UXMVECTORI32@1@B ; DirectX::g_XMMask3
	call	??BXMVECTORI32@DirectX@@QBE?AT__m128@@XZ ; DirectX::XMVECTORI32::operator __m128
	movups	xmm0, XMMWORD PTR [eax]
	movaps	xmm1, XMMWORD PTR _R0$[ebp]
	andps	xmm1, xmm0
	movaps	XMMWORD PTR $T16[ebp], xmm1
	movaps	xmm0, XMMWORD PTR $T16[ebp]
	movaps	XMMWORD PTR _V0$[ebp], xmm0

; 1582 :     XMVECTOR V1 = _mm_shuffle_ps(R1,R2,_MM_SHUFFLE(2,1,2,0));

	movaps	xmm0, XMMWORD PTR _R1$[ebp]
	shufps	xmm0, XMMWORD PTR _R2$[ebp], 152	; 00000098H
	movaps	XMMWORD PTR $T17[ebp], xmm0
	movaps	xmm0, XMMWORD PTR $T17[ebp]
	movaps	XMMWORD PTR _V1$[ebp], xmm0

; 1583 :     V1 = XM_PERMUTE_PS(V1,_MM_SHUFFLE(0,3,2,1));

	movaps	xmm0, XMMWORD PTR _V1$[ebp]
	shufps	xmm0, XMMWORD PTR _V1$[ebp], 57		; 00000039H
	movaps	XMMWORD PTR $T18[ebp], xmm0
	movaps	xmm0, XMMWORD PTR $T18[ebp]
	movaps	XMMWORD PTR _V1$[ebp], xmm0

; 1584 :     XMVECTOR V2 = _mm_shuffle_ps(R1,R2,_MM_SHUFFLE(0,0,1,1));

	movaps	xmm0, XMMWORD PTR _R1$[ebp]
	shufps	xmm0, XMMWORD PTR _R2$[ebp], 5
	movaps	XMMWORD PTR $T19[ebp], xmm0
	movaps	xmm0, XMMWORD PTR $T19[ebp]
	movaps	XMMWORD PTR _V2$[ebp], xmm0

; 1585 :     V2 = XM_PERMUTE_PS(V2,_MM_SHUFFLE(2,0,2,0));

	movaps	xmm0, XMMWORD PTR _V2$[ebp]
	shufps	xmm0, XMMWORD PTR _V2$[ebp], 136	; 00000088H
	movaps	XMMWORD PTR $T20[ebp], xmm0
	movaps	xmm0, XMMWORD PTR $T20[ebp]
	movaps	XMMWORD PTR _V2$[ebp], xmm0

; 1586 : 
; 1587 :     R2 = _mm_shuffle_ps(V0,V1,_MM_SHUFFLE(1,0,3,0));

	movaps	xmm0, XMMWORD PTR _V0$[ebp]
	shufps	xmm0, XMMWORD PTR _V1$[ebp], 76		; 0000004cH
	movaps	XMMWORD PTR $T21[ebp], xmm0
	movaps	xmm0, XMMWORD PTR $T21[ebp]
	movaps	XMMWORD PTR _R2$[ebp], xmm0

; 1588 :     R2 = XM_PERMUTE_PS(R2,_MM_SHUFFLE(1,3,2,0));

	movaps	xmm0, XMMWORD PTR _R2$[ebp]
	shufps	xmm0, XMMWORD PTR _R2$[ebp], 120	; 00000078H
	movaps	XMMWORD PTR $T22[ebp], xmm0
	movaps	xmm0, XMMWORD PTR $T22[ebp]
	movaps	XMMWORD PTR _R2$[ebp], xmm0

; 1589 : 
; 1590 :     XMMATRIX M;

	lea	ecx, DWORD PTR _M$[ebp]
	call	??0XMMATRIX@DirectX@@QAE@XZ		; DirectX::XMMATRIX::XMMATRIX

; 1591 :     M.r[0] = R2;

	mov	eax, 16					; 00000010H
	imul	ecx, eax, 0
	movups	xmm0, XMMWORD PTR _R2$[ebp]
	movups	XMMWORD PTR _M$[ebp+ecx], xmm0

; 1592 : 
; 1593 :     R2 = _mm_shuffle_ps(V0,V1,_MM_SHUFFLE(3,2,3,1));

	movaps	xmm0, XMMWORD PTR _V0$[ebp]
	shufps	xmm0, XMMWORD PTR _V1$[ebp], 237	; 000000edH
	movaps	XMMWORD PTR $T23[ebp], xmm0
	movaps	xmm0, XMMWORD PTR $T23[ebp]
	movaps	XMMWORD PTR _R2$[ebp], xmm0

; 1594 :     R2 = XM_PERMUTE_PS(R2,_MM_SHUFFLE(1,3,0,2));

	movaps	xmm0, XMMWORD PTR _R2$[ebp]
	shufps	xmm0, XMMWORD PTR _R2$[ebp], 114	; 00000072H
	movaps	XMMWORD PTR $T24[ebp], xmm0
	movaps	xmm0, XMMWORD PTR $T24[ebp]
	movaps	XMMWORD PTR _R2$[ebp], xmm0

; 1595 :     M.r[1] = R2;

	mov	eax, 16					; 00000010H
	shl	eax, 0
	movups	xmm0, XMMWORD PTR _R2$[ebp]
	movups	XMMWORD PTR _M$[ebp+eax], xmm0

; 1596 : 
; 1597 :     V2 = _mm_shuffle_ps(V2,V0,_MM_SHUFFLE(3,2,1,0));

	movaps	xmm0, XMMWORD PTR _V2$[ebp]
	shufps	xmm0, XMMWORD PTR _V0$[ebp], 228	; 000000e4H
	movaps	XMMWORD PTR $T25[ebp], xmm0
	movaps	xmm0, XMMWORD PTR $T25[ebp]
	movaps	XMMWORD PTR _V2$[ebp], xmm0

; 1598 :     M.r[2] = V2;

	mov	eax, 16					; 00000010H
	shl	eax, 1
	movups	xmm0, XMMWORD PTR _V2$[ebp]
	movups	XMMWORD PTR _M$[ebp+eax], xmm0

; 1599 :     M.r[3] = g_XMIdentityR3.v;

	mov	eax, 16					; 00000010H
	imul	ecx, eax, 3
	movups	xmm0, XMMWORD PTR ?g_XMIdentityR3@DirectX@@3UXMVECTORF32@1@B
	movups	XMMWORD PTR _M$[ebp+ecx], xmm0

; 1600 :     return M;

	movaps	xmm0, XMMWORD PTR _M$[ebp]
	movaps	xmm1, XMMWORD PTR _M$[ebp+16]
	movaps	xmm2, XMMWORD PTR _M$[ebp+32]
	movaps	xmm3, XMMWORD PTR _M$[ebp+48]

; 1601 : #else // _XM_VMX128_INTRINSICS_
; 1602 : #endif // _XM_VMX128_INTRINSICS_
; 1603 : }

	push	edx
	mov	ecx, ebp
	push	eax
	lea	edx, DWORD PTR $LN7@XMMatrixRo
	call	@_RTC_CheckStackVars@8
	pop	eax
	pop	edx
	pop	edi
	pop	esi
	mov	ecx, DWORD PTR __$ArrayPad$[ebp]
	xor	ecx, ebp
	call	@__security_check_cookie@4
	mov	esp, ebp
	pop	ebp
	mov	esp, ebx
	pop	ebx
	ret	0
	npad	1
$LN7@XMMatrixRo:
	DD	3
	DD	$LN6@XMMatrixRo
$LN6@XMMatrixRo:
	DD	-56					; ffffffc8H
	DD	4
	DD	$LN3@XMMatrixRo
	DD	-68					; ffffffbcH
	DD	4
	DD	$LN4@XMMatrixRo
	DD	-496					; fffffe10H
	DD	64					; 00000040H
	DD	$LN5@XMMatrixRo
$LN5@XMMatrixRo:
	DB	77					; 0000004dH
	DB	0
$LN4@XMMatrixRo:
	DB	102					; 00000066H
	DB	67					; 00000043H
	DB	111					; 0000006fH
	DB	115					; 00000073H
	DB	65					; 00000041H
	DB	110					; 0000006eH
	DB	103					; 00000067H
	DB	108					; 0000006cH
	DB	101					; 00000065H
	DB	0
$LN3@XMMatrixRo:
	DB	102					; 00000066H
	DB	83					; 00000053H
	DB	105					; 00000069H
	DB	110					; 0000006eH
	DB	65					; 00000041H
	DB	110					; 0000006eH
	DB	103					; 00000067H
	DB	108					; 0000006cH
	DB	101					; 00000065H
	DB	0
?XMMatrixRotationNormal@DirectX@@YQ?AUXMMATRIX@1@T__m128@@M@Z ENDP ; DirectX::XMMatrixRotationNormal
_TEXT	ENDS
; Function compile flags: /Odtp /RTCsu /ZI
; File c:\program files (x86)\windows kits\8.1\include\um\directxmathmatrix.inl
;	COMDAT ?XMMatrixTranslation@DirectX@@YQ?AUXMMATRIX@1@MMM@Z
_TEXT	SEGMENT
$T1 = -336						; size = 16
_M$ = -112						; size = 64
_OffsetZ$ = -36						; size = 4
_OffsetY$ = -24						; size = 4
_OffsetX$ = -12						; size = 4
__$ArrayPad$ = -4					; size = 4
?XMMatrixTranslation@DirectX@@YQ?AUXMMATRIX@1@MMM@Z PROC ; DirectX::XMMatrixTranslation, COMDAT
; _OffsetX$ = xmm0s
; _OffsetY$ = xmm1s
; _OffsetZ$ = xmm2s

; 1079 : {

	push	ebx
	mov	ebx, esp
	sub	esp, 8
	and	esp, -16				; fffffff0H
	add	esp, 4
	push	ebp
	mov	ebp, DWORD PTR [ebx+4]
	mov	DWORD PTR [esp+4], ebp
	mov	ebp, esp
	sub	esp, 344				; 00000158H
	push	esi
	push	edi
	push	ecx
	lea	edi, DWORD PTR [ebp-344]
	mov	ecx, 86					; 00000056H
	mov	eax, -858993460				; ccccccccH
	rep stosd
	pop	ecx
	mov	eax, DWORD PTR ___security_cookie
	xor	eax, ebp
	mov	DWORD PTR __$ArrayPad$[ebp], eax
	movss	DWORD PTR _OffsetZ$[ebp], xmm2
	movss	DWORD PTR _OffsetY$[ebp], xmm1
	movss	DWORD PTR _OffsetX$[ebp], xmm0

; 1080 : #if defined(_XM_NO_INTRINSICS_)
; 1081 : 
; 1082 :     XMMATRIX M;
; 1083 :     M.m[0][0] = 1.0f;
; 1084 :     M.m[0][1] = 0.0f;
; 1085 :     M.m[0][2] = 0.0f;
; 1086 :     M.m[0][3] = 0.0f;
; 1087 : 
; 1088 :     M.m[1][0] = 0.0f;
; 1089 :     M.m[1][1] = 1.0f;
; 1090 :     M.m[1][2] = 0.0f;
; 1091 :     M.m[1][3] = 0.0f;
; 1092 : 
; 1093 :     M.m[2][0] = 0.0f;
; 1094 :     M.m[2][1] = 0.0f;
; 1095 :     M.m[2][2] = 1.0f;
; 1096 :     M.m[2][3] = 0.0f;
; 1097 : 
; 1098 :     M.m[3][0] = OffsetX;
; 1099 :     M.m[3][1] = OffsetY;
; 1100 :     M.m[3][2] = OffsetZ;
; 1101 :     M.m[3][3] = 1.0f;
; 1102 :     return M;
; 1103 : 
; 1104 : #elif defined(_XM_SSE_INTRINSICS_) || defined(_XM_ARM_NEON_INTRINSICS_)
; 1105 :     XMMATRIX M;

	lea	ecx, DWORD PTR _M$[ebp]
	call	??0XMMATRIX@DirectX@@QAE@XZ		; DirectX::XMMATRIX::XMMATRIX

; 1106 :     M.r[0] = g_XMIdentityR0.v;

	mov	eax, 16					; 00000010H
	imul	ecx, eax, 0
	movups	xmm0, XMMWORD PTR ?g_XMIdentityR0@DirectX@@3UXMVECTORF32@1@B
	movups	XMMWORD PTR _M$[ebp+ecx], xmm0

; 1107 :     M.r[1] = g_XMIdentityR1.v;

	mov	eax, 16					; 00000010H
	shl	eax, 0
	movups	xmm0, XMMWORD PTR ?g_XMIdentityR1@DirectX@@3UXMVECTORF32@1@B
	movups	XMMWORD PTR _M$[ebp+eax], xmm0

; 1108 :     M.r[2] = g_XMIdentityR2.v;

	mov	eax, 16					; 00000010H
	shl	eax, 1
	movups	xmm0, XMMWORD PTR ?g_XMIdentityR2@DirectX@@3UXMVECTORF32@1@B
	movups	XMMWORD PTR _M$[ebp+eax], xmm0

; 1109 :     M.r[3] = XMVectorSet(OffsetX, OffsetY, OffsetZ, 1.f );

	movss	xmm3, DWORD PTR __real@3f800000
	movss	xmm2, DWORD PTR _OffsetZ$[ebp]
	movss	xmm1, DWORD PTR _OffsetY$[ebp]
	movss	xmm0, DWORD PTR _OffsetX$[ebp]
	call	?XMVectorSet@DirectX@@YQ?AT__m128@@MMMM@Z ; DirectX::XMVectorSet
	movaps	XMMWORD PTR $T1[ebp], xmm0
	mov	eax, 16					; 00000010H
	imul	ecx, eax, 3
	movups	xmm0, XMMWORD PTR $T1[ebp]
	movups	XMMWORD PTR _M$[ebp+ecx], xmm0

; 1110 :     return M;

	movaps	xmm0, XMMWORD PTR _M$[ebp]
	movaps	xmm1, XMMWORD PTR _M$[ebp+16]
	movaps	xmm2, XMMWORD PTR _M$[ebp+32]
	movaps	xmm3, XMMWORD PTR _M$[ebp+48]

; 1111 : #else // _XM_VMX128_INTRINSICS_
; 1112 : #endif // _XM_VMX128_INTRINSICS_
; 1113 : }

	push	edx
	mov	ecx, ebp
	push	eax
	lea	edx, DWORD PTR $LN5@XMMatrixTr
	call	@_RTC_CheckStackVars@8
	pop	eax
	pop	edx
	pop	edi
	pop	esi
	mov	ecx, DWORD PTR __$ArrayPad$[ebp]
	xor	ecx, ebp
	call	@__security_check_cookie@4
	mov	esp, ebp
	pop	ebp
	mov	esp, ebx
	pop	ebx
	ret	0
	npad	3
$LN5@XMMatrixTr:
	DD	1
	DD	$LN4@XMMatrixTr
$LN4@XMMatrixTr:
	DD	-112					; ffffff90H
	DD	64					; 00000040H
	DD	$LN3@XMMatrixTr
$LN3@XMMatrixTr:
	DB	77					; 0000004dH
	DB	0
?XMMatrixTranslation@DirectX@@YQ?AUXMMATRIX@1@MMM@Z ENDP ; DirectX::XMMatrixTranslation
_TEXT	ENDS
; Function compile flags: /Odtp /RTCsu /ZI
; File c:\program files (x86)\windows kits\8.1\include\um\directxmathmatrix.inl
;	COMDAT ?XMMatrixInverse@DirectX@@YQ?AUXMMATRIX@1@PAT__m128@@U21@@Z
_TEXT	SEGMENT
tv806 = -4224						; size = 16
$T1 = -4192						; size = 64
$T2 = -4112						; size = 16
$T3 = -4080						; size = 16
$T4 = -4048						; size = 16
$T5 = -4016						; size = 16
$T6 = -3984						; size = 16
$T7 = -3952						; size = 16
$T8 = -3920						; size = 16
$T9 = -3888						; size = 16
$T10 = -3856						; size = 16
$T11 = -3824						; size = 16
$T12 = -3792						; size = 16
$T13 = -3760						; size = 16
$T14 = -3728						; size = 16
$T15 = -3696						; size = 16
$T16 = -3664						; size = 16
$T17 = -3632						; size = 16
$T18 = -3600						; size = 16
$T19 = -3568						; size = 16
$T20 = -3536						; size = 16
$T21 = -3504						; size = 16
$T22 = -3472						; size = 16
$T23 = -3440						; size = 16
$T24 = -3408						; size = 16
$T25 = -3376						; size = 16
$T26 = -3344						; size = 16
$T27 = -3312						; size = 16
$T28 = -3280						; size = 16
$T29 = -3248						; size = 16
$T30 = -3216						; size = 16
$T31 = -3184						; size = 16
$T32 = -3152						; size = 16
$T33 = -3120						; size = 16
$T34 = -3088						; size = 16
$T35 = -3056						; size = 16
$T36 = -3024						; size = 16
$T37 = -2992						; size = 16
$T38 = -2960						; size = 16
$T39 = -2928						; size = 16
$T40 = -2896						; size = 16
$T41 = -2864						; size = 16
$T42 = -2832						; size = 16
$T43 = -2800						; size = 16
$T44 = -2768						; size = 16
$T45 = -2736						; size = 16
$T46 = -2704						; size = 16
$T47 = -2672						; size = 16
$T48 = -2640						; size = 16
$T49 = -2608						; size = 16
$T50 = -2576						; size = 16
$T51 = -2544						; size = 16
$T52 = -2512						; size = 16
$T53 = -2480						; size = 16
$T54 = -2448						; size = 16
$T55 = -2416						; size = 16
$T56 = -2384						; size = 16
$T57 = -2352						; size = 16
$T58 = -2320						; size = 16
$T59 = -2288						; size = 16
$T60 = -2256						; size = 16
$T61 = -2224						; size = 16
$T62 = -2192						; size = 16
$T63 = -2160						; size = 16
$T64 = -2128						; size = 16
$T65 = -2096						; size = 16
$T66 = -2064						; size = 16
$T67 = -2032						; size = 16
$T68 = -2000						; size = 16
$T69 = -1968						; size = 16
$T70 = -1936						; size = 16
$T71 = -1904						; size = 16
$T72 = -1872						; size = 16
$T73 = -1840						; size = 16
$T74 = -1808						; size = 16
$T75 = -1776						; size = 16
$T76 = -1744						; size = 16
$T77 = -1712						; size = 16
$T78 = -1680						; size = 16
$T79 = -1648						; size = 16
$T80 = -1616						; size = 16
$T81 = -1584						; size = 16
$T82 = -1552						; size = 16
$T83 = -1520						; size = 16
$T84 = -1488						; size = 16
$T85 = -1456						; size = 16
$T86 = -1424						; size = 16
$T87 = -1392						; size = 16
$T88 = -1360						; size = 16
$T89 = -1328						; size = 16
$T90 = -1296						; size = 16
$T91 = -1264						; size = 16
$T92 = -1232						; size = 16
$T93 = -1200						; size = 16
$T94 = -1168						; size = 64
_mResult$ = -896					; size = 64
_vTemp$ = -816						; size = 16
_C7$ = -784						; size = 16
_C5$ = -752						; size = 16
_C3$ = -720						; size = 16
_C1$ = -688						; size = 16
_C6$ = -656						; size = 16
_C4$ = -624						; size = 16
_C2$ = -592						; size = 16
_C0$ = -560						; size = 16
_V03$ = -528						; size = 16
_V13$ = -496						; size = 16
_D2$ = -464						; size = 16
_D1$ = -432						; size = 16
_D0$ = -400						; size = 16
_V12$ = -368						; size = 16
_V02$ = -336						; size = 16
_V11$ = -304						; size = 16
_V01$ = -272						; size = 16
_V10$ = -240						; size = 16
_V00$ = -208						; size = 16
_MT$ = -176						; size = 64
_M$ = -96						; size = 64
_pDeterminant$ = -12					; size = 4
__$ArrayPad$ = -4					; size = 4
?XMMatrixInverse@DirectX@@YQ?AUXMMATRIX@1@PAT__m128@@U21@@Z PROC ; DirectX::XMMatrixInverse, COMDAT
; _pDeterminant$ = ecx

; 611  : {

	push	ebx
	mov	ebx, esp
	sub	esp, 8
	and	esp, -16				; fffffff0H
	add	esp, 4
	push	ebp
	mov	ebp, DWORD PTR [ebx+4]
	mov	DWORD PTR [esp+4], ebp
	mov	ebp, esp
	mov	eax, 4232				; 00001088H
	call	__chkstk
	push	esi
	push	edi
	push	ecx
	lea	edi, DWORD PTR [ebp-4232]
	mov	ecx, 1058				; 00000422H
	mov	eax, -858993460				; ccccccccH
	rep stosd
	pop	ecx
	mov	eax, DWORD PTR ___security_cookie
	xor	eax, ebp
	mov	DWORD PTR __$ArrayPad$[ebp], eax
	movaps	XMMWORD PTR _M$[ebp+48], xmm3
	movaps	XMMWORD PTR _M$[ebp+32], xmm2
	movaps	XMMWORD PTR _M$[ebp+16], xmm1
	movaps	XMMWORD PTR _M$[ebp], xmm0
	mov	DWORD PTR _pDeterminant$[ebp], ecx

; 612  : #if defined(_XM_NO_INTRINSICS_) || defined(_XM_ARM_NEON_INTRINSICS_)
; 613  : 
; 614  :     XMMATRIX MT = XMMatrixTranspose(M);
; 615  : 
; 616  :     XMVECTOR V0[4], V1[4];
; 617  :     V0[0] = XMVectorSwizzle<XM_SWIZZLE_X, XM_SWIZZLE_X, XM_SWIZZLE_Y, XM_SWIZZLE_Y>(MT.r[2]);
; 618  :     V1[0] = XMVectorSwizzle<XM_SWIZZLE_Z, XM_SWIZZLE_W, XM_SWIZZLE_Z, XM_SWIZZLE_W>(MT.r[3]);
; 619  :     V0[1] = XMVectorSwizzle<XM_SWIZZLE_X, XM_SWIZZLE_X, XM_SWIZZLE_Y, XM_SWIZZLE_Y>(MT.r[0]);
; 620  :     V1[1] = XMVectorSwizzle<XM_SWIZZLE_Z, XM_SWIZZLE_W, XM_SWIZZLE_Z, XM_SWIZZLE_W>(MT.r[1]);
; 621  :     V0[2] = XMVectorPermute<XM_PERMUTE_0X, XM_PERMUTE_0Z, XM_PERMUTE_1X, XM_PERMUTE_1Z>(MT.r[2], MT.r[0]);
; 622  :     V1[2] = XMVectorPermute<XM_PERMUTE_0Y, XM_PERMUTE_0W, XM_PERMUTE_1Y, XM_PERMUTE_1W>(MT.r[3], MT.r[1]);
; 623  : 
; 624  :     XMVECTOR D0 = XMVectorMultiply(V0[0], V1[0]);
; 625  :     XMVECTOR D1 = XMVectorMultiply(V0[1], V1[1]);
; 626  :     XMVECTOR D2 = XMVectorMultiply(V0[2], V1[2]);
; 627  : 
; 628  :     V0[0] = XMVectorSwizzle<XM_SWIZZLE_Z, XM_SWIZZLE_W, XM_SWIZZLE_Z, XM_SWIZZLE_W>(MT.r[2]);
; 629  :     V1[0] = XMVectorSwizzle<XM_SWIZZLE_X, XM_SWIZZLE_X, XM_SWIZZLE_Y, XM_SWIZZLE_Y>(MT.r[3]);
; 630  :     V0[1] = XMVectorSwizzle<XM_SWIZZLE_Z, XM_SWIZZLE_W, XM_SWIZZLE_Z, XM_SWIZZLE_W>(MT.r[0]);
; 631  :     V1[1] = XMVectorSwizzle<XM_SWIZZLE_X, XM_SWIZZLE_X, XM_SWIZZLE_Y, XM_SWIZZLE_Y>(MT.r[1]);
; 632  :     V0[2] = XMVectorPermute<XM_PERMUTE_0Y, XM_PERMUTE_0W, XM_PERMUTE_1Y, XM_PERMUTE_1W>(MT.r[2], MT.r[0]);
; 633  :     V1[2] = XMVectorPermute<XM_PERMUTE_0X, XM_PERMUTE_0Z, XM_PERMUTE_1X, XM_PERMUTE_1Z>(MT.r[3], MT.r[1]);
; 634  : 
; 635  :     D0 = XMVectorNegativeMultiplySubtract(V0[0], V1[0], D0);
; 636  :     D1 = XMVectorNegativeMultiplySubtract(V0[1], V1[1], D1);
; 637  :     D2 = XMVectorNegativeMultiplySubtract(V0[2], V1[2], D2);
; 638  : 
; 639  :     V0[0] = XMVectorSwizzle<XM_SWIZZLE_Y, XM_SWIZZLE_Z, XM_SWIZZLE_X, XM_SWIZZLE_Y>(MT.r[1]);
; 640  :     V1[0] = XMVectorPermute<XM_PERMUTE_1Y, XM_PERMUTE_0Y, XM_PERMUTE_0W, XM_PERMUTE_0X>(D0, D2);
; 641  :     V0[1] = XMVectorSwizzle<XM_SWIZZLE_Z, XM_SWIZZLE_X, XM_SWIZZLE_Y, XM_SWIZZLE_X>(MT.r[0]);
; 642  :     V1[1] = XMVectorPermute<XM_PERMUTE_0W, XM_PERMUTE_1Y, XM_PERMUTE_0Y, XM_PERMUTE_0Z>(D0, D2);
; 643  :     V0[2] = XMVectorSwizzle<XM_SWIZZLE_Y, XM_SWIZZLE_Z, XM_SWIZZLE_X, XM_SWIZZLE_Y>(MT.r[3]);
; 644  :     V1[2] = XMVectorPermute<XM_PERMUTE_1W, XM_PERMUTE_0Y, XM_PERMUTE_0W, XM_PERMUTE_0X>(D1, D2);
; 645  :     V0[3] = XMVectorSwizzle<XM_SWIZZLE_Z, XM_SWIZZLE_X, XM_SWIZZLE_Y, XM_SWIZZLE_X>(MT.r[2]);
; 646  :     V1[3] = XMVectorPermute<XM_PERMUTE_0W, XM_PERMUTE_1W, XM_PERMUTE_0Y, XM_PERMUTE_0Z>(D1, D2);
; 647  : 
; 648  :     XMVECTOR C0 = XMVectorMultiply(V0[0], V1[0]);
; 649  :     XMVECTOR C2 = XMVectorMultiply(V0[1], V1[1]);
; 650  :     XMVECTOR C4 = XMVectorMultiply(V0[2], V1[2]);
; 651  :     XMVECTOR C6 = XMVectorMultiply(V0[3], V1[3]);
; 652  : 
; 653  :     V0[0] = XMVectorSwizzle<XM_SWIZZLE_Z, XM_SWIZZLE_W, XM_SWIZZLE_Y, XM_SWIZZLE_Z>(MT.r[1]);
; 654  :     V1[0] = XMVectorPermute<XM_PERMUTE_0W, XM_PERMUTE_0X, XM_PERMUTE_0Y, XM_PERMUTE_1X>(D0, D2);
; 655  :     V0[1] = XMVectorSwizzle<XM_SWIZZLE_W, XM_SWIZZLE_Z, XM_SWIZZLE_W, XM_SWIZZLE_Y>(MT.r[0]);
; 656  :     V1[1] = XMVectorPermute<XM_PERMUTE_0Z, XM_PERMUTE_0Y, XM_PERMUTE_1X, XM_PERMUTE_0X>(D0, D2);
; 657  :     V0[2] = XMVectorSwizzle<XM_SWIZZLE_Z, XM_SWIZZLE_W, XM_SWIZZLE_Y, XM_SWIZZLE_Z>(MT.r[3]);
; 658  :     V1[2] = XMVectorPermute<XM_PERMUTE_0W, XM_PERMUTE_0X, XM_PERMUTE_0Y, XM_PERMUTE_1Z>(D1, D2);
; 659  :     V0[3] = XMVectorSwizzle<XM_SWIZZLE_W, XM_SWIZZLE_Z, XM_SWIZZLE_W, XM_SWIZZLE_Y>(MT.r[2]);
; 660  :     V1[3] = XMVectorPermute<XM_PERMUTE_0Z, XM_PERMUTE_0Y, XM_PERMUTE_1Z, XM_PERMUTE_0X>(D1, D2);
; 661  : 
; 662  :     C0 = XMVectorNegativeMultiplySubtract(V0[0], V1[0], C0);
; 663  :     C2 = XMVectorNegativeMultiplySubtract(V0[1], V1[1], C2);
; 664  :     C4 = XMVectorNegativeMultiplySubtract(V0[2], V1[2], C4);
; 665  :     C6 = XMVectorNegativeMultiplySubtract(V0[3], V1[3], C6);
; 666  : 
; 667  :     V0[0] = XMVectorSwizzle<XM_SWIZZLE_W, XM_SWIZZLE_X, XM_SWIZZLE_W, XM_SWIZZLE_X>(MT.r[1]);
; 668  :     V1[0] = XMVectorPermute<XM_PERMUTE_0Z, XM_PERMUTE_1Y, XM_PERMUTE_1X, XM_PERMUTE_0Z>(D0, D2);
; 669  :     V0[1] = XMVectorSwizzle<XM_SWIZZLE_Y, XM_SWIZZLE_W, XM_SWIZZLE_X, XM_SWIZZLE_Z>(MT.r[0]);
; 670  :     V1[1] = XMVectorPermute<XM_PERMUTE_1Y, XM_PERMUTE_0X, XM_PERMUTE_0W, XM_PERMUTE_1X>(D0, D2);
; 671  :     V0[2] = XMVectorSwizzle<XM_SWIZZLE_W, XM_SWIZZLE_X, XM_SWIZZLE_W, XM_SWIZZLE_X>(MT.r[3]);
; 672  :     V1[2] = XMVectorPermute<XM_PERMUTE_0Z, XM_PERMUTE_1W, XM_PERMUTE_1Z, XM_PERMUTE_0Z>(D1, D2);
; 673  :     V0[3] = XMVectorSwizzle<XM_SWIZZLE_Y, XM_SWIZZLE_W, XM_SWIZZLE_X, XM_SWIZZLE_Z>(MT.r[2]);
; 674  :     V1[3] = XMVectorPermute<XM_PERMUTE_1W, XM_PERMUTE_0X, XM_PERMUTE_0W, XM_PERMUTE_1Z>(D1, D2); 
; 675  : 
; 676  :     XMVECTOR C1 = XMVectorNegativeMultiplySubtract(V0[0], V1[0], C0);
; 677  :     C0 = XMVectorMultiplyAdd(V0[0], V1[0], C0);
; 678  :     XMVECTOR C3 = XMVectorMultiplyAdd(V0[1], V1[1], C2);
; 679  :     C2 = XMVectorNegativeMultiplySubtract(V0[1], V1[1], C2);
; 680  :     XMVECTOR C5 = XMVectorNegativeMultiplySubtract(V0[2], V1[2], C4);
; 681  :     C4 = XMVectorMultiplyAdd(V0[2], V1[2], C4);
; 682  :     XMVECTOR C7 = XMVectorMultiplyAdd(V0[3], V1[3], C6);
; 683  :     C6 = XMVectorNegativeMultiplySubtract(V0[3], V1[3], C6);
; 684  : 
; 685  :     XMMATRIX R;
; 686  :     R.r[0] = XMVectorSelect(C0, C1, g_XMSelect0101.v);
; 687  :     R.r[1] = XMVectorSelect(C2, C3, g_XMSelect0101.v);
; 688  :     R.r[2] = XMVectorSelect(C4, C5, g_XMSelect0101.v);
; 689  :     R.r[3] = XMVectorSelect(C6, C7, g_XMSelect0101.v);
; 690  : 
; 691  :     XMVECTOR Determinant = XMVector4Dot(R.r[0], MT.r[0]);
; 692  : 
; 693  :     if (pDeterminant != nullptr)
; 694  :         *pDeterminant = Determinant;
; 695  : 
; 696  :     XMVECTOR Reciprocal = XMVectorReciprocal(Determinant);
; 697  : 
; 698  :     XMMATRIX Result;
; 699  :     Result.r[0] = XMVectorMultiply(R.r[0], Reciprocal);
; 700  :     Result.r[1] = XMVectorMultiply(R.r[1], Reciprocal);
; 701  :     Result.r[2] = XMVectorMultiply(R.r[2], Reciprocal);
; 702  :     Result.r[3] = XMVectorMultiply(R.r[3], Reciprocal);
; 703  :     return Result;
; 704  : 
; 705  : #elif defined(_XM_SSE_INTRINSICS_)
; 706  :     XMMATRIX MT = XMMatrixTranspose(M);

	movaps	xmm0, XMMWORD PTR _M$[ebp]
	movaps	xmm1, XMMWORD PTR _M$[ebp+16]
	movaps	xmm2, XMMWORD PTR _M$[ebp+32]
	movaps	xmm3, XMMWORD PTR _M$[ebp+48]
	call	?XMMatrixTranspose@DirectX@@YQ?AUXMMATRIX@1@U21@@Z ; DirectX::XMMatrixTranspose
	movaps	XMMWORD PTR $T94[ebp+48], xmm3
	movaps	XMMWORD PTR $T94[ebp+32], xmm2
	movaps	XMMWORD PTR $T94[ebp+16], xmm1
	movaps	XMMWORD PTR $T94[ebp], xmm0
	mov	ecx, 16					; 00000010H
	lea	esi, DWORD PTR $T94[ebp]
	lea	edi, DWORD PTR $T1[ebp]
	rep movsd
	mov	ecx, 16					; 00000010H
	lea	esi, DWORD PTR $T1[ebp]
	lea	edi, DWORD PTR _MT$[ebp]
	rep movsd

; 707  :     XMVECTOR V00 = XM_PERMUTE_PS(MT.r[2],_MM_SHUFFLE(1,1,0,0));

	mov	eax, 16					; 00000010H
	shl	eax, 1
	mov	ecx, 16					; 00000010H
	shl	ecx, 1
	movups	xmm0, XMMWORD PTR _MT$[ebp+ecx]
	shufps	xmm0, XMMWORD PTR _MT$[ebp+eax], 80	; 00000050H
	movaps	XMMWORD PTR $T2[ebp], xmm0
	movaps	xmm0, XMMWORD PTR $T2[ebp]
	movaps	XMMWORD PTR _V00$[ebp], xmm0

; 708  :     XMVECTOR V10 = XM_PERMUTE_PS(MT.r[3],_MM_SHUFFLE(3,2,3,2));

	mov	eax, 16					; 00000010H
	imul	ecx, eax, 3
	mov	edx, 16					; 00000010H
	imul	eax, edx, 3
	movups	xmm0, XMMWORD PTR _MT$[ebp+eax]
	shufps	xmm0, XMMWORD PTR _MT$[ebp+ecx], 238	; 000000eeH
	movaps	XMMWORD PTR $T3[ebp], xmm0
	movaps	xmm0, XMMWORD PTR $T3[ebp]
	movaps	XMMWORD PTR _V10$[ebp], xmm0

; 709  :     XMVECTOR V01 = XM_PERMUTE_PS(MT.r[0],_MM_SHUFFLE(1,1,0,0));

	mov	eax, 16					; 00000010H
	imul	ecx, eax, 0
	mov	edx, 16					; 00000010H
	imul	eax, edx, 0
	movups	xmm0, XMMWORD PTR _MT$[ebp+eax]
	shufps	xmm0, XMMWORD PTR _MT$[ebp+ecx], 80	; 00000050H
	movaps	XMMWORD PTR $T4[ebp], xmm0
	movaps	xmm0, XMMWORD PTR $T4[ebp]
	movaps	XMMWORD PTR _V01$[ebp], xmm0

; 710  :     XMVECTOR V11 = XM_PERMUTE_PS(MT.r[1],_MM_SHUFFLE(3,2,3,2));

	mov	eax, 16					; 00000010H
	shl	eax, 0
	mov	ecx, 16					; 00000010H
	shl	ecx, 0
	movups	xmm0, XMMWORD PTR _MT$[ebp+ecx]
	shufps	xmm0, XMMWORD PTR _MT$[ebp+eax], 238	; 000000eeH
	movaps	XMMWORD PTR $T5[ebp], xmm0
	movaps	xmm0, XMMWORD PTR $T5[ebp]
	movaps	XMMWORD PTR _V11$[ebp], xmm0

; 711  :     XMVECTOR V02 = _mm_shuffle_ps(MT.r[2], MT.r[0],_MM_SHUFFLE(2,0,2,0));

	mov	eax, 16					; 00000010H
	imul	ecx, eax, 0
	mov	edx, 16					; 00000010H
	shl	edx, 1
	movups	xmm0, XMMWORD PTR _MT$[ebp+edx]
	shufps	xmm0, XMMWORD PTR _MT$[ebp+ecx], 136	; 00000088H
	movaps	XMMWORD PTR $T6[ebp], xmm0
	movaps	xmm0, XMMWORD PTR $T6[ebp]
	movaps	XMMWORD PTR _V02$[ebp], xmm0

; 712  :     XMVECTOR V12 = _mm_shuffle_ps(MT.r[3], MT.r[1],_MM_SHUFFLE(3,1,3,1));

	mov	eax, 16					; 00000010H
	shl	eax, 0
	mov	ecx, 16					; 00000010H
	imul	edx, ecx, 3
	movups	xmm0, XMMWORD PTR _MT$[ebp+edx]
	shufps	xmm0, XMMWORD PTR _MT$[ebp+eax], 221	; 000000ddH
	movaps	XMMWORD PTR $T7[ebp], xmm0
	movaps	xmm0, XMMWORD PTR $T7[ebp]
	movaps	XMMWORD PTR _V12$[ebp], xmm0

; 713  : 
; 714  :     XMVECTOR D0 = _mm_mul_ps(V00,V10);

	movaps	xmm0, XMMWORD PTR _V00$[ebp]
	mulps	xmm0, XMMWORD PTR _V10$[ebp]
	movaps	XMMWORD PTR $T8[ebp], xmm0
	movaps	xmm0, XMMWORD PTR $T8[ebp]
	movaps	XMMWORD PTR _D0$[ebp], xmm0

; 715  :     XMVECTOR D1 = _mm_mul_ps(V01,V11);

	movaps	xmm0, XMMWORD PTR _V01$[ebp]
	mulps	xmm0, XMMWORD PTR _V11$[ebp]
	movaps	XMMWORD PTR $T9[ebp], xmm0
	movaps	xmm0, XMMWORD PTR $T9[ebp]
	movaps	XMMWORD PTR _D1$[ebp], xmm0

; 716  :     XMVECTOR D2 = _mm_mul_ps(V02,V12);

	movaps	xmm0, XMMWORD PTR _V02$[ebp]
	mulps	xmm0, XMMWORD PTR _V12$[ebp]
	movaps	XMMWORD PTR $T10[ebp], xmm0
	movaps	xmm0, XMMWORD PTR $T10[ebp]
	movaps	XMMWORD PTR _D2$[ebp], xmm0

; 717  : 
; 718  :     V00 = XM_PERMUTE_PS(MT.r[2],_MM_SHUFFLE(3,2,3,2));

	mov	eax, 16					; 00000010H
	shl	eax, 1
	mov	ecx, 16					; 00000010H
	shl	ecx, 1
	movups	xmm0, XMMWORD PTR _MT$[ebp+ecx]
	shufps	xmm0, XMMWORD PTR _MT$[ebp+eax], 238	; 000000eeH
	movaps	XMMWORD PTR $T11[ebp], xmm0
	movaps	xmm0, XMMWORD PTR $T11[ebp]
	movaps	XMMWORD PTR _V00$[ebp], xmm0

; 719  :     V10 = XM_PERMUTE_PS(MT.r[3],_MM_SHUFFLE(1,1,0,0));

	mov	eax, 16					; 00000010H
	imul	ecx, eax, 3
	mov	edx, 16					; 00000010H
	imul	eax, edx, 3
	movups	xmm0, XMMWORD PTR _MT$[ebp+eax]
	shufps	xmm0, XMMWORD PTR _MT$[ebp+ecx], 80	; 00000050H
	movaps	XMMWORD PTR $T12[ebp], xmm0
	movaps	xmm0, XMMWORD PTR $T12[ebp]
	movaps	XMMWORD PTR _V10$[ebp], xmm0

; 720  :     V01 = XM_PERMUTE_PS(MT.r[0],_MM_SHUFFLE(3,2,3,2));

	mov	eax, 16					; 00000010H
	imul	ecx, eax, 0
	mov	edx, 16					; 00000010H
	imul	eax, edx, 0
	movups	xmm0, XMMWORD PTR _MT$[ebp+eax]
	shufps	xmm0, XMMWORD PTR _MT$[ebp+ecx], 238	; 000000eeH
	movaps	XMMWORD PTR $T13[ebp], xmm0
	movaps	xmm0, XMMWORD PTR $T13[ebp]
	movaps	XMMWORD PTR _V01$[ebp], xmm0

; 721  :     V11 = XM_PERMUTE_PS(MT.r[1],_MM_SHUFFLE(1,1,0,0));

	mov	eax, 16					; 00000010H
	shl	eax, 0
	mov	ecx, 16					; 00000010H
	shl	ecx, 0
	movups	xmm0, XMMWORD PTR _MT$[ebp+ecx]
	shufps	xmm0, XMMWORD PTR _MT$[ebp+eax], 80	; 00000050H
	movaps	XMMWORD PTR $T14[ebp], xmm0
	movaps	xmm0, XMMWORD PTR $T14[ebp]
	movaps	XMMWORD PTR _V11$[ebp], xmm0

; 722  :     V02 = _mm_shuffle_ps(MT.r[2],MT.r[0],_MM_SHUFFLE(3,1,3,1));

	mov	eax, 16					; 00000010H
	imul	ecx, eax, 0
	mov	edx, 16					; 00000010H
	shl	edx, 1
	movups	xmm0, XMMWORD PTR _MT$[ebp+edx]
	shufps	xmm0, XMMWORD PTR _MT$[ebp+ecx], 221	; 000000ddH
	movaps	XMMWORD PTR $T15[ebp], xmm0
	movaps	xmm0, XMMWORD PTR $T15[ebp]
	movaps	XMMWORD PTR _V02$[ebp], xmm0

; 723  :     V12 = _mm_shuffle_ps(MT.r[3],MT.r[1],_MM_SHUFFLE(2,0,2,0));

	mov	eax, 16					; 00000010H
	shl	eax, 0
	mov	ecx, 16					; 00000010H
	imul	edx, ecx, 3
	movups	xmm0, XMMWORD PTR _MT$[ebp+edx]
	shufps	xmm0, XMMWORD PTR _MT$[ebp+eax], 136	; 00000088H
	movaps	XMMWORD PTR $T16[ebp], xmm0
	movaps	xmm0, XMMWORD PTR $T16[ebp]
	movaps	XMMWORD PTR _V12$[ebp], xmm0

; 724  : 
; 725  :     V00 = _mm_mul_ps(V00,V10);

	movaps	xmm0, XMMWORD PTR _V00$[ebp]
	mulps	xmm0, XMMWORD PTR _V10$[ebp]
	movaps	XMMWORD PTR $T17[ebp], xmm0
	movaps	xmm0, XMMWORD PTR $T17[ebp]
	movaps	XMMWORD PTR _V00$[ebp], xmm0

; 726  :     V01 = _mm_mul_ps(V01,V11);

	movaps	xmm0, XMMWORD PTR _V01$[ebp]
	mulps	xmm0, XMMWORD PTR _V11$[ebp]
	movaps	XMMWORD PTR $T18[ebp], xmm0
	movaps	xmm0, XMMWORD PTR $T18[ebp]
	movaps	XMMWORD PTR _V01$[ebp], xmm0

; 727  :     V02 = _mm_mul_ps(V02,V12);

	movaps	xmm0, XMMWORD PTR _V02$[ebp]
	mulps	xmm0, XMMWORD PTR _V12$[ebp]
	movaps	XMMWORD PTR $T19[ebp], xmm0
	movaps	xmm0, XMMWORD PTR $T19[ebp]
	movaps	XMMWORD PTR _V02$[ebp], xmm0

; 728  :     D0 = _mm_sub_ps(D0,V00);

	movaps	xmm0, XMMWORD PTR _D0$[ebp]
	subps	xmm0, XMMWORD PTR _V00$[ebp]
	movaps	XMMWORD PTR $T20[ebp], xmm0
	movaps	xmm0, XMMWORD PTR $T20[ebp]
	movaps	XMMWORD PTR _D0$[ebp], xmm0

; 729  :     D1 = _mm_sub_ps(D1,V01);

	movaps	xmm0, XMMWORD PTR _D1$[ebp]
	subps	xmm0, XMMWORD PTR _V01$[ebp]
	movaps	XMMWORD PTR $T21[ebp], xmm0
	movaps	xmm0, XMMWORD PTR $T21[ebp]
	movaps	XMMWORD PTR _D1$[ebp], xmm0

; 730  :     D2 = _mm_sub_ps(D2,V02);

	movaps	xmm0, XMMWORD PTR _D2$[ebp]
	subps	xmm0, XMMWORD PTR _V02$[ebp]
	movaps	XMMWORD PTR $T22[ebp], xmm0
	movaps	xmm0, XMMWORD PTR $T22[ebp]
	movaps	XMMWORD PTR _D2$[ebp], xmm0

; 731  :     // V11 = D0Y,D0W,D2Y,D2Y
; 732  :     V11 = _mm_shuffle_ps(D0,D2,_MM_SHUFFLE(1,1,3,1));

	movaps	xmm0, XMMWORD PTR _D0$[ebp]
	shufps	xmm0, XMMWORD PTR _D2$[ebp], 93		; 0000005dH
	movaps	XMMWORD PTR $T23[ebp], xmm0
	movaps	xmm0, XMMWORD PTR $T23[ebp]
	movaps	XMMWORD PTR _V11$[ebp], xmm0

; 733  :     V00 = XM_PERMUTE_PS(MT.r[1], _MM_SHUFFLE(1,0,2,1));

	mov	eax, 16					; 00000010H
	shl	eax, 0
	mov	ecx, 16					; 00000010H
	shl	ecx, 0
	movups	xmm0, XMMWORD PTR _MT$[ebp+ecx]
	shufps	xmm0, XMMWORD PTR _MT$[ebp+eax], 73	; 00000049H
	movaps	XMMWORD PTR $T24[ebp], xmm0
	movaps	xmm0, XMMWORD PTR $T24[ebp]
	movaps	XMMWORD PTR _V00$[ebp], xmm0

; 734  :     V10 = _mm_shuffle_ps(V11,D0,_MM_SHUFFLE(0,3,0,2));

	movaps	xmm0, XMMWORD PTR _V11$[ebp]
	shufps	xmm0, XMMWORD PTR _D0$[ebp], 50		; 00000032H
	movaps	XMMWORD PTR $T25[ebp], xmm0
	movaps	xmm0, XMMWORD PTR $T25[ebp]
	movaps	XMMWORD PTR _V10$[ebp], xmm0

; 735  :     V01 = XM_PERMUTE_PS(MT.r[0], _MM_SHUFFLE(0,1,0,2));

	mov	eax, 16					; 00000010H
	imul	ecx, eax, 0
	mov	edx, 16					; 00000010H
	imul	eax, edx, 0
	movups	xmm0, XMMWORD PTR _MT$[ebp+eax]
	shufps	xmm0, XMMWORD PTR _MT$[ebp+ecx], 18	; 00000012H
	movaps	XMMWORD PTR $T26[ebp], xmm0
	movaps	xmm0, XMMWORD PTR $T26[ebp]
	movaps	XMMWORD PTR _V01$[ebp], xmm0

; 736  :     V11 = _mm_shuffle_ps(V11,D0,_MM_SHUFFLE(2,1,2,1));

	movaps	xmm0, XMMWORD PTR _V11$[ebp]
	shufps	xmm0, XMMWORD PTR _D0$[ebp], 153	; 00000099H
	movaps	XMMWORD PTR $T27[ebp], xmm0
	movaps	xmm0, XMMWORD PTR $T27[ebp]
	movaps	XMMWORD PTR _V11$[ebp], xmm0

; 737  :     // V13 = D1Y,D1W,D2W,D2W
; 738  :     XMVECTOR V13 = _mm_shuffle_ps(D1,D2,_MM_SHUFFLE(3,3,3,1));

	movaps	xmm0, XMMWORD PTR _D1$[ebp]
	shufps	xmm0, XMMWORD PTR _D2$[ebp], 253	; 000000fdH
	movaps	XMMWORD PTR $T28[ebp], xmm0
	movaps	xmm0, XMMWORD PTR $T28[ebp]
	movaps	XMMWORD PTR _V13$[ebp], xmm0

; 739  :     V02 = XM_PERMUTE_PS(MT.r[3], _MM_SHUFFLE(1,0,2,1));

	mov	eax, 16					; 00000010H
	imul	ecx, eax, 3
	mov	edx, 16					; 00000010H
	imul	eax, edx, 3
	movups	xmm0, XMMWORD PTR _MT$[ebp+eax]
	shufps	xmm0, XMMWORD PTR _MT$[ebp+ecx], 73	; 00000049H
	movaps	XMMWORD PTR $T29[ebp], xmm0
	movaps	xmm0, XMMWORD PTR $T29[ebp]
	movaps	XMMWORD PTR _V02$[ebp], xmm0

; 740  :     V12 = _mm_shuffle_ps(V13,D1,_MM_SHUFFLE(0,3,0,2));

	movaps	xmm0, XMMWORD PTR _V13$[ebp]
	shufps	xmm0, XMMWORD PTR _D1$[ebp], 50		; 00000032H
	movaps	XMMWORD PTR $T30[ebp], xmm0
	movaps	xmm0, XMMWORD PTR $T30[ebp]
	movaps	XMMWORD PTR _V12$[ebp], xmm0

; 741  :     XMVECTOR V03 = XM_PERMUTE_PS(MT.r[2],_MM_SHUFFLE(0,1,0,2));

	mov	eax, 16					; 00000010H
	shl	eax, 1
	mov	ecx, 16					; 00000010H
	shl	ecx, 1
	movups	xmm0, XMMWORD PTR _MT$[ebp+ecx]
	shufps	xmm0, XMMWORD PTR _MT$[ebp+eax], 18	; 00000012H
	movaps	XMMWORD PTR $T31[ebp], xmm0
	movaps	xmm0, XMMWORD PTR $T31[ebp]
	movaps	XMMWORD PTR _V03$[ebp], xmm0

; 742  :     V13 = _mm_shuffle_ps(V13,D1,_MM_SHUFFLE(2,1,2,1));

	movaps	xmm0, XMMWORD PTR _V13$[ebp]
	shufps	xmm0, XMMWORD PTR _D1$[ebp], 153	; 00000099H
	movaps	XMMWORD PTR $T32[ebp], xmm0
	movaps	xmm0, XMMWORD PTR $T32[ebp]
	movaps	XMMWORD PTR _V13$[ebp], xmm0

; 743  : 
; 744  :     XMVECTOR C0 = _mm_mul_ps(V00,V10);

	movaps	xmm0, XMMWORD PTR _V00$[ebp]
	mulps	xmm0, XMMWORD PTR _V10$[ebp]
	movaps	XMMWORD PTR $T33[ebp], xmm0
	movaps	xmm0, XMMWORD PTR $T33[ebp]
	movaps	XMMWORD PTR _C0$[ebp], xmm0

; 745  :     XMVECTOR C2 = _mm_mul_ps(V01,V11);

	movaps	xmm0, XMMWORD PTR _V01$[ebp]
	mulps	xmm0, XMMWORD PTR _V11$[ebp]
	movaps	XMMWORD PTR $T34[ebp], xmm0
	movaps	xmm0, XMMWORD PTR $T34[ebp]
	movaps	XMMWORD PTR _C2$[ebp], xmm0

; 746  :     XMVECTOR C4 = _mm_mul_ps(V02,V12);

	movaps	xmm0, XMMWORD PTR _V02$[ebp]
	mulps	xmm0, XMMWORD PTR _V12$[ebp]
	movaps	XMMWORD PTR $T35[ebp], xmm0
	movaps	xmm0, XMMWORD PTR $T35[ebp]
	movaps	XMMWORD PTR _C4$[ebp], xmm0

; 747  :     XMVECTOR C6 = _mm_mul_ps(V03,V13);

	movaps	xmm0, XMMWORD PTR _V03$[ebp]
	mulps	xmm0, XMMWORD PTR _V13$[ebp]
	movaps	XMMWORD PTR $T36[ebp], xmm0
	movaps	xmm0, XMMWORD PTR $T36[ebp]
	movaps	XMMWORD PTR _C6$[ebp], xmm0

; 748  : 
; 749  :     // V11 = D0X,D0Y,D2X,D2X
; 750  :     V11 = _mm_shuffle_ps(D0,D2,_MM_SHUFFLE(0,0,1,0));

	movaps	xmm0, XMMWORD PTR _D0$[ebp]
	shufps	xmm0, XMMWORD PTR _D2$[ebp], 4
	movaps	XMMWORD PTR $T37[ebp], xmm0
	movaps	xmm0, XMMWORD PTR $T37[ebp]
	movaps	XMMWORD PTR _V11$[ebp], xmm0

; 751  :     V00 = XM_PERMUTE_PS(MT.r[1], _MM_SHUFFLE(2,1,3,2));

	mov	eax, 16					; 00000010H
	shl	eax, 0
	mov	ecx, 16					; 00000010H
	shl	ecx, 0
	movups	xmm0, XMMWORD PTR _MT$[ebp+ecx]
	shufps	xmm0, XMMWORD PTR _MT$[ebp+eax], 158	; 0000009eH
	movaps	XMMWORD PTR $T38[ebp], xmm0
	movaps	xmm0, XMMWORD PTR $T38[ebp]
	movaps	XMMWORD PTR _V00$[ebp], xmm0

; 752  :     V10 = _mm_shuffle_ps(D0,V11,_MM_SHUFFLE(2,1,0,3));

	movaps	xmm0, XMMWORD PTR _D0$[ebp]
	shufps	xmm0, XMMWORD PTR _V11$[ebp], 147	; 00000093H
	movaps	XMMWORD PTR $T39[ebp], xmm0
	movaps	xmm0, XMMWORD PTR $T39[ebp]
	movaps	XMMWORD PTR _V10$[ebp], xmm0

; 753  :     V01 = XM_PERMUTE_PS(MT.r[0], _MM_SHUFFLE(1,3,2,3));

	mov	eax, 16					; 00000010H
	imul	ecx, eax, 0
	mov	edx, 16					; 00000010H
	imul	eax, edx, 0
	movups	xmm0, XMMWORD PTR _MT$[ebp+eax]
	shufps	xmm0, XMMWORD PTR _MT$[ebp+ecx], 123	; 0000007bH
	movaps	XMMWORD PTR $T40[ebp], xmm0
	movaps	xmm0, XMMWORD PTR $T40[ebp]
	movaps	XMMWORD PTR _V01$[ebp], xmm0

; 754  :     V11 = _mm_shuffle_ps(D0,V11,_MM_SHUFFLE(0,2,1,2));

	movaps	xmm0, XMMWORD PTR _D0$[ebp]
	shufps	xmm0, XMMWORD PTR _V11$[ebp], 38	; 00000026H
	movaps	XMMWORD PTR $T41[ebp], xmm0
	movaps	xmm0, XMMWORD PTR $T41[ebp]
	movaps	XMMWORD PTR _V11$[ebp], xmm0

; 755  :     // V13 = D1X,D1Y,D2Z,D2Z
; 756  :     V13 = _mm_shuffle_ps(D1,D2,_MM_SHUFFLE(2,2,1,0));

	movaps	xmm0, XMMWORD PTR _D1$[ebp]
	shufps	xmm0, XMMWORD PTR _D2$[ebp], 164	; 000000a4H
	movaps	XMMWORD PTR $T42[ebp], xmm0
	movaps	xmm0, XMMWORD PTR $T42[ebp]
	movaps	XMMWORD PTR _V13$[ebp], xmm0

; 757  :     V02 = XM_PERMUTE_PS(MT.r[3], _MM_SHUFFLE(2,1,3,2));

	mov	eax, 16					; 00000010H
	imul	ecx, eax, 3
	mov	edx, 16					; 00000010H
	imul	eax, edx, 3
	movups	xmm0, XMMWORD PTR _MT$[ebp+eax]
	shufps	xmm0, XMMWORD PTR _MT$[ebp+ecx], 158	; 0000009eH
	movaps	XMMWORD PTR $T43[ebp], xmm0
	movaps	xmm0, XMMWORD PTR $T43[ebp]
	movaps	XMMWORD PTR _V02$[ebp], xmm0

; 758  :     V12 = _mm_shuffle_ps(D1,V13,_MM_SHUFFLE(2,1,0,3));

	movaps	xmm0, XMMWORD PTR _D1$[ebp]
	shufps	xmm0, XMMWORD PTR _V13$[ebp], 147	; 00000093H
	movaps	XMMWORD PTR $T44[ebp], xmm0
	movaps	xmm0, XMMWORD PTR $T44[ebp]
	movaps	XMMWORD PTR _V12$[ebp], xmm0

; 759  :     V03 = XM_PERMUTE_PS(MT.r[2],_MM_SHUFFLE(1,3,2,3));

	mov	eax, 16					; 00000010H
	shl	eax, 1
	mov	ecx, 16					; 00000010H
	shl	ecx, 1
	movups	xmm0, XMMWORD PTR _MT$[ebp+ecx]
	shufps	xmm0, XMMWORD PTR _MT$[ebp+eax], 123	; 0000007bH
	movaps	XMMWORD PTR $T45[ebp], xmm0
	movaps	xmm0, XMMWORD PTR $T45[ebp]
	movaps	XMMWORD PTR _V03$[ebp], xmm0

; 760  :     V13 = _mm_shuffle_ps(D1,V13,_MM_SHUFFLE(0,2,1,2));

	movaps	xmm0, XMMWORD PTR _D1$[ebp]
	shufps	xmm0, XMMWORD PTR _V13$[ebp], 38	; 00000026H
	movaps	XMMWORD PTR $T46[ebp], xmm0
	movaps	xmm0, XMMWORD PTR $T46[ebp]
	movaps	XMMWORD PTR _V13$[ebp], xmm0

; 761  : 
; 762  :     V00 = _mm_mul_ps(V00,V10);

	movaps	xmm0, XMMWORD PTR _V00$[ebp]
	mulps	xmm0, XMMWORD PTR _V10$[ebp]
	movaps	XMMWORD PTR $T47[ebp], xmm0
	movaps	xmm0, XMMWORD PTR $T47[ebp]
	movaps	XMMWORD PTR _V00$[ebp], xmm0

; 763  :     V01 = _mm_mul_ps(V01,V11);

	movaps	xmm0, XMMWORD PTR _V01$[ebp]
	mulps	xmm0, XMMWORD PTR _V11$[ebp]
	movaps	XMMWORD PTR $T48[ebp], xmm0
	movaps	xmm0, XMMWORD PTR $T48[ebp]
	movaps	XMMWORD PTR _V01$[ebp], xmm0

; 764  :     V02 = _mm_mul_ps(V02,V12);

	movaps	xmm0, XMMWORD PTR _V02$[ebp]
	mulps	xmm0, XMMWORD PTR _V12$[ebp]
	movaps	XMMWORD PTR $T49[ebp], xmm0
	movaps	xmm0, XMMWORD PTR $T49[ebp]
	movaps	XMMWORD PTR _V02$[ebp], xmm0

; 765  :     V03 = _mm_mul_ps(V03,V13);

	movaps	xmm0, XMMWORD PTR _V03$[ebp]
	mulps	xmm0, XMMWORD PTR _V13$[ebp]
	movaps	XMMWORD PTR $T50[ebp], xmm0
	movaps	xmm0, XMMWORD PTR $T50[ebp]
	movaps	XMMWORD PTR _V03$[ebp], xmm0

; 766  :     C0 = _mm_sub_ps(C0,V00);

	movaps	xmm0, XMMWORD PTR _C0$[ebp]
	subps	xmm0, XMMWORD PTR _V00$[ebp]
	movaps	XMMWORD PTR $T51[ebp], xmm0
	movaps	xmm0, XMMWORD PTR $T51[ebp]
	movaps	XMMWORD PTR _C0$[ebp], xmm0

; 767  :     C2 = _mm_sub_ps(C2,V01);

	movaps	xmm0, XMMWORD PTR _C2$[ebp]
	subps	xmm0, XMMWORD PTR _V01$[ebp]
	movaps	XMMWORD PTR $T52[ebp], xmm0
	movaps	xmm0, XMMWORD PTR $T52[ebp]
	movaps	XMMWORD PTR _C2$[ebp], xmm0

; 768  :     C4 = _mm_sub_ps(C4,V02);

	movaps	xmm0, XMMWORD PTR _C4$[ebp]
	subps	xmm0, XMMWORD PTR _V02$[ebp]
	movaps	XMMWORD PTR $T53[ebp], xmm0
	movaps	xmm0, XMMWORD PTR $T53[ebp]
	movaps	XMMWORD PTR _C4$[ebp], xmm0

; 769  :     C6 = _mm_sub_ps(C6,V03);

	movaps	xmm0, XMMWORD PTR _C6$[ebp]
	subps	xmm0, XMMWORD PTR _V03$[ebp]
	movaps	XMMWORD PTR $T54[ebp], xmm0
	movaps	xmm0, XMMWORD PTR $T54[ebp]
	movaps	XMMWORD PTR _C6$[ebp], xmm0

; 770  : 
; 771  :     V00 = XM_PERMUTE_PS(MT.r[1],_MM_SHUFFLE(0,3,0,3));

	mov	eax, 16					; 00000010H
	shl	eax, 0
	mov	ecx, 16					; 00000010H
	shl	ecx, 0
	movups	xmm0, XMMWORD PTR _MT$[ebp+ecx]
	shufps	xmm0, XMMWORD PTR _MT$[ebp+eax], 51	; 00000033H
	movaps	XMMWORD PTR $T55[ebp], xmm0
	movaps	xmm0, XMMWORD PTR $T55[ebp]
	movaps	XMMWORD PTR _V00$[ebp], xmm0

; 772  :     // V10 = D0Z,D0Z,D2X,D2Y
; 773  :     V10 = _mm_shuffle_ps(D0,D2,_MM_SHUFFLE(1,0,2,2));

	movaps	xmm0, XMMWORD PTR _D0$[ebp]
	shufps	xmm0, XMMWORD PTR _D2$[ebp], 74		; 0000004aH
	movaps	XMMWORD PTR $T56[ebp], xmm0
	movaps	xmm0, XMMWORD PTR $T56[ebp]
	movaps	XMMWORD PTR _V10$[ebp], xmm0

; 774  :     V10 = XM_PERMUTE_PS(V10,_MM_SHUFFLE(0,2,3,0));

	movaps	xmm0, XMMWORD PTR _V10$[ebp]
	shufps	xmm0, XMMWORD PTR _V10$[ebp], 44	; 0000002cH
	movaps	XMMWORD PTR $T57[ebp], xmm0
	movaps	xmm0, XMMWORD PTR $T57[ebp]
	movaps	XMMWORD PTR _V10$[ebp], xmm0

; 775  :     V01 = XM_PERMUTE_PS(MT.r[0],_MM_SHUFFLE(2,0,3,1));

	mov	eax, 16					; 00000010H
	imul	ecx, eax, 0
	mov	edx, 16					; 00000010H
	imul	eax, edx, 0
	movups	xmm0, XMMWORD PTR _MT$[ebp+eax]
	shufps	xmm0, XMMWORD PTR _MT$[ebp+ecx], 141	; 0000008dH
	movaps	XMMWORD PTR $T58[ebp], xmm0
	movaps	xmm0, XMMWORD PTR $T58[ebp]
	movaps	XMMWORD PTR _V01$[ebp], xmm0

; 776  :     // V11 = D0X,D0W,D2X,D2Y
; 777  :     V11 = _mm_shuffle_ps(D0,D2,_MM_SHUFFLE(1,0,3,0));

	movaps	xmm0, XMMWORD PTR _D0$[ebp]
	shufps	xmm0, XMMWORD PTR _D2$[ebp], 76		; 0000004cH
	movaps	XMMWORD PTR $T59[ebp], xmm0
	movaps	xmm0, XMMWORD PTR $T59[ebp]
	movaps	XMMWORD PTR _V11$[ebp], xmm0

; 778  :     V11 = XM_PERMUTE_PS(V11,_MM_SHUFFLE(2,1,0,3));

	movaps	xmm0, XMMWORD PTR _V11$[ebp]
	shufps	xmm0, XMMWORD PTR _V11$[ebp], 147	; 00000093H
	movaps	XMMWORD PTR $T60[ebp], xmm0
	movaps	xmm0, XMMWORD PTR $T60[ebp]
	movaps	XMMWORD PTR _V11$[ebp], xmm0

; 779  :     V02 = XM_PERMUTE_PS(MT.r[3],_MM_SHUFFLE(0,3,0,3));

	mov	eax, 16					; 00000010H
	imul	ecx, eax, 3
	mov	edx, 16					; 00000010H
	imul	eax, edx, 3
	movups	xmm0, XMMWORD PTR _MT$[ebp+eax]
	shufps	xmm0, XMMWORD PTR _MT$[ebp+ecx], 51	; 00000033H
	movaps	XMMWORD PTR $T61[ebp], xmm0
	movaps	xmm0, XMMWORD PTR $T61[ebp]
	movaps	XMMWORD PTR _V02$[ebp], xmm0

; 780  :     // V12 = D1Z,D1Z,D2Z,D2W
; 781  :     V12 = _mm_shuffle_ps(D1,D2,_MM_SHUFFLE(3,2,2,2));

	movaps	xmm0, XMMWORD PTR _D1$[ebp]
	shufps	xmm0, XMMWORD PTR _D2$[ebp], 234	; 000000eaH
	movaps	XMMWORD PTR $T62[ebp], xmm0
	movaps	xmm0, XMMWORD PTR $T62[ebp]
	movaps	XMMWORD PTR _V12$[ebp], xmm0

; 782  :     V12 = XM_PERMUTE_PS(V12,_MM_SHUFFLE(0,2,3,0));

	movaps	xmm0, XMMWORD PTR _V12$[ebp]
	shufps	xmm0, XMMWORD PTR _V12$[ebp], 44	; 0000002cH
	movaps	XMMWORD PTR $T63[ebp], xmm0
	movaps	xmm0, XMMWORD PTR $T63[ebp]
	movaps	XMMWORD PTR _V12$[ebp], xmm0

; 783  :     V03 = XM_PERMUTE_PS(MT.r[2],_MM_SHUFFLE(2,0,3,1));

	mov	eax, 16					; 00000010H
	shl	eax, 1
	mov	ecx, 16					; 00000010H
	shl	ecx, 1
	movups	xmm0, XMMWORD PTR _MT$[ebp+ecx]
	shufps	xmm0, XMMWORD PTR _MT$[ebp+eax], 141	; 0000008dH
	movaps	XMMWORD PTR $T64[ebp], xmm0
	movaps	xmm0, XMMWORD PTR $T64[ebp]
	movaps	XMMWORD PTR _V03$[ebp], xmm0

; 784  :     // V13 = D1X,D1W,D2Z,D2W
; 785  :     V13 = _mm_shuffle_ps(D1,D2,_MM_SHUFFLE(3,2,3,0));

	movaps	xmm0, XMMWORD PTR _D1$[ebp]
	shufps	xmm0, XMMWORD PTR _D2$[ebp], 236	; 000000ecH
	movaps	XMMWORD PTR $T65[ebp], xmm0
	movaps	xmm0, XMMWORD PTR $T65[ebp]
	movaps	XMMWORD PTR _V13$[ebp], xmm0

; 786  :     V13 = XM_PERMUTE_PS(V13,_MM_SHUFFLE(2,1,0,3));

	movaps	xmm0, XMMWORD PTR _V13$[ebp]
	shufps	xmm0, XMMWORD PTR _V13$[ebp], 147	; 00000093H
	movaps	XMMWORD PTR $T66[ebp], xmm0
	movaps	xmm0, XMMWORD PTR $T66[ebp]
	movaps	XMMWORD PTR _V13$[ebp], xmm0

; 787  : 
; 788  :     V00 = _mm_mul_ps(V00,V10);

	movaps	xmm0, XMMWORD PTR _V00$[ebp]
	mulps	xmm0, XMMWORD PTR _V10$[ebp]
	movaps	XMMWORD PTR $T67[ebp], xmm0
	movaps	xmm0, XMMWORD PTR $T67[ebp]
	movaps	XMMWORD PTR _V00$[ebp], xmm0

; 789  :     V01 = _mm_mul_ps(V01,V11);

	movaps	xmm0, XMMWORD PTR _V01$[ebp]
	mulps	xmm0, XMMWORD PTR _V11$[ebp]
	movaps	XMMWORD PTR $T68[ebp], xmm0
	movaps	xmm0, XMMWORD PTR $T68[ebp]
	movaps	XMMWORD PTR _V01$[ebp], xmm0

; 790  :     V02 = _mm_mul_ps(V02,V12);

	movaps	xmm0, XMMWORD PTR _V02$[ebp]
	mulps	xmm0, XMMWORD PTR _V12$[ebp]
	movaps	XMMWORD PTR $T69[ebp], xmm0
	movaps	xmm0, XMMWORD PTR $T69[ebp]
	movaps	XMMWORD PTR _V02$[ebp], xmm0

; 791  :     V03 = _mm_mul_ps(V03,V13);

	movaps	xmm0, XMMWORD PTR _V03$[ebp]
	mulps	xmm0, XMMWORD PTR _V13$[ebp]
	movaps	XMMWORD PTR $T70[ebp], xmm0
	movaps	xmm0, XMMWORD PTR $T70[ebp]
	movaps	XMMWORD PTR _V03$[ebp], xmm0

; 792  :     XMVECTOR C1 = _mm_sub_ps(C0,V00);

	movaps	xmm0, XMMWORD PTR _C0$[ebp]
	subps	xmm0, XMMWORD PTR _V00$[ebp]
	movaps	XMMWORD PTR $T71[ebp], xmm0
	movaps	xmm0, XMMWORD PTR $T71[ebp]
	movaps	XMMWORD PTR _C1$[ebp], xmm0

; 793  :     C0 = _mm_add_ps(C0,V00);

	movaps	xmm0, XMMWORD PTR _C0$[ebp]
	addps	xmm0, XMMWORD PTR _V00$[ebp]
	movaps	XMMWORD PTR $T72[ebp], xmm0
	movaps	xmm0, XMMWORD PTR $T72[ebp]
	movaps	XMMWORD PTR _C0$[ebp], xmm0

; 794  :     XMVECTOR C3 = _mm_add_ps(C2,V01);

	movaps	xmm0, XMMWORD PTR _C2$[ebp]
	addps	xmm0, XMMWORD PTR _V01$[ebp]
	movaps	XMMWORD PTR $T73[ebp], xmm0
	movaps	xmm0, XMMWORD PTR $T73[ebp]
	movaps	XMMWORD PTR _C3$[ebp], xmm0

; 795  :     C2 = _mm_sub_ps(C2,V01);

	movaps	xmm0, XMMWORD PTR _C2$[ebp]
	subps	xmm0, XMMWORD PTR _V01$[ebp]
	movaps	XMMWORD PTR $T74[ebp], xmm0
	movaps	xmm0, XMMWORD PTR $T74[ebp]
	movaps	XMMWORD PTR _C2$[ebp], xmm0

; 796  :     XMVECTOR C5 = _mm_sub_ps(C4,V02);

	movaps	xmm0, XMMWORD PTR _C4$[ebp]
	subps	xmm0, XMMWORD PTR _V02$[ebp]
	movaps	XMMWORD PTR $T75[ebp], xmm0
	movaps	xmm0, XMMWORD PTR $T75[ebp]
	movaps	XMMWORD PTR _C5$[ebp], xmm0

; 797  :     C4 = _mm_add_ps(C4,V02);

	movaps	xmm0, XMMWORD PTR _C4$[ebp]
	addps	xmm0, XMMWORD PTR _V02$[ebp]
	movaps	XMMWORD PTR $T76[ebp], xmm0
	movaps	xmm0, XMMWORD PTR $T76[ebp]
	movaps	XMMWORD PTR _C4$[ebp], xmm0

; 798  :     XMVECTOR C7 = _mm_add_ps(C6,V03);

	movaps	xmm0, XMMWORD PTR _C6$[ebp]
	addps	xmm0, XMMWORD PTR _V03$[ebp]
	movaps	XMMWORD PTR $T77[ebp], xmm0
	movaps	xmm0, XMMWORD PTR $T77[ebp]
	movaps	XMMWORD PTR _C7$[ebp], xmm0

; 799  :     C6 = _mm_sub_ps(C6,V03);

	movaps	xmm0, XMMWORD PTR _C6$[ebp]
	subps	xmm0, XMMWORD PTR _V03$[ebp]
	movaps	XMMWORD PTR $T78[ebp], xmm0
	movaps	xmm0, XMMWORD PTR $T78[ebp]
	movaps	XMMWORD PTR _C6$[ebp], xmm0

; 800  : 
; 801  :     C0 = _mm_shuffle_ps(C0,C1,_MM_SHUFFLE(3,1,2,0));

	movaps	xmm0, XMMWORD PTR _C0$[ebp]
	shufps	xmm0, XMMWORD PTR _C1$[ebp], 216	; 000000d8H
	movaps	XMMWORD PTR $T79[ebp], xmm0
	movaps	xmm0, XMMWORD PTR $T79[ebp]
	movaps	XMMWORD PTR _C0$[ebp], xmm0

; 802  :     C2 = _mm_shuffle_ps(C2,C3,_MM_SHUFFLE(3,1,2,0));

	movaps	xmm0, XMMWORD PTR _C2$[ebp]
	shufps	xmm0, XMMWORD PTR _C3$[ebp], 216	; 000000d8H
	movaps	XMMWORD PTR $T80[ebp], xmm0
	movaps	xmm0, XMMWORD PTR $T80[ebp]
	movaps	XMMWORD PTR _C2$[ebp], xmm0

; 803  :     C4 = _mm_shuffle_ps(C4,C5,_MM_SHUFFLE(3,1,2,0));

	movaps	xmm0, XMMWORD PTR _C4$[ebp]
	shufps	xmm0, XMMWORD PTR _C5$[ebp], 216	; 000000d8H
	movaps	XMMWORD PTR $T81[ebp], xmm0
	movaps	xmm0, XMMWORD PTR $T81[ebp]
	movaps	XMMWORD PTR _C4$[ebp], xmm0

; 804  :     C6 = _mm_shuffle_ps(C6,C7,_MM_SHUFFLE(3,1,2,0));

	movaps	xmm0, XMMWORD PTR _C6$[ebp]
	shufps	xmm0, XMMWORD PTR _C7$[ebp], 216	; 000000d8H
	movaps	XMMWORD PTR $T82[ebp], xmm0
	movaps	xmm0, XMMWORD PTR $T82[ebp]
	movaps	XMMWORD PTR _C6$[ebp], xmm0

; 805  :     C0 = XM_PERMUTE_PS(C0,_MM_SHUFFLE(3,1,2,0));

	movaps	xmm0, XMMWORD PTR _C0$[ebp]
	shufps	xmm0, XMMWORD PTR _C0$[ebp], 216	; 000000d8H
	movaps	XMMWORD PTR $T83[ebp], xmm0
	movaps	xmm0, XMMWORD PTR $T83[ebp]
	movaps	XMMWORD PTR _C0$[ebp], xmm0

; 806  :     C2 = XM_PERMUTE_PS(C2,_MM_SHUFFLE(3,1,2,0));

	movaps	xmm0, XMMWORD PTR _C2$[ebp]
	shufps	xmm0, XMMWORD PTR _C2$[ebp], 216	; 000000d8H
	movaps	XMMWORD PTR $T84[ebp], xmm0
	movaps	xmm0, XMMWORD PTR $T84[ebp]
	movaps	XMMWORD PTR _C2$[ebp], xmm0

; 807  :     C4 = XM_PERMUTE_PS(C4,_MM_SHUFFLE(3,1,2,0));

	movaps	xmm0, XMMWORD PTR _C4$[ebp]
	shufps	xmm0, XMMWORD PTR _C4$[ebp], 216	; 000000d8H
	movaps	XMMWORD PTR $T85[ebp], xmm0
	movaps	xmm0, XMMWORD PTR $T85[ebp]
	movaps	XMMWORD PTR _C4$[ebp], xmm0

; 808  :     C6 = XM_PERMUTE_PS(C6,_MM_SHUFFLE(3,1,2,0));

	movaps	xmm0, XMMWORD PTR _C6$[ebp]
	shufps	xmm0, XMMWORD PTR _C6$[ebp], 216	; 000000d8H
	movaps	XMMWORD PTR $T86[ebp], xmm0
	movaps	xmm0, XMMWORD PTR $T86[ebp]
	movaps	XMMWORD PTR _C6$[ebp], xmm0

; 809  :     // Get the determinate
; 810  :     XMVECTOR vTemp = XMVector4Dot(C0,MT.r[0]);

	mov	eax, 16					; 00000010H
	imul	ecx, eax, 0
	movups	xmm1, XMMWORD PTR _MT$[ebp+ecx]
	movaps	xmm0, XMMWORD PTR _C0$[ebp]
	call	?XMVector4Dot@DirectX@@YQ?AT__m128@@T2@0@Z ; DirectX::XMVector4Dot
	movaps	XMMWORD PTR $T87[ebp], xmm0
	movaps	xmm0, XMMWORD PTR $T87[ebp]
	movaps	XMMWORD PTR _vTemp$[ebp], xmm0

; 811  :     if (pDeterminant != nullptr)

	cmp	DWORD PTR _pDeterminant$[ebp], 0
	je	SHORT $LN1@XMMatrixIn

; 812  :         *pDeterminant = vTemp;

	mov	eax, DWORD PTR _pDeterminant$[ebp]
	movups	xmm0, XMMWORD PTR _vTemp$[ebp]
	movups	XMMWORD PTR [eax], xmm0
$LN1@XMMatrixIn:

; 813  :     vTemp = _mm_div_ps(g_XMOne,vTemp);

	movaps	xmm0, XMMWORD PTR _vTemp$[ebp]
	lea	eax, DWORD PTR $T88[ebp]
	push	eax
	mov	ecx, OFFSET ?g_XMOne@DirectX@@3UXMVECTORF32@1@B ; DirectX::g_XMOne
	movaps	XMMWORD PTR tv806[ebp], xmm0
	call	??BXMVECTORF32@DirectX@@QBE?AT__m128@@XZ ; DirectX::XMVECTORF32::operator __m128
	movups	xmm0, XMMWORD PTR [eax]
	movaps	xmm1, XMMWORD PTR tv806[ebp]
	divps	xmm0, xmm1
	movaps	XMMWORD PTR $T89[ebp], xmm0
	movaps	xmm0, XMMWORD PTR $T89[ebp]
	movaps	XMMWORD PTR _vTemp$[ebp], xmm0

; 814  :     XMMATRIX mResult;

	lea	ecx, DWORD PTR _mResult$[ebp]
	call	??0XMMATRIX@DirectX@@QAE@XZ		; DirectX::XMMATRIX::XMMATRIX

; 815  :     mResult.r[0] = _mm_mul_ps(C0,vTemp);

	movaps	xmm0, XMMWORD PTR _C0$[ebp]
	mulps	xmm0, XMMWORD PTR _vTemp$[ebp]
	movaps	XMMWORD PTR $T90[ebp], xmm0
	mov	eax, 16					; 00000010H
	imul	ecx, eax, 0
	movups	xmm0, XMMWORD PTR $T90[ebp]
	movups	XMMWORD PTR _mResult$[ebp+ecx], xmm0

; 816  :     mResult.r[1] = _mm_mul_ps(C2,vTemp);

	movaps	xmm0, XMMWORD PTR _C2$[ebp]
	mulps	xmm0, XMMWORD PTR _vTemp$[ebp]
	movaps	XMMWORD PTR $T91[ebp], xmm0
	mov	eax, 16					; 00000010H
	shl	eax, 0
	movups	xmm0, XMMWORD PTR $T91[ebp]
	movups	XMMWORD PTR _mResult$[ebp+eax], xmm0

; 817  :     mResult.r[2] = _mm_mul_ps(C4,vTemp);

	movaps	xmm0, XMMWORD PTR _C4$[ebp]
	mulps	xmm0, XMMWORD PTR _vTemp$[ebp]
	movaps	XMMWORD PTR $T92[ebp], xmm0
	mov	eax, 16					; 00000010H
	shl	eax, 1
	movups	xmm0, XMMWORD PTR $T92[ebp]
	movups	XMMWORD PTR _mResult$[ebp+eax], xmm0

; 818  :     mResult.r[3] = _mm_mul_ps(C6,vTemp);

	movaps	xmm0, XMMWORD PTR _C6$[ebp]
	mulps	xmm0, XMMWORD PTR _vTemp$[ebp]
	movaps	XMMWORD PTR $T93[ebp], xmm0
	mov	eax, 16					; 00000010H
	imul	ecx, eax, 3
	movups	xmm0, XMMWORD PTR $T93[ebp]
	movups	XMMWORD PTR _mResult$[ebp+ecx], xmm0

; 819  :     return mResult;

	movaps	xmm0, XMMWORD PTR _mResult$[ebp]
	movaps	xmm1, XMMWORD PTR _mResult$[ebp+16]
	movaps	xmm2, XMMWORD PTR _mResult$[ebp+32]
	movaps	xmm3, XMMWORD PTR _mResult$[ebp+48]

; 820  : #else // _XM_VMX128_INTRINSICS_
; 821  : #endif // _XM_VMX128_INTRINSICS_
; 822  : }

	push	edx
	mov	ecx, ebp
	push	eax
	lea	edx, DWORD PTR $LN8@XMMatrixIn
	call	@_RTC_CheckStackVars@8
	pop	eax
	pop	edx
	pop	edi
	pop	esi
	mov	ecx, DWORD PTR __$ArrayPad$[ebp]
	xor	ecx, ebp
	call	@__security_check_cookie@4
	mov	esp, ebp
	pop	ebp
	mov	esp, ebx
	pop	ebx
	ret	0
$LN8@XMMatrixIn:
	DD	3
	DD	$LN7@XMMatrixIn
$LN7@XMMatrixIn:
	DD	-96					; ffffffa0H
	DD	64					; 00000040H
	DD	$LN4@XMMatrixIn
	DD	-176					; ffffff50H
	DD	64					; 00000040H
	DD	$LN5@XMMatrixIn
	DD	-896					; fffffc80H
	DD	64					; 00000040H
	DD	$LN6@XMMatrixIn
$LN6@XMMatrixIn:
	DB	109					; 0000006dH
	DB	82					; 00000052H
	DB	101					; 00000065H
	DB	115					; 00000073H
	DB	117					; 00000075H
	DB	108					; 0000006cH
	DB	116					; 00000074H
	DB	0
$LN5@XMMatrixIn:
	DB	77					; 0000004dH
	DB	84					; 00000054H
	DB	0
$LN4@XMMatrixIn:
	DB	77					; 0000004dH
	DB	0
?XMMatrixInverse@DirectX@@YQ?AUXMMATRIX@1@PAT__m128@@U21@@Z ENDP ; DirectX::XMMatrixInverse
_TEXT	ENDS
; Function compile flags: /Odtp /RTCsu /ZI
; File c:\program files (x86)\windows kits\8.1\include\um\directxmathmatrix.inl
;	COMDAT ?XMMatrixTranspose@DirectX@@YQ?AUXMMATRIX@1@U21@@Z
_TEXT	SEGMENT
$T1 = -736						; size = 16
$T2 = -704						; size = 16
$T3 = -672						; size = 16
$T4 = -640						; size = 16
$T5 = -608						; size = 16
$T6 = -576						; size = 16
$T7 = -544						; size = 16
$T8 = -512						; size = 16
_mResult$ = -288					; size = 64
_vTemp4$ = -208						; size = 16
_vTemp2$ = -176						; size = 16
_vTemp3$ = -144						; size = 16
_vTemp1$ = -112						; size = 16
_M$ = -80						; size = 64
__$ArrayPad$ = -4					; size = 4
?XMMatrixTranspose@DirectX@@YQ?AUXMMATRIX@1@U21@@Z PROC	; DirectX::XMMatrixTranspose, COMDAT

; 543  : {

	push	ebx
	mov	ebx, esp
	sub	esp, 8
	and	esp, -16				; fffffff0H
	add	esp, 4
	push	ebp
	mov	ebp, DWORD PTR [ebx+4]
	mov	DWORD PTR [esp+4], ebp
	mov	ebp, esp
	sub	esp, 744				; 000002e8H
	push	esi
	push	edi
	push	ecx
	lea	edi, DWORD PTR [ebp-744]
	mov	ecx, 186				; 000000baH
	mov	eax, -858993460				; ccccccccH
	rep stosd
	pop	ecx
	mov	eax, DWORD PTR ___security_cookie
	xor	eax, ebp
	mov	DWORD PTR __$ArrayPad$[ebp], eax
	movaps	XMMWORD PTR _M$[ebp+48], xmm3
	movaps	XMMWORD PTR _M$[ebp+32], xmm2
	movaps	XMMWORD PTR _M$[ebp+16], xmm1
	movaps	XMMWORD PTR _M$[ebp], xmm0

; 544  : #if defined(_XM_NO_INTRINSICS_)
; 545  : 
; 546  :     // Original matrix:
; 547  :     //
; 548  :     //     m00m01m02m03
; 549  :     //     m10m11m12m13
; 550  :     //     m20m21m22m23
; 551  :     //     m30m31m32m33
; 552  : 
; 553  :     XMMATRIX P;
; 554  :     P.r[0] = XMVectorMergeXY(M.r[0], M.r[2]); // m00m20m01m21
; 555  :     P.r[1] = XMVectorMergeXY(M.r[1], M.r[3]); // m10m30m11m31
; 556  :     P.r[2] = XMVectorMergeZW(M.r[0], M.r[2]); // m02m22m03m23
; 557  :     P.r[3] = XMVectorMergeZW(M.r[1], M.r[3]); // m12m32m13m33
; 558  : 
; 559  :     XMMATRIX MT;
; 560  :     MT.r[0] = XMVectorMergeXY(P.r[0], P.r[1]); // m00m10m20m30
; 561  :     MT.r[1] = XMVectorMergeZW(P.r[0], P.r[1]); // m01m11m21m31
; 562  :     MT.r[2] = XMVectorMergeXY(P.r[2], P.r[3]); // m02m12m22m32
; 563  :     MT.r[3] = XMVectorMergeZW(P.r[2], P.r[3]); // m03m13m23m33
; 564  :     return MT;
; 565  : 
; 566  : #elif defined(_XM_ARM_NEON_INTRINSICS_)
; 567  :     float32x4x2_t P0 = vzipq_f32( M.r[0], M.r[2] );
; 568  :     float32x4x2_t P1 = vzipq_f32( M.r[1], M.r[3] );
; 569  : 
; 570  :     float32x4x2_t T0 = vzipq_f32( P0.val[0], P1.val[0] );
; 571  :     float32x4x2_t T1 = vzipq_f32( P0.val[1], P1.val[1] );
; 572  : 
; 573  :     XMMATRIX mResult;
; 574  :     mResult.r[0] = T0.val[0];
; 575  :     mResult.r[1] = T0.val[1];
; 576  :     mResult.r[2] = T1.val[0];
; 577  :     mResult.r[3] = T1.val[1];
; 578  :     return mResult;
; 579  : #elif defined(_XM_SSE_INTRINSICS_)
; 580  :     // x.x,x.y,y.x,y.y
; 581  :     XMVECTOR vTemp1 = _mm_shuffle_ps(M.r[0],M.r[1],_MM_SHUFFLE(1,0,1,0));

	mov	eax, 16					; 00000010H
	shl	eax, 0
	mov	ecx, 16					; 00000010H
	imul	edx, ecx, 0
	movups	xmm0, XMMWORD PTR _M$[ebp+edx]
	shufps	xmm0, XMMWORD PTR _M$[ebp+eax], 68	; 00000044H
	movaps	XMMWORD PTR $T1[ebp], xmm0
	movaps	xmm0, XMMWORD PTR $T1[ebp]
	movaps	XMMWORD PTR _vTemp1$[ebp], xmm0

; 582  :     // x.z,x.w,y.z,y.w
; 583  :     XMVECTOR vTemp3 = _mm_shuffle_ps(M.r[0],M.r[1],_MM_SHUFFLE(3,2,3,2));

	mov	eax, 16					; 00000010H
	shl	eax, 0
	mov	ecx, 16					; 00000010H
	imul	edx, ecx, 0
	movups	xmm0, XMMWORD PTR _M$[ebp+edx]
	shufps	xmm0, XMMWORD PTR _M$[ebp+eax], 238	; 000000eeH
	movaps	XMMWORD PTR $T2[ebp], xmm0
	movaps	xmm0, XMMWORD PTR $T2[ebp]
	movaps	XMMWORD PTR _vTemp3$[ebp], xmm0

; 584  :     // z.x,z.y,w.x,w.y
; 585  :     XMVECTOR vTemp2 = _mm_shuffle_ps(M.r[2],M.r[3],_MM_SHUFFLE(1,0,1,0));

	mov	eax, 16					; 00000010H
	imul	ecx, eax, 3
	mov	edx, 16					; 00000010H
	shl	edx, 1
	movups	xmm0, XMMWORD PTR _M$[ebp+edx]
	shufps	xmm0, XMMWORD PTR _M$[ebp+ecx], 68	; 00000044H
	movaps	XMMWORD PTR $T3[ebp], xmm0
	movaps	xmm0, XMMWORD PTR $T3[ebp]
	movaps	XMMWORD PTR _vTemp2$[ebp], xmm0

; 586  :     // z.z,z.w,w.z,w.w
; 587  :     XMVECTOR vTemp4 = _mm_shuffle_ps(M.r[2],M.r[3],_MM_SHUFFLE(3,2,3,2));

	mov	eax, 16					; 00000010H
	imul	ecx, eax, 3
	mov	edx, 16					; 00000010H
	shl	edx, 1
	movups	xmm0, XMMWORD PTR _M$[ebp+edx]
	shufps	xmm0, XMMWORD PTR _M$[ebp+ecx], 238	; 000000eeH
	movaps	XMMWORD PTR $T4[ebp], xmm0
	movaps	xmm0, XMMWORD PTR $T4[ebp]
	movaps	XMMWORD PTR _vTemp4$[ebp], xmm0

; 588  :     XMMATRIX mResult;

	lea	ecx, DWORD PTR _mResult$[ebp]
	call	??0XMMATRIX@DirectX@@QAE@XZ		; DirectX::XMMATRIX::XMMATRIX

; 589  : 
; 590  :     // x.x,y.x,z.x,w.x
; 591  :     mResult.r[0] = _mm_shuffle_ps(vTemp1, vTemp2,_MM_SHUFFLE(2,0,2,0));

	movaps	xmm0, XMMWORD PTR _vTemp1$[ebp]
	shufps	xmm0, XMMWORD PTR _vTemp2$[ebp], 136	; 00000088H
	movaps	XMMWORD PTR $T5[ebp], xmm0
	mov	eax, 16					; 00000010H
	imul	ecx, eax, 0
	movups	xmm0, XMMWORD PTR $T5[ebp]
	movups	XMMWORD PTR _mResult$[ebp+ecx], xmm0

; 592  :     // x.y,y.y,z.y,w.y
; 593  :     mResult.r[1] = _mm_shuffle_ps(vTemp1, vTemp2,_MM_SHUFFLE(3,1,3,1));

	movaps	xmm0, XMMWORD PTR _vTemp1$[ebp]
	shufps	xmm0, XMMWORD PTR _vTemp2$[ebp], 221	; 000000ddH
	movaps	XMMWORD PTR $T6[ebp], xmm0
	mov	eax, 16					; 00000010H
	shl	eax, 0
	movups	xmm0, XMMWORD PTR $T6[ebp]
	movups	XMMWORD PTR _mResult$[ebp+eax], xmm0

; 594  :     // x.z,y.z,z.z,w.z
; 595  :     mResult.r[2] = _mm_shuffle_ps(vTemp3, vTemp4,_MM_SHUFFLE(2,0,2,0));

	movaps	xmm0, XMMWORD PTR _vTemp3$[ebp]
	shufps	xmm0, XMMWORD PTR _vTemp4$[ebp], 136	; 00000088H
	movaps	XMMWORD PTR $T7[ebp], xmm0
	mov	eax, 16					; 00000010H
	shl	eax, 1
	movups	xmm0, XMMWORD PTR $T7[ebp]
	movups	XMMWORD PTR _mResult$[ebp+eax], xmm0

; 596  :     // x.w,y.w,z.w,w.w
; 597  :     mResult.r[3] = _mm_shuffle_ps(vTemp3, vTemp4,_MM_SHUFFLE(3,1,3,1));

	movaps	xmm0, XMMWORD PTR _vTemp3$[ebp]
	shufps	xmm0, XMMWORD PTR _vTemp4$[ebp], 221	; 000000ddH
	movaps	XMMWORD PTR $T8[ebp], xmm0
	mov	eax, 16					; 00000010H
	imul	ecx, eax, 3
	movups	xmm0, XMMWORD PTR $T8[ebp]
	movups	XMMWORD PTR _mResult$[ebp+ecx], xmm0

; 598  :     return mResult;

	movaps	xmm0, XMMWORD PTR _mResult$[ebp]
	movaps	xmm1, XMMWORD PTR _mResult$[ebp+16]
	movaps	xmm2, XMMWORD PTR _mResult$[ebp+32]
	movaps	xmm3, XMMWORD PTR _mResult$[ebp+48]

; 599  : #else // _XM_VMX128_INTRINSICS_
; 600  : #endif // _XM_VMX128_INTRINSICS_
; 601  : }

	push	edx
	mov	ecx, ebp
	push	eax
	lea	edx, DWORD PTR $LN6@XMMatrixTr
	call	@_RTC_CheckStackVars@8
	pop	eax
	pop	edx
	pop	edi
	pop	esi
	mov	ecx, DWORD PTR __$ArrayPad$[ebp]
	xor	ecx, ebp
	call	@__security_check_cookie@4
	mov	esp, ebp
	pop	ebp
	mov	esp, ebx
	pop	ebx
	ret	0
	npad	1
$LN6@XMMatrixTr:
	DD	2
	DD	$LN5@XMMatrixTr
$LN5@XMMatrixTr:
	DD	-80					; ffffffb0H
	DD	64					; 00000040H
	DD	$LN3@XMMatrixTr
	DD	-288					; fffffee0H
	DD	64					; 00000040H
	DD	$LN4@XMMatrixTr
$LN4@XMMatrixTr:
	DB	109					; 0000006dH
	DB	82					; 00000052H
	DB	101					; 00000065H
	DB	115					; 00000073H
	DB	117					; 00000075H
	DB	108					; 0000006cH
	DB	116					; 00000074H
	DB	0
$LN3@XMMatrixTr:
	DB	77					; 0000004dH
	DB	0
?XMMatrixTranspose@DirectX@@YQ?AUXMMATRIX@1@U21@@Z ENDP	; DirectX::XMMatrixTranspose
_TEXT	ENDS
; Function compile flags: /Odtp /RTCsu /ZI
; File c:\program files (x86)\windows kits\8.1\include\um\directxmathmatrix.inl
;	COMDAT ?XMMatrixMultiply@DirectX@@YQ?AUXMMATRIX@1@U21@ABU21@@Z
_TEXT	SEGMENT
$T1 = -1904						; size = 16
$T2 = -1872						; size = 16
$T3 = -1840						; size = 16
$T4 = -1808						; size = 16
$T5 = -1776						; size = 16
$T6 = -1744						; size = 16
$T7 = -1712						; size = 16
$T8 = -1680						; size = 16
$T9 = -1648						; size = 16
$T10 = -1616						; size = 16
$T11 = -1584						; size = 16
$T12 = -1552						; size = 16
$T13 = -1520						; size = 16
$T14 = -1488						; size = 16
$T15 = -1456						; size = 16
$T16 = -1424						; size = 16
$T17 = -1392						; size = 16
$T18 = -1360						; size = 16
$T19 = -1328						; size = 16
$T20 = -1296						; size = 16
$T21 = -1264						; size = 16
$T22 = -1232						; size = 16
$T23 = -1200						; size = 16
$T24 = -1168						; size = 16
$T25 = -1136						; size = 16
$T26 = -1104						; size = 16
$T27 = -1072						; size = 16
$T28 = -1040						; size = 16
$T29 = -1008						; size = 16
$T30 = -976						; size = 16
$T31 = -944						; size = 16
$T32 = -912						; size = 16
$T33 = -880						; size = 16
$T34 = -848						; size = 16
$T35 = -816						; size = 16
$T36 = -784						; size = 16
$T37 = -752						; size = 16
$T38 = -720						; size = 16
$T39 = -688						; size = 16
$T40 = -656						; size = 16
$T41 = -624						; size = 16
$T42 = -592						; size = 16
$T43 = -560						; size = 16
$T44 = -528						; size = 16
_vZ$ = -304						; size = 16
_vY$ = -272						; size = 16
_vX$ = -240						; size = 16
_vW$ = -208						; size = 16
_mResult$ = -176					; size = 64
_M2$ = -92						; size = 4
_M1$ = -80						; size = 64
__$ArrayPad$ = -4					; size = 4
?XMMatrixMultiply@DirectX@@YQ?AUXMMATRIX@1@U21@ABU21@@Z PROC ; DirectX::XMMatrixMultiply, COMDAT
; _M2$ = ecx

; 228  : {

	push	ebx
	mov	ebx, esp
	sub	esp, 8
	and	esp, -16				; fffffff0H
	add	esp, 4
	push	ebp
	mov	ebp, DWORD PTR [ebx+4]
	mov	DWORD PTR [esp+4], ebp
	mov	ebp, esp
	sub	esp, 1912				; 00000778H
	push	esi
	push	edi
	push	ecx
	lea	edi, DWORD PTR [ebp-1912]
	mov	ecx, 478				; 000001deH
	mov	eax, -858993460				; ccccccccH
	rep stosd
	pop	ecx
	mov	eax, DWORD PTR ___security_cookie
	xor	eax, ebp
	mov	DWORD PTR __$ArrayPad$[ebp], eax
	mov	DWORD PTR _M2$[ebp], ecx
	movaps	XMMWORD PTR _M1$[ebp+48], xmm3
	movaps	XMMWORD PTR _M1$[ebp+32], xmm2
	movaps	XMMWORD PTR _M1$[ebp+16], xmm1
	movaps	XMMWORD PTR _M1$[ebp], xmm0

; 229  : #if defined(_XM_NO_INTRINSICS_)
; 230  :     XMMATRIX mResult;
; 231  :     // Cache the invariants in registers
; 232  :     float x = M1.m[0][0];
; 233  :     float y = M1.m[0][1];
; 234  :     float z = M1.m[0][2];
; 235  :     float w = M1.m[0][3];
; 236  :     // Perform the operation on the first row
; 237  :     mResult.m[0][0] = (M2.m[0][0]*x)+(M2.m[1][0]*y)+(M2.m[2][0]*z)+(M2.m[3][0]*w);
; 238  :     mResult.m[0][1] = (M2.m[0][1]*x)+(M2.m[1][1]*y)+(M2.m[2][1]*z)+(M2.m[3][1]*w);
; 239  :     mResult.m[0][2] = (M2.m[0][2]*x)+(M2.m[1][2]*y)+(M2.m[2][2]*z)+(M2.m[3][2]*w);
; 240  :     mResult.m[0][3] = (M2.m[0][3]*x)+(M2.m[1][3]*y)+(M2.m[2][3]*z)+(M2.m[3][3]*w);
; 241  :     // Repeat for all the other rows
; 242  :     x = M1.m[1][0];
; 243  :     y = M1.m[1][1];
; 244  :     z = M1.m[1][2];
; 245  :     w = M1.m[1][3];
; 246  :     mResult.m[1][0] = (M2.m[0][0]*x)+(M2.m[1][0]*y)+(M2.m[2][0]*z)+(M2.m[3][0]*w);
; 247  :     mResult.m[1][1] = (M2.m[0][1]*x)+(M2.m[1][1]*y)+(M2.m[2][1]*z)+(M2.m[3][1]*w);
; 248  :     mResult.m[1][2] = (M2.m[0][2]*x)+(M2.m[1][2]*y)+(M2.m[2][2]*z)+(M2.m[3][2]*w);
; 249  :     mResult.m[1][3] = (M2.m[0][3]*x)+(M2.m[1][3]*y)+(M2.m[2][3]*z)+(M2.m[3][3]*w);
; 250  :     x = M1.m[2][0];
; 251  :     y = M1.m[2][1];
; 252  :     z = M1.m[2][2];
; 253  :     w = M1.m[2][3];
; 254  :     mResult.m[2][0] = (M2.m[0][0]*x)+(M2.m[1][0]*y)+(M2.m[2][0]*z)+(M2.m[3][0]*w);
; 255  :     mResult.m[2][1] = (M2.m[0][1]*x)+(M2.m[1][1]*y)+(M2.m[2][1]*z)+(M2.m[3][1]*w);
; 256  :     mResult.m[2][2] = (M2.m[0][2]*x)+(M2.m[1][2]*y)+(M2.m[2][2]*z)+(M2.m[3][2]*w);
; 257  :     mResult.m[2][3] = (M2.m[0][3]*x)+(M2.m[1][3]*y)+(M2.m[2][3]*z)+(M2.m[3][3]*w);
; 258  :     x = M1.m[3][0];
; 259  :     y = M1.m[3][1];
; 260  :     z = M1.m[3][2];
; 261  :     w = M1.m[3][3];
; 262  :     mResult.m[3][0] = (M2.m[0][0]*x)+(M2.m[1][0]*y)+(M2.m[2][0]*z)+(M2.m[3][0]*w);
; 263  :     mResult.m[3][1] = (M2.m[0][1]*x)+(M2.m[1][1]*y)+(M2.m[2][1]*z)+(M2.m[3][1]*w);
; 264  :     mResult.m[3][2] = (M2.m[0][2]*x)+(M2.m[1][2]*y)+(M2.m[2][2]*z)+(M2.m[3][2]*w);
; 265  :     mResult.m[3][3] = (M2.m[0][3]*x)+(M2.m[1][3]*y)+(M2.m[2][3]*z)+(M2.m[3][3]*w);
; 266  :     return mResult;
; 267  : #elif defined(_XM_ARM_NEON_INTRINSICS_)
; 268  :     XMMATRIX mResult;
; 269  :     float32x2_t VL = vget_low_f32( M1.r[0] );
; 270  :     float32x2_t VH = vget_high_f32( M1.r[0] );
; 271  :     // Perform the operation on the first row
; 272  :     XMVECTOR vX = XM_VMULQ_LANE_F32(M2.r[0], VL, 0);
; 273  :     XMVECTOR vY = XM_VMULQ_LANE_F32(M2.r[1], VL, 1);
; 274  :     XMVECTOR vZ = XM_VMLAQ_LANE_F32(vX, M2.r[2], VH, 0);
; 275  :     XMVECTOR vW = XM_VMLAQ_LANE_F32(vY, M2.r[3], VH, 1);
; 276  :     mResult.r[0] = vaddq_f32( vZ, vW );
; 277  :     // Repeat for the other 3 rows
; 278  :     VL = vget_low_f32( M1.r[1] );
; 279  :     VH = vget_high_f32( M1.r[1] );
; 280  :     vX = XM_VMULQ_LANE_F32(M2.r[0], VL, 0);
; 281  :     vY = XM_VMULQ_LANE_F32(M2.r[1], VL, 1);
; 282  :     vZ = XM_VMLAQ_LANE_F32(vX, M2.r[2], VH, 0);
; 283  :     vW = XM_VMLAQ_LANE_F32(vY, M2.r[3], VH, 1);
; 284  :     mResult.r[1] = vaddq_f32( vZ, vW );
; 285  :     VL = vget_low_f32( M1.r[2] );
; 286  :     VH = vget_high_f32( M1.r[2] );
; 287  :     vX = XM_VMULQ_LANE_F32(M2.r[0], VL, 0);
; 288  :     vY = XM_VMULQ_LANE_F32(M2.r[1], VL, 1);
; 289  :     vZ = XM_VMLAQ_LANE_F32(vX, M2.r[2], VH, 0);
; 290  :     vW = XM_VMLAQ_LANE_F32(vY, M2.r[3], VH, 1);
; 291  :     mResult.r[2] = vaddq_f32( vZ, vW );
; 292  :     VL = vget_low_f32( M1.r[3] );
; 293  :     VH = vget_high_f32( M1.r[3] );
; 294  :     vX = XM_VMULQ_LANE_F32(M2.r[0], VL, 0);
; 295  :     vY = XM_VMULQ_LANE_F32(M2.r[1], VL, 1);
; 296  :     vZ = XM_VMLAQ_LANE_F32(vX, M2.r[2], VH, 0);
; 297  :     vW = XM_VMLAQ_LANE_F32(vY, M2.r[3], VH, 1);
; 298  :     mResult.r[3] = vaddq_f32( vZ, vW );
; 299  :     return mResult;
; 300  : #elif defined(_XM_SSE_INTRINSICS_)
; 301  :     XMMATRIX mResult;

	lea	ecx, DWORD PTR _mResult$[ebp]
	call	??0XMMATRIX@DirectX@@QAE@XZ		; DirectX::XMMATRIX::XMMATRIX

; 302  :     // Use vW to hold the original row
; 303  :     XMVECTOR vW = M1.r[0];

	mov	eax, 16					; 00000010H
	imul	ecx, eax, 0
	movups	xmm0, XMMWORD PTR _M1$[ebp+ecx]
	movups	XMMWORD PTR _vW$[ebp], xmm0

; 304  :     // Splat the component X,Y,Z then W
; 305  :     XMVECTOR vX = XM_PERMUTE_PS(vW,_MM_SHUFFLE(0,0,0,0));

	movaps	xmm0, XMMWORD PTR _vW$[ebp]
	shufps	xmm0, XMMWORD PTR _vW$[ebp], 0
	movaps	XMMWORD PTR $T1[ebp], xmm0
	movaps	xmm0, XMMWORD PTR $T1[ebp]
	movaps	XMMWORD PTR _vX$[ebp], xmm0

; 306  :     XMVECTOR vY = XM_PERMUTE_PS(vW,_MM_SHUFFLE(1,1,1,1));

	movaps	xmm0, XMMWORD PTR _vW$[ebp]
	shufps	xmm0, XMMWORD PTR _vW$[ebp], 85		; 00000055H
	movaps	XMMWORD PTR $T2[ebp], xmm0
	movaps	xmm0, XMMWORD PTR $T2[ebp]
	movaps	XMMWORD PTR _vY$[ebp], xmm0

; 307  :     XMVECTOR vZ = XM_PERMUTE_PS(vW,_MM_SHUFFLE(2,2,2,2));

	movaps	xmm0, XMMWORD PTR _vW$[ebp]
	shufps	xmm0, XMMWORD PTR _vW$[ebp], 170	; 000000aaH
	movaps	XMMWORD PTR $T3[ebp], xmm0
	movaps	xmm0, XMMWORD PTR $T3[ebp]
	movaps	XMMWORD PTR _vZ$[ebp], xmm0

; 308  :     vW = XM_PERMUTE_PS(vW,_MM_SHUFFLE(3,3,3,3));

	movaps	xmm0, XMMWORD PTR _vW$[ebp]
	shufps	xmm0, XMMWORD PTR _vW$[ebp], 255	; 000000ffH
	movaps	XMMWORD PTR $T4[ebp], xmm0
	movaps	xmm0, XMMWORD PTR $T4[ebp]
	movaps	XMMWORD PTR _vW$[ebp], xmm0

; 309  :     // Perform the operation on the first row
; 310  :     vX = _mm_mul_ps(vX,M2.r[0]);

	mov	eax, 16					; 00000010H
	imul	ecx, eax, 0
	add	ecx, DWORD PTR _M2$[ebp]
	movaps	xmm0, XMMWORD PTR _vX$[ebp]
	mulps	xmm0, XMMWORD PTR [ecx]
	movaps	XMMWORD PTR $T5[ebp], xmm0
	movaps	xmm0, XMMWORD PTR $T5[ebp]
	movaps	XMMWORD PTR _vX$[ebp], xmm0

; 311  :     vY = _mm_mul_ps(vY,M2.r[1]);

	mov	eax, 16					; 00000010H
	shl	eax, 0
	add	eax, DWORD PTR _M2$[ebp]
	movaps	xmm0, XMMWORD PTR _vY$[ebp]
	mulps	xmm0, XMMWORD PTR [eax]
	movaps	XMMWORD PTR $T6[ebp], xmm0
	movaps	xmm0, XMMWORD PTR $T6[ebp]
	movaps	XMMWORD PTR _vY$[ebp], xmm0

; 312  :     vZ = _mm_mul_ps(vZ,M2.r[2]);

	mov	eax, 16					; 00000010H
	shl	eax, 1
	add	eax, DWORD PTR _M2$[ebp]
	movaps	xmm0, XMMWORD PTR _vZ$[ebp]
	mulps	xmm0, XMMWORD PTR [eax]
	movaps	XMMWORD PTR $T7[ebp], xmm0
	movaps	xmm0, XMMWORD PTR $T7[ebp]
	movaps	XMMWORD PTR _vZ$[ebp], xmm0

; 313  :     vW = _mm_mul_ps(vW,M2.r[3]);

	mov	eax, 16					; 00000010H
	imul	ecx, eax, 3
	add	ecx, DWORD PTR _M2$[ebp]
	movaps	xmm0, XMMWORD PTR _vW$[ebp]
	mulps	xmm0, XMMWORD PTR [ecx]
	movaps	XMMWORD PTR $T8[ebp], xmm0
	movaps	xmm0, XMMWORD PTR $T8[ebp]
	movaps	XMMWORD PTR _vW$[ebp], xmm0

; 314  :     // Perform a binary add to reduce cumulative errors
; 315  :     vX = _mm_add_ps(vX,vZ);

	movaps	xmm0, XMMWORD PTR _vX$[ebp]
	addps	xmm0, XMMWORD PTR _vZ$[ebp]
	movaps	XMMWORD PTR $T9[ebp], xmm0
	movaps	xmm0, XMMWORD PTR $T9[ebp]
	movaps	XMMWORD PTR _vX$[ebp], xmm0

; 316  :     vY = _mm_add_ps(vY,vW);

	movaps	xmm0, XMMWORD PTR _vY$[ebp]
	addps	xmm0, XMMWORD PTR _vW$[ebp]
	movaps	XMMWORD PTR $T10[ebp], xmm0
	movaps	xmm0, XMMWORD PTR $T10[ebp]
	movaps	XMMWORD PTR _vY$[ebp], xmm0

; 317  :     vX = _mm_add_ps(vX,vY);

	movaps	xmm0, XMMWORD PTR _vX$[ebp]
	addps	xmm0, XMMWORD PTR _vY$[ebp]
	movaps	XMMWORD PTR $T11[ebp], xmm0
	movaps	xmm0, XMMWORD PTR $T11[ebp]
	movaps	XMMWORD PTR _vX$[ebp], xmm0

; 318  :     mResult.r[0] = vX;

	mov	eax, 16					; 00000010H
	imul	ecx, eax, 0
	movups	xmm0, XMMWORD PTR _vX$[ebp]
	movups	XMMWORD PTR _mResult$[ebp+ecx], xmm0

; 319  :     // Repeat for the other 3 rows
; 320  :     vW = M1.r[1];

	mov	eax, 16					; 00000010H
	shl	eax, 0
	movups	xmm0, XMMWORD PTR _M1$[ebp+eax]
	movups	XMMWORD PTR _vW$[ebp], xmm0

; 321  :     vX = XM_PERMUTE_PS(vW,_MM_SHUFFLE(0,0,0,0));

	movaps	xmm0, XMMWORD PTR _vW$[ebp]
	shufps	xmm0, XMMWORD PTR _vW$[ebp], 0
	movaps	XMMWORD PTR $T12[ebp], xmm0
	movaps	xmm0, XMMWORD PTR $T12[ebp]
	movaps	XMMWORD PTR _vX$[ebp], xmm0

; 322  :     vY = XM_PERMUTE_PS(vW,_MM_SHUFFLE(1,1,1,1));

	movaps	xmm0, XMMWORD PTR _vW$[ebp]
	shufps	xmm0, XMMWORD PTR _vW$[ebp], 85		; 00000055H
	movaps	XMMWORD PTR $T13[ebp], xmm0
	movaps	xmm0, XMMWORD PTR $T13[ebp]
	movaps	XMMWORD PTR _vY$[ebp], xmm0

; 323  :     vZ = XM_PERMUTE_PS(vW,_MM_SHUFFLE(2,2,2,2));

	movaps	xmm0, XMMWORD PTR _vW$[ebp]
	shufps	xmm0, XMMWORD PTR _vW$[ebp], 170	; 000000aaH
	movaps	XMMWORD PTR $T14[ebp], xmm0
	movaps	xmm0, XMMWORD PTR $T14[ebp]
	movaps	XMMWORD PTR _vZ$[ebp], xmm0

; 324  :     vW = XM_PERMUTE_PS(vW,_MM_SHUFFLE(3,3,3,3));

	movaps	xmm0, XMMWORD PTR _vW$[ebp]
	shufps	xmm0, XMMWORD PTR _vW$[ebp], 255	; 000000ffH
	movaps	XMMWORD PTR $T15[ebp], xmm0
	movaps	xmm0, XMMWORD PTR $T15[ebp]
	movaps	XMMWORD PTR _vW$[ebp], xmm0

; 325  :     vX = _mm_mul_ps(vX,M2.r[0]);

	mov	eax, 16					; 00000010H
	imul	ecx, eax, 0
	add	ecx, DWORD PTR _M2$[ebp]
	movaps	xmm0, XMMWORD PTR _vX$[ebp]
	mulps	xmm0, XMMWORD PTR [ecx]
	movaps	XMMWORD PTR $T16[ebp], xmm0
	movaps	xmm0, XMMWORD PTR $T16[ebp]
	movaps	XMMWORD PTR _vX$[ebp], xmm0

; 326  :     vY = _mm_mul_ps(vY,M2.r[1]);

	mov	eax, 16					; 00000010H
	shl	eax, 0
	add	eax, DWORD PTR _M2$[ebp]
	movaps	xmm0, XMMWORD PTR _vY$[ebp]
	mulps	xmm0, XMMWORD PTR [eax]
	movaps	XMMWORD PTR $T17[ebp], xmm0
	movaps	xmm0, XMMWORD PTR $T17[ebp]
	movaps	XMMWORD PTR _vY$[ebp], xmm0

; 327  :     vZ = _mm_mul_ps(vZ,M2.r[2]);

	mov	eax, 16					; 00000010H
	shl	eax, 1
	add	eax, DWORD PTR _M2$[ebp]
	movaps	xmm0, XMMWORD PTR _vZ$[ebp]
	mulps	xmm0, XMMWORD PTR [eax]
	movaps	XMMWORD PTR $T18[ebp], xmm0
	movaps	xmm0, XMMWORD PTR $T18[ebp]
	movaps	XMMWORD PTR _vZ$[ebp], xmm0

; 328  :     vW = _mm_mul_ps(vW,M2.r[3]);

	mov	eax, 16					; 00000010H
	imul	ecx, eax, 3
	add	ecx, DWORD PTR _M2$[ebp]
	movaps	xmm0, XMMWORD PTR _vW$[ebp]
	mulps	xmm0, XMMWORD PTR [ecx]
	movaps	XMMWORD PTR $T19[ebp], xmm0
	movaps	xmm0, XMMWORD PTR $T19[ebp]
	movaps	XMMWORD PTR _vW$[ebp], xmm0

; 329  :     vX = _mm_add_ps(vX,vZ);

	movaps	xmm0, XMMWORD PTR _vX$[ebp]
	addps	xmm0, XMMWORD PTR _vZ$[ebp]
	movaps	XMMWORD PTR $T20[ebp], xmm0
	movaps	xmm0, XMMWORD PTR $T20[ebp]
	movaps	XMMWORD PTR _vX$[ebp], xmm0

; 330  :     vY = _mm_add_ps(vY,vW);

	movaps	xmm0, XMMWORD PTR _vY$[ebp]
	addps	xmm0, XMMWORD PTR _vW$[ebp]
	movaps	XMMWORD PTR $T21[ebp], xmm0
	movaps	xmm0, XMMWORD PTR $T21[ebp]
	movaps	XMMWORD PTR _vY$[ebp], xmm0

; 331  :     vX = _mm_add_ps(vX,vY);

	movaps	xmm0, XMMWORD PTR _vX$[ebp]
	addps	xmm0, XMMWORD PTR _vY$[ebp]
	movaps	XMMWORD PTR $T22[ebp], xmm0
	movaps	xmm0, XMMWORD PTR $T22[ebp]
	movaps	XMMWORD PTR _vX$[ebp], xmm0

; 332  :     mResult.r[1] = vX;

	mov	eax, 16					; 00000010H
	shl	eax, 0
	movups	xmm0, XMMWORD PTR _vX$[ebp]
	movups	XMMWORD PTR _mResult$[ebp+eax], xmm0

; 333  :     vW = M1.r[2];

	mov	eax, 16					; 00000010H
	shl	eax, 1
	movups	xmm0, XMMWORD PTR _M1$[ebp+eax]
	movups	XMMWORD PTR _vW$[ebp], xmm0

; 334  :     vX = XM_PERMUTE_PS(vW,_MM_SHUFFLE(0,0,0,0));

	movaps	xmm0, XMMWORD PTR _vW$[ebp]
	shufps	xmm0, XMMWORD PTR _vW$[ebp], 0
	movaps	XMMWORD PTR $T23[ebp], xmm0
	movaps	xmm0, XMMWORD PTR $T23[ebp]
	movaps	XMMWORD PTR _vX$[ebp], xmm0

; 335  :     vY = XM_PERMUTE_PS(vW,_MM_SHUFFLE(1,1,1,1));

	movaps	xmm0, XMMWORD PTR _vW$[ebp]
	shufps	xmm0, XMMWORD PTR _vW$[ebp], 85		; 00000055H
	movaps	XMMWORD PTR $T24[ebp], xmm0
	movaps	xmm0, XMMWORD PTR $T24[ebp]
	movaps	XMMWORD PTR _vY$[ebp], xmm0

; 336  :     vZ = XM_PERMUTE_PS(vW,_MM_SHUFFLE(2,2,2,2));

	movaps	xmm0, XMMWORD PTR _vW$[ebp]
	shufps	xmm0, XMMWORD PTR _vW$[ebp], 170	; 000000aaH
	movaps	XMMWORD PTR $T25[ebp], xmm0
	movaps	xmm0, XMMWORD PTR $T25[ebp]
	movaps	XMMWORD PTR _vZ$[ebp], xmm0

; 337  :     vW = XM_PERMUTE_PS(vW,_MM_SHUFFLE(3,3,3,3));

	movaps	xmm0, XMMWORD PTR _vW$[ebp]
	shufps	xmm0, XMMWORD PTR _vW$[ebp], 255	; 000000ffH
	movaps	XMMWORD PTR $T26[ebp], xmm0
	movaps	xmm0, XMMWORD PTR $T26[ebp]
	movaps	XMMWORD PTR _vW$[ebp], xmm0

; 338  :     vX = _mm_mul_ps(vX,M2.r[0]);

	mov	eax, 16					; 00000010H
	imul	ecx, eax, 0
	add	ecx, DWORD PTR _M2$[ebp]
	movaps	xmm0, XMMWORD PTR _vX$[ebp]
	mulps	xmm0, XMMWORD PTR [ecx]
	movaps	XMMWORD PTR $T27[ebp], xmm0
	movaps	xmm0, XMMWORD PTR $T27[ebp]
	movaps	XMMWORD PTR _vX$[ebp], xmm0

; 339  :     vY = _mm_mul_ps(vY,M2.r[1]);

	mov	eax, 16					; 00000010H
	shl	eax, 0
	add	eax, DWORD PTR _M2$[ebp]
	movaps	xmm0, XMMWORD PTR _vY$[ebp]
	mulps	xmm0, XMMWORD PTR [eax]
	movaps	XMMWORD PTR $T28[ebp], xmm0
	movaps	xmm0, XMMWORD PTR $T28[ebp]
	movaps	XMMWORD PTR _vY$[ebp], xmm0

; 340  :     vZ = _mm_mul_ps(vZ,M2.r[2]);

	mov	eax, 16					; 00000010H
	shl	eax, 1
	add	eax, DWORD PTR _M2$[ebp]
	movaps	xmm0, XMMWORD PTR _vZ$[ebp]
	mulps	xmm0, XMMWORD PTR [eax]
	movaps	XMMWORD PTR $T29[ebp], xmm0
	movaps	xmm0, XMMWORD PTR $T29[ebp]
	movaps	XMMWORD PTR _vZ$[ebp], xmm0

; 341  :     vW = _mm_mul_ps(vW,M2.r[3]);

	mov	eax, 16					; 00000010H
	imul	ecx, eax, 3
	add	ecx, DWORD PTR _M2$[ebp]
	movaps	xmm0, XMMWORD PTR _vW$[ebp]
	mulps	xmm0, XMMWORD PTR [ecx]
	movaps	XMMWORD PTR $T30[ebp], xmm0
	movaps	xmm0, XMMWORD PTR $T30[ebp]
	movaps	XMMWORD PTR _vW$[ebp], xmm0

; 342  :     vX = _mm_add_ps(vX,vZ);

	movaps	xmm0, XMMWORD PTR _vX$[ebp]
	addps	xmm0, XMMWORD PTR _vZ$[ebp]
	movaps	XMMWORD PTR $T31[ebp], xmm0
	movaps	xmm0, XMMWORD PTR $T31[ebp]
	movaps	XMMWORD PTR _vX$[ebp], xmm0

; 343  :     vY = _mm_add_ps(vY,vW);

	movaps	xmm0, XMMWORD PTR _vY$[ebp]
	addps	xmm0, XMMWORD PTR _vW$[ebp]
	movaps	XMMWORD PTR $T32[ebp], xmm0
	movaps	xmm0, XMMWORD PTR $T32[ebp]
	movaps	XMMWORD PTR _vY$[ebp], xmm0

; 344  :     vX = _mm_add_ps(vX,vY);

	movaps	xmm0, XMMWORD PTR _vX$[ebp]
	addps	xmm0, XMMWORD PTR _vY$[ebp]
	movaps	XMMWORD PTR $T33[ebp], xmm0
	movaps	xmm0, XMMWORD PTR $T33[ebp]
	movaps	XMMWORD PTR _vX$[ebp], xmm0

; 345  :     mResult.r[2] = vX;

	mov	eax, 16					; 00000010H
	shl	eax, 1
	movups	xmm0, XMMWORD PTR _vX$[ebp]
	movups	XMMWORD PTR _mResult$[ebp+eax], xmm0

; 346  :     vW = M1.r[3];

	mov	eax, 16					; 00000010H
	imul	ecx, eax, 3
	movups	xmm0, XMMWORD PTR _M1$[ebp+ecx]
	movups	XMMWORD PTR _vW$[ebp], xmm0

; 347  :     vX = XM_PERMUTE_PS(vW,_MM_SHUFFLE(0,0,0,0));

	movaps	xmm0, XMMWORD PTR _vW$[ebp]
	shufps	xmm0, XMMWORD PTR _vW$[ebp], 0
	movaps	XMMWORD PTR $T34[ebp], xmm0
	movaps	xmm0, XMMWORD PTR $T34[ebp]
	movaps	XMMWORD PTR _vX$[ebp], xmm0

; 348  :     vY = XM_PERMUTE_PS(vW,_MM_SHUFFLE(1,1,1,1));

	movaps	xmm0, XMMWORD PTR _vW$[ebp]
	shufps	xmm0, XMMWORD PTR _vW$[ebp], 85		; 00000055H
	movaps	XMMWORD PTR $T35[ebp], xmm0
	movaps	xmm0, XMMWORD PTR $T35[ebp]
	movaps	XMMWORD PTR _vY$[ebp], xmm0

; 349  :     vZ = XM_PERMUTE_PS(vW,_MM_SHUFFLE(2,2,2,2));

	movaps	xmm0, XMMWORD PTR _vW$[ebp]
	shufps	xmm0, XMMWORD PTR _vW$[ebp], 170	; 000000aaH
	movaps	XMMWORD PTR $T36[ebp], xmm0
	movaps	xmm0, XMMWORD PTR $T36[ebp]
	movaps	XMMWORD PTR _vZ$[ebp], xmm0

; 350  :     vW = XM_PERMUTE_PS(vW,_MM_SHUFFLE(3,3,3,3));

	movaps	xmm0, XMMWORD PTR _vW$[ebp]
	shufps	xmm0, XMMWORD PTR _vW$[ebp], 255	; 000000ffH
	movaps	XMMWORD PTR $T37[ebp], xmm0
	movaps	xmm0, XMMWORD PTR $T37[ebp]
	movaps	XMMWORD PTR _vW$[ebp], xmm0

; 351  :     vX = _mm_mul_ps(vX,M2.r[0]);

	mov	eax, 16					; 00000010H
	imul	ecx, eax, 0
	add	ecx, DWORD PTR _M2$[ebp]
	movaps	xmm0, XMMWORD PTR _vX$[ebp]
	mulps	xmm0, XMMWORD PTR [ecx]
	movaps	XMMWORD PTR $T38[ebp], xmm0
	movaps	xmm0, XMMWORD PTR $T38[ebp]
	movaps	XMMWORD PTR _vX$[ebp], xmm0

; 352  :     vY = _mm_mul_ps(vY,M2.r[1]);

	mov	eax, 16					; 00000010H
	shl	eax, 0
	add	eax, DWORD PTR _M2$[ebp]
	movaps	xmm0, XMMWORD PTR _vY$[ebp]
	mulps	xmm0, XMMWORD PTR [eax]
	movaps	XMMWORD PTR $T39[ebp], xmm0
	movaps	xmm0, XMMWORD PTR $T39[ebp]
	movaps	XMMWORD PTR _vY$[ebp], xmm0

; 353  :     vZ = _mm_mul_ps(vZ,M2.r[2]);

	mov	eax, 16					; 00000010H
	shl	eax, 1
	add	eax, DWORD PTR _M2$[ebp]
	movaps	xmm0, XMMWORD PTR _vZ$[ebp]
	mulps	xmm0, XMMWORD PTR [eax]
	movaps	XMMWORD PTR $T40[ebp], xmm0
	movaps	xmm0, XMMWORD PTR $T40[ebp]
	movaps	XMMWORD PTR _vZ$[ebp], xmm0

; 354  :     vW = _mm_mul_ps(vW,M2.r[3]);

	mov	eax, 16					; 00000010H
	imul	ecx, eax, 3
	add	ecx, DWORD PTR _M2$[ebp]
	movaps	xmm0, XMMWORD PTR _vW$[ebp]
	mulps	xmm0, XMMWORD PTR [ecx]
	movaps	XMMWORD PTR $T41[ebp], xmm0
	movaps	xmm0, XMMWORD PTR $T41[ebp]
	movaps	XMMWORD PTR _vW$[ebp], xmm0

; 355  :     vX = _mm_add_ps(vX,vZ);

	movaps	xmm0, XMMWORD PTR _vX$[ebp]
	addps	xmm0, XMMWORD PTR _vZ$[ebp]
	movaps	XMMWORD PTR $T42[ebp], xmm0
	movaps	xmm0, XMMWORD PTR $T42[ebp]
	movaps	XMMWORD PTR _vX$[ebp], xmm0

; 356  :     vY = _mm_add_ps(vY,vW);

	movaps	xmm0, XMMWORD PTR _vY$[ebp]
	addps	xmm0, XMMWORD PTR _vW$[ebp]
	movaps	XMMWORD PTR $T43[ebp], xmm0
	movaps	xmm0, XMMWORD PTR $T43[ebp]
	movaps	XMMWORD PTR _vY$[ebp], xmm0

; 357  :     vX = _mm_add_ps(vX,vY);

	movaps	xmm0, XMMWORD PTR _vX$[ebp]
	addps	xmm0, XMMWORD PTR _vY$[ebp]
	movaps	XMMWORD PTR $T44[ebp], xmm0
	movaps	xmm0, XMMWORD PTR $T44[ebp]
	movaps	XMMWORD PTR _vX$[ebp], xmm0

; 358  :     mResult.r[3] = vX;

	mov	eax, 16					; 00000010H
	imul	ecx, eax, 3
	movups	xmm0, XMMWORD PTR _vX$[ebp]
	movups	XMMWORD PTR _mResult$[ebp+ecx], xmm0

; 359  :     return mResult;

	movaps	xmm0, XMMWORD PTR _mResult$[ebp]
	movaps	xmm1, XMMWORD PTR _mResult$[ebp+16]
	movaps	xmm2, XMMWORD PTR _mResult$[ebp+32]
	movaps	xmm3, XMMWORD PTR _mResult$[ebp+48]

; 360  : #else // _XM_VMX128_INTRINSICS_
; 361  : #endif // _XM_VMX128_INTRINSICS_
; 362  : }

	push	edx
	mov	ecx, ebp
	push	eax
	lea	edx, DWORD PTR $LN6@XMMatrixMu
	call	@_RTC_CheckStackVars@8
	pop	eax
	pop	edx
	pop	edi
	pop	esi
	mov	ecx, DWORD PTR __$ArrayPad$[ebp]
	xor	ecx, ebp
	call	@__security_check_cookie@4
	mov	esp, ebp
	pop	ebp
	mov	esp, ebx
	pop	ebx
	ret	0
	npad	3
$LN6@XMMatrixMu:
	DD	2
	DD	$LN5@XMMatrixMu
$LN5@XMMatrixMu:
	DD	-80					; ffffffb0H
	DD	64					; 00000040H
	DD	$LN3@XMMatrixMu
	DD	-176					; ffffff50H
	DD	64					; 00000040H
	DD	$LN4@XMMatrixMu
$LN4@XMMatrixMu:
	DB	109					; 0000006dH
	DB	82					; 00000052H
	DB	101					; 00000065H
	DB	115					; 00000073H
	DB	117					; 00000075H
	DB	108					; 0000006cH
	DB	116					; 00000074H
	DB	0
$LN3@XMMatrixMu:
	DB	77					; 0000004dH
	DB	49					; 00000031H
	DB	0
?XMMatrixMultiply@DirectX@@YQ?AUXMMATRIX@1@U21@ABU21@@Z ENDP ; DirectX::XMMatrixMultiply
_TEXT	ENDS
; Function compile flags: /Odtp /RTCsu /ZI
; File c:\program files (x86)\windows kits\8.1\include\um\directxmathvector.inl
;	COMDAT ?XMVector4Transform@DirectX@@YQ?AT__m128@@T2@UXMMATRIX@1@@Z
_TEXT	SEGMENT
$T1 = -784						; size = 16
$T2 = -752						; size = 16
$T3 = -720						; size = 16
$T4 = -688						; size = 16
$T5 = -656						; size = 16
$T6 = -624						; size = 16
$T7 = -592						; size = 16
$T8 = -560						; size = 16
$T9 = -528						; size = 16
$T10 = -496						; size = 16
$T11 = -464						; size = 16
_vTempW$ = -240						; size = 16
_vTempZ$ = -208						; size = 16
_vTempY$ = -176						; size = 16
_vTempX$ = -144						; size = 16
_M$ = -112						; size = 64
_V$ = -32						; size = 16
__$ArrayPad$ = -4					; size = 4
?XMVector4Transform@DirectX@@YQ?AT__m128@@T2@UXMMATRIX@1@@Z PROC ; DirectX::XMVector4Transform, COMDAT
; _V$ = xmm0

; 13788: {

	push	ebx
	mov	ebx, esp
	sub	esp, 8
	and	esp, -16				; fffffff0H
	add	esp, 4
	push	ebp
	mov	ebp, DWORD PTR [ebx+4]
	mov	DWORD PTR [esp+4], ebp
	mov	ebp, esp
	sub	esp, 792				; 00000318H
	push	esi
	push	edi
	push	ecx
	lea	edi, DWORD PTR [ebp-792]
	mov	ecx, 198				; 000000c6H
	mov	eax, -858993460				; ccccccccH
	rep stosd
	pop	ecx
	mov	eax, DWORD PTR ___security_cookie
	xor	eax, ebp
	mov	DWORD PTR __$ArrayPad$[ebp], eax
	movaps	XMMWORD PTR _M$[ebp+48], xmm4
	movaps	XMMWORD PTR _M$[ebp+32], xmm3
	movaps	XMMWORD PTR _M$[ebp+16], xmm2
	movaps	XMMWORD PTR _M$[ebp], xmm1
	movaps	XMMWORD PTR _V$[ebp], xmm0

; 13789: #if defined(_XM_NO_INTRINSICS_)
; 13790:     float fX = (M.m[0][0]*V.vector4_f32[0])+(M.m[1][0]*V.vector4_f32[1])+(M.m[2][0]*V.vector4_f32[2])+(M.m[3][0]*V.vector4_f32[3]);
; 13791:     float fY = (M.m[0][1]*V.vector4_f32[0])+(M.m[1][1]*V.vector4_f32[1])+(M.m[2][1]*V.vector4_f32[2])+(M.m[3][1]*V.vector4_f32[3]);
; 13792:     float fZ = (M.m[0][2]*V.vector4_f32[0])+(M.m[1][2]*V.vector4_f32[1])+(M.m[2][2]*V.vector4_f32[2])+(M.m[3][2]*V.vector4_f32[3]);
; 13793:     float fW = (M.m[0][3]*V.vector4_f32[0])+(M.m[1][3]*V.vector4_f32[1])+(M.m[2][3]*V.vector4_f32[2])+(M.m[3][3]*V.vector4_f32[3]);
; 13794:     XMVECTOR vResult = {
; 13795:         fX,
; 13796:         fY,
; 13797:         fZ,
; 13798:         fW
; 13799:     };
; 13800:     return vResult;
; 13801: 
; 13802: #elif defined(_XM_ARM_NEON_INTRINSICS_)
; 13803:     float32x2_t VL = vget_low_f32( V );
; 13804:     XMVECTOR vResult = XM_VMULQ_LANE_F32( M.r[0], VL, 0 ); // X
; 13805:     vResult = XM_VMLAQ_LANE_F32( vResult, M.r[1], VL, 1 ); // Y
; 13806:     float32x2_t VH = vget_high_f32( V );
; 13807:     vResult = XM_VMLAQ_LANE_F32( vResult, M.r[2], VH, 0  ); // Z
; 13808:     return XM_VMLAQ_LANE_F32( vResult, M.r[3], VH, 1 ); // W
; 13809: #elif defined(_XM_SSE_INTRINSICS_)
; 13810:     // Splat x,y,z and w
; 13811:     XMVECTOR vTempX = XM_PERMUTE_PS(V,_MM_SHUFFLE(0,0,0,0));

	movaps	xmm0, XMMWORD PTR _V$[ebp]
	shufps	xmm0, XMMWORD PTR _V$[ebp], 0
	movaps	XMMWORD PTR $T1[ebp], xmm0
	movaps	xmm0, XMMWORD PTR $T1[ebp]
	movaps	XMMWORD PTR _vTempX$[ebp], xmm0

; 13812:     XMVECTOR vTempY = XM_PERMUTE_PS(V,_MM_SHUFFLE(1,1,1,1));

	movaps	xmm0, XMMWORD PTR _V$[ebp]
	shufps	xmm0, XMMWORD PTR _V$[ebp], 85		; 00000055H
	movaps	XMMWORD PTR $T2[ebp], xmm0
	movaps	xmm0, XMMWORD PTR $T2[ebp]
	movaps	XMMWORD PTR _vTempY$[ebp], xmm0

; 13813:     XMVECTOR vTempZ = XM_PERMUTE_PS(V,_MM_SHUFFLE(2,2,2,2));

	movaps	xmm0, XMMWORD PTR _V$[ebp]
	shufps	xmm0, XMMWORD PTR _V$[ebp], 170		; 000000aaH
	movaps	XMMWORD PTR $T3[ebp], xmm0
	movaps	xmm0, XMMWORD PTR $T3[ebp]
	movaps	XMMWORD PTR _vTempZ$[ebp], xmm0

; 13814:     XMVECTOR vTempW = XM_PERMUTE_PS(V,_MM_SHUFFLE(3,3,3,3));

	movaps	xmm0, XMMWORD PTR _V$[ebp]
	shufps	xmm0, XMMWORD PTR _V$[ebp], 255		; 000000ffH
	movaps	XMMWORD PTR $T4[ebp], xmm0
	movaps	xmm0, XMMWORD PTR $T4[ebp]
	movaps	XMMWORD PTR _vTempW$[ebp], xmm0

; 13815:     // Mul by the matrix
; 13816:     vTempX = _mm_mul_ps(vTempX,M.r[0]);

	mov	eax, 16					; 00000010H
	imul	ecx, eax, 0
	movaps	xmm0, XMMWORD PTR _vTempX$[ebp]
	mulps	xmm0, XMMWORD PTR _M$[ebp+ecx]
	movaps	XMMWORD PTR $T5[ebp], xmm0
	movaps	xmm0, XMMWORD PTR $T5[ebp]
	movaps	XMMWORD PTR _vTempX$[ebp], xmm0

; 13817:     vTempY = _mm_mul_ps(vTempY,M.r[1]);

	mov	eax, 16					; 00000010H
	shl	eax, 0
	movaps	xmm0, XMMWORD PTR _vTempY$[ebp]
	mulps	xmm0, XMMWORD PTR _M$[ebp+eax]
	movaps	XMMWORD PTR $T6[ebp], xmm0
	movaps	xmm0, XMMWORD PTR $T6[ebp]
	movaps	XMMWORD PTR _vTempY$[ebp], xmm0

; 13818:     vTempZ = _mm_mul_ps(vTempZ,M.r[2]);

	mov	eax, 16					; 00000010H
	shl	eax, 1
	movaps	xmm0, XMMWORD PTR _vTempZ$[ebp]
	mulps	xmm0, XMMWORD PTR _M$[ebp+eax]
	movaps	XMMWORD PTR $T7[ebp], xmm0
	movaps	xmm0, XMMWORD PTR $T7[ebp]
	movaps	XMMWORD PTR _vTempZ$[ebp], xmm0

; 13819:     vTempW = _mm_mul_ps(vTempW,M.r[3]);

	mov	eax, 16					; 00000010H
	imul	ecx, eax, 3
	movaps	xmm0, XMMWORD PTR _vTempW$[ebp]
	mulps	xmm0, XMMWORD PTR _M$[ebp+ecx]
	movaps	XMMWORD PTR $T8[ebp], xmm0
	movaps	xmm0, XMMWORD PTR $T8[ebp]
	movaps	XMMWORD PTR _vTempW$[ebp], xmm0

; 13820:     // Add them all together
; 13821:     vTempX = _mm_add_ps(vTempX,vTempY);

	movaps	xmm0, XMMWORD PTR _vTempX$[ebp]
	addps	xmm0, XMMWORD PTR _vTempY$[ebp]
	movaps	XMMWORD PTR $T9[ebp], xmm0
	movaps	xmm0, XMMWORD PTR $T9[ebp]
	movaps	XMMWORD PTR _vTempX$[ebp], xmm0

; 13822:     vTempZ = _mm_add_ps(vTempZ,vTempW);

	movaps	xmm0, XMMWORD PTR _vTempZ$[ebp]
	addps	xmm0, XMMWORD PTR _vTempW$[ebp]
	movaps	XMMWORD PTR $T10[ebp], xmm0
	movaps	xmm0, XMMWORD PTR $T10[ebp]
	movaps	XMMWORD PTR _vTempZ$[ebp], xmm0

; 13823:     vTempX = _mm_add_ps(vTempX,vTempZ);

	movaps	xmm0, XMMWORD PTR _vTempX$[ebp]
	addps	xmm0, XMMWORD PTR _vTempZ$[ebp]
	movaps	XMMWORD PTR $T11[ebp], xmm0
	movaps	xmm0, XMMWORD PTR $T11[ebp]
	movaps	XMMWORD PTR _vTempX$[ebp], xmm0

; 13824:     return vTempX;

	movaps	xmm0, XMMWORD PTR _vTempX$[ebp]

; 13825: #else // _XM_VMX128_INTRINSICS_
; 13826: #endif // _XM_VMX128_INTRINSICS_
; 13827: }

	push	edx
	mov	ecx, ebp
	push	eax
	lea	edx, DWORD PTR $LN5@XMVector4T
	call	@_RTC_CheckStackVars@8
	pop	eax
	pop	edx
	pop	edi
	pop	esi
	mov	ecx, DWORD PTR __$ArrayPad$[ebp]
	xor	ecx, ebp
	call	@__security_check_cookie@4
	mov	esp, ebp
	pop	ebp
	mov	esp, ebx
	pop	ebx
	ret	0
	npad	1
$LN5@XMVector4T:
	DD	1
	DD	$LN4@XMVector4T
$LN4@XMVector4T:
	DD	-112					; ffffff90H
	DD	64					; 00000040H
	DD	$LN3@XMVector4T
$LN3@XMVector4T:
	DB	77					; 0000004dH
	DB	0
?XMVector4Transform@DirectX@@YQ?AT__m128@@T2@UXMMATRIX@1@@Z ENDP ; DirectX::XMVector4Transform
_TEXT	ENDS
; Function compile flags: /Odtp /RTCsu /ZI
; File c:\program files (x86)\windows kits\8.1\include\um\directxmathvector.inl
;	COMDAT ?XMVector4Dot@DirectX@@YQ?AT__m128@@T2@0@Z
_TEXT	SEGMENT
$T1 = -512						; size = 16
$T2 = -480						; size = 16
$T3 = -448						; size = 16
$T4 = -416						; size = 16
$T5 = -384						; size = 16
$T6 = -352						; size = 16
_vTemp$ = -128						; size = 16
_vTemp2$ = -96						; size = 16
_V2$ = -64						; size = 16
_V1$ = -32						; size = 16
?XMVector4Dot@DirectX@@YQ?AT__m128@@T2@0@Z PROC		; DirectX::XMVector4Dot, COMDAT
; _V1$ = xmm0
; _V2$ = xmm1

; 12940: {

	push	ebx
	mov	ebx, esp
	sub	esp, 8
	and	esp, -16				; fffffff0H
	add	esp, 4
	push	ebp
	mov	ebp, DWORD PTR [ebx+4]
	mov	DWORD PTR [esp+4], ebp
	mov	ebp, esp
	sub	esp, 520				; 00000208H
	push	esi
	push	edi
	push	ecx
	lea	edi, DWORD PTR [ebp-520]
	mov	ecx, 130				; 00000082H
	mov	eax, -858993460				; ccccccccH
	rep stosd
	pop	ecx
	movaps	XMMWORD PTR _V2$[ebp], xmm1
	movaps	XMMWORD PTR _V1$[ebp], xmm0

; 12941: #if defined(_XM_NO_INTRINSICS_)
; 12942: 
; 12943:     XMVECTOR Result;
; 12944:     Result.vector4_f32[0] =
; 12945:     Result.vector4_f32[1] =
; 12946:     Result.vector4_f32[2] =
; 12947:     Result.vector4_f32[3] = V1.vector4_f32[0] * V2.vector4_f32[0] + V1.vector4_f32[1] * V2.vector4_f32[1] + V1.vector4_f32[2] * V2.vector4_f32[2] + V1.vector4_f32[3] * V2.vector4_f32[3];
; 12948:     return Result;
; 12949: 
; 12950: #elif defined(_XM_ARM_NEON_INTRINSICS_)
; 12951:     float32x4_t vTemp = vmulq_f32( V1, V2 );
; 12952:     float32x2_t v1 = vget_low_f32( vTemp );
; 12953:     float32x2_t v2 = vget_high_f32( vTemp );
; 12954:     v1 = vpadd_f32( v1, v1 );
; 12955:     v2 = vpadd_f32( v2, v2 );
; 12956:     v1 = vadd_f32( v1, v2 );
; 12957:     return vcombine_f32( v1, v1 );
; 12958: #elif defined(_XM_SSE_INTRINSICS_)
; 12959:     XMVECTOR vTemp2 = V2;

	movaps	xmm0, XMMWORD PTR _V2$[ebp]
	movaps	XMMWORD PTR _vTemp2$[ebp], xmm0

; 12960:     XMVECTOR vTemp = _mm_mul_ps(V1,vTemp2);

	movaps	xmm0, XMMWORD PTR _V1$[ebp]
	mulps	xmm0, XMMWORD PTR _vTemp2$[ebp]
	movaps	XMMWORD PTR $T1[ebp], xmm0
	movaps	xmm0, XMMWORD PTR $T1[ebp]
	movaps	XMMWORD PTR _vTemp$[ebp], xmm0

; 12961:     vTemp2 = _mm_shuffle_ps(vTemp2,vTemp,_MM_SHUFFLE(1,0,0,0)); // Copy X to the Z position and Y to the W position

	movaps	xmm0, XMMWORD PTR _vTemp2$[ebp]
	shufps	xmm0, XMMWORD PTR _vTemp$[ebp], 64	; 00000040H
	movaps	XMMWORD PTR $T2[ebp], xmm0
	movaps	xmm0, XMMWORD PTR $T2[ebp]
	movaps	XMMWORD PTR _vTemp2$[ebp], xmm0

; 12962:     vTemp2 = _mm_add_ps(vTemp2,vTemp);          // Add Z = X+Z; W = Y+W;

	movaps	xmm0, XMMWORD PTR _vTemp2$[ebp]
	addps	xmm0, XMMWORD PTR _vTemp$[ebp]
	movaps	XMMWORD PTR $T3[ebp], xmm0
	movaps	xmm0, XMMWORD PTR $T3[ebp]
	movaps	XMMWORD PTR _vTemp2$[ebp], xmm0

; 12963:     vTemp = _mm_shuffle_ps(vTemp,vTemp2,_MM_SHUFFLE(0,3,0,0));  // Copy W to the Z position

	movaps	xmm0, XMMWORD PTR _vTemp$[ebp]
	shufps	xmm0, XMMWORD PTR _vTemp2$[ebp], 48	; 00000030H
	movaps	XMMWORD PTR $T4[ebp], xmm0
	movaps	xmm0, XMMWORD PTR $T4[ebp]
	movaps	XMMWORD PTR _vTemp$[ebp], xmm0

; 12964:     vTemp = _mm_add_ps(vTemp,vTemp2);           // Add Z and W together

	movaps	xmm0, XMMWORD PTR _vTemp$[ebp]
	addps	xmm0, XMMWORD PTR _vTemp2$[ebp]
	movaps	XMMWORD PTR $T5[ebp], xmm0
	movaps	xmm0, XMMWORD PTR $T5[ebp]
	movaps	XMMWORD PTR _vTemp$[ebp], xmm0

; 12965:     return XM_PERMUTE_PS(vTemp,_MM_SHUFFLE(2,2,2,2));    // Splat Z and return

	movaps	xmm0, XMMWORD PTR _vTemp$[ebp]
	shufps	xmm0, XMMWORD PTR _vTemp$[ebp], 170	; 000000aaH
	movaps	XMMWORD PTR $T6[ebp], xmm0
	movaps	xmm0, XMMWORD PTR $T6[ebp]

; 12966: #else // _XM_VMX128_INTRINSICS_
; 12967: #endif // _XM_VMX128_INTRINSICS_
; 12968: }

	pop	edi
	pop	esi
	mov	esp, ebp
	pop	ebp
	mov	esp, ebx
	pop	ebx
	ret	0
?XMVector4Dot@DirectX@@YQ?AT__m128@@T2@0@Z ENDP		; DirectX::XMVector4Dot
_TEXT	ENDS
; Function compile flags: /Odtp /RTCsu /ZI
; File c:\program files (x86)\windows kits\8.1\include\um\directxmathvector.inl
;	COMDAT ?XMVector3Normalize@DirectX@@YQ?AT__m128@@T2@@Z
_TEXT	SEGMENT
$T1 = -960						; size = 16
$T2 = -928						; size = 16
$T3 = -896						; size = 16
$T4 = -864						; size = 16
$T5 = -832						; size = 16
$T6 = -800						; size = 16
$T7 = -768						; size = 16
$T8 = -736						; size = 16
$T9 = -704						; size = 16
$T10 = -672						; size = 16
$T11 = -640						; size = 16
$T12 = -608						; size = 16
$T13 = -576						; size = 16
$T14 = -544						; size = 16
$T15 = -512						; size = 16
$T16 = -480						; size = 16
$T17 = -448						; size = 16
_vTemp2$ = -224						; size = 16
_vTemp1$ = -192						; size = 16
_vZeroMask$ = -160					; size = 16
_vResult$ = -128					; size = 16
_vTemp$ = -96						; size = 16
_vLengthSq$ = -64					; size = 16
_V$ = -32						; size = 16
?XMVector3Normalize@DirectX@@YQ?AT__m128@@T2@@Z PROC	; DirectX::XMVector3Normalize, COMDAT
; _V$ = xmm0

; 9459 : {

	push	ebx
	mov	ebx, esp
	sub	esp, 8
	and	esp, -16				; fffffff0H
	add	esp, 4
	push	ebp
	mov	ebp, DWORD PTR [ebx+4]
	mov	DWORD PTR [esp+4], ebp
	mov	ebp, esp
	sub	esp, 968				; 000003c8H
	push	esi
	push	edi
	push	ecx
	lea	edi, DWORD PTR [ebp-968]
	mov	ecx, 242				; 000000f2H
	mov	eax, -858993460				; ccccccccH
	rep stosd
	pop	ecx
	movaps	XMMWORD PTR _V$[ebp], xmm0

; 9460 : #if defined(_XM_NO_INTRINSICS_)
; 9461 :     float fLength;
; 9462 :     XMVECTOR vResult;
; 9463 : 
; 9464 :     vResult = XMVector3Length( V );
; 9465 :     fLength = vResult.vector4_f32[0];
; 9466 : 
; 9467 :     // Prevent divide by zero
; 9468 :     if (fLength > 0) {
; 9469 :         fLength = 1.0f/fLength;
; 9470 :     }
; 9471 :     
; 9472 :     vResult.vector4_f32[0] = V.vector4_f32[0]*fLength;
; 9473 :     vResult.vector4_f32[1] = V.vector4_f32[1]*fLength;
; 9474 :     vResult.vector4_f32[2] = V.vector4_f32[2]*fLength;
; 9475 :     vResult.vector4_f32[3] = V.vector4_f32[3]*fLength;
; 9476 :     return vResult;
; 9477 : 
; 9478 : #elif defined(_XM_ARM_NEON_INTRINSICS_)
; 9479 :     // Dot3
; 9480 :     float32x4_t vTemp = vmulq_f32( V, V );
; 9481 :     float32x2_t v1 = vget_low_f32( vTemp );
; 9482 :     float32x2_t v2 = vget_high_f32( vTemp );
; 9483 :     v1 = vpadd_f32( v1, v1 );
; 9484 :     v2 = vdup_lane_f32( v2, 0 );
; 9485 :     v1 = vadd_f32( v1, v2 );
; 9486 :     uint32x2_t VEqualsZero = vceq_f32( v1, vdup_n_f32(0) );
; 9487 :     uint32x2_t VEqualsInf = vceq_f32( v1, vget_low_f32(g_XMInfinity) );
; 9488 :     // Reciprocal sqrt (2 iterations of Newton-Raphson)
; 9489 :     float32x2_t S0 = vrsqrte_f32( v1 );
; 9490 :     float32x2_t P0 = vmul_f32( v1, S0 );
; 9491 :     float32x2_t R0 = vrsqrts_f32( P0, S0 );
; 9492 :     float32x2_t S1 = vmul_f32( S0, R0 );
; 9493 :     float32x2_t P1 = vmul_f32( v1, S1 );
; 9494 :     float32x2_t R1 = vrsqrts_f32( P1, S1 );
; 9495 :     v2 = vmul_f32( S1, R1 );
; 9496 :     // Normalize
; 9497 :     XMVECTOR vResult = vmulq_f32( V, vcombine_f32(v2,v2) );
; 9498 :     vResult = vbslq_f32( vcombine_f32(VEqualsZero,VEqualsZero), vdupq_n_f32(0), vResult );
; 9499 :     return vbslq_f32( vcombine_f32(VEqualsInf,VEqualsInf), g_XMQNaN, vResult );
; 9500 : #elif defined(_XM_SSE_INTRINSICS_)
; 9501 :     // Perform the dot product on x,y and z only
; 9502 :     XMVECTOR vLengthSq = _mm_mul_ps(V,V);

	movaps	xmm0, XMMWORD PTR _V$[ebp]
	mulps	xmm0, XMMWORD PTR _V$[ebp]
	movaps	XMMWORD PTR $T1[ebp], xmm0
	movaps	xmm0, XMMWORD PTR $T1[ebp]
	movaps	XMMWORD PTR _vLengthSq$[ebp], xmm0

; 9503 :     XMVECTOR vTemp = XM_PERMUTE_PS(vLengthSq,_MM_SHUFFLE(2,1,2,1));

	movaps	xmm0, XMMWORD PTR _vLengthSq$[ebp]
	shufps	xmm0, XMMWORD PTR _vLengthSq$[ebp], 153	; 00000099H
	movaps	XMMWORD PTR $T2[ebp], xmm0
	movaps	xmm0, XMMWORD PTR $T2[ebp]
	movaps	XMMWORD PTR _vTemp$[ebp], xmm0

; 9504 :     vLengthSq = _mm_add_ss(vLengthSq,vTemp);

	movaps	xmm0, XMMWORD PTR _vLengthSq$[ebp]
	addss	xmm0, XMMWORD PTR _vTemp$[ebp]
	movaps	XMMWORD PTR $T3[ebp], xmm0
	movaps	xmm0, XMMWORD PTR $T3[ebp]
	movaps	XMMWORD PTR _vLengthSq$[ebp], xmm0

; 9505 :     vTemp = XM_PERMUTE_PS(vTemp,_MM_SHUFFLE(1,1,1,1));

	movaps	xmm0, XMMWORD PTR _vTemp$[ebp]
	shufps	xmm0, XMMWORD PTR _vTemp$[ebp], 85	; 00000055H
	movaps	XMMWORD PTR $T4[ebp], xmm0
	movaps	xmm0, XMMWORD PTR $T4[ebp]
	movaps	XMMWORD PTR _vTemp$[ebp], xmm0

; 9506 :     vLengthSq = _mm_add_ss(vLengthSq,vTemp);

	movaps	xmm0, XMMWORD PTR _vLengthSq$[ebp]
	addss	xmm0, XMMWORD PTR _vTemp$[ebp]
	movaps	XMMWORD PTR $T5[ebp], xmm0
	movaps	xmm0, XMMWORD PTR $T5[ebp]
	movaps	XMMWORD PTR _vLengthSq$[ebp], xmm0

; 9507 :     vLengthSq = XM_PERMUTE_PS(vLengthSq,_MM_SHUFFLE(0,0,0,0));

	movaps	xmm0, XMMWORD PTR _vLengthSq$[ebp]
	shufps	xmm0, XMMWORD PTR _vLengthSq$[ebp], 0
	movaps	XMMWORD PTR $T6[ebp], xmm0
	movaps	xmm0, XMMWORD PTR $T6[ebp]
	movaps	XMMWORD PTR _vLengthSq$[ebp], xmm0

; 9508 :     // Prepare for the division
; 9509 :     XMVECTOR vResult = _mm_sqrt_ps(vLengthSq);

	sqrtps	xmm0, XMMWORD PTR _vLengthSq$[ebp]
	movaps	XMMWORD PTR $T7[ebp], xmm0
	movaps	xmm0, XMMWORD PTR $T7[ebp]
	movaps	XMMWORD PTR _vResult$[ebp], xmm0

; 9510 :     // Create zero with a single instruction
; 9511 :     XMVECTOR vZeroMask = _mm_setzero_ps();

	xorps	xmm0, xmm0
	movaps	XMMWORD PTR $T8[ebp], xmm0
	movaps	xmm0, XMMWORD PTR $T8[ebp]
	movaps	XMMWORD PTR _vZeroMask$[ebp], xmm0

; 9512 :     // Test for a divide by zero (Must be FP to detect -0.0)
; 9513 :     vZeroMask = _mm_cmpneq_ps(vZeroMask,vResult);

	movaps	xmm0, XMMWORD PTR _vZeroMask$[ebp]
	cmpneqps xmm0, XMMWORD PTR _vResult$[ebp]
	movaps	XMMWORD PTR $T9[ebp], xmm0
	movaps	xmm0, XMMWORD PTR $T9[ebp]
	movaps	XMMWORD PTR _vZeroMask$[ebp], xmm0

; 9514 :     // Failsafe on zero (Or epsilon) length planes
; 9515 :     // If the length is infinity, set the elements to zero
; 9516 :     vLengthSq = _mm_cmpneq_ps(vLengthSq,g_XMInfinity);

	lea	eax, DWORD PTR $T10[ebp]
	push	eax
	mov	ecx, OFFSET ?g_XMInfinity@DirectX@@3UXMVECTORI32@1@B ; DirectX::g_XMInfinity
	call	??BXMVECTORI32@DirectX@@QBE?AT__m128@@XZ ; DirectX::XMVECTORI32::operator __m128
	movups	xmm0, XMMWORD PTR [eax]
	movaps	xmm1, XMMWORD PTR _vLengthSq$[ebp]
	cmpneqps xmm1, xmm0
	movaps	XMMWORD PTR $T11[ebp], xmm1
	movaps	xmm0, XMMWORD PTR $T11[ebp]
	movaps	XMMWORD PTR _vLengthSq$[ebp], xmm0

; 9517 :     // Divide to perform the normalization
; 9518 :     vResult = _mm_div_ps(V,vResult);

	movaps	xmm0, XMMWORD PTR _V$[ebp]
	divps	xmm0, XMMWORD PTR _vResult$[ebp]
	movaps	XMMWORD PTR $T12[ebp], xmm0
	movaps	xmm0, XMMWORD PTR $T12[ebp]
	movaps	XMMWORD PTR _vResult$[ebp], xmm0

; 9519 :     // Any that are infinity, set to zero
; 9520 :     vResult = _mm_and_ps(vResult,vZeroMask);

	movaps	xmm0, XMMWORD PTR _vResult$[ebp]
	andps	xmm0, XMMWORD PTR _vZeroMask$[ebp]
	movaps	XMMWORD PTR $T13[ebp], xmm0
	movaps	xmm0, XMMWORD PTR $T13[ebp]
	movaps	XMMWORD PTR _vResult$[ebp], xmm0

; 9521 :     // Select qnan or result based on infinite length
; 9522 :     XMVECTOR vTemp1 = _mm_andnot_ps(vLengthSq,g_XMQNaN);

	lea	eax, DWORD PTR $T14[ebp]
	push	eax
	mov	ecx, OFFSET ?g_XMQNaN@DirectX@@3UXMVECTORI32@1@B ; DirectX::g_XMQNaN
	call	??BXMVECTORI32@DirectX@@QBE?AT__m128@@XZ ; DirectX::XMVECTORI32::operator __m128
	movups	xmm0, XMMWORD PTR [eax]
	movaps	xmm1, XMMWORD PTR _vLengthSq$[ebp]
	andnps	xmm1, xmm0
	movaps	XMMWORD PTR $T15[ebp], xmm1
	movaps	xmm0, XMMWORD PTR $T15[ebp]
	movaps	XMMWORD PTR _vTemp1$[ebp], xmm0

; 9523 :     XMVECTOR vTemp2 = _mm_and_ps(vResult,vLengthSq);

	movaps	xmm0, XMMWORD PTR _vResult$[ebp]
	andps	xmm0, XMMWORD PTR _vLengthSq$[ebp]
	movaps	XMMWORD PTR $T16[ebp], xmm0
	movaps	xmm0, XMMWORD PTR $T16[ebp]
	movaps	XMMWORD PTR _vTemp2$[ebp], xmm0

; 9524 :     vResult = _mm_or_ps(vTemp1,vTemp2);

	movaps	xmm0, XMMWORD PTR _vTemp1$[ebp]
	orps	xmm0, XMMWORD PTR _vTemp2$[ebp]
	movaps	XMMWORD PTR $T17[ebp], xmm0
	movaps	xmm0, XMMWORD PTR $T17[ebp]
	movaps	XMMWORD PTR _vResult$[ebp], xmm0

; 9525 :     return vResult;

	movaps	xmm0, XMMWORD PTR _vResult$[ebp]

; 9526 : #else // _XM_VMX128_INTRINSICS_
; 9527 : #endif // _XM_VMX128_INTRINSICS_
; 9528 : }

	pop	edi
	pop	esi
	mov	esp, ebp
	pop	ebp
	mov	esp, ebx
	pop	ebx
	ret	0
?XMVector3Normalize@DirectX@@YQ?AT__m128@@T2@@Z ENDP	; DirectX::XMVector3Normalize
_TEXT	ENDS
; Function compile flags: /Odtp /RTCsu /ZI
; File c:\program files (x86)\windows kits\8.1\include\um\directxmathvector.inl
;	COMDAT ?XMVector3IsInfinite@DirectX@@YQ_NT__m128@@@Z
_TEXT	SEGMENT
tv80 = -392						; size = 4
$T1 = -384						; size = 16
$T2 = -352						; size = 16
$T3 = -320						; size = 16
$T4 = -288						; size = 16
_vTemp$ = -64						; size = 16
_V$ = -32						; size = 16
?XMVector3IsInfinite@DirectX@@YQ_NT__m128@@@Z PROC	; DirectX::XMVector3IsInfinite, COMDAT
; _V$ = xmm0

; 9058 : {

	push	ebx
	mov	ebx, esp
	sub	esp, 8
	and	esp, -16				; fffffff0H
	add	esp, 4
	push	ebp
	mov	ebp, DWORD PTR [ebx+4]
	mov	DWORD PTR [esp+4], ebp
	mov	ebp, esp
	sub	esp, 392				; 00000188H
	push	esi
	push	edi
	push	ecx
	lea	edi, DWORD PTR [ebp-392]
	mov	ecx, 98					; 00000062H
	mov	eax, -858993460				; ccccccccH
	rep stosd
	pop	ecx
	movaps	XMMWORD PTR _V$[ebp], xmm0

; 9059 : #if defined(_XM_NO_INTRINSICS_)
; 9060 :     return (XMISINF(V.vector4_f32[0]) ||
; 9061 :             XMISINF(V.vector4_f32[1]) ||
; 9062 :             XMISINF(V.vector4_f32[2]));
; 9063 : #elif defined(_XM_ARM_NEON_INTRINSICS_)
; 9064 :     // Mask off the sign bit
; 9065 :     uint32x4_t vTempInf = vandq_u32( V, g_XMAbsMask );
; 9066 :     // Compare to infinity
; 9067 :     vTempInf = vceqq_f32(vTempInf, g_XMInfinity );
; 9068 :     // If any are infinity, the signs are true.
; 9069 :     int8x8x2_t vTemp = vzip_u8(vget_low_u8(vTempInf), vget_high_u8(vTempInf));
; 9070 :     vTemp = vzip_u16(vTemp.val[0], vTemp.val[1]);
; 9071 :     return ( (vget_lane_u32(vTemp.val[1], 1) & 0xFFFFFFU) != 0 );
; 9072 : #elif defined(_XM_SSE_INTRINSICS_)
; 9073 :     // Mask off the sign bit
; 9074 :     __m128 vTemp = _mm_and_ps(V,g_XMAbsMask);

	lea	eax, DWORD PTR $T1[ebp]
	push	eax
	mov	ecx, OFFSET ?g_XMAbsMask@DirectX@@3UXMVECTORI32@1@B ; DirectX::g_XMAbsMask
	call	??BXMVECTORI32@DirectX@@QBE?AT__m128@@XZ ; DirectX::XMVECTORI32::operator __m128
	movups	xmm0, XMMWORD PTR [eax]
	movaps	xmm1, XMMWORD PTR _V$[ebp]
	andps	xmm1, xmm0
	movaps	XMMWORD PTR $T2[ebp], xmm1
	movaps	xmm0, XMMWORD PTR $T2[ebp]
	movaps	XMMWORD PTR _vTemp$[ebp], xmm0

; 9075 :     // Compare to infinity
; 9076 :     vTemp = _mm_cmpeq_ps(vTemp,g_XMInfinity);

	lea	eax, DWORD PTR $T3[ebp]
	push	eax
	mov	ecx, OFFSET ?g_XMInfinity@DirectX@@3UXMVECTORI32@1@B ; DirectX::g_XMInfinity
	call	??BXMVECTORI32@DirectX@@QBE?AT__m128@@XZ ; DirectX::XMVECTORI32::operator __m128
	movups	xmm0, XMMWORD PTR [eax]
	movaps	xmm1, XMMWORD PTR _vTemp$[ebp]
	cmpeqps	xmm1, xmm0
	movaps	XMMWORD PTR $T4[ebp], xmm1
	movaps	xmm0, XMMWORD PTR $T4[ebp]
	movaps	XMMWORD PTR _vTemp$[ebp], xmm0

; 9077 :     // If x,y or z are infinity, the signs are true.
; 9078 :     return ((_mm_movemask_ps(vTemp)&7) != 0);

	movaps	xmm0, XMMWORD PTR _vTemp$[ebp]
	movmskps eax, xmm0
	and	eax, 7
	je	SHORT $LN3@XMVector3I
	mov	DWORD PTR tv80[ebp], 1
	jmp	SHORT $LN4@XMVector3I
$LN3@XMVector3I:
	mov	DWORD PTR tv80[ebp], 0
$LN4@XMVector3I:
	mov	al, BYTE PTR tv80[ebp]

; 9079 : #else // _XM_VMX128_INTRINSICS_
; 9080 : #endif // _XM_VMX128_INTRINSICS_
; 9081 : }

	pop	edi
	pop	esi
	mov	esp, ebp
	pop	ebp
	mov	esp, ebx
	pop	ebx
	ret	0
?XMVector3IsInfinite@DirectX@@YQ_NT__m128@@@Z ENDP	; DirectX::XMVector3IsInfinite
_TEXT	ENDS
; Function compile flags: /Odtp /RTCsu /ZI
; File c:\program files (x86)\windows kits\8.1\include\um\directxmathvector.inl
;	COMDAT ?XMVector3Equal@DirectX@@YQ_NT__m128@@0@Z
_TEXT	SEGMENT
tv73 = -332						; size = 4
tv71 = -328						; size = 4
$T1 = -320						; size = 16
_vTemp$ = -96						; size = 16
_V2$ = -64						; size = 16
_V1$ = -32						; size = 16
?XMVector3Equal@DirectX@@YQ_NT__m128@@0@Z PROC		; DirectX::XMVector3Equal, COMDAT
; _V1$ = xmm0
; _V2$ = xmm1

; 8539 : {

	push	ebx
	mov	ebx, esp
	sub	esp, 8
	and	esp, -16				; fffffff0H
	add	esp, 4
	push	ebp
	mov	ebp, DWORD PTR [ebx+4]
	mov	DWORD PTR [esp+4], ebp
	mov	ebp, esp
	sub	esp, 344				; 00000158H
	push	esi
	push	edi
	push	ecx
	lea	edi, DWORD PTR [ebp-344]
	mov	ecx, 86					; 00000056H
	mov	eax, -858993460				; ccccccccH
	rep stosd
	pop	ecx
	movaps	XMMWORD PTR _V2$[ebp], xmm1
	movaps	XMMWORD PTR _V1$[ebp], xmm0

; 8540 : #if defined(_XM_NO_INTRINSICS_)
; 8541 :     return (((V1.vector4_f32[0] == V2.vector4_f32[0]) && (V1.vector4_f32[1] == V2.vector4_f32[1]) && (V1.vector4_f32[2] == V2.vector4_f32[2])) != 0);
; 8542 : #elif defined(_XM_ARM_NEON_INTRINSICS_)
; 8543 :     uint32x4_t vResult = vceqq_f32( V1, V2 );
; 8544 :     int8x8x2_t vTemp = vzip_u8(vget_low_u8(vResult), vget_high_u8(vResult));
; 8545 :     vTemp = vzip_u16(vTemp.val[0], vTemp.val[1]);
; 8546 :     return ( (vget_lane_u32(vTemp.val[1], 1) & 0xFFFFFFU) == 0xFFFFFFU );
; 8547 : #elif defined(_XM_SSE_INTRINSICS_)
; 8548 :     XMVECTOR vTemp = _mm_cmpeq_ps(V1,V2);

	movaps	xmm0, XMMWORD PTR _V1$[ebp]
	cmpeqps	xmm0, XMMWORD PTR _V2$[ebp]
	movaps	XMMWORD PTR $T1[ebp], xmm0
	movaps	xmm0, XMMWORD PTR $T1[ebp]
	movaps	XMMWORD PTR _vTemp$[ebp], xmm0

; 8549 :     return (((_mm_movemask_ps(vTemp)&7)==7) != 0);

	movaps	xmm0, XMMWORD PTR _vTemp$[ebp]
	movmskps eax, xmm0
	and	eax, 7
	cmp	eax, 7
	jne	SHORT $LN3@XMVector3E
	mov	DWORD PTR tv71[ebp], 1
	jmp	SHORT $LN4@XMVector3E
$LN3@XMVector3E:
	mov	DWORD PTR tv71[ebp], 0
$LN4@XMVector3E:
	cmp	DWORD PTR tv71[ebp], 0
	je	SHORT $LN5@XMVector3E
	mov	DWORD PTR tv73[ebp], 1
	jmp	SHORT $LN6@XMVector3E
$LN5@XMVector3E:
	mov	DWORD PTR tv73[ebp], 0
$LN6@XMVector3E:
	mov	al, BYTE PTR tv73[ebp]

; 8550 : #else // _XM_VMX128_INTRINSICS_
; 8551 :     return XMComparisonAllTrue(XMVector3EqualR(V1, V2));
; 8552 : #endif
; 8553 : }

	pop	edi
	pop	esi
	mov	esp, ebp
	pop	ebp
	mov	esp, ebx
	pop	ebx
	ret	0
?XMVector3Equal@DirectX@@YQ_NT__m128@@0@Z ENDP		; DirectX::XMVector3Equal
_TEXT	ENDS
; Function compile flags: /Odtp /RTCsu /ZI
; File c:\program files (x86)\windows kits\8.1\include\um\directxmathvector.inl
;	COMDAT ?XMVectorGetW@DirectX@@YQMT__m128@@@Z
_TEXT	SEGMENT
tv70 = -296						; size = 4
$T1 = -288						; size = 16
_vTemp$ = -64						; size = 16
_V$ = -32						; size = 16
?XMVectorGetW@DirectX@@YQMT__m128@@@Z PROC		; DirectX::XMVectorGetW, COMDAT
; _V$ = xmm0

; 463  : {

	push	ebx
	mov	ebx, esp
	sub	esp, 8
	and	esp, -16				; fffffff0H
	add	esp, 4
	push	ebp
	mov	ebp, DWORD PTR [ebx+4]
	mov	DWORD PTR [esp+4], ebp
	mov	ebp, esp
	sub	esp, 296				; 00000128H
	push	esi
	push	edi
	push	ecx
	lea	edi, DWORD PTR [ebp-296]
	mov	ecx, 74					; 0000004aH
	mov	eax, -858993460				; ccccccccH
	rep stosd
	pop	ecx
	movaps	XMMWORD PTR _V$[ebp], xmm0

; 464  : #if defined(_XM_NO_INTRINSICS_)
; 465  :     return V.vector4_f32[3];
; 466  : #elif defined(_XM_ARM_NEON_INTRINSICS_)
; 467  :     return vgetq_lane_f32(V, 3);
; 468  : #elif defined(_XM_SSE_INTRINSICS_)
; 469  :     XMVECTOR vTemp = XM_PERMUTE_PS(V,_MM_SHUFFLE(3,3,3,3));

	movaps	xmm0, XMMWORD PTR _V$[ebp]
	shufps	xmm0, XMMWORD PTR _V$[ebp], 255		; 000000ffH
	movaps	XMMWORD PTR $T1[ebp], xmm0
	movaps	xmm0, XMMWORD PTR $T1[ebp]
	movaps	XMMWORD PTR _vTemp$[ebp], xmm0

; 470  :     return _mm_cvtss_f32(vTemp);

	movaps	xmm0, XMMWORD PTR _vTemp$[ebp]
	movss	DWORD PTR tv70[ebp], xmm0
	movss	xmm0, DWORD PTR tv70[ebp]

; 471  : #else // _XM_VMX128_INTRINSICS_
; 472  : #endif // _XM_VMX128_INTRINSICS_
; 473  : }

	pop	edi
	pop	esi
	mov	esp, ebp
	pop	ebp
	mov	esp, ebx
	pop	ebx
	ret	0
?XMVectorGetW@DirectX@@YQMT__m128@@@Z ENDP		; DirectX::XMVectorGetW
_TEXT	ENDS
; Function compile flags: /Odtp /RTCsu /ZI
; File c:\program files (x86)\windows kits\8.1\include\um\directxmathvector.inl
;	COMDAT ?XMVectorGetZ@DirectX@@YQMT__m128@@@Z
_TEXT	SEGMENT
tv70 = -296						; size = 4
$T1 = -288						; size = 16
_vTemp$ = -64						; size = 16
_V$ = -32						; size = 16
?XMVectorGetZ@DirectX@@YQMT__m128@@@Z PROC		; DirectX::XMVectorGetZ, COMDAT
; _V$ = xmm0

; 449  : {

	push	ebx
	mov	ebx, esp
	sub	esp, 8
	and	esp, -16				; fffffff0H
	add	esp, 4
	push	ebp
	mov	ebp, DWORD PTR [ebx+4]
	mov	DWORD PTR [esp+4], ebp
	mov	ebp, esp
	sub	esp, 296				; 00000128H
	push	esi
	push	edi
	push	ecx
	lea	edi, DWORD PTR [ebp-296]
	mov	ecx, 74					; 0000004aH
	mov	eax, -858993460				; ccccccccH
	rep stosd
	pop	ecx
	movaps	XMMWORD PTR _V$[ebp], xmm0

; 450  : #if defined(_XM_NO_INTRINSICS_)
; 451  :     return V.vector4_f32[2];
; 452  : #elif defined(_XM_ARM_NEON_INTRINSICS_)
; 453  :     return vgetq_lane_f32(V, 2);
; 454  : #elif defined(_XM_SSE_INTRINSICS_)
; 455  :     XMVECTOR vTemp = XM_PERMUTE_PS(V,_MM_SHUFFLE(2,2,2,2));

	movaps	xmm0, XMMWORD PTR _V$[ebp]
	shufps	xmm0, XMMWORD PTR _V$[ebp], 170		; 000000aaH
	movaps	XMMWORD PTR $T1[ebp], xmm0
	movaps	xmm0, XMMWORD PTR $T1[ebp]
	movaps	XMMWORD PTR _vTemp$[ebp], xmm0

; 456  :     return _mm_cvtss_f32(vTemp);

	movaps	xmm0, XMMWORD PTR _vTemp$[ebp]
	movss	DWORD PTR tv70[ebp], xmm0
	movss	xmm0, DWORD PTR tv70[ebp]

; 457  : #else // _XM_VMX128_INTRINSICS_
; 458  : #endif // _XM_VMX128_INTRINSICS_
; 459  : }

	pop	edi
	pop	esi
	mov	esp, ebp
	pop	ebp
	mov	esp, ebx
	pop	ebx
	ret	0
?XMVectorGetZ@DirectX@@YQMT__m128@@@Z ENDP		; DirectX::XMVectorGetZ
_TEXT	ENDS
; Function compile flags: /Odtp /RTCsu /ZI
; File c:\program files (x86)\windows kits\8.1\include\um\directxmathvector.inl
;	COMDAT ?XMVectorGetY@DirectX@@YQMT__m128@@@Z
_TEXT	SEGMENT
tv70 = -296						; size = 4
$T1 = -288						; size = 16
_vTemp$ = -64						; size = 16
_V$ = -32						; size = 16
?XMVectorGetY@DirectX@@YQMT__m128@@@Z PROC		; DirectX::XMVectorGetY, COMDAT
; _V$ = xmm0

; 435  : {

	push	ebx
	mov	ebx, esp
	sub	esp, 8
	and	esp, -16				; fffffff0H
	add	esp, 4
	push	ebp
	mov	ebp, DWORD PTR [ebx+4]
	mov	DWORD PTR [esp+4], ebp
	mov	ebp, esp
	sub	esp, 296				; 00000128H
	push	esi
	push	edi
	push	ecx
	lea	edi, DWORD PTR [ebp-296]
	mov	ecx, 74					; 0000004aH
	mov	eax, -858993460				; ccccccccH
	rep stosd
	pop	ecx
	movaps	XMMWORD PTR _V$[ebp], xmm0

; 436  : #if defined(_XM_NO_INTRINSICS_)
; 437  :     return V.vector4_f32[1];
; 438  : #elif defined(_XM_ARM_NEON_INTRINSICS_)
; 439  :     return vgetq_lane_f32(V, 1);
; 440  : #elif defined(_XM_SSE_INTRINSICS_)
; 441  :     XMVECTOR vTemp = XM_PERMUTE_PS(V,_MM_SHUFFLE(1,1,1,1));

	movaps	xmm0, XMMWORD PTR _V$[ebp]
	shufps	xmm0, XMMWORD PTR _V$[ebp], 85		; 00000055H
	movaps	XMMWORD PTR $T1[ebp], xmm0
	movaps	xmm0, XMMWORD PTR $T1[ebp]
	movaps	XMMWORD PTR _vTemp$[ebp], xmm0

; 442  :     return _mm_cvtss_f32(vTemp);

	movaps	xmm0, XMMWORD PTR _vTemp$[ebp]
	movss	DWORD PTR tv70[ebp], xmm0
	movss	xmm0, DWORD PTR tv70[ebp]

; 443  : #else // _XM_VMX128_INTRINSICS_
; 444  : #endif // _XM_VMX128_INTRINSICS_
; 445  : }

	pop	edi
	pop	esi
	mov	esp, ebp
	pop	ebp
	mov	esp, ebx
	pop	ebx
	ret	0
?XMVectorGetY@DirectX@@YQMT__m128@@@Z ENDP		; DirectX::XMVectorGetY
_TEXT	ENDS
; Function compile flags: /Odtp /RTCsu /ZI
; File c:\program files (x86)\windows kits\8.1\include\um\directxmathvector.inl
;	COMDAT ?XMVectorGetX@DirectX@@YQMT__m128@@@Z
_TEXT	SEGMENT
tv66 = -232						; size = 4
_V$ = -32						; size = 16
?XMVectorGetX@DirectX@@YQMT__m128@@@Z PROC		; DirectX::XMVectorGetX, COMDAT
; _V$ = xmm0

; 422  : {

	push	ebx
	mov	ebx, esp
	sub	esp, 8
	and	esp, -16				; fffffff0H
	add	esp, 4
	push	ebp
	mov	ebp, DWORD PTR [ebx+4]
	mov	DWORD PTR [esp+4], ebp
	mov	ebp, esp
	sub	esp, 232				; 000000e8H
	push	esi
	push	edi
	push	ecx
	lea	edi, DWORD PTR [ebp-232]
	mov	ecx, 58					; 0000003aH
	mov	eax, -858993460				; ccccccccH
	rep stosd
	pop	ecx
	movaps	XMMWORD PTR _V$[ebp], xmm0

; 423  : #if defined(_XM_NO_INTRINSICS_)
; 424  :     return V.vector4_f32[0];
; 425  : #elif defined(_XM_ARM_NEON_INTRINSICS_)
; 426  :     return vgetq_lane_f32(V, 0);
; 427  : #elif defined(_XM_SSE_INTRINSICS_)
; 428  :     return _mm_cvtss_f32(V);

	movaps	xmm0, XMMWORD PTR _V$[ebp]
	movss	DWORD PTR tv66[ebp], xmm0
	movss	xmm0, DWORD PTR tv66[ebp]

; 429  : #else // _XM_VMX128_INTRINSICS_
; 430  : #endif // _XM_VMX128_INTRINSICS_
; 431  : }

	pop	edi
	pop	esi
	mov	esp, ebp
	pop	ebp
	mov	esp, ebx
	pop	ebx
	ret	0
?XMVectorGetX@DirectX@@YQMT__m128@@@Z ENDP		; DirectX::XMVectorGetX
_TEXT	ENDS
; Function compile flags: /Odtp /RTCsu /ZI
; File c:\program files (x86)\windows kits\8.1\include\um\directxmathvector.inl
;	COMDAT ?XMVectorSet@DirectX@@YQ?AT__m128@@MMMM@Z
_TEXT	SEGMENT
$T1 = -272						; size = 16
_w$ = -44						; size = 4
_z$ = -32						; size = 4
_y$ = -20						; size = 4
_x$ = -8						; size = 4
?XMVectorSet@DirectX@@YQ?AT__m128@@MMMM@Z PROC		; DirectX::XMVectorSet, COMDAT
; _x$ = xmm0s
; _y$ = xmm1s
; _z$ = xmm2s
; _w$ = xmm3s

; 72   : {

	push	ebx
	mov	ebx, esp
	sub	esp, 8
	and	esp, -16				; fffffff0H
	add	esp, 4
	push	ebp
	mov	ebp, DWORD PTR [ebx+4]
	mov	DWORD PTR [esp+4], ebp
	mov	ebp, esp
	sub	esp, 280				; 00000118H
	push	esi
	push	edi
	push	ecx
	lea	edi, DWORD PTR [ebp-280]
	mov	ecx, 70					; 00000046H
	mov	eax, -858993460				; ccccccccH
	rep stosd
	pop	ecx
	movss	DWORD PTR _w$[ebp], xmm3
	movss	DWORD PTR _z$[ebp], xmm2
	movss	DWORD PTR _y$[ebp], xmm1
	movss	DWORD PTR _x$[ebp], xmm0

; 73   : #if defined(_XM_NO_INTRINSICS_)
; 74   :     XMVECTORF32 vResult = {x,y,z,w};
; 75   :     return vResult.v;
; 76   : #elif defined(_XM_ARM_NEON_INTRINSICS_)
; 77   :     float32x2_t V0 = vcreate_f32(((uint64_t)*(const uint32_t *)&x) | ((uint64_t)(*(const uint32_t *)&y) << 32));
; 78   :     float32x2_t V1 = vcreate_f32(((uint64_t)*(const uint32_t *)&z) | ((uint64_t)(*(const uint32_t *)&w) << 32));
; 79   :     return vcombine_f32(V0, V1);
; 80   : #elif defined(_XM_SSE_INTRINSICS_)
; 81   :     return _mm_set_ps( w, z, y, x );

	movss	xmm0, DWORD PTR _x$[ebp]
	movss	xmm1, DWORD PTR _y$[ebp]
	movss	xmm2, DWORD PTR _z$[ebp]
	movss	xmm3, DWORD PTR _w$[ebp]
	unpcklps xmm0, xmm2
	unpcklps xmm1, xmm3
	unpcklps xmm0, xmm1
	movaps	XMMWORD PTR $T1[ebp], xmm0
	movaps	xmm0, XMMWORD PTR $T1[ebp]

; 82   : #else // _XM_VMX128_INTRINSICS_
; 83   : #endif // _XM_VMX128_INTRINSICS_
; 84   : }

	pop	edi
	pop	esi
	mov	esp, ebp
	pop	ebp
	mov	esp, ebx
	pop	ebx
	ret	0
?XMVectorSet@DirectX@@YQ?AT__m128@@MMMM@Z ENDP		; DirectX::XMVectorSet
_TEXT	ENDS
; Function compile flags: /Odtp /RTCsu /ZI
; File c:\program files (x86)\windows kits\8.1\include\um\directxmathvector.inl
;	COMDAT ?XMVectorZero@DirectX@@YQ?AT__m128@@XZ
_TEXT	SEGMENT
$T1 = -224						; size = 16
?XMVectorZero@DirectX@@YQ?AT__m128@@XZ PROC		; DirectX::XMVectorZero, COMDAT

; 51   : {

	push	ebx
	mov	ebx, esp
	sub	esp, 8
	and	esp, -16				; fffffff0H
	add	esp, 4
	push	ebp
	mov	ebp, DWORD PTR [ebx+4]
	mov	DWORD PTR [esp+4], ebp
	mov	ebp, esp
	sub	esp, 232				; 000000e8H
	push	esi
	push	edi
	push	ecx
	lea	edi, DWORD PTR [ebp-232]
	mov	ecx, 58					; 0000003aH
	mov	eax, -858993460				; ccccccccH
	rep stosd
	pop	ecx

; 52   : #if defined(_XM_NO_INTRINSICS_)
; 53   :     XMVECTOR vResult = {0.0f,0.0f,0.0f,0.0f};
; 54   :     return vResult;
; 55   : #elif defined(_XM_ARM_NEON_INTRINSICS_)
; 56   :     return vdupq_n_f32(0);
; 57   : #elif defined(_XM_SSE_INTRINSICS_)
; 58   :     return _mm_setzero_ps();

	xorps	xmm0, xmm0
	movaps	XMMWORD PTR $T1[ebp], xmm0
	movaps	xmm0, XMMWORD PTR $T1[ebp]

; 59   : #else // _XM_VMX128_INTRINSICS_
; 60   : #endif // _XM_VMX128_INTRINSICS_
; 61   : }

	pop	edi
	pop	esi
	mov	esp, ebp
	pop	ebp
	mov	esp, ebx
	pop	ebx
	ret	0
?XMVectorZero@DirectX@@YQ?AT__m128@@XZ ENDP		; DirectX::XMVectorZero
_TEXT	ENDS
; Function compile flags: /Odtp /RTCsu /ZI
; File c:\program files (x86)\windows kits\8.1\include\um\directxmath.h
;	COMDAT ??0XMFLOAT4@DirectX@@QAE@MMMM@Z
_TEXT	SEGMENT
_this$ = -8						; size = 4
__x$ = 8						; size = 4
__y$ = 12						; size = 4
__z$ = 16						; size = 4
__w$ = 20						; size = 4
??0XMFLOAT4@DirectX@@QAE@MMMM@Z PROC			; DirectX::XMFLOAT4::XMFLOAT4, COMDAT
; _this$ = ecx

; 579  :     XMFLOAT4(float _x, float _y, float _z, float _w) : x(_x), y(_y), z(_z), w(_w) {}

	push	ebp
	mov	ebp, esp
	sub	esp, 204				; 000000ccH
	push	ebx
	push	esi
	push	edi
	push	ecx
	lea	edi, DWORD PTR [ebp-204]
	mov	ecx, 51					; 00000033H
	mov	eax, -858993460				; ccccccccH
	rep stosd
	pop	ecx
	mov	DWORD PTR _this$[ebp], ecx
	mov	eax, DWORD PTR _this$[ebp]
	movss	xmm0, DWORD PTR __x$[ebp]
	movss	DWORD PTR [eax], xmm0
	mov	eax, DWORD PTR _this$[ebp]
	movss	xmm0, DWORD PTR __y$[ebp]
	movss	DWORD PTR [eax+4], xmm0
	mov	eax, DWORD PTR _this$[ebp]
	movss	xmm0, DWORD PTR __z$[ebp]
	movss	DWORD PTR [eax+8], xmm0
	mov	eax, DWORD PTR _this$[ebp]
	movss	xmm0, DWORD PTR __w$[ebp]
	movss	DWORD PTR [eax+12], xmm0
	mov	eax, DWORD PTR _this$[ebp]
	pop	edi
	pop	esi
	pop	ebx
	mov	esp, ebp
	pop	ebp
	ret	16					; 00000010H
??0XMFLOAT4@DirectX@@QAE@MMMM@Z ENDP			; DirectX::XMFLOAT4::XMFLOAT4
_TEXT	ENDS
; Function compile flags: /Odtp /RTCsu /ZI
; File c:\program files (x86)\windows kits\8.1\include\um\directxmath.h
;	COMDAT ??4XMFLOAT3@DirectX@@QAEAAU01@ABU01@@Z
_TEXT	SEGMENT
_this$ = -8						; size = 4
_Float3$ = 8						; size = 4
??4XMFLOAT3@DirectX@@QAEAAU01@ABU01@@Z PROC		; DirectX::XMFLOAT3::operator=, COMDAT
; _this$ = ecx

; 527  :     XMFLOAT3& operator= (const XMFLOAT3& Float3) { x = Float3.x; y = Float3.y; z = Float3.z; return *this; }

	push	ebp
	mov	ebp, esp
	sub	esp, 204				; 000000ccH
	push	ebx
	push	esi
	push	edi
	push	ecx
	lea	edi, DWORD PTR [ebp-204]
	mov	ecx, 51					; 00000033H
	mov	eax, -858993460				; ccccccccH
	rep stosd
	pop	ecx
	mov	DWORD PTR _this$[ebp], ecx
	mov	eax, DWORD PTR _this$[ebp]
	mov	ecx, DWORD PTR _Float3$[ebp]
	mov	edx, DWORD PTR [ecx]
	mov	DWORD PTR [eax], edx
	mov	eax, DWORD PTR _this$[ebp]
	mov	ecx, DWORD PTR _Float3$[ebp]
	mov	edx, DWORD PTR [ecx+4]
	mov	DWORD PTR [eax+4], edx
	mov	eax, DWORD PTR _this$[ebp]
	mov	ecx, DWORD PTR _Float3$[ebp]
	mov	edx, DWORD PTR [ecx+8]
	mov	DWORD PTR [eax+8], edx
	mov	eax, DWORD PTR _this$[ebp]
	pop	edi
	pop	esi
	pop	ebx
	mov	esp, ebp
	pop	ebp
	ret	4
??4XMFLOAT3@DirectX@@QAEAAU01@ABU01@@Z ENDP		; DirectX::XMFLOAT3::operator=
_TEXT	ENDS
; Function compile flags: /Odtp /RTCsu /ZI
; File c:\program files (x86)\windows kits\8.1\include\um\directxmath.h
;	COMDAT ??0XMFLOAT3@DirectX@@QAE@MMM@Z
_TEXT	SEGMENT
_this$ = -8						; size = 4
__x$ = 8						; size = 4
__y$ = 12						; size = 4
__z$ = 16						; size = 4
??0XMFLOAT3@DirectX@@QAE@MMM@Z PROC			; DirectX::XMFLOAT3::XMFLOAT3, COMDAT
; _this$ = ecx

; 524  :     XMFLOAT3(float _x, float _y, float _z) : x(_x), y(_y), z(_z) {}

	push	ebp
	mov	ebp, esp
	sub	esp, 204				; 000000ccH
	push	ebx
	push	esi
	push	edi
	push	ecx
	lea	edi, DWORD PTR [ebp-204]
	mov	ecx, 51					; 00000033H
	mov	eax, -858993460				; ccccccccH
	rep stosd
	pop	ecx
	mov	DWORD PTR _this$[ebp], ecx
	mov	eax, DWORD PTR _this$[ebp]
	movss	xmm0, DWORD PTR __x$[ebp]
	movss	DWORD PTR [eax], xmm0
	mov	eax, DWORD PTR _this$[ebp]
	movss	xmm0, DWORD PTR __y$[ebp]
	movss	DWORD PTR [eax+4], xmm0
	mov	eax, DWORD PTR _this$[ebp]
	movss	xmm0, DWORD PTR __z$[ebp]
	movss	DWORD PTR [eax+8], xmm0
	mov	eax, DWORD PTR _this$[ebp]
	pop	edi
	pop	esi
	pop	ebx
	mov	esp, ebp
	pop	ebp
	ret	12					; 0000000cH
??0XMFLOAT3@DirectX@@QAE@MMM@Z ENDP			; DirectX::XMFLOAT3::XMFLOAT3
_TEXT	ENDS
; Function compile flags: /Odtp /RTCsu /ZI
; File c:\program files (x86)\windows kits\8.1\include\um\directxmath.h
;	COMDAT ??0XMFLOAT3@DirectX@@QAE@XZ
_TEXT	SEGMENT
_this$ = -8						; size = 4
??0XMFLOAT3@DirectX@@QAE@XZ PROC			; DirectX::XMFLOAT3::XMFLOAT3, COMDAT
; _this$ = ecx

; 523  :     XMFLOAT3() {}

	push	ebp
	mov	ebp, esp
	sub	esp, 204				; 000000ccH
	push	ebx
	push	esi
	push	edi
	push	ecx
	lea	edi, DWORD PTR [ebp-204]
	mov	ecx, 51					; 00000033H
	mov	eax, -858993460				; ccccccccH
	rep stosd
	pop	ecx
	mov	DWORD PTR _this$[ebp], ecx
	mov	eax, DWORD PTR _this$[ebp]
	pop	edi
	pop	esi
	pop	ebx
	mov	esp, ebp
	pop	ebp
	ret	0
??0XMFLOAT3@DirectX@@QAE@XZ ENDP			; DirectX::XMFLOAT3::XMFLOAT3
_TEXT	ENDS
; Function compile flags: /Odtp /RTCsu /ZI
; File c:\program files (x86)\windows kits\8.1\include\um\directxmathmatrix.inl
;	COMDAT ??DXMMATRIX@DirectX@@QBQ?AU01@U01@@Z
_TEXT	SEGMENT
$T1 = -448						; size = 64
$T2 = -368						; size = 64
_this$ = -104						; size = 4
___$ReturnUdt$ = -92					; size = 4
_M$ = -80						; size = 64
__$ArrayPad$ = -4					; size = 4
??DXMMATRIX@DirectX@@QBQ?AU01@U01@@Z PROC		; DirectX::XMMATRIX::operator*, COMDAT
; _this$ = ecx
; ___$ReturnUdt$ = edx

; 3091 : {

	push	ebx
	mov	ebx, esp
	sub	esp, 8
	and	esp, -16				; fffffff0H
	add	esp, 4
	push	ebp
	mov	ebp, DWORD PTR [ebx+4]
	mov	DWORD PTR [esp+4], ebp
	mov	ebp, esp
	sub	esp, 456				; 000001c8H
	push	esi
	push	edi
	push	ecx
	lea	edi, DWORD PTR [ebp-456]
	mov	ecx, 114				; 00000072H
	mov	eax, -858993460				; ccccccccH
	rep stosd
	pop	ecx
	mov	eax, DWORD PTR ___security_cookie
	xor	eax, ebp
	mov	DWORD PTR __$ArrayPad$[ebp], eax
	movaps	XMMWORD PTR _M$[ebp+48], xmm3
	movaps	XMMWORD PTR _M$[ebp+32], xmm2
	movaps	XMMWORD PTR _M$[ebp+16], xmm1
	movaps	XMMWORD PTR _M$[ebp], xmm0
	mov	DWORD PTR ___$ReturnUdt$[ebp], edx
	mov	DWORD PTR _this$[ebp], ecx

; 3092 :     return XMMatrixMultiply(*this, M);

	mov	eax, DWORD PTR _this$[ebp]
	lea	ecx, DWORD PTR _M$[ebp]
	movaps	xmm0, XMMWORD PTR [eax]
	movaps	xmm1, XMMWORD PTR [eax+16]
	movaps	xmm2, XMMWORD PTR [eax+32]
	movaps	xmm3, XMMWORD PTR [eax+48]
	call	?XMMatrixMultiply@DirectX@@YQ?AUXMMATRIX@1@U21@ABU21@@Z ; DirectX::XMMatrixMultiply
	movaps	XMMWORD PTR $T2[ebp+48], xmm3
	movaps	XMMWORD PTR $T2[ebp+32], xmm2
	movaps	XMMWORD PTR $T2[ebp+16], xmm1
	movaps	XMMWORD PTR $T2[ebp], xmm0
	mov	ecx, 16					; 00000010H
	lea	esi, DWORD PTR $T2[ebp]
	lea	edi, DWORD PTR $T1[ebp]
	rep movsd
	mov	ecx, 16					; 00000010H
	lea	esi, DWORD PTR $T1[ebp]
	mov	edi, DWORD PTR ___$ReturnUdt$[ebp]
	rep movsd
	mov	eax, DWORD PTR ___$ReturnUdt$[ebp]

; 3093 : }

	push	edx
	mov	ecx, ebp
	push	eax
	lea	edx, DWORD PTR $LN5@operator
	call	@_RTC_CheckStackVars@8
	pop	eax
	pop	edx
	pop	edi
	pop	esi
	mov	ecx, DWORD PTR __$ArrayPad$[ebp]
	xor	ecx, ebp
	call	@__security_check_cookie@4
	mov	esp, ebp
	pop	ebp
	mov	esp, ebx
	pop	ebx
	ret	0
	npad	2
$LN5@operator:
	DD	1
	DD	$LN4@operator
$LN4@operator:
	DD	-80					; ffffffb0H
	DD	64					; 00000040H
	DD	$LN3@operator
$LN3@operator:
	DB	77					; 0000004dH
	DB	0
??DXMMATRIX@DirectX@@QBQ?AU01@U01@@Z ENDP		; DirectX::XMMATRIX::operator*
_TEXT	ENDS
; Function compile flags: /Odtp /RTCsu /ZI
; File c:\program files (x86)\windows kits\8.1\include\um\directxmath.h
;	COMDAT ??4XMMATRIX@DirectX@@QAEAAU01@ABU01@@Z
_TEXT	SEGMENT
_this$ = -8						; size = 4
_M$ = 8							; size = 4
??4XMMATRIX@DirectX@@QAEAAU01@ABU01@@Z PROC		; DirectX::XMMATRIX::operator=, COMDAT
; _this$ = ecx

; 444  :     XMMATRIX&   operator= (const XMMATRIX& M) { r[0] = M.r[0]; r[1] = M.r[1]; r[2] = M.r[2]; r[3] = M.r[3]; return *this; }

	push	ebp
	mov	ebp, esp
	sub	esp, 204				; 000000ccH
	push	ebx
	push	esi
	push	edi
	push	ecx
	lea	edi, DWORD PTR [ebp-204]
	mov	ecx, 51					; 00000033H
	mov	eax, -858993460				; ccccccccH
	rep stosd
	pop	ecx
	mov	DWORD PTR _this$[ebp], ecx
	mov	eax, 16					; 00000010H
	imul	ecx, eax, 0
	add	ecx, DWORD PTR _M$[ebp]
	mov	edx, 16					; 00000010H
	imul	eax, edx, 0
	add	eax, DWORD PTR _this$[ebp]
	movups	xmm0, XMMWORD PTR [ecx]
	movups	XMMWORD PTR [eax], xmm0
	mov	eax, 16					; 00000010H
	shl	eax, 0
	add	eax, DWORD PTR _M$[ebp]
	mov	ecx, 16					; 00000010H
	shl	ecx, 0
	add	ecx, DWORD PTR _this$[ebp]
	movups	xmm0, XMMWORD PTR [eax]
	movups	XMMWORD PTR [ecx], xmm0
	mov	eax, 16					; 00000010H
	shl	eax, 1
	add	eax, DWORD PTR _M$[ebp]
	mov	ecx, 16					; 00000010H
	shl	ecx, 1
	add	ecx, DWORD PTR _this$[ebp]
	movups	xmm0, XMMWORD PTR [eax]
	movups	XMMWORD PTR [ecx], xmm0
	mov	eax, 16					; 00000010H
	imul	ecx, eax, 3
	add	ecx, DWORD PTR _M$[ebp]
	mov	edx, 16					; 00000010H
	imul	eax, edx, 3
	add	eax, DWORD PTR _this$[ebp]
	movups	xmm0, XMMWORD PTR [ecx]
	movups	XMMWORD PTR [eax], xmm0
	mov	eax, DWORD PTR _this$[ebp]
	pop	edi
	pop	esi
	pop	ebx
	mov	esp, ebp
	pop	ebp
	ret	4
??4XMMATRIX@DirectX@@QAEAAU01@ABU01@@Z ENDP		; DirectX::XMMATRIX::operator=
_TEXT	ENDS
; Function compile flags: /Odtp /RTCsu /ZI
; File c:\program files (x86)\windows kits\8.1\include\um\directxmath.h
;	COMDAT ??0XMMATRIX@DirectX@@QAE@XZ
_TEXT	SEGMENT
_this$ = -8						; size = 4
??0XMMATRIX@DirectX@@QAE@XZ PROC			; DirectX::XMMATRIX::XMMATRIX, COMDAT
; _this$ = ecx

; 431  :     XMMATRIX() {}

	push	ebp
	mov	ebp, esp
	sub	esp, 204				; 000000ccH
	push	ebx
	push	esi
	push	edi
	push	ecx
	lea	edi, DWORD PTR [ebp-204]
	mov	ecx, 51					; 00000033H
	mov	eax, -858993460				; ccccccccH
	rep stosd
	pop	ecx
	mov	DWORD PTR _this$[ebp], ecx
	mov	eax, DWORD PTR _this$[ebp]
	pop	edi
	pop	esi
	pop	ebx
	mov	esp, ebp
	pop	ebp
	ret	0
??0XMMATRIX@DirectX@@QAE@XZ ENDP			; DirectX::XMMATRIX::XMMATRIX
_TEXT	ENDS
; Function compile flags: /Odtp /RTCsu /ZI
; File c:\program files (x86)\windows kits\8.1\include\um\directxmath.h
;	COMDAT ??BXMVECTORI32@DirectX@@QBE?AT__m128@@XZ
_TEXT	SEGMENT
_this$ = -8						; size = 4
___$ReturnUdt$ = 8					; size = 4
??BXMVECTORI32@DirectX@@QBE?AT__m128@@XZ PROC		; DirectX::XMVECTORI32::operator __m128, COMDAT
; _this$ = ecx

; 330  :     inline operator XMVECTOR() const { return v; }

	push	ebp
	mov	ebp, esp
	sub	esp, 204				; 000000ccH
	push	ebx
	push	esi
	push	edi
	push	ecx
	lea	edi, DWORD PTR [ebp-204]
	mov	ecx, 51					; 00000033H
	mov	eax, -858993460				; ccccccccH
	rep stosd
	pop	ecx
	mov	DWORD PTR _this$[ebp], ecx
	mov	eax, DWORD PTR _this$[ebp]
	mov	ecx, DWORD PTR ___$ReturnUdt$[ebp]
	movups	xmm0, XMMWORD PTR [eax]
	movups	XMMWORD PTR [ecx], xmm0
	mov	eax, DWORD PTR ___$ReturnUdt$[ebp]
	pop	edi
	pop	esi
	pop	ebx
	mov	esp, ebp
	pop	ebp
	ret	4
??BXMVECTORI32@DirectX@@QBE?AT__m128@@XZ ENDP		; DirectX::XMVECTORI32::operator __m128
_TEXT	ENDS
; Function compile flags: /Odtp /RTCsu /ZI
; File c:\program files (x86)\windows kits\8.1\include\um\directxmath.h
;	COMDAT ??BXMVECTORF32@DirectX@@QBE?AT__m128@@XZ
_TEXT	SEGMENT
_this$ = -8						; size = 4
___$ReturnUdt$ = 8					; size = 4
??BXMVECTORF32@DirectX@@QBE?AT__m128@@XZ PROC		; DirectX::XMVECTORF32::operator __m128, COMDAT
; _this$ = ecx

; 314  :     inline operator XMVECTOR() const { return v; }

	push	ebp
	mov	ebp, esp
	sub	esp, 204				; 000000ccH
	push	ebx
	push	esi
	push	edi
	push	ecx
	lea	edi, DWORD PTR [ebp-204]
	mov	ecx, 51					; 00000033H
	mov	eax, -858993460				; ccccccccH
	rep stosd
	pop	ecx
	mov	DWORD PTR _this$[ebp], ecx
	mov	eax, DWORD PTR _this$[ebp]
	mov	ecx, DWORD PTR ___$ReturnUdt$[ebp]
	movups	xmm0, XMMWORD PTR [eax]
	movups	XMMWORD PTR [ecx], xmm0
	mov	eax, DWORD PTR ___$ReturnUdt$[ebp]
	pop	edi
	pop	esi
	pop	ebx
	mov	esp, ebp
	pop	ebp
	ret	4
??BXMVECTORF32@DirectX@@QBE?AT__m128@@XZ ENDP		; DirectX::XMVECTORF32::operator __m128
_TEXT	ENDS
; Function compile flags: /Odtp /RTCsu /ZI
;	COMDAT ??_G_System_error_category@std@@UAEPAXI@Z
_TEXT	SEGMENT
_this$ = -8						; size = 4
___flags$ = 8						; size = 4
??_G_System_error_category@std@@UAEPAXI@Z PROC		; std::_System_error_category::`scalar deleting destructor', COMDAT
; _this$ = ecx
	push	ebp
	mov	ebp, esp
	sub	esp, 204				; 000000ccH
	push	ebx
	push	esi
	push	edi
	push	ecx
	lea	edi, DWORD PTR [ebp-204]
	mov	ecx, 51					; 00000033H
	mov	eax, -858993460				; ccccccccH
	rep stosd
	pop	ecx
	mov	DWORD PTR _this$[ebp], ecx
	mov	ecx, DWORD PTR _this$[ebp]
	call	??1_System_error_category@std@@UAE@XZ
	mov	eax, DWORD PTR ___flags$[ebp]
	and	eax, 1
	je	SHORT $LN1@scalar
	mov	eax, DWORD PTR _this$[ebp]
	push	eax
	call	??3@YAXPAX@Z				; operator delete
	add	esp, 4
$LN1@scalar:
	mov	eax, DWORD PTR _this$[ebp]
	pop	edi
	pop	esi
	pop	ebx
	add	esp, 204				; 000000ccH
	cmp	ebp, esp
	call	__RTC_CheckEsp
	mov	esp, ebp
	pop	ebp
	ret	4
??_G_System_error_category@std@@UAEPAXI@Z ENDP		; std::_System_error_category::`scalar deleting destructor'
_TEXT	ENDS
; Function compile flags: /Odtp /RTCsu /ZI
;	COMDAT ??1_System_error_category@std@@UAE@XZ
_TEXT	SEGMENT
_this$ = -8						; size = 4
??1_System_error_category@std@@UAE@XZ PROC		; std::_System_error_category::~_System_error_category, COMDAT
; _this$ = ecx
	push	ebp
	mov	ebp, esp
	sub	esp, 204				; 000000ccH
	push	ebx
	push	esi
	push	edi
	push	ecx
	lea	edi, DWORD PTR [ebp-204]
	mov	ecx, 51					; 00000033H
	mov	eax, -858993460				; ccccccccH
	rep stosd
	pop	ecx
	mov	DWORD PTR _this$[ebp], ecx
	mov	ecx, DWORD PTR _this$[ebp]
	call	??1_Generic_error_category@std@@UAE@XZ
	pop	edi
	pop	esi
	pop	ebx
	add	esp, 204				; 000000ccH
	cmp	ebp, esp
	call	__RTC_CheckEsp
	mov	esp, ebp
	pop	ebp
	ret	0
??1_System_error_category@std@@UAE@XZ ENDP		; std::_System_error_category::~_System_error_category
_TEXT	ENDS
; Function compile flags: /Odtp /RTCsu /ZI
; File c:\program files (x86)\microsoft visual studio 12.0\vc\include\system_error
;	COMDAT ?default_error_condition@_System_error_category@std@@UBE?AVerror_condition@2@H@Z
_TEXT	SEGMENT
_this$ = -8						; size = 4
___$ReturnUdt$ = 8					; size = 4
__Errval$ = 12						; size = 4
?default_error_condition@_System_error_category@std@@UBE?AVerror_condition@2@H@Z PROC ; std::_System_error_category::default_error_condition, COMDAT
; _this$ = ecx

; 614  : 		{	// make error_condition for error code (generic if possible)

	push	ebp
	mov	ebp, esp
	sub	esp, 204				; 000000ccH
	push	ebx
	push	esi
	push	edi
	push	ecx
	lea	edi, DWORD PTR [ebp-204]
	mov	ecx, 51					; 00000033H
	mov	eax, -858993460				; ccccccccH
	rep stosd
	pop	ecx
	mov	DWORD PTR _this$[ebp], ecx

; 615  : 		if (_Syserror_map(_Errval))

	mov	eax, DWORD PTR __Errval$[ebp]
	push	eax
	call	?_Syserror_map@std@@YAPBDH@Z		; std::_Syserror_map
	add	esp, 4
	test	eax, eax
	je	SHORT $LN2@default_er

; 616  : 			return (error_condition(_Errval, generic_category()));

	call	?generic_category@std@@YAABVerror_category@1@XZ ; std::generic_category
	push	eax
	mov	eax, DWORD PTR __Errval$[ebp]
	push	eax
	mov	ecx, DWORD PTR ___$ReturnUdt$[ebp]
	call	??0error_condition@std@@QAE@HABVerror_category@1@@Z ; std::error_condition::error_condition
	mov	eax, DWORD PTR ___$ReturnUdt$[ebp]
	jmp	SHORT $LN3@default_er

; 617  : 		else

	jmp	SHORT $LN3@default_er
$LN2@default_er:

; 618  : 			return (error_condition(_Errval, system_category()));

	call	?system_category@std@@YAABVerror_category@1@XZ ; std::system_category
	push	eax
	mov	eax, DWORD PTR __Errval$[ebp]
	push	eax
	mov	ecx, DWORD PTR ___$ReturnUdt$[ebp]
	call	??0error_condition@std@@QAE@HABVerror_category@1@@Z ; std::error_condition::error_condition
	mov	eax, DWORD PTR ___$ReturnUdt$[ebp]
$LN3@default_er:

; 619  : 		}

	pop	edi
	pop	esi
	pop	ebx
	add	esp, 204				; 000000ccH
	cmp	ebp, esp
	call	__RTC_CheckEsp
	mov	esp, ebp
	pop	ebp
	ret	8
?default_error_condition@_System_error_category@std@@UBE?AVerror_condition@2@H@Z ENDP ; std::_System_error_category::default_error_condition
_TEXT	ENDS
; Function compile flags: /Odtp /RTCsu /ZI
; File c:\program files (x86)\microsoft visual studio 12.0\vc\include\system_error
;	COMDAT ?message@_System_error_category@std@@UBE?AV?$basic_string@DU?$char_traits@D@std@@V?$allocator@D@2@@2@H@Z
_TEXT	SEGMENT
tv69 = -232						; size = 4
$T1 = -224						; size = 4
__Name$ = -20						; size = 4
_this$ = -8						; size = 4
___$ReturnUdt$ = 8					; size = 4
__Errcode$ = 12						; size = 4
?message@_System_error_category@std@@UBE?AV?$basic_string@DU?$char_traits@D@std@@V?$allocator@D@2@@2@H@Z PROC ; std::_System_error_category::message, COMDAT
; _this$ = ecx

; 607  : 		{	// convert to name of error

	push	ebp
	mov	ebp, esp
	sub	esp, 232				; 000000e8H
	push	ebx
	push	esi
	push	edi
	push	ecx
	lea	edi, DWORD PTR [ebp-232]
	mov	ecx, 58					; 0000003aH
	mov	eax, -858993460				; ccccccccH
	rep stosd
	pop	ecx
	mov	DWORD PTR _this$[ebp], ecx
	mov	DWORD PTR $T1[ebp], 0

; 608  : 		const char *_Name = _Winerror_map(_Errcode);

	mov	eax, DWORD PTR __Errcode$[ebp]
	push	eax
	call	?_Winerror_map@std@@YAPBDH@Z		; std::_Winerror_map
	add	esp, 4
	mov	DWORD PTR __Name$[ebp], eax

; 609  : 		return (string(_Name != 0 ? _Name : "unknown error"));

	cmp	DWORD PTR __Name$[ebp], 0
	je	SHORT $LN3@message
	mov	eax, DWORD PTR __Name$[ebp]
	mov	DWORD PTR tv69[ebp], eax
	jmp	SHORT $LN4@message
$LN3@message:
	mov	DWORD PTR tv69[ebp], OFFSET ??_C@_0O@BFJCFAAK@unknown?5error?$AA@
$LN4@message:
	mov	ecx, DWORD PTR tv69[ebp]
	push	ecx
	mov	ecx, DWORD PTR ___$ReturnUdt$[ebp]
	call	??0?$basic_string@DU?$char_traits@D@std@@V?$allocator@D@2@@std@@QAE@PBD@Z ; std::basic_string<char,std::char_traits<char>,std::allocator<char> >::basic_string<char,std::char_traits<char>,std::allocator<char> >
	mov	edx, DWORD PTR $T1[ebp]
	or	edx, 1
	mov	DWORD PTR $T1[ebp], edx
	mov	eax, DWORD PTR ___$ReturnUdt$[ebp]

; 610  : 		}

	pop	edi
	pop	esi
	pop	ebx
	add	esp, 232				; 000000e8H
	cmp	ebp, esp
	call	__RTC_CheckEsp
	mov	esp, ebp
	pop	ebp
	ret	8
?message@_System_error_category@std@@UBE?AV?$basic_string@DU?$char_traits@D@std@@V?$allocator@D@2@@2@H@Z ENDP ; std::_System_error_category::message
_TEXT	ENDS
; Function compile flags: /Odtp /RTCsu /ZI
; File c:\program files (x86)\microsoft visual studio 12.0\vc\include\system_error
;	COMDAT ?name@_System_error_category@std@@UBEPBDXZ
_TEXT	SEGMENT
_this$ = -8						; size = 4
?name@_System_error_category@std@@UBEPBDXZ PROC		; std::_System_error_category::name, COMDAT
; _this$ = ecx

; 602  : 		{	// get name of category

	push	ebp
	mov	ebp, esp
	sub	esp, 204				; 000000ccH
	push	ebx
	push	esi
	push	edi
	push	ecx
	lea	edi, DWORD PTR [ebp-204]
	mov	ecx, 51					; 00000033H
	mov	eax, -858993460				; ccccccccH
	rep stosd
	pop	ecx
	mov	DWORD PTR _this$[ebp], ecx

; 603  : 		return ("system");

	mov	eax, OFFSET ??_C@_06FHFOAHML@system?$AA@

; 604  : 		}

	pop	edi
	pop	esi
	pop	ebx
	mov	esp, ebp
	pop	ebp
	ret	0
?name@_System_error_category@std@@UBEPBDXZ ENDP		; std::_System_error_category::name
_TEXT	ENDS
; Function compile flags: /Odtp /RTCsu /ZI
; File c:\program files (x86)\microsoft visual studio 12.0\vc\include\system_error
;	COMDAT ??0_System_error_category@std@@QAE@XZ
_TEXT	SEGMENT
_this$ = -8						; size = 4
??0_System_error_category@std@@QAE@XZ PROC		; std::_System_error_category::_System_error_category, COMDAT
; _this$ = ecx

; 597  : 	_System_error_category()

	push	ebp
	mov	ebp, esp
	sub	esp, 204				; 000000ccH
	push	ebx
	push	esi
	push	edi
	push	ecx
	lea	edi, DWORD PTR [ebp-204]
	mov	ecx, 51					; 00000033H
	mov	eax, -858993460				; ccccccccH
	rep stosd
	pop	ecx
	mov	DWORD PTR _this$[ebp], ecx
	mov	ecx, DWORD PTR _this$[ebp]
	call	??0_Generic_error_category@std@@QAE@XZ	; std::_Generic_error_category::_Generic_error_category
	mov	eax, DWORD PTR _this$[ebp]
	mov	DWORD PTR [eax], OFFSET ??_7_System_error_category@std@@6B@

; 598  : 		{	// default constructor
; 599  : 		}

	mov	eax, DWORD PTR _this$[ebp]
	pop	edi
	pop	esi
	pop	ebx
	add	esp, 204				; 000000ccH
	cmp	ebp, esp
	call	__RTC_CheckEsp
	mov	esp, ebp
	pop	ebp
	ret	0
??0_System_error_category@std@@QAE@XZ ENDP		; std::_System_error_category::_System_error_category
_TEXT	ENDS
; Function compile flags: /Odtp /RTCsu /ZI
;	COMDAT ??_G_Iostream_error_category@std@@UAEPAXI@Z
_TEXT	SEGMENT
_this$ = -8						; size = 4
___flags$ = 8						; size = 4
??_G_Iostream_error_category@std@@UAEPAXI@Z PROC	; std::_Iostream_error_category::`scalar deleting destructor', COMDAT
; _this$ = ecx
	push	ebp
	mov	ebp, esp
	sub	esp, 204				; 000000ccH
	push	ebx
	push	esi
	push	edi
	push	ecx
	lea	edi, DWORD PTR [ebp-204]
	mov	ecx, 51					; 00000033H
	mov	eax, -858993460				; ccccccccH
	rep stosd
	pop	ecx
	mov	DWORD PTR _this$[ebp], ecx
	mov	ecx, DWORD PTR _this$[ebp]
	call	??1_Iostream_error_category@std@@UAE@XZ
	mov	eax, DWORD PTR ___flags$[ebp]
	and	eax, 1
	je	SHORT $LN1@scalar
	mov	eax, DWORD PTR _this$[ebp]
	push	eax
	call	??3@YAXPAX@Z				; operator delete
	add	esp, 4
$LN1@scalar:
	mov	eax, DWORD PTR _this$[ebp]
	pop	edi
	pop	esi
	pop	ebx
	add	esp, 204				; 000000ccH
	cmp	ebp, esp
	call	__RTC_CheckEsp
	mov	esp, ebp
	pop	ebp
	ret	4
??_G_Iostream_error_category@std@@UAEPAXI@Z ENDP	; std::_Iostream_error_category::`scalar deleting destructor'
_TEXT	ENDS
; Function compile flags: /Odtp /RTCsu /ZI
;	COMDAT ??1_Iostream_error_category@std@@UAE@XZ
_TEXT	SEGMENT
_this$ = -8						; size = 4
??1_Iostream_error_category@std@@UAE@XZ PROC		; std::_Iostream_error_category::~_Iostream_error_category, COMDAT
; _this$ = ecx
	push	ebp
	mov	ebp, esp
	sub	esp, 204				; 000000ccH
	push	ebx
	push	esi
	push	edi
	push	ecx
	lea	edi, DWORD PTR [ebp-204]
	mov	ecx, 51					; 00000033H
	mov	eax, -858993460				; ccccccccH
	rep stosd
	pop	ecx
	mov	DWORD PTR _this$[ebp], ecx
	mov	ecx, DWORD PTR _this$[ebp]
	call	??1_Generic_error_category@std@@UAE@XZ
	pop	edi
	pop	esi
	pop	ebx
	add	esp, 204				; 000000ccH
	cmp	ebp, esp
	call	__RTC_CheckEsp
	mov	esp, ebp
	pop	ebp
	ret	0
??1_Iostream_error_category@std@@UAE@XZ ENDP		; std::_Iostream_error_category::~_Iostream_error_category
_TEXT	ENDS
; Function compile flags: /Odtp /RTCsu /ZI
; File c:\program files (x86)\microsoft visual studio 12.0\vc\include\system_error
;	COMDAT ?message@_Iostream_error_category@std@@UBE?AV?$basic_string@DU?$char_traits@D@std@@V?$allocator@D@2@@2@H@Z
_TEXT	SEGMENT
$T1 = -212						; size = 4
_this$ = -8						; size = 4
___$ReturnUdt$ = 8					; size = 4
__Errcode$ = 12						; size = 4
?message@_Iostream_error_category@std@@UBE?AV?$basic_string@DU?$char_traits@D@std@@V?$allocator@D@2@@2@H@Z PROC ; std::_Iostream_error_category::message, COMDAT
; _this$ = ecx

; 584  : 		{	// convert to name of error

	push	ebp
	mov	ebp, esp
	sub	esp, 216				; 000000d8H
	push	ebx
	push	esi
	push	edi
	push	ecx
	lea	edi, DWORD PTR [ebp-216]
	mov	ecx, 54					; 00000036H
	mov	eax, -858993460				; ccccccccH
	rep stosd
	pop	ecx
	mov	DWORD PTR _this$[ebp], ecx
	mov	DWORD PTR $T1[ebp], 0

; 585  : 		if (_Errcode == (int)io_errc::stream)

	cmp	DWORD PTR __Errcode$[ebp], 1
	jne	SHORT $LN2@message

; 586  : 			return ("iostream stream error");

	push	OFFSET ??_C@_0BG@PADBLCHM@iostream?5stream?5error?$AA@
	mov	ecx, DWORD PTR ___$ReturnUdt$[ebp]
	call	??0?$basic_string@DU?$char_traits@D@std@@V?$allocator@D@2@@std@@QAE@PBD@Z ; std::basic_string<char,std::char_traits<char>,std::allocator<char> >::basic_string<char,std::char_traits<char>,std::allocator<char> >
	mov	eax, DWORD PTR $T1[ebp]
	or	eax, 1
	mov	DWORD PTR $T1[ebp], eax
	mov	eax, DWORD PTR ___$ReturnUdt$[ebp]
	jmp	SHORT $LN3@message

; 587  : 		else

	jmp	SHORT $LN3@message
$LN2@message:

; 588  : 			return (_Generic_error_category::message(_Errcode));

	mov	eax, DWORD PTR __Errcode$[ebp]
	push	eax
	mov	ecx, DWORD PTR ___$ReturnUdt$[ebp]
	push	ecx
	mov	ecx, DWORD PTR _this$[ebp]
	call	?message@_Generic_error_category@std@@UBE?AV?$basic_string@DU?$char_traits@D@std@@V?$allocator@D@2@@2@H@Z ; std::_Generic_error_category::message
	mov	edx, DWORD PTR $T1[ebp]
	or	edx, 1
	mov	DWORD PTR $T1[ebp], edx
	mov	eax, DWORD PTR ___$ReturnUdt$[ebp]
$LN3@message:

; 589  : 		}

	pop	edi
	pop	esi
	pop	ebx
	add	esp, 216				; 000000d8H
	cmp	ebp, esp
	call	__RTC_CheckEsp
	mov	esp, ebp
	pop	ebp
	ret	8
?message@_Iostream_error_category@std@@UBE?AV?$basic_string@DU?$char_traits@D@std@@V?$allocator@D@2@@2@H@Z ENDP ; std::_Iostream_error_category::message
_TEXT	ENDS
; Function compile flags: /Odtp /RTCsu /ZI
; File c:\program files (x86)\microsoft visual studio 12.0\vc\include\system_error
;	COMDAT ?name@_Iostream_error_category@std@@UBEPBDXZ
_TEXT	SEGMENT
_this$ = -8						; size = 4
?name@_Iostream_error_category@std@@UBEPBDXZ PROC	; std::_Iostream_error_category::name, COMDAT
; _this$ = ecx

; 579  : 		{	// get name of category

	push	ebp
	mov	ebp, esp
	sub	esp, 204				; 000000ccH
	push	ebx
	push	esi
	push	edi
	push	ecx
	lea	edi, DWORD PTR [ebp-204]
	mov	ecx, 51					; 00000033H
	mov	eax, -858993460				; ccccccccH
	rep stosd
	pop	ecx
	mov	DWORD PTR _this$[ebp], ecx

; 580  : 		return ("iostream");

	mov	eax, OFFSET ??_C@_08LLGCOLLL@iostream?$AA@

; 581  : 		}

	pop	edi
	pop	esi
	pop	ebx
	mov	esp, ebp
	pop	ebp
	ret	0
?name@_Iostream_error_category@std@@UBEPBDXZ ENDP	; std::_Iostream_error_category::name
_TEXT	ENDS
; Function compile flags: /Odtp /RTCsu /ZI
; File c:\program files (x86)\microsoft visual studio 12.0\vc\include\system_error
;	COMDAT ??0_Iostream_error_category@std@@QAE@XZ
_TEXT	SEGMENT
_this$ = -8						; size = 4
??0_Iostream_error_category@std@@QAE@XZ PROC		; std::_Iostream_error_category::_Iostream_error_category, COMDAT
; _this$ = ecx

; 574  : 	_Iostream_error_category()

	push	ebp
	mov	ebp, esp
	sub	esp, 204				; 000000ccH
	push	ebx
	push	esi
	push	edi
	push	ecx
	lea	edi, DWORD PTR [ebp-204]
	mov	ecx, 51					; 00000033H
	mov	eax, -858993460				; ccccccccH
	rep stosd
	pop	ecx
	mov	DWORD PTR _this$[ebp], ecx
	mov	ecx, DWORD PTR _this$[ebp]
	call	??0_Generic_error_category@std@@QAE@XZ	; std::_Generic_error_category::_Generic_error_category
	mov	eax, DWORD PTR _this$[ebp]
	mov	DWORD PTR [eax], OFFSET ??_7_Iostream_error_category@std@@6B@

; 575  : 		{	// default constructor
; 576  : 		}

	mov	eax, DWORD PTR _this$[ebp]
	pop	edi
	pop	esi
	pop	ebx
	add	esp, 204				; 000000ccH
	cmp	ebp, esp
	call	__RTC_CheckEsp
	mov	esp, ebp
	pop	ebp
	ret	0
??0_Iostream_error_category@std@@QAE@XZ ENDP		; std::_Iostream_error_category::_Iostream_error_category
_TEXT	ENDS
; Function compile flags: /Odtp /RTCsu /ZI
;	COMDAT ??_G_Generic_error_category@std@@UAEPAXI@Z
_TEXT	SEGMENT
_this$ = -8						; size = 4
___flags$ = 8						; size = 4
??_G_Generic_error_category@std@@UAEPAXI@Z PROC		; std::_Generic_error_category::`scalar deleting destructor', COMDAT
; _this$ = ecx
	push	ebp
	mov	ebp, esp
	sub	esp, 204				; 000000ccH
	push	ebx
	push	esi
	push	edi
	push	ecx
	lea	edi, DWORD PTR [ebp-204]
	mov	ecx, 51					; 00000033H
	mov	eax, -858993460				; ccccccccH
	rep stosd
	pop	ecx
	mov	DWORD PTR _this$[ebp], ecx
	mov	ecx, DWORD PTR _this$[ebp]
	call	??1_Generic_error_category@std@@UAE@XZ
	mov	eax, DWORD PTR ___flags$[ebp]
	and	eax, 1
	je	SHORT $LN1@scalar
	mov	eax, DWORD PTR _this$[ebp]
	push	eax
	call	??3@YAXPAX@Z				; operator delete
	add	esp, 4
$LN1@scalar:
	mov	eax, DWORD PTR _this$[ebp]
	pop	edi
	pop	esi
	pop	ebx
	add	esp, 204				; 000000ccH
	cmp	ebp, esp
	call	__RTC_CheckEsp
	mov	esp, ebp
	pop	ebp
	ret	4
??_G_Generic_error_category@std@@UAEPAXI@Z ENDP		; std::_Generic_error_category::`scalar deleting destructor'
_TEXT	ENDS
; Function compile flags: /Odtp /RTCsu /ZI
;	COMDAT ??1_Generic_error_category@std@@UAE@XZ
_TEXT	SEGMENT
_this$ = -8						; size = 4
??1_Generic_error_category@std@@UAE@XZ PROC		; std::_Generic_error_category::~_Generic_error_category, COMDAT
; _this$ = ecx
	push	ebp
	mov	ebp, esp
	sub	esp, 204				; 000000ccH
	push	ebx
	push	esi
	push	edi
	push	ecx
	lea	edi, DWORD PTR [ebp-204]
	mov	ecx, 51					; 00000033H
	mov	eax, -858993460				; ccccccccH
	rep stosd
	pop	ecx
	mov	DWORD PTR _this$[ebp], ecx
	mov	ecx, DWORD PTR _this$[ebp]
	call	??1error_category@std@@UAE@XZ		; std::error_category::~error_category
	pop	edi
	pop	esi
	pop	ebx
	add	esp, 204				; 000000ccH
	cmp	ebp, esp
	call	__RTC_CheckEsp
	mov	esp, ebp
	pop	ebp
	ret	0
??1_Generic_error_category@std@@UAE@XZ ENDP		; std::_Generic_error_category::~_Generic_error_category
_TEXT	ENDS
; Function compile flags: /Odtp /RTCsu /ZI
; File c:\program files (x86)\microsoft visual studio 12.0\vc\include\system_error
;	COMDAT ?message@_Generic_error_category@std@@UBE?AV?$basic_string@DU?$char_traits@D@std@@V?$allocator@D@2@@2@H@Z
_TEXT	SEGMENT
tv69 = -232						; size = 4
$T1 = -224						; size = 4
__Name$ = -20						; size = 4
_this$ = -8						; size = 4
___$ReturnUdt$ = 8					; size = 4
__Errcode$ = 12						; size = 4
?message@_Generic_error_category@std@@UBE?AV?$basic_string@DU?$char_traits@D@std@@V?$allocator@D@2@@2@H@Z PROC ; std::_Generic_error_category::message, COMDAT
; _this$ = ecx

; 563  : 		{	// convert to name of error

	push	ebp
	mov	ebp, esp
	sub	esp, 232				; 000000e8H
	push	ebx
	push	esi
	push	edi
	push	ecx
	lea	edi, DWORD PTR [ebp-232]
	mov	ecx, 58					; 0000003aH
	mov	eax, -858993460				; ccccccccH
	rep stosd
	pop	ecx
	mov	DWORD PTR _this$[ebp], ecx
	mov	DWORD PTR $T1[ebp], 0

; 564  : 		const char *_Name = _Syserror_map(_Errcode);

	mov	eax, DWORD PTR __Errcode$[ebp]
	push	eax
	call	?_Syserror_map@std@@YAPBDH@Z		; std::_Syserror_map
	add	esp, 4
	mov	DWORD PTR __Name$[ebp], eax

; 565  : 		return (string(_Name != 0 ? _Name : "unknown error"));

	cmp	DWORD PTR __Name$[ebp], 0
	je	SHORT $LN3@message
	mov	eax, DWORD PTR __Name$[ebp]
	mov	DWORD PTR tv69[ebp], eax
	jmp	SHORT $LN4@message
$LN3@message:
	mov	DWORD PTR tv69[ebp], OFFSET ??_C@_0O@BFJCFAAK@unknown?5error?$AA@
$LN4@message:
	mov	ecx, DWORD PTR tv69[ebp]
	push	ecx
	mov	ecx, DWORD PTR ___$ReturnUdt$[ebp]
	call	??0?$basic_string@DU?$char_traits@D@std@@V?$allocator@D@2@@std@@QAE@PBD@Z ; std::basic_string<char,std::char_traits<char>,std::allocator<char> >::basic_string<char,std::char_traits<char>,std::allocator<char> >
	mov	edx, DWORD PTR $T1[ebp]
	or	edx, 1
	mov	DWORD PTR $T1[ebp], edx
	mov	eax, DWORD PTR ___$ReturnUdt$[ebp]

; 566  : 		}

	pop	edi
	pop	esi
	pop	ebx
	add	esp, 232				; 000000e8H
	cmp	ebp, esp
	call	__RTC_CheckEsp
	mov	esp, ebp
	pop	ebp
	ret	8
?message@_Generic_error_category@std@@UBE?AV?$basic_string@DU?$char_traits@D@std@@V?$allocator@D@2@@2@H@Z ENDP ; std::_Generic_error_category::message
_TEXT	ENDS
; Function compile flags: /Odtp /RTCsu /ZI
; File c:\program files (x86)\microsoft visual studio 12.0\vc\include\system_error
;	COMDAT ?name@_Generic_error_category@std@@UBEPBDXZ
_TEXT	SEGMENT
_this$ = -8						; size = 4
?name@_Generic_error_category@std@@UBEPBDXZ PROC	; std::_Generic_error_category::name, COMDAT
; _this$ = ecx

; 558  : 		{	// get name of category

	push	ebp
	mov	ebp, esp
	sub	esp, 204				; 000000ccH
	push	ebx
	push	esi
	push	edi
	push	ecx
	lea	edi, DWORD PTR [ebp-204]
	mov	ecx, 51					; 00000033H
	mov	eax, -858993460				; ccccccccH
	rep stosd
	pop	ecx
	mov	DWORD PTR _this$[ebp], ecx

; 559  : 		return ("generic");

	mov	eax, OFFSET ??_C@_07DCLBNMLN@generic?$AA@

; 560  : 		}

	pop	edi
	pop	esi
	pop	ebx
	mov	esp, ebp
	pop	ebp
	ret	0
?name@_Generic_error_category@std@@UBEPBDXZ ENDP	; std::_Generic_error_category::name
_TEXT	ENDS
; Function compile flags: /Odtp /RTCsu /ZI
; File c:\program files (x86)\microsoft visual studio 12.0\vc\include\system_error
;	COMDAT ??0_Generic_error_category@std@@QAE@XZ
_TEXT	SEGMENT
_this$ = -8						; size = 4
??0_Generic_error_category@std@@QAE@XZ PROC		; std::_Generic_error_category::_Generic_error_category, COMDAT
; _this$ = ecx

; 553  : 	_Generic_error_category()

	push	ebp
	mov	ebp, esp
	sub	esp, 204				; 000000ccH
	push	ebx
	push	esi
	push	edi
	push	ecx
	lea	edi, DWORD PTR [ebp-204]
	mov	ecx, 51					; 00000033H
	mov	eax, -858993460				; ccccccccH
	rep stosd
	pop	ecx
	mov	DWORD PTR _this$[ebp], ecx
	mov	ecx, DWORD PTR _this$[ebp]
	call	??0error_category@std@@QAE@XZ		; std::error_category::error_category
	mov	eax, DWORD PTR _this$[ebp]
	mov	DWORD PTR [eax], OFFSET ??_7_Generic_error_category@std@@6B@

; 554  : 		{	// default constructor
; 555  : 		}

	mov	eax, DWORD PTR _this$[ebp]
	pop	edi
	pop	esi
	pop	ebx
	add	esp, 204				; 000000ccH
	cmp	ebp, esp
	call	__RTC_CheckEsp
	mov	esp, ebp
	pop	ebp
	ret	0
??0_Generic_error_category@std@@QAE@XZ ENDP		; std::_Generic_error_category::_Generic_error_category
_TEXT	ENDS
; Function compile flags: /Odtp /RTCsu /ZI
; File c:\program files (x86)\microsoft visual studio 12.0\vc\include\system_error
;	COMDAT ??8error_condition@std@@QBE_NABV01@@Z
_TEXT	SEGMENT
tv78 = -208						; size = 4
_this$ = -8						; size = 4
__Right$ = 8						; size = 4
??8error_condition@std@@QBE_NABV01@@Z PROC		; std::error_condition::operator==, COMDAT
; _this$ = ecx

; 352  : 		{	// test if *this == _Right

	push	ebp
	mov	ebp, esp
	sub	esp, 208				; 000000d0H
	push	ebx
	push	esi
	push	edi
	push	ecx
	lea	edi, DWORD PTR [ebp-208]
	mov	ecx, 52					; 00000034H
	mov	eax, -858993460				; ccccccccH
	rep stosd
	pop	ecx
	mov	DWORD PTR _this$[ebp], ecx

; 353  : 		return (category() == _Right.category()
; 354  : 			&& value() == _Right.value());

	mov	ecx, DWORD PTR __Right$[ebp]
	call	?category@error_condition@std@@QBEABVerror_category@2@XZ ; std::error_condition::category
	push	eax
	mov	ecx, DWORD PTR _this$[ebp]
	call	?category@error_condition@std@@QBEABVerror_category@2@XZ ; std::error_condition::category
	mov	ecx, eax
	call	??8error_category@std@@QBE_NABV01@@Z	; std::error_category::operator==
	movzx	eax, al
	test	eax, eax
	je	SHORT $LN3@operator
	mov	ecx, DWORD PTR _this$[ebp]
	call	?value@error_condition@std@@QBEHXZ	; std::error_condition::value
	mov	esi, eax
	mov	ecx, DWORD PTR __Right$[ebp]
	call	?value@error_condition@std@@QBEHXZ	; std::error_condition::value
	cmp	esi, eax
	jne	SHORT $LN3@operator
	mov	DWORD PTR tv78[ebp], 1
	jmp	SHORT $LN4@operator
$LN3@operator:
	mov	DWORD PTR tv78[ebp], 0
$LN4@operator:
	mov	al, BYTE PTR tv78[ebp]

; 355  : 		}

	pop	edi
	pop	esi
	pop	ebx
	add	esp, 208				; 000000d0H
	cmp	ebp, esp
	call	__RTC_CheckEsp
	mov	esp, ebp
	pop	ebp
	ret	4
??8error_condition@std@@QBE_NABV01@@Z ENDP		; std::error_condition::operator==
_TEXT	ENDS
; Function compile flags: /Odtp /RTCsu /ZI
; File c:\program files (x86)\microsoft visual studio 12.0\vc\include\system_error
;	COMDAT ?category@error_condition@std@@QBEABVerror_category@2@XZ
_TEXT	SEGMENT
_this$ = -8						; size = 4
?category@error_condition@std@@QBEABVerror_category@2@XZ PROC ; std::error_condition::category, COMDAT
; _this$ = ecx

; 337  : 		{	// get category

	push	ebp
	mov	ebp, esp
	sub	esp, 204				; 000000ccH
	push	ebx
	push	esi
	push	edi
	push	ecx
	lea	edi, DWORD PTR [ebp-204]
	mov	ecx, 51					; 00000033H
	mov	eax, -858993460				; ccccccccH
	rep stosd
	pop	ecx
	mov	DWORD PTR _this$[ebp], ecx

; 338  : 		return (*_Mycat);

	mov	eax, DWORD PTR _this$[ebp]
	mov	eax, DWORD PTR [eax+4]

; 339  : 		}

	pop	edi
	pop	esi
	pop	ebx
	mov	esp, ebp
	pop	ebp
	ret	0
?category@error_condition@std@@QBEABVerror_category@2@XZ ENDP ; std::error_condition::category
_TEXT	ENDS
; Function compile flags: /Odtp /RTCsu /ZI
; File c:\program files (x86)\microsoft visual studio 12.0\vc\include\system_error
;	COMDAT ?value@error_condition@std@@QBEHXZ
_TEXT	SEGMENT
_this$ = -8						; size = 4
?value@error_condition@std@@QBEHXZ PROC			; std::error_condition::value, COMDAT
; _this$ = ecx

; 332  : 		{	// get error code

	push	ebp
	mov	ebp, esp
	sub	esp, 204				; 000000ccH
	push	ebx
	push	esi
	push	edi
	push	ecx
	lea	edi, DWORD PTR [ebp-204]
	mov	ecx, 51					; 00000033H
	mov	eax, -858993460				; ccccccccH
	rep stosd
	pop	ecx
	mov	DWORD PTR _this$[ebp], ecx

; 333  : 		return (_Myval);

	mov	eax, DWORD PTR _this$[ebp]
	mov	eax, DWORD PTR [eax]

; 334  : 		}

	pop	edi
	pop	esi
	pop	ebx
	mov	esp, ebp
	pop	ebp
	ret	0
?value@error_condition@std@@QBEHXZ ENDP			; std::error_condition::value
_TEXT	ENDS
; Function compile flags: /Odtp /RTCsu /ZI
; File c:\program files (x86)\microsoft visual studio 12.0\vc\include\system_error
;	COMDAT ??0error_condition@std@@QAE@HABVerror_category@1@@Z
_TEXT	SEGMENT
_this$ = -8						; size = 4
__Val$ = 8						; size = 4
__Cat$ = 12						; size = 4
??0error_condition@std@@QAE@HABVerror_category@1@@Z PROC ; std::error_condition::error_condition, COMDAT
; _this$ = ecx

; 299  : 		{	// construct from error code and category

	push	ebp
	mov	ebp, esp
	sub	esp, 204				; 000000ccH
	push	ebx
	push	esi
	push	edi
	push	ecx
	lea	edi, DWORD PTR [ebp-204]
	mov	ecx, 51					; 00000033H
	mov	eax, -858993460				; ccccccccH
	rep stosd
	pop	ecx
	mov	DWORD PTR _this$[ebp], ecx
	mov	eax, DWORD PTR _this$[ebp]
	mov	ecx, DWORD PTR __Val$[ebp]
	mov	DWORD PTR [eax], ecx
	mov	eax, DWORD PTR _this$[ebp]
	mov	ecx, DWORD PTR __Cat$[ebp]
	mov	DWORD PTR [eax+4], ecx

; 300  : 		}

	mov	eax, DWORD PTR _this$[ebp]
	pop	edi
	pop	esi
	pop	ebx
	mov	esp, ebp
	pop	ebp
	ret	8
??0error_condition@std@@QAE@HABVerror_category@1@@Z ENDP ; std::error_condition::error_condition
_TEXT	ENDS
; Function compile flags: /Odtp /RTCsu /ZI
; File c:\program files (x86)\microsoft visual studio 12.0\vc\include\system_error
;	COMDAT ?category@error_code@std@@QBEABVerror_category@2@XZ
_TEXT	SEGMENT
_this$ = -8						; size = 4
?category@error_code@std@@QBEABVerror_category@2@XZ PROC ; std::error_code::category, COMDAT
; _this$ = ecx

; 246  : 		{	// get category

	push	ebp
	mov	ebp, esp
	sub	esp, 204				; 000000ccH
	push	ebx
	push	esi
	push	edi
	push	ecx
	lea	edi, DWORD PTR [ebp-204]
	mov	ecx, 51					; 00000033H
	mov	eax, -858993460				; ccccccccH
	rep stosd
	pop	ecx
	mov	DWORD PTR _this$[ebp], ecx

; 247  : 		return (*_Mycat);

	mov	eax, DWORD PTR _this$[ebp]
	mov	eax, DWORD PTR [eax+4]

; 248  : 		}

	pop	edi
	pop	esi
	pop	ebx
	mov	esp, ebp
	pop	ebp
	ret	0
?category@error_code@std@@QBEABVerror_category@2@XZ ENDP ; std::error_code::category
_TEXT	ENDS
; Function compile flags: /Odtp /RTCsu /ZI
; File c:\program files (x86)\microsoft visual studio 12.0\vc\include\system_error
;	COMDAT ?value@error_code@std@@QBEHXZ
_TEXT	SEGMENT
_this$ = -8						; size = 4
?value@error_code@std@@QBEHXZ PROC			; std::error_code::value, COMDAT
; _this$ = ecx

; 241  : 		{	// get error code

	push	ebp
	mov	ebp, esp
	sub	esp, 204				; 000000ccH
	push	ebx
	push	esi
	push	edi
	push	ecx
	lea	edi, DWORD PTR [ebp-204]
	mov	ecx, 51					; 00000033H
	mov	eax, -858993460				; ccccccccH
	rep stosd
	pop	ecx
	mov	DWORD PTR _this$[ebp], ecx

; 242  : 		return (_Myval);

	mov	eax, DWORD PTR _this$[ebp]
	mov	eax, DWORD PTR [eax]

; 243  : 		}

	pop	edi
	pop	esi
	pop	ebx
	mov	esp, ebp
	pop	ebp
	ret	0
?value@error_code@std@@QBEHXZ ENDP			; std::error_code::value
_TEXT	ENDS
; Function compile flags: /Odtp /RTCsu /ZI
;	COMDAT ??_Gerror_category@std@@UAEPAXI@Z
_TEXT	SEGMENT
_this$ = -8						; size = 4
___flags$ = 8						; size = 4
??_Gerror_category@std@@UAEPAXI@Z PROC			; std::error_category::`scalar deleting destructor', COMDAT
; _this$ = ecx
	push	ebp
	mov	ebp, esp
	sub	esp, 204				; 000000ccH
	push	ebx
	push	esi
	push	edi
	push	ecx
	lea	edi, DWORD PTR [ebp-204]
	mov	ecx, 51					; 00000033H
	mov	eax, -858993460				; ccccccccH
	rep stosd
	pop	ecx
	mov	DWORD PTR _this$[ebp], ecx
	mov	ecx, DWORD PTR _this$[ebp]
	call	??1error_category@std@@UAE@XZ		; std::error_category::~error_category
	mov	eax, DWORD PTR ___flags$[ebp]
	and	eax, 1
	je	SHORT $LN1@scalar
	mov	eax, DWORD PTR _this$[ebp]
	push	eax
	call	??3@YAXPAX@Z				; operator delete
	add	esp, 4
$LN1@scalar:
	mov	eax, DWORD PTR _this$[ebp]
	pop	edi
	pop	esi
	pop	ebx
	add	esp, 204				; 000000ccH
	cmp	ebp, esp
	call	__RTC_CheckEsp
	mov	esp, ebp
	pop	ebp
	ret	4
??_Gerror_category@std@@UAEPAXI@Z ENDP			; std::error_category::`scalar deleting destructor'
_TEXT	ENDS
; Function compile flags: /Odtp /RTCsu /ZI
; File c:\program files (x86)\microsoft visual studio 12.0\vc\include\system_error
;	COMDAT ??8error_category@std@@QBE_NABV01@@Z
_TEXT	SEGMENT
tv65 = -208						; size = 4
_this$ = -8						; size = 4
__Right$ = 8						; size = 4
??8error_category@std@@QBE_NABV01@@Z PROC		; std::error_category::operator==, COMDAT
; _this$ = ecx

; 176  : 		{	// compare categories for equality

	push	ebp
	mov	ebp, esp
	sub	esp, 208				; 000000d0H
	push	ebx
	push	esi
	push	edi
	push	ecx
	lea	edi, DWORD PTR [ebp-208]
	mov	ecx, 52					; 00000034H
	mov	eax, -858993460				; ccccccccH
	rep stosd
	pop	ecx
	mov	DWORD PTR _this$[ebp], ecx

; 177  : 		return (this == &_Right);

	mov	eax, DWORD PTR _this$[ebp]
	cmp	eax, DWORD PTR __Right$[ebp]
	jne	SHORT $LN3@operator
	mov	DWORD PTR tv65[ebp], 1
	jmp	SHORT $LN4@operator
$LN3@operator:
	mov	DWORD PTR tv65[ebp], 0
$LN4@operator:
	mov	al, BYTE PTR tv65[ebp]

; 178  : 		}

	pop	edi
	pop	esi
	pop	ebx
	mov	esp, ebp
	pop	ebp
	ret	4
??8error_category@std@@QBE_NABV01@@Z ENDP		; std::error_category::operator==
_TEXT	ENDS
; Function compile flags: /Odtp /RTCsu /ZI
; File c:\program files (x86)\microsoft visual studio 12.0\vc\include\system_error
;	COMDAT ?equivalent@error_category@std@@UBE_NABVerror_code@2@H@Z
_TEXT	SEGMENT
tv74 = -208						; size = 4
_this$ = -8						; size = 4
__Code$ = 8						; size = 4
__Errval$ = 12						; size = 4
?equivalent@error_category@std@@UBE_NABVerror_code@2@H@Z PROC ; std::error_category::equivalent, COMDAT
; _this$ = ecx

; 391  : 	{	// test if conditions same for this category

	push	ebp
	mov	ebp, esp
	sub	esp, 208				; 000000d0H
	push	ebx
	push	esi
	push	edi
	push	ecx
	lea	edi, DWORD PTR [ebp-208]
	mov	ecx, 52					; 00000034H
	mov	eax, -858993460				; ccccccccH
	rep stosd
	pop	ecx
	mov	DWORD PTR _this$[ebp], ecx

; 392  : 	return (*this == _Code.category() && _Code.value() == _Errval);

	mov	ecx, DWORD PTR __Code$[ebp]
	call	?category@error_code@std@@QBEABVerror_category@2@XZ ; std::error_code::category
	push	eax
	mov	ecx, DWORD PTR _this$[ebp]
	call	??8error_category@std@@QBE_NABV01@@Z	; std::error_category::operator==
	movzx	eax, al
	test	eax, eax
	je	SHORT $LN3@equivalent
	mov	ecx, DWORD PTR __Code$[ebp]
	call	?value@error_code@std@@QBEHXZ		; std::error_code::value
	cmp	eax, DWORD PTR __Errval$[ebp]
	jne	SHORT $LN3@equivalent
	mov	DWORD PTR tv74[ebp], 1
	jmp	SHORT $LN4@equivalent
$LN3@equivalent:
	mov	DWORD PTR tv74[ebp], 0
$LN4@equivalent:
	mov	al, BYTE PTR tv74[ebp]

; 393  : 	}

	pop	edi
	pop	esi
	pop	ebx
	add	esp, 208				; 000000d0H
	cmp	ebp, esp
	call	__RTC_CheckEsp
	mov	esp, ebp
	pop	ebp
	ret	8
?equivalent@error_category@std@@UBE_NABVerror_code@2@H@Z ENDP ; std::error_category::equivalent
_TEXT	ENDS
; Function compile flags: /Odtp /RTCsu /ZI
; File c:\program files (x86)\microsoft visual studio 12.0\vc\include\system_error
;	COMDAT ?equivalent@error_category@std@@UBE_NHABVerror_condition@2@@Z
_TEXT	SEGMENT
$T1 = -216						; size = 8
_this$ = -8						; size = 4
__Errval$ = 8						; size = 4
__Cond$ = 12						; size = 4
?equivalent@error_category@std@@UBE_NHABVerror_condition@2@@Z PROC ; std::error_category::equivalent, COMDAT
; _this$ = ecx

; 384  : 	{	// test if error code same condition

	push	ebp
	mov	ebp, esp
	sub	esp, 220				; 000000dcH
	push	ebx
	push	esi
	push	edi
	push	ecx
	lea	edi, DWORD PTR [ebp-220]
	mov	ecx, 55					; 00000037H
	mov	eax, -858993460				; ccccccccH
	rep stosd
	pop	ecx
	mov	DWORD PTR _this$[ebp], ecx

; 385  : 	return (default_error_condition(_Errval) == _Cond);

	mov	eax, DWORD PTR __Cond$[ebp]
	push	eax
	mov	esi, esp
	mov	ecx, DWORD PTR __Errval$[ebp]
	push	ecx
	lea	edx, DWORD PTR $T1[ebp]
	push	edx
	mov	eax, DWORD PTR _this$[ebp]
	mov	edx, DWORD PTR [eax]
	mov	ecx, DWORD PTR _this$[ebp]
	mov	eax, DWORD PTR [edx+12]
	call	eax
	cmp	esi, esp
	call	__RTC_CheckEsp
	mov	ecx, eax
	call	??8error_condition@std@@QBE_NABV01@@Z	; std::error_condition::operator==

; 386  : 	}

	pop	edi
	pop	esi
	pop	ebx
	add	esp, 220				; 000000dcH
	cmp	ebp, esp
	call	__RTC_CheckEsp
	mov	esp, ebp
	pop	ebp
	ret	8
?equivalent@error_category@std@@UBE_NHABVerror_condition@2@@Z ENDP ; std::error_category::equivalent
_TEXT	ENDS
; Function compile flags: /Odtp /RTCsu /ZI
; File c:\program files (x86)\microsoft visual studio 12.0\vc\include\system_error
;	COMDAT ?default_error_condition@error_category@std@@UBE?AVerror_condition@2@H@Z
_TEXT	SEGMENT
_this$ = -8						; size = 4
___$ReturnUdt$ = 8					; size = 4
__Errval$ = 12						; size = 4
?default_error_condition@error_category@std@@UBE?AVerror_condition@2@H@Z PROC ; std::error_category::default_error_condition, COMDAT
; _this$ = ecx

; 377  : 	{	// make error_condition for error code

	push	ebp
	mov	ebp, esp
	sub	esp, 204				; 000000ccH
	push	ebx
	push	esi
	push	edi
	push	ecx
	lea	edi, DWORD PTR [ebp-204]
	mov	ecx, 51					; 00000033H
	mov	eax, -858993460				; ccccccccH
	rep stosd
	pop	ecx
	mov	DWORD PTR _this$[ebp], ecx

; 378  : 	return (error_condition(_Errval, *this));

	mov	eax, DWORD PTR _this$[ebp]
	push	eax
	mov	ecx, DWORD PTR __Errval$[ebp]
	push	ecx
	mov	ecx, DWORD PTR ___$ReturnUdt$[ebp]
	call	??0error_condition@std@@QAE@HABVerror_category@1@@Z ; std::error_condition::error_condition
	mov	eax, DWORD PTR ___$ReturnUdt$[ebp]

; 379  : 	}

	pop	edi
	pop	esi
	pop	ebx
	add	esp, 204				; 000000ccH
	cmp	ebp, esp
	call	__RTC_CheckEsp
	mov	esp, ebp
	pop	ebp
	ret	8
?default_error_condition@error_category@std@@UBE?AVerror_condition@2@H@Z ENDP ; std::error_category::default_error_condition
_TEXT	ENDS
; Function compile flags: /Odtp /RTCsu /ZI
; File c:\program files (x86)\microsoft visual studio 12.0\vc\include\system_error
;	COMDAT ??1error_category@std@@UAE@XZ
_TEXT	SEGMENT
_this$ = -8						; size = 4
??1error_category@std@@UAE@XZ PROC			; std::error_category::~error_category, COMDAT
; _this$ = ecx

; 159  : 		{	// destroy the object

	push	ebp
	mov	ebp, esp
	sub	esp, 204				; 000000ccH
	push	ebx
	push	esi
	push	edi
	push	ecx
	lea	edi, DWORD PTR [ebp-204]
	mov	ecx, 51					; 00000033H
	mov	eax, -858993460				; ccccccccH
	rep stosd
	pop	ecx
	mov	DWORD PTR _this$[ebp], ecx
	mov	eax, DWORD PTR _this$[ebp]
	mov	DWORD PTR [eax], OFFSET ??_7error_category@std@@6B@

; 160  : 		}

	pop	edi
	pop	esi
	pop	ebx
	mov	esp, ebp
	pop	ebp
	ret	0
??1error_category@std@@UAE@XZ ENDP			; std::error_category::~error_category
_TEXT	ENDS
; Function compile flags: /Odtp /RTCsu /ZI
; File c:\program files (x86)\microsoft visual studio 12.0\vc\include\system_error
;	COMDAT ??0error_category@std@@QAE@XZ
_TEXT	SEGMENT
_this$ = -8						; size = 4
??0error_category@std@@QAE@XZ PROC			; std::error_category::error_category, COMDAT
; _this$ = ecx

; 154  : 	error_category()

	push	ebp
	mov	ebp, esp
	sub	esp, 204				; 000000ccH
	push	ebx
	push	esi
	push	edi
	push	ecx
	lea	edi, DWORD PTR [ebp-204]
	mov	ecx, 51					; 00000033H
	mov	eax, -858993460				; ccccccccH
	rep stosd
	pop	ecx
	mov	DWORD PTR _this$[ebp], ecx
	mov	eax, DWORD PTR _this$[ebp]
	mov	DWORD PTR [eax], OFFSET ??_7error_category@std@@6B@

; 155  : 		{	// default constructor
; 156  : 		}

	mov	eax, DWORD PTR _this$[ebp]
	pop	edi
	pop	esi
	pop	ebx
	mov	esp, ebp
	pop	ebp
	ret	0
??0error_category@std@@QAE@XZ ENDP			; std::error_category::error_category
_TEXT	ENDS
; Function compile flags: /Odtp /RTCsu /ZI
; File c:\program files (x86)\microsoft visual studio 12.0\vc\include\system_error
;	COMDAT ?system_category@std@@YAABVerror_category@1@XZ
_TEXT	SEGMENT
?system_category@std@@YAABVerror_category@1@XZ PROC	; std::system_category, COMDAT

; 652  : 	{	// get system_category

	push	ebp
	mov	ebp, esp
	sub	esp, 192				; 000000c0H
	push	ebx
	push	esi
	push	edi
	lea	edi, DWORD PTR [ebp-192]
	mov	ecx, 48					; 00000030H
	mov	eax, -858993460				; ccccccccH
	rep stosd

; 653  : 	return (_Error_objects<int>::_System_object);

	mov	eax, OFFSET ?_System_object@?$_Error_objects@H@std@@2V_System_error_category@2@A ; std::_Error_objects<int>::_System_object

; 654  : 	}

	pop	edi
	pop	esi
	pop	ebx
	mov	esp, ebp
	pop	ebp
	ret	0
?system_category@std@@YAABVerror_category@1@XZ ENDP	; std::system_category
_TEXT	ENDS
; Function compile flags: /Odtp /RTCsu /ZI
; File c:\program files (x86)\microsoft visual studio 12.0\vc\include\system_error
;	COMDAT ?generic_category@std@@YAABVerror_category@1@XZ
_TEXT	SEGMENT
?generic_category@std@@YAABVerror_category@1@XZ PROC	; std::generic_category, COMDAT

; 642  : 	{	// get generic_category

	push	ebp
	mov	ebp, esp
	sub	esp, 192				; 000000c0H
	push	ebx
	push	esi
	push	edi
	lea	edi, DWORD PTR [ebp-192]
	mov	ecx, 48					; 00000030H
	mov	eax, -858993460				; ccccccccH
	rep stosd

; 643  : 	return (_Error_objects<int>::_Generic_object);

	mov	eax, OFFSET ?_Generic_object@?$_Error_objects@H@std@@2V_Generic_error_category@2@A ; std::_Error_objects<int>::_Generic_object

; 644  : 	}

	pop	edi
	pop	esi
	pop	ebx
	mov	esp, ebp
	pop	ebp
	ret	0
?generic_category@std@@YAABVerror_category@1@XZ ENDP	; std::generic_category
_TEXT	ENDS
; Function compile flags: /Odtp /RTCsu /ZI
; File c:\program files (x86)\microsoft visual studio 12.0\vc\include\xutility
;	COMDAT ??$_Debug_pointer@D@std@@YAXPBDPB_WI@Z
_TEXT	SEGMENT
__First$ = 8						; size = 4
__File$ = 12						; size = 4
__Line$ = 16						; size = 4
??$_Debug_pointer@D@std@@YAXPBDPB_WI@Z PROC		; std::_Debug_pointer<char>, COMDAT

; 545  : 	{	// test iterator for non-singularity, const pointers

	push	ebp
	mov	ebp, esp
	sub	esp, 192				; 000000c0H
	push	ebx
	push	esi
	push	edi
	lea	edi, DWORD PTR [ebp-192]
	mov	ecx, 48					; 00000030H
	mov	eax, -858993460				; ccccccccH
	rep stosd

; 546  : 	if (_First == 0)

	cmp	DWORD PTR __First$[ebp], 0
	jne	SHORT $LN2@Debug_poin

; 547  : 		_DEBUG_ERROR2("invalid null pointer", _File, _Line);

	mov	eax, DWORD PTR __Line$[ebp]
	push	eax
	mov	ecx, DWORD PTR __File$[ebp]
	push	ecx
	push	OFFSET ??_C@_1CK@EOPGIILJ@?$AAi?$AAn?$AAv?$AAa?$AAl?$AAi?$AAd?$AA?5?$AAn?$AAu?$AAl?$AAl?$AA?5?$AAp?$AAo?$AAi?$AAn?$AAt?$AAe?$AAr?$AA?$AA@
	call	?_Debug_message@std@@YAXPB_W0I@Z	; std::_Debug_message
	add	esp, 12					; 0000000cH
$LN2@Debug_poin:

; 548  : 	}

	pop	edi
	pop	esi
	pop	ebx
	add	esp, 192				; 000000c0H
	cmp	ebp, esp
	call	__RTC_CheckEsp
	mov	esp, ebp
	pop	ebp
	ret	0
??$_Debug_pointer@D@std@@YAXPBDPB_WI@Z ENDP		; std::_Debug_pointer<char>
_TEXT	ENDS
; Function compile flags: /Odtp /RTCsu /ZI
; File c:\program files (x86)\microsoft visual studio 12.0\vc\include\xlocale
;	COMDAT ??0id@locale@std@@QAE@I@Z
_TEXT	SEGMENT
_this$ = -8						; size = 4
__Val$ = 8						; size = 4
??0id@locale@std@@QAE@I@Z PROC				; std::locale::id::id, COMDAT
; _this$ = ecx

; 74   : 			{	// construct with specified stamp value

	push	ebp
	mov	ebp, esp
	sub	esp, 204				; 000000ccH
	push	ebx
	push	esi
	push	edi
	push	ecx
	lea	edi, DWORD PTR [ebp-204]
	mov	ecx, 51					; 00000033H
	mov	eax, -858993460				; ccccccccH
	rep stosd
	pop	ecx
	mov	DWORD PTR _this$[ebp], ecx
	mov	eax, DWORD PTR _this$[ebp]
	mov	ecx, DWORD PTR __Val$[ebp]
	mov	DWORD PTR [eax], ecx

; 75   : 			}

	mov	eax, DWORD PTR _this$[ebp]
	pop	edi
	pop	esi
	pop	ebx
	mov	esp, ebp
	pop	ebp
	ret	4
??0id@locale@std@@QAE@I@Z ENDP				; std::locale::id::id
_TEXT	ENDS
; Function compile flags: /Odtp /RTCsu /ZI
; File c:\program files (x86)\microsoft visual studio 12.0\vc\include\xstring
;	COMDAT ?_Xran@?$basic_string@DU?$char_traits@D@std@@V?$allocator@D@2@@std@@QBEXXZ
_TEXT	SEGMENT
_this$ = -8						; size = 4
?_Xran@?$basic_string@DU?$char_traits@D@std@@V?$allocator@D@2@@std@@QBEXXZ PROC ; std::basic_string<char,std::char_traits<char>,std::allocator<char> >::_Xran, COMDAT
; _this$ = ecx

; 2294 : 		{	// report an out_of_range error

	push	ebp
	mov	ebp, esp
	sub	esp, 204				; 000000ccH
	push	ebx
	push	esi
	push	edi
	push	ecx
	lea	edi, DWORD PTR [ebp-204]
	mov	ecx, 51					; 00000033H
	mov	eax, -858993460				; ccccccccH
	rep stosd
	pop	ecx
	mov	DWORD PTR _this$[ebp], ecx

; 2295 : 		_Xout_of_range("invalid string position");

	push	OFFSET ??_C@_0BI@CFPLBAOH@invalid?5string?5position?$AA@
	call	?_Xout_of_range@std@@YAXPBD@Z		; std::_Xout_of_range
$LN2@Xran:

; 2296 : 		}

	pop	edi
	pop	esi
	pop	ebx
	add	esp, 204				; 000000ccH
	cmp	ebp, esp
	call	__RTC_CheckEsp
	mov	esp, ebp
	pop	ebp
	ret	0
?_Xran@?$basic_string@DU?$char_traits@D@std@@V?$allocator@D@2@@std@@QBEXXZ ENDP ; std::basic_string<char,std::char_traits<char>,std::allocator<char> >::_Xran
_TEXT	ENDS
; Function compile flags: /Odtp /RTCsu /ZI
; File c:\program files (x86)\microsoft visual studio 12.0\vc\include\xstring
;	COMDAT ?_Xlen@?$basic_string@DU?$char_traits@D@std@@V?$allocator@D@2@@std@@QBEXXZ
_TEXT	SEGMENT
_this$ = -8						; size = 4
?_Xlen@?$basic_string@DU?$char_traits@D@std@@V?$allocator@D@2@@std@@QBEXXZ PROC ; std::basic_string<char,std::char_traits<char>,std::allocator<char> >::_Xlen, COMDAT
; _this$ = ecx

; 2289 : 		{	// report a length_error

	push	ebp
	mov	ebp, esp
	sub	esp, 204				; 000000ccH
	push	ebx
	push	esi
	push	edi
	push	ecx
	lea	edi, DWORD PTR [ebp-204]
	mov	ecx, 51					; 00000033H
	mov	eax, -858993460				; ccccccccH
	rep stosd
	pop	ecx
	mov	DWORD PTR _this$[ebp], ecx

; 2290 : 		_Xlength_error("string too long");

	push	OFFSET ??_C@_0BA@JFNIOLAK@string?5too?5long?$AA@
	call	?_Xlength_error@std@@YAXPBD@Z		; std::_Xlength_error
$LN2@Xlen:

; 2291 : 		}

	pop	edi
	pop	esi
	pop	ebx
	add	esp, 204				; 000000ccH
	cmp	ebp, esp
	call	__RTC_CheckEsp
	mov	esp, ebp
	pop	ebp
	ret	0
?_Xlen@?$basic_string@DU?$char_traits@D@std@@V?$allocator@D@2@@std@@QBEXXZ ENDP ; std::basic_string<char,std::char_traits<char>,std::allocator<char> >::_Xlen
_TEXT	ENDS
; Function compile flags: /Odtp /RTCsu /ZI
; File c:\program files (x86)\microsoft visual studio 12.0\vc\include\xstring
;	COMDAT ?_Tidy@?$basic_string@DU?$char_traits@D@std@@V?$allocator@D@2@@std@@QAEX_NI@Z
_TEXT	SEGMENT
$T1 = -233						; size = 1
$T2 = -221						; size = 1
__Ptr$3 = -20						; size = 4
_this$ = -8						; size = 4
__Built$ = 8						; size = 1
__Newsize$ = 12						; size = 4
?_Tidy@?$basic_string@DU?$char_traits@D@std@@V?$allocator@D@2@@std@@QAEX_NI@Z PROC ; std::basic_string<char,std::char_traits<char>,std::allocator<char> >::_Tidy, COMDAT
; _this$ = ecx

; 2272 : 		{	// initialize buffer, deallocating any storage

	push	ebp
	mov	ebp, esp
	sub	esp, 240				; 000000f0H
	push	ebx
	push	esi
	push	edi
	push	ecx
	lea	edi, DWORD PTR [ebp-240]
	mov	ecx, 60					; 0000003cH
	mov	eax, -858993460				; ccccccccH
	rep stosd
	pop	ecx
	mov	DWORD PTR _this$[ebp], ecx

; 2273 : 		if (!_Built)

	movzx	eax, BYTE PTR __Built$[ebp]
	test	eax, eax
	jne	SHORT $LN4@Tidy
	jmp	SHORT $LN3@Tidy
$LN4@Tidy:

; 2274 : 			;
; 2275 : 		else if (this->_BUF_SIZE <= this->_Myres)

	mov	eax, DWORD PTR _this$[ebp]
	cmp	DWORD PTR [eax+24], 16			; 00000010H
	jb	SHORT $LN3@Tidy

; 2276 : 			{	// copy any leftovers to small buffer and deallocate
; 2277 : 			pointer _Ptr = this->_Bx._Ptr;

	mov	eax, DWORD PTR _this$[ebp]
	mov	ecx, DWORD PTR [eax+4]
	mov	DWORD PTR __Ptr$3[ebp], ecx

; 2278 : 			this->_Getal().destroy(&this->_Bx._Ptr);

	mov	eax, DWORD PTR _this$[ebp]
	add	eax, 4
	push	eax
	lea	ecx, DWORD PTR $T1[ebp]
	push	ecx
	mov	ecx, DWORD PTR _this$[ebp]
	call	?_Getal@?$_String_alloc@$0A@U?$_String_base_types@DV?$allocator@D@std@@@std@@@std@@QBE?AU?$_Wrap_alloc@V?$allocator@D@std@@@2@XZ ; std::_String_alloc<0,std::_String_base_types<char,std::allocator<char> > >::_Getal
	mov	ecx, eax
	call	??$destroy@PAD@?$_Wrap_alloc@V?$allocator@D@std@@@std@@QAEXPAPAD@Z ; std::_Wrap_alloc<std::allocator<char> >::destroy<char *>

; 2279 : 			if (0 < _Newsize)

	cmp	DWORD PTR __Newsize$[ebp], 0
	jbe	SHORT $LN1@Tidy

; 2280 : 				_Traits::copy(this->_Bx._Buf,
; 2281 : 					_STD addressof(*_Ptr), _Newsize);

	mov	eax, DWORD PTR __Newsize$[ebp]
	push	eax
	mov	ecx, DWORD PTR __Ptr$3[ebp]
	push	ecx
	call	??$addressof@D@std@@YAPADAAD@Z		; std::addressof<char>
	add	esp, 4
	push	eax
	mov	edx, DWORD PTR _this$[ebp]
	add	edx, 4
	push	edx
	call	?copy@?$char_traits@D@std@@SAPADPADPBDI@Z ; std::char_traits<char>::copy
	add	esp, 12					; 0000000cH
$LN1@Tidy:

; 2282 : 			this->_Getal().deallocate(_Ptr, this->_Myres + 1);

	mov	eax, DWORD PTR _this$[ebp]
	mov	ecx, DWORD PTR [eax+24]
	add	ecx, 1
	push	ecx
	mov	edx, DWORD PTR __Ptr$3[ebp]
	push	edx
	lea	eax, DWORD PTR $T2[ebp]
	push	eax
	mov	ecx, DWORD PTR _this$[ebp]
	call	?_Getal@?$_String_alloc@$0A@U?$_String_base_types@DV?$allocator@D@std@@@std@@@std@@QBE?AU?$_Wrap_alloc@V?$allocator@D@std@@@2@XZ ; std::_String_alloc<0,std::_String_base_types<char,std::allocator<char> > >::_Getal
	mov	ecx, eax
	call	?deallocate@?$_Wrap_alloc@V?$allocator@D@std@@@std@@QAEXPADI@Z ; std::_Wrap_alloc<std::allocator<char> >::deallocate
$LN3@Tidy:

; 2283 : 			}
; 2284 : 		this->_Myres = this->_BUF_SIZE - 1;

	mov	eax, DWORD PTR _this$[ebp]
	mov	DWORD PTR [eax+24], 15			; 0000000fH

; 2285 : 		_Eos(_Newsize);

	mov	eax, DWORD PTR __Newsize$[ebp]
	push	eax
	mov	ecx, DWORD PTR _this$[ebp]
	call	?_Eos@?$basic_string@DU?$char_traits@D@std@@V?$allocator@D@2@@std@@QAEXI@Z ; std::basic_string<char,std::char_traits<char>,std::allocator<char> >::_Eos

; 2286 : 		}

	pop	edi
	pop	esi
	pop	ebx
	add	esp, 240				; 000000f0H
	cmp	ebp, esp
	call	__RTC_CheckEsp
	mov	esp, ebp
	pop	ebp
	ret	8
?_Tidy@?$basic_string@DU?$char_traits@D@std@@V?$allocator@D@2@@std@@QAEX_NI@Z ENDP ; std::basic_string<char,std::char_traits<char>,std::allocator<char> >::_Tidy
_TEXT	ENDS
; Function compile flags: /Odtp /RTCsu /ZI
; File c:\program files (x86)\microsoft visual studio 12.0\vc\include\xstring
;	COMDAT ?_Inside@?$basic_string@DU?$char_traits@D@std@@V?$allocator@D@2@@std@@QAE_NPBD@Z
_TEXT	SEGMENT
_this$ = -8						; size = 4
__Ptr$ = 8						; size = 4
?_Inside@?$basic_string@DU?$char_traits@D@std@@V?$allocator@D@2@@std@@QAE_NPBD@Z PROC ; std::basic_string<char,std::char_traits<char>,std::allocator<char> >::_Inside, COMDAT
; _this$ = ecx

; 2256 : 		{	// test if _Ptr points inside string

	push	ebp
	mov	ebp, esp
	sub	esp, 204				; 000000ccH
	push	ebx
	push	esi
	push	edi
	push	ecx
	lea	edi, DWORD PTR [ebp-204]
	mov	ecx, 51					; 00000033H
	mov	eax, -858993460				; ccccccccH
	rep stosd
	pop	ecx
	mov	DWORD PTR _this$[ebp], ecx

; 2257 : 		if (_Ptr == 0 || _Ptr < this->_Myptr()
; 2258 : 			|| this->_Myptr() + this->_Mysize <= _Ptr)

	cmp	DWORD PTR __Ptr$[ebp], 0
	je	SHORT $LN2@Inside
	mov	ecx, DWORD PTR _this$[ebp]
	call	?_Myptr@?$_String_val@U?$_Simple_types@D@std@@@std@@QAEPADXZ ; std::_String_val<std::_Simple_types<char> >::_Myptr
	cmp	DWORD PTR __Ptr$[ebp], eax
	jb	SHORT $LN2@Inside
	mov	ecx, DWORD PTR _this$[ebp]
	call	?_Myptr@?$_String_val@U?$_Simple_types@D@std@@@std@@QAEPADXZ ; std::_String_val<std::_Simple_types<char> >::_Myptr
	mov	ecx, DWORD PTR _this$[ebp]
	add	eax, DWORD PTR [ecx+20]
	cmp	eax, DWORD PTR __Ptr$[ebp]
	ja	SHORT $LN3@Inside
$LN2@Inside:

; 2259 : 			return (false);	// don't ask

	xor	al, al
	jmp	SHORT $LN4@Inside

; 2260 : 		else

	jmp	SHORT $LN4@Inside
$LN3@Inside:

; 2261 : 			return (true);

	mov	al, 1
$LN4@Inside:

; 2262 : 		}

	pop	edi
	pop	esi
	pop	ebx
	add	esp, 204				; 000000ccH
	cmp	ebp, esp
	call	__RTC_CheckEsp
	mov	esp, ebp
	pop	ebp
	ret	4
?_Inside@?$basic_string@DU?$char_traits@D@std@@V?$allocator@D@2@@std@@QAE_NPBD@Z ENDP ; std::basic_string<char,std::char_traits<char>,std::allocator<char> >::_Inside
_TEXT	ENDS
; Function compile flags: /Odtp /RTCsu /ZI
; File c:\program files (x86)\microsoft visual studio 12.0\vc\include\xstring
;	COMDAT ?_Grow@?$basic_string@DU?$char_traits@D@std@@V?$allocator@D@2@@std@@QAE_NI_N@Z
_TEXT	SEGMENT
tv136 = -208						; size = 4
tv129 = -208						; size = 4
_this$ = -8						; size = 4
__Newsize$ = 8						; size = 4
__Trim$ = 12						; size = 1
?_Grow@?$basic_string@DU?$char_traits@D@std@@V?$allocator@D@2@@std@@QAE_NI_N@Z PROC ; std::basic_string<char,std::char_traits<char>,std::allocator<char> >::_Grow, COMDAT
; _this$ = ecx

; 2242 : 		{	// ensure buffer is big enough, trim to size if _Trim is true

	push	ebp
	mov	ebp, esp
	sub	esp, 208				; 000000d0H
	push	ebx
	push	esi
	push	edi
	push	ecx
	lea	edi, DWORD PTR [ebp-208]
	mov	ecx, 52					; 00000034H
	mov	eax, -858993460				; ccccccccH
	rep stosd
	pop	ecx
	mov	DWORD PTR _this$[ebp], ecx

; 2243 : 		if (max_size() < _Newsize)

	mov	ecx, DWORD PTR _this$[ebp]
	call	?max_size@?$basic_string@DU?$char_traits@D@std@@V?$allocator@D@2@@std@@QBEIXZ ; std::basic_string<char,std::char_traits<char>,std::allocator<char> >::max_size
	cmp	eax, DWORD PTR __Newsize$[ebp]
	jae	SHORT $LN6@Grow

; 2244 : 			_Xlen();	// result too long

	mov	ecx, DWORD PTR _this$[ebp]
	call	?_Xlen@?$basic_string@DU?$char_traits@D@std@@V?$allocator@D@2@@std@@QBEXXZ ; std::basic_string<char,std::char_traits<char>,std::allocator<char> >::_Xlen
$LN6@Grow:

; 2245 : 		if (this->_Myres < _Newsize)

	mov	eax, DWORD PTR _this$[ebp]
	mov	ecx, DWORD PTR [eax+24]
	cmp	ecx, DWORD PTR __Newsize$[ebp]
	jae	SHORT $LN5@Grow

; 2246 : 			_Copy(_Newsize, this->_Mysize);	// reallocate to grow

	mov	eax, DWORD PTR _this$[ebp]
	mov	ecx, DWORD PTR [eax+20]
	push	ecx
	mov	edx, DWORD PTR __Newsize$[ebp]
	push	edx
	mov	ecx, DWORD PTR _this$[ebp]
	call	?_Copy@?$basic_string@DU?$char_traits@D@std@@V?$allocator@D@2@@std@@QAEXII@Z ; std::basic_string<char,std::char_traits<char>,std::allocator<char> >::_Copy
	jmp	SHORT $LN4@Grow
$LN5@Grow:

; 2247 : 		else if (_Trim && _Newsize < this->_BUF_SIZE)

	movzx	eax, BYTE PTR __Trim$[ebp]
	test	eax, eax
	je	SHORT $LN3@Grow
	cmp	DWORD PTR __Newsize$[ebp], 16		; 00000010H
	jae	SHORT $LN3@Grow

; 2248 : 			_Tidy(true,	// copy and deallocate if trimming to small string
; 2249 : 				_Newsize < this->_Mysize ? _Newsize : this->_Mysize);

	mov	eax, DWORD PTR _this$[ebp]
	mov	ecx, DWORD PTR __Newsize$[ebp]
	cmp	ecx, DWORD PTR [eax+20]
	jae	SHORT $LN9@Grow
	mov	edx, DWORD PTR __Newsize$[ebp]
	mov	DWORD PTR tv129[ebp], edx
	jmp	SHORT $LN10@Grow
$LN9@Grow:
	mov	eax, DWORD PTR _this$[ebp]
	mov	ecx, DWORD PTR [eax+20]
	mov	DWORD PTR tv129[ebp], ecx
$LN10@Grow:
	mov	edx, DWORD PTR tv129[ebp]
	push	edx
	push	1
	mov	ecx, DWORD PTR _this$[ebp]
	call	?_Tidy@?$basic_string@DU?$char_traits@D@std@@V?$allocator@D@2@@std@@QAEX_NI@Z ; std::basic_string<char,std::char_traits<char>,std::allocator<char> >::_Tidy
	jmp	SHORT $LN4@Grow
$LN3@Grow:

; 2250 : 		else if (_Newsize == 0)

	cmp	DWORD PTR __Newsize$[ebp], 0
	jne	SHORT $LN4@Grow

; 2251 : 			_Eos(0);	// new size is zero, just null terminate

	push	0
	mov	ecx, DWORD PTR _this$[ebp]
	call	?_Eos@?$basic_string@DU?$char_traits@D@std@@V?$allocator@D@2@@std@@QAEXI@Z ; std::basic_string<char,std::char_traits<char>,std::allocator<char> >::_Eos
$LN4@Grow:

; 2252 : 		return (0 < _Newsize);	// return true only if more work to do

	cmp	DWORD PTR __Newsize$[ebp], 0
	jbe	SHORT $LN11@Grow
	mov	DWORD PTR tv136[ebp], 1
	jmp	SHORT $LN12@Grow
$LN11@Grow:
	mov	DWORD PTR tv136[ebp], 0
$LN12@Grow:
	mov	al, BYTE PTR tv136[ebp]
$LN8@Grow:

; 2253 : 		}

	pop	edi
	pop	esi
	pop	ebx
	add	esp, 208				; 000000d0H
	cmp	ebp, esp
	call	__RTC_CheckEsp
	mov	esp, ebp
	pop	ebp
	ret	8
?_Grow@?$basic_string@DU?$char_traits@D@std@@V?$allocator@D@2@@std@@QAE_NI_N@Z ENDP ; std::basic_string<char,std::char_traits<char>,std::allocator<char> >::_Grow
_TEXT	ENDS
; Function compile flags: /Odtp /RTCsu /ZI
; File c:\program files (x86)\microsoft visual studio 12.0\vc\include\xstring
;	COMDAT ?_Eos@?$basic_string@DU?$char_traits@D@std@@V?$allocator@D@2@@std@@QAEXI@Z
_TEXT	SEGMENT
$T1 = -209						; size = 1
_this$ = -8						; size = 4
__Newsize$ = 8						; size = 4
?_Eos@?$basic_string@DU?$char_traits@D@std@@V?$allocator@D@2@@std@@QAEXI@Z PROC ; std::basic_string<char,std::char_traits<char>,std::allocator<char> >::_Eos, COMDAT
; _this$ = ecx

; 2236 : 		{	// set new length and null terminator

	push	ebp
	mov	ebp, esp
	sub	esp, 216				; 000000d8H
	push	ebx
	push	esi
	push	edi
	push	ecx
	lea	edi, DWORD PTR [ebp-216]
	mov	ecx, 54					; 00000036H
	mov	eax, -858993460				; ccccccccH
	rep stosd
	pop	ecx
	mov	DWORD PTR _this$[ebp], ecx

; 2237 : 		_Traits::assign(this->_Myptr()[this->_Mysize = _Newsize], _Elem());

	mov	BYTE PTR $T1[ebp], 0
	mov	eax, DWORD PTR _this$[ebp]
	mov	ecx, DWORD PTR __Newsize$[ebp]
	mov	DWORD PTR [eax+20], ecx
	lea	edx, DWORD PTR $T1[ebp]
	push	edx
	mov	ecx, DWORD PTR _this$[ebp]
	call	?_Myptr@?$_String_val@U?$_Simple_types@D@std@@@std@@QAEPADXZ ; std::_String_val<std::_Simple_types<char> >::_Myptr
	add	eax, DWORD PTR __Newsize$[ebp]
	push	eax
	call	?assign@?$char_traits@D@std@@SAXAADABD@Z ; std::char_traits<char>::assign
	add	esp, 8

; 2238 : 		}

	pop	edi
	pop	esi
	pop	ebx
	add	esp, 216				; 000000d8H
	cmp	ebp, esp
	call	__RTC_CheckEsp
	mov	esp, ebp
	pop	ebp
	ret	4
?_Eos@?$basic_string@DU?$char_traits@D@std@@V?$allocator@D@2@@std@@QAEXI@Z ENDP ; std::basic_string<char,std::char_traits<char>,std::allocator<char> >::_Eos
_TEXT	ENDS
; Function compile flags: /Odtp /RTCsu /ZI
; File c:\program files (x86)\microsoft visual studio 12.0\vc\include\xstring
;	COMDAT ?_Copy@?$basic_string@DU?$char_traits@D@std@@V?$allocator@D@2@@std@@QAEXII@Z
_TEXT	SEGMENT
tv205 = -288						; size = 4
tv203 = -288						; size = 4
tv204 = -284						; size = 4
tv202 = -284						; size = 4
$T2 = -273						; size = 1
$T3 = -261						; size = 1
$T4 = -249						; size = 1
__Ptr$ = -48						; size = 4
__Newres$ = -36						; size = 4
_this$ = -24						; size = 4
__$EHRec$ = -16						; size = 16
__Newsize$ = 8						; size = 4
__Oldlen$ = 12						; size = 4
?_Copy@?$basic_string@DU?$char_traits@D@std@@V?$allocator@D@2@@std@@QAEXII@Z PROC ; std::basic_string<char,std::char_traits<char>,std::allocator<char> >::_Copy, COMDAT
; _this$ = ecx

; 2201 : 		{	// copy _Oldlen elements to newly allocated buffer

	push	ebp
	mov	ebp, esp
	push	-1
	push	__ehhandler$?_Copy@?$basic_string@DU?$char_traits@D@std@@V?$allocator@D@2@@std@@QAEXII@Z
	mov	eax, DWORD PTR fs:0
	push	eax
	push	ecx
	sub	esp, 272				; 00000110H
	push	ebx
	push	esi
	push	edi
	push	ecx
	lea	edi, DWORD PTR [ebp-288]
	mov	ecx, 68					; 00000044H
	mov	eax, -858993460				; ccccccccH
	rep stosd
	pop	ecx
	mov	eax, DWORD PTR ___security_cookie
	xor	eax, ebp
	push	eax
	lea	eax, DWORD PTR __$EHRec$[ebp+4]
	mov	DWORD PTR fs:0, eax
	mov	DWORD PTR __$EHRec$[ebp], esp
	mov	DWORD PTR _this$[ebp], ecx

; 2202 : 		size_type _Newres = _Newsize | this->_ALLOC_MASK;

	mov	eax, DWORD PTR __Newsize$[ebp]
	or	eax, 15					; 0000000fH
	mov	DWORD PTR __Newres$[ebp], eax

; 2203 : 		if (max_size() < _Newres)

	mov	ecx, DWORD PTR _this$[ebp]
	call	?max_size@?$basic_string@DU?$char_traits@D@std@@V?$allocator@D@2@@std@@QBEIXZ ; std::basic_string<char,std::char_traits<char>,std::allocator<char> >::max_size
	cmp	eax, DWORD PTR __Newres$[ebp]
	jae	SHORT $LN9@Copy

; 2204 : 			_Newres = _Newsize;	// undo roundup if too big

	mov	eax, DWORD PTR __Newsize$[ebp]
	mov	DWORD PTR __Newres$[ebp], eax
	jmp	SHORT $LN8@Copy
$LN9@Copy:

; 2205 : 		else if (this->_Myres / 2 <= _Newres / 3)

	mov	eax, DWORD PTR __Newres$[ebp]
	xor	edx, edx
	mov	ecx, 3
	div	ecx
	mov	edx, DWORD PTR _this$[ebp]
	mov	ecx, DWORD PTR [edx+24]
	shr	ecx, 1
	cmp	ecx, eax
	ja	SHORT $LN7@Copy
	jmp	SHORT $LN8@Copy
$LN7@Copy:

; 2206 : 			;
; 2207 : 		else if (this->_Myres <= max_size() - this->_Myres / 2)

	mov	eax, DWORD PTR _this$[ebp]
	mov	esi, DWORD PTR [eax+24]
	shr	esi, 1
	mov	ecx, DWORD PTR _this$[ebp]
	call	?max_size@?$basic_string@DU?$char_traits@D@std@@V?$allocator@D@2@@std@@QBEIXZ ; std::basic_string<char,std::char_traits<char>,std::allocator<char> >::max_size
	sub	eax, esi
	mov	ecx, DWORD PTR _this$[ebp]
	cmp	DWORD PTR [ecx+24], eax
	ja	SHORT $LN5@Copy

; 2208 : 			_Newres = this->_Myres
; 2209 : 				+ this->_Myres / 2;	// grow exponentially if possible

	mov	eax, DWORD PTR _this$[ebp]
	mov	ecx, DWORD PTR [eax+24]
	shr	ecx, 1
	mov	edx, DWORD PTR _this$[ebp]
	add	ecx, DWORD PTR [edx+24]
	mov	DWORD PTR __Newres$[ebp], ecx

; 2210 : 		else

	jmp	SHORT $LN8@Copy
$LN5@Copy:

; 2211 : 			_Newres = max_size();	// settle for max_size()

	mov	ecx, DWORD PTR _this$[ebp]
	call	?max_size@?$basic_string@DU?$char_traits@D@std@@V?$allocator@D@2@@std@@QBEIXZ ; std::basic_string<char,std::char_traits<char>,std::allocator<char> >::max_size
	mov	DWORD PTR __Newres$[ebp], eax
$LN8@Copy:

; 2212 : 
; 2213 : 		_Elem *_Ptr;
; 2214 : 		_TRY_BEGIN

	mov	DWORD PTR __$EHRec$[ebp+12], 0

; 2215 : 			_Ptr = this->_Getal().allocate(_Newres + 1);

	lea	eax, DWORD PTR $T2[ebp]
	push	eax
	mov	ecx, DWORD PTR _this$[ebp]
	call	?_Getal@?$_String_alloc@$0A@U?$_String_base_types@DV?$allocator@D@std@@@std@@@std@@QBE?AU?$_Wrap_alloc@V?$allocator@D@std@@@2@XZ ; std::_String_alloc<0,std::_String_base_types<char,std::allocator<char> > >::_Getal
	mov	DWORD PTR tv202[ebp], eax
	mov	ecx, DWORD PTR __Newres$[ebp]
	add	ecx, 1
	push	ecx
	mov	ecx, DWORD PTR tv202[ebp]
	call	?allocate@?$_Wrap_alloc@V?$allocator@D@std@@@std@@QAEPADI@Z ; std::_Wrap_alloc<std::allocator<char> >::allocate
	mov	DWORD PTR tv203[ebp], eax
	mov	edx, DWORD PTR tv203[ebp]
	mov	DWORD PTR __Ptr$[ebp], edx
	jmp	SHORT $LN12@Copy
__catch$?_Copy@?$basic_string@DU?$char_traits@D@std@@V?$allocator@D@2@@std@@QAEXII@Z$0:

; 2216 : 		_CATCH_ALL

	mov	DWORD PTR __$EHRec$[ebp], esp

; 2217 : 			_Newres = _Newsize;	// allocation failed, undo roundup and retry

	mov	eax, DWORD PTR __Newsize$[ebp]
	mov	DWORD PTR __Newres$[ebp], eax

; 2218 : 			_TRY_BEGIN

	mov	BYTE PTR __$EHRec$[ebp+12], 2

; 2219 : 				_Ptr = this->_Getal().allocate(_Newres + 1);

	lea	eax, DWORD PTR $T3[ebp]
	push	eax
	mov	ecx, DWORD PTR _this$[ebp]
	call	?_Getal@?$_String_alloc@$0A@U?$_String_base_types@DV?$allocator@D@std@@@std@@@std@@QBE?AU?$_Wrap_alloc@V?$allocator@D@std@@@2@XZ ; std::_String_alloc<0,std::_String_base_types<char,std::allocator<char> > >::_Getal
	mov	DWORD PTR tv204[ebp], eax
	mov	ecx, DWORD PTR __Newres$[ebp]
	add	ecx, 1
	push	ecx
	mov	ecx, DWORD PTR tv204[ebp]
	call	?allocate@?$_Wrap_alloc@V?$allocator@D@std@@@std@@QAEPADI@Z ; std::_Wrap_alloc<std::allocator<char> >::allocate
	mov	DWORD PTR tv205[ebp], eax
	mov	edx, DWORD PTR tv205[ebp]
	mov	DWORD PTR __Ptr$[ebp], edx
	jmp	SHORT $LN14@Copy
__catch$?_Copy@?$basic_string@DU?$char_traits@D@std@@V?$allocator@D@2@@std@@QAEXII@Z$1:

; 2220 : 			_CATCH_ALL
; 2221 : 			_Tidy(true);	// failed again, discard storage and reraise

	push	0
	push	1
	mov	ecx, DWORD PTR _this$[ebp]
	call	?_Tidy@?$basic_string@DU?$char_traits@D@std@@V?$allocator@D@2@@std@@QAEX_NI@Z ; std::basic_string<char,std::char_traits<char>,std::allocator<char> >::_Tidy

; 2222 : 			_RERAISE;

	push	0
	push	0
	call	__CxxThrowException@8

; 2223 : 			_CATCH_END

	mov	eax, $LN17@Copy
	ret	0
$LN14@Copy:
	mov	DWORD PTR __$EHRec$[ebp+12], 1
	jmp	SHORT __tryend$?_Copy@?$basic_string@DU?$char_traits@D@std@@V?$allocator@D@2@@std@@QAEXII@Z$2
$LN17@Copy:
	mov	DWORD PTR __$EHRec$[ebp+12], 1
__tryend$?_Copy@?$basic_string@DU?$char_traits@D@std@@V?$allocator@D@2@@std@@QAEXII@Z$2:

; 2224 : 		_CATCH_END

	mov	eax, $LN19@Copy
	ret	0
$LN12@Copy:
	mov	DWORD PTR __$EHRec$[ebp+12], -1
	jmp	SHORT __tryend$?_Copy@?$basic_string@DU?$char_traits@D@std@@V?$allocator@D@2@@std@@QAEXII@Z$3
$LN19@Copy:
	mov	DWORD PTR __$EHRec$[ebp+12], -1
__tryend$?_Copy@?$basic_string@DU?$char_traits@D@std@@V?$allocator@D@2@@std@@QAEXII@Z$3:

; 2225 : 
; 2226 : 		if (0 < _Oldlen)

	cmp	DWORD PTR __Oldlen$[ebp], 0
	jbe	SHORT $LN1@Copy

; 2227 : 			_Traits::copy(_Ptr, this->_Myptr(),
; 2228 : 				_Oldlen);	// copy existing elements

	mov	eax, DWORD PTR __Oldlen$[ebp]
	push	eax
	mov	ecx, DWORD PTR _this$[ebp]
	call	?_Myptr@?$_String_val@U?$_Simple_types@D@std@@@std@@QAEPADXZ ; std::_String_val<std::_Simple_types<char> >::_Myptr
	push	eax
	mov	ecx, DWORD PTR __Ptr$[ebp]
	push	ecx
	call	?copy@?$char_traits@D@std@@SAPADPADPBDI@Z ; std::char_traits<char>::copy
	add	esp, 12					; 0000000cH
$LN1@Copy:

; 2229 : 		_Tidy(true);

	push	0
	push	1
	mov	ecx, DWORD PTR _this$[ebp]
	call	?_Tidy@?$basic_string@DU?$char_traits@D@std@@V?$allocator@D@2@@std@@QAEX_NI@Z ; std::basic_string<char,std::char_traits<char>,std::allocator<char> >::_Tidy

; 2230 : 		this->_Getal().construct(&this->_Bx._Ptr, _Ptr);

	lea	eax, DWORD PTR __Ptr$[ebp]
	push	eax
	mov	ecx, DWORD PTR _this$[ebp]
	add	ecx, 4
	push	ecx
	lea	edx, DWORD PTR $T4[ebp]
	push	edx
	mov	ecx, DWORD PTR _this$[ebp]
	call	?_Getal@?$_String_alloc@$0A@U?$_String_base_types@DV?$allocator@D@std@@@std@@@std@@QBE?AU?$_Wrap_alloc@V?$allocator@D@std@@@2@XZ ; std::_String_alloc<0,std::_String_base_types<char,std::allocator<char> > >::_Getal
	mov	ecx, eax
	call	??$construct@PADAAPAD@?$_Wrap_alloc@V?$allocator@D@std@@@std@@QAEXPAPADAAPAD@Z ; std::_Wrap_alloc<std::allocator<char> >::construct<char *,char * &>

; 2231 : 		this->_Myres = _Newres;

	mov	eax, DWORD PTR _this$[ebp]
	mov	ecx, DWORD PTR __Newres$[ebp]
	mov	DWORD PTR [eax+24], ecx

; 2232 : 		_Eos(_Oldlen);

	mov	eax, DWORD PTR __Oldlen$[ebp]
	push	eax
	mov	ecx, DWORD PTR _this$[ebp]
	call	?_Eos@?$basic_string@DU?$char_traits@D@std@@V?$allocator@D@2@@std@@QAEXI@Z ; std::basic_string<char,std::char_traits<char>,std::allocator<char> >::_Eos
$LN11@Copy:

; 2233 : 		}

	push	edx
	mov	ecx, ebp
	push	eax
	lea	edx, DWORD PTR $LN23@Copy
	call	@_RTC_CheckStackVars@8
	pop	eax
	pop	edx
	mov	ecx, DWORD PTR __$EHRec$[ebp+4]
	mov	DWORD PTR fs:0, ecx
	pop	ecx
	pop	edi
	pop	esi
	pop	ebx
	add	esp, 288				; 00000120H
	cmp	ebp, esp
	call	__RTC_CheckEsp
	mov	esp, ebp
	pop	ebp
	ret	8
	npad	2
$LN23@Copy:
	DD	1
	DD	$LN22@Copy
$LN22@Copy:
	DD	-48					; ffffffd0H
	DD	4
	DD	$LN20@Copy
$LN20@Copy:
	DB	95					; 0000005fH
	DB	80					; 00000050H
	DB	116					; 00000074H
	DB	114					; 00000072H
	DB	0
_TEXT	ENDS
;	COMDAT text$x
text$x	SEGMENT
__ehhandler$?_Copy@?$basic_string@DU?$char_traits@D@std@@V?$allocator@D@2@@std@@QAEXII@Z:
	mov	edx, DWORD PTR [esp+8]
	lea	eax, DWORD PTR [edx+12]
	mov	ecx, DWORD PTR [edx-292]
	xor	ecx, eax
	call	@__security_check_cookie@4
	mov	eax, OFFSET __ehfuncinfo$?_Copy@?$basic_string@DU?$char_traits@D@std@@V?$allocator@D@2@@std@@QAEXII@Z
	jmp	___CxxFrameHandler3
text$x	ENDS
?_Copy@?$basic_string@DU?$char_traits@D@std@@V?$allocator@D@2@@std@@QAEXII@Z ENDP ; std::basic_string<char,std::char_traits<char>,std::allocator<char> >::_Copy
; Function compile flags: /Odtp /RTCsu /ZI
; File c:\program files (x86)\microsoft visual studio 12.0\vc\include\xstring
;	COMDAT ?max_size@?$basic_string@DU?$char_traits@D@std@@V?$allocator@D@2@@std@@QBEIXZ
_TEXT	SEGMENT
tv75 = -232						; size = 4
$T1 = -221						; size = 1
__Num$ = -20						; size = 4
_this$ = -8						; size = 4
?max_size@?$basic_string@DU?$char_traits@D@std@@V?$allocator@D@2@@std@@QBEIXZ PROC ; std::basic_string<char,std::char_traits<char>,std::allocator<char> >::max_size, COMDAT
; _this$ = ecx

; 1758 : 		{	// return maximum possible length of sequence

	push	ebp
	mov	ebp, esp
	sub	esp, 232				; 000000e8H
	push	ebx
	push	esi
	push	edi
	push	ecx
	lea	edi, DWORD PTR [ebp-232]
	mov	ecx, 58					; 0000003aH
	mov	eax, -858993460				; ccccccccH
	rep stosd
	pop	ecx
	mov	DWORD PTR _this$[ebp], ecx

; 1759 : 		size_type _Num = this->_Getal().max_size();

	lea	eax, DWORD PTR $T1[ebp]
	push	eax
	mov	ecx, DWORD PTR _this$[ebp]
	call	?_Getal@?$_String_alloc@$0A@U?$_String_base_types@DV?$allocator@D@std@@@std@@@std@@QBE?AU?$_Wrap_alloc@V?$allocator@D@std@@@2@XZ ; std::_String_alloc<0,std::_String_base_types<char,std::allocator<char> > >::_Getal
	mov	ecx, eax
	call	?max_size@?$_Wrap_alloc@V?$allocator@D@std@@@std@@QBEIXZ ; std::_Wrap_alloc<std::allocator<char> >::max_size
	mov	DWORD PTR __Num$[ebp], eax

; 1760 : 		return (_Num <= 1 ? 1 : _Num - 1);

	cmp	DWORD PTR __Num$[ebp], 1
	ja	SHORT $LN3@max_size
	mov	DWORD PTR tv75[ebp], 1
	jmp	SHORT $LN4@max_size
$LN3@max_size:
	mov	eax, DWORD PTR __Num$[ebp]
	sub	eax, 1
	mov	DWORD PTR tv75[ebp], eax
$LN4@max_size:
	mov	eax, DWORD PTR tv75[ebp]

; 1761 : 		}

	pop	edi
	pop	esi
	pop	ebx
	add	esp, 232				; 000000e8H
	cmp	ebp, esp
	call	__RTC_CheckEsp
	mov	esp, ebp
	pop	ebp
	ret	0
?max_size@?$basic_string@DU?$char_traits@D@std@@V?$allocator@D@2@@std@@QBEIXZ ENDP ; std::basic_string<char,std::char_traits<char>,std::allocator<char> >::max_size
_TEXT	ENDS
; Function compile flags: /Odtp /RTCsu /ZI
; File c:\program files (x86)\microsoft visual studio 12.0\vc\include\xstring
;	COMDAT ?size@?$basic_string@DU?$char_traits@D@std@@V?$allocator@D@2@@std@@QBEIXZ
_TEXT	SEGMENT
_this$ = -8						; size = 4
?size@?$basic_string@DU?$char_traits@D@std@@V?$allocator@D@2@@std@@QBEIXZ PROC ; std::basic_string<char,std::char_traits<char>,std::allocator<char> >::size, COMDAT
; _this$ = ecx

; 1753 : 		{	// return length of sequence

	push	ebp
	mov	ebp, esp
	sub	esp, 204				; 000000ccH
	push	ebx
	push	esi
	push	edi
	push	ecx
	lea	edi, DWORD PTR [ebp-204]
	mov	ecx, 51					; 00000033H
	mov	eax, -858993460				; ccccccccH
	rep stosd
	pop	ecx
	mov	DWORD PTR _this$[ebp], ecx

; 1754 : 		return (this->_Mysize);

	mov	eax, DWORD PTR _this$[ebp]
	mov	eax, DWORD PTR [eax+20]

; 1755 : 		}

	pop	edi
	pop	esi
	pop	ebx
	mov	esp, ebp
	pop	ebp
	ret	0
?size@?$basic_string@DU?$char_traits@D@std@@V?$allocator@D@2@@std@@QBEIXZ ENDP ; std::basic_string<char,std::char_traits<char>,std::allocator<char> >::size
_TEXT	ENDS
; Function compile flags: /Odtp /RTCsu /ZI
; File c:\program files (x86)\microsoft visual studio 12.0\vc\include\xstring
;	COMDAT ?erase@?$basic_string@DU?$char_traits@D@std@@V?$allocator@D@2@@std@@QAEAAV12@II@Z
_TEXT	SEGMENT
__Newsize$1 = -32					; size = 4
__Ptr$2 = -20						; size = 4
_this$ = -8						; size = 4
__Off$ = 8						; size = 4
__Count$ = 12						; size = 4
?erase@?$basic_string@DU?$char_traits@D@std@@V?$allocator@D@2@@std@@QAEAAV12@II@Z PROC ; std::basic_string<char,std::char_traits<char>,std::allocator<char> >::erase, COMDAT
; _this$ = ecx

; 1342 : 		{	// erase elements [_Off, _Off + _Count)

	push	ebp
	mov	ebp, esp
	sub	esp, 228				; 000000e4H
	push	ebx
	push	esi
	push	edi
	push	ecx
	lea	edi, DWORD PTR [ebp-228]
	mov	ecx, 57					; 00000039H
	mov	eax, -858993460				; ccccccccH
	rep stosd
	pop	ecx
	mov	DWORD PTR _this$[ebp], ecx

; 1343 : 		if (this->_Mysize < _Off)

	mov	eax, DWORD PTR _this$[ebp]
	mov	ecx, DWORD PTR [eax+20]
	cmp	ecx, DWORD PTR __Off$[ebp]
	jae	SHORT $LN4@erase

; 1344 : 			_Xran();	// _Off off end

	mov	ecx, DWORD PTR _this$[ebp]
	call	?_Xran@?$basic_string@DU?$char_traits@D@std@@V?$allocator@D@2@@std@@QBEXXZ ; std::basic_string<char,std::char_traits<char>,std::allocator<char> >::_Xran
$LN4@erase:

; 1345 : 		if (this->_Mysize - _Off <= _Count)

	mov	eax, DWORD PTR _this$[ebp]
	mov	ecx, DWORD PTR [eax+20]
	sub	ecx, DWORD PTR __Off$[ebp]
	cmp	ecx, DWORD PTR __Count$[ebp]
	ja	SHORT $LN3@erase

; 1346 : 			_Eos(_Off);	// erase elements [_Off, ...)

	mov	eax, DWORD PTR __Off$[ebp]
	push	eax
	mov	ecx, DWORD PTR _this$[ebp]
	call	?_Eos@?$basic_string@DU?$char_traits@D@std@@V?$allocator@D@2@@std@@QAEXI@Z ; std::basic_string<char,std::char_traits<char>,std::allocator<char> >::_Eos
	jmp	SHORT $LN2@erase
$LN3@erase:

; 1347 : 		else if (0 < _Count)

	cmp	DWORD PTR __Count$[ebp], 0
	jbe	SHORT $LN2@erase

; 1348 : 			{	// move elements down
; 1349 : 			value_type *_Ptr = this->_Myptr() + _Off;

	mov	ecx, DWORD PTR _this$[ebp]
	call	?_Myptr@?$_String_val@U?$_Simple_types@D@std@@@std@@QAEPADXZ ; std::_String_val<std::_Simple_types<char> >::_Myptr
	add	eax, DWORD PTR __Off$[ebp]
	mov	DWORD PTR __Ptr$2[ebp], eax

; 1350 : 			size_type _Newsize = this->_Mysize - _Count;

	mov	eax, DWORD PTR _this$[ebp]
	mov	ecx, DWORD PTR [eax+20]
	sub	ecx, DWORD PTR __Count$[ebp]
	mov	DWORD PTR __Newsize$1[ebp], ecx

; 1351 : 			_Traits::move(_Ptr, _Ptr + _Count, _Newsize - _Off);

	mov	eax, DWORD PTR __Newsize$1[ebp]
	sub	eax, DWORD PTR __Off$[ebp]
	push	eax
	mov	ecx, DWORD PTR __Ptr$2[ebp]
	add	ecx, DWORD PTR __Count$[ebp]
	push	ecx
	mov	edx, DWORD PTR __Ptr$2[ebp]
	push	edx
	call	?move@?$char_traits@D@std@@SAPADPADPBDI@Z ; std::char_traits<char>::move
	add	esp, 12					; 0000000cH

; 1352 : 			_Eos(_Newsize);

	mov	eax, DWORD PTR __Newsize$1[ebp]
	push	eax
	mov	ecx, DWORD PTR _this$[ebp]
	call	?_Eos@?$basic_string@DU?$char_traits@D@std@@V?$allocator@D@2@@std@@QAEXI@Z ; std::basic_string<char,std::char_traits<char>,std::allocator<char> >::_Eos
$LN2@erase:

; 1353 : 			}
; 1354 : 		return (*this);

	mov	eax, DWORD PTR _this$[ebp]
$LN6@erase:

; 1355 : 		}

	pop	edi
	pop	esi
	pop	ebx
	add	esp, 228				; 000000e4H
	cmp	ebp, esp
	call	__RTC_CheckEsp
	mov	esp, ebp
	pop	ebp
	ret	8
?erase@?$basic_string@DU?$char_traits@D@std@@V?$allocator@D@2@@std@@QAEAAV12@II@Z ENDP ; std::basic_string<char,std::char_traits<char>,std::allocator<char> >::erase
_TEXT	ENDS
; Function compile flags: /Odtp /RTCsu /ZI
; File c:\program files (x86)\microsoft visual studio 12.0\vc\include\xstring
;	COMDAT ?erase@?$basic_string@DU?$char_traits@D@std@@V?$allocator@D@2@@std@@QAEAAV12@I@Z
_TEXT	SEGMENT
_this$ = -8						; size = 4
__Off$ = 8						; size = 4
?erase@?$basic_string@DU?$char_traits@D@std@@V?$allocator@D@2@@std@@QAEAAV12@I@Z PROC ; std::basic_string<char,std::char_traits<char>,std::allocator<char> >::erase, COMDAT
; _this$ = ecx

; 1334 : 		{	// erase elements [_Off, ...)

	push	ebp
	mov	ebp, esp
	sub	esp, 204				; 000000ccH
	push	ebx
	push	esi
	push	edi
	push	ecx
	lea	edi, DWORD PTR [ebp-204]
	mov	ecx, 51					; 00000033H
	mov	eax, -858993460				; ccccccccH
	rep stosd
	pop	ecx
	mov	DWORD PTR _this$[ebp], ecx

; 1335 : 		if (this->_Mysize < _Off)

	mov	eax, DWORD PTR _this$[ebp]
	mov	ecx, DWORD PTR [eax+20]
	cmp	ecx, DWORD PTR __Off$[ebp]
	jae	SHORT $LN1@erase

; 1336 : 			_Xran();	// _Off off end

	mov	ecx, DWORD PTR _this$[ebp]
	call	?_Xran@?$basic_string@DU?$char_traits@D@std@@V?$allocator@D@2@@std@@QBEXXZ ; std::basic_string<char,std::char_traits<char>,std::allocator<char> >::_Xran
$LN1@erase:

; 1337 : 		_Eos(_Off);

	mov	eax, DWORD PTR __Off$[ebp]
	push	eax
	mov	ecx, DWORD PTR _this$[ebp]
	call	?_Eos@?$basic_string@DU?$char_traits@D@std@@V?$allocator@D@2@@std@@QAEXI@Z ; std::basic_string<char,std::char_traits<char>,std::allocator<char> >::_Eos

; 1338 : 		return (*this);

	mov	eax, DWORD PTR _this$[ebp]
$LN3@erase:

; 1339 : 		}

	pop	edi
	pop	esi
	pop	ebx
	add	esp, 204				; 000000ccH
	cmp	ebp, esp
	call	__RTC_CheckEsp
	mov	esp, ebp
	pop	ebp
	ret	4
?erase@?$basic_string@DU?$char_traits@D@std@@V?$allocator@D@2@@std@@QAEAAV12@I@Z ENDP ; std::basic_string<char,std::char_traits<char>,std::allocator<char> >::erase
_TEXT	ENDS
; Function compile flags: /Odtp /RTCsu /ZI
; File c:\program files (x86)\microsoft visual studio 12.0\vc\include\xstring
;	COMDAT ?assign@?$basic_string@DU?$char_traits@D@std@@V?$allocator@D@2@@std@@QAEAAV12@PBD@Z
_TEXT	SEGMENT
_this$ = -8						; size = 4
__Ptr$ = 8						; size = 4
?assign@?$basic_string@DU?$char_traits@D@std@@V?$allocator@D@2@@std@@QAEAAV12@PBD@Z PROC ; std::basic_string<char,std::char_traits<char>,std::allocator<char> >::assign, COMDAT
; _this$ = ecx

; 1167 : 		{	// assign [_Ptr, <null>)

	push	ebp
	mov	ebp, esp
	sub	esp, 204				; 000000ccH
	push	ebx
	push	esi
	push	edi
	push	ecx
	lea	edi, DWORD PTR [ebp-204]
	mov	ecx, 51					; 00000033H
	mov	eax, -858993460				; ccccccccH
	rep stosd
	pop	ecx
	mov	DWORD PTR _this$[ebp], ecx

; 1168 : 		_DEBUG_POINTER(_Ptr);

	push	1168					; 00000490H
	push	OFFSET ??_C@_1IO@JLPDPDPD@?$AAc?$AA?3?$AA?2?$AAp?$AAr?$AAo?$AAg?$AAr?$AAa?$AAm?$AA?5?$AAf?$AAi?$AAl?$AAe?$AAs?$AA?5?$AA?$CI?$AAx?$AA8?$AA6?$AA?$CJ?$AA?2?$AAm?$AAi?$AAc?$AAr?$AAo?$AAs?$AAo?$AAf?$AAt@
	mov	eax, DWORD PTR __Ptr$[ebp]
	push	eax
	call	??$_Debug_pointer@D@std@@YAXPBDPB_WI@Z	; std::_Debug_pointer<char>
	add	esp, 12					; 0000000cH

; 1169 : 		return (assign(_Ptr, _Traits::length(_Ptr)));

	mov	eax, DWORD PTR __Ptr$[ebp]
	push	eax
	call	?length@?$char_traits@D@std@@SAIPBD@Z	; std::char_traits<char>::length
	add	esp, 4
	push	eax
	mov	ecx, DWORD PTR __Ptr$[ebp]
	push	ecx
	mov	ecx, DWORD PTR _this$[ebp]
	call	?assign@?$basic_string@DU?$char_traits@D@std@@V?$allocator@D@2@@std@@QAEAAV12@PBDI@Z ; std::basic_string<char,std::char_traits<char>,std::allocator<char> >::assign

; 1170 : 		}

	pop	edi
	pop	esi
	pop	ebx
	add	esp, 204				; 000000ccH
	cmp	ebp, esp
	call	__RTC_CheckEsp
	mov	esp, ebp
	pop	ebp
	ret	4
?assign@?$basic_string@DU?$char_traits@D@std@@V?$allocator@D@2@@std@@QAEAAV12@PBD@Z ENDP ; std::basic_string<char,std::char_traits<char>,std::allocator<char> >::assign
_TEXT	ENDS
; Function compile flags: /Odtp /RTCsu /ZI
; File c:\program files (x86)\microsoft visual studio 12.0\vc\include\xstring
;	COMDAT ?assign@?$basic_string@DU?$char_traits@D@std@@V?$allocator@D@2@@std@@QAEAAV12@PBDI@Z
_TEXT	SEGMENT
_this$ = -8						; size = 4
__Ptr$ = 8						; size = 4
__Count$ = 12						; size = 4
?assign@?$basic_string@DU?$char_traits@D@std@@V?$allocator@D@2@@std@@QAEAAV12@PBDI@Z PROC ; std::basic_string<char,std::char_traits<char>,std::allocator<char> >::assign, COMDAT
; _this$ = ecx

; 1148 : 		{	// assign [_Ptr, _Ptr + _Count)

	push	ebp
	mov	ebp, esp
	sub	esp, 204				; 000000ccH
	push	ebx
	push	esi
	push	edi
	push	ecx
	lea	edi, DWORD PTR [ebp-204]
	mov	ecx, 51					; 00000033H
	mov	eax, -858993460				; ccccccccH
	rep stosd
	pop	ecx
	mov	DWORD PTR _this$[ebp], ecx

; 1149 :  #if _ITERATOR_DEBUG_LEVEL == 2
; 1150 : 		if (_Count != 0)

	cmp	DWORD PTR __Count$[ebp], 0
	je	SHORT $LN3@assign

; 1151 : 			_DEBUG_POINTER(_Ptr);

	push	1151					; 0000047fH
	push	OFFSET ??_C@_1IO@JLPDPDPD@?$AAc?$AA?3?$AA?2?$AAp?$AAr?$AAo?$AAg?$AAr?$AAa?$AAm?$AA?5?$AAf?$AAi?$AAl?$AAe?$AAs?$AA?5?$AA?$CI?$AAx?$AA8?$AA6?$AA?$CJ?$AA?2?$AAm?$AAi?$AAc?$AAr?$AAo?$AAs?$AAo?$AAf?$AAt@
	mov	eax, DWORD PTR __Ptr$[ebp]
	push	eax
	call	??$_Debug_pointer@D@std@@YAXPBDPB_WI@Z	; std::_Debug_pointer<char>
	add	esp, 12					; 0000000cH
$LN3@assign:

; 1152 :  #endif /* _ITERATOR_DEBUG_LEVEL == 2 */
; 1153 : 
; 1154 : 		if (_Inside(_Ptr))

	mov	eax, DWORD PTR __Ptr$[ebp]
	push	eax
	mov	ecx, DWORD PTR _this$[ebp]
	call	?_Inside@?$basic_string@DU?$char_traits@D@std@@V?$allocator@D@2@@std@@QAE_NPBD@Z ; std::basic_string<char,std::char_traits<char>,std::allocator<char> >::_Inside
	movzx	ecx, al
	test	ecx, ecx
	je	SHORT $LN2@assign

; 1155 : 			return (assign(*this,
; 1156 : 				_Ptr - this->_Myptr(), _Count));	// substring

	mov	eax, DWORD PTR __Count$[ebp]
	push	eax
	mov	ecx, DWORD PTR _this$[ebp]
	call	?_Myptr@?$_String_val@U?$_Simple_types@D@std@@@std@@QAEPADXZ ; std::_String_val<std::_Simple_types<char> >::_Myptr
	mov	ecx, DWORD PTR __Ptr$[ebp]
	sub	ecx, eax
	push	ecx
	mov	edx, DWORD PTR _this$[ebp]
	push	edx
	mov	ecx, DWORD PTR _this$[ebp]
	call	?assign@?$basic_string@DU?$char_traits@D@std@@V?$allocator@D@2@@std@@QAEAAV12@ABV12@II@Z ; std::basic_string<char,std::char_traits<char>,std::allocator<char> >::assign
	jmp	SHORT $LN4@assign
$LN2@assign:

; 1157 : 
; 1158 : 		if (_Grow(_Count))

	push	0
	mov	eax, DWORD PTR __Count$[ebp]
	push	eax
	mov	ecx, DWORD PTR _this$[ebp]
	call	?_Grow@?$basic_string@DU?$char_traits@D@std@@V?$allocator@D@2@@std@@QAE_NI_N@Z ; std::basic_string<char,std::char_traits<char>,std::allocator<char> >::_Grow
	movzx	ecx, al
	test	ecx, ecx
	je	SHORT $LN1@assign

; 1159 : 			{	// make room and assign new stuff
; 1160 : 			_Traits::copy(this->_Myptr(), _Ptr, _Count);

	mov	eax, DWORD PTR __Count$[ebp]
	push	eax
	mov	ecx, DWORD PTR __Ptr$[ebp]
	push	ecx
	mov	ecx, DWORD PTR _this$[ebp]
	call	?_Myptr@?$_String_val@U?$_Simple_types@D@std@@@std@@QAEPADXZ ; std::_String_val<std::_Simple_types<char> >::_Myptr
	push	eax
	call	?copy@?$char_traits@D@std@@SAPADPADPBDI@Z ; std::char_traits<char>::copy
	add	esp, 12					; 0000000cH

; 1161 : 			_Eos(_Count);

	mov	eax, DWORD PTR __Count$[ebp]
	push	eax
	mov	ecx, DWORD PTR _this$[ebp]
	call	?_Eos@?$basic_string@DU?$char_traits@D@std@@V?$allocator@D@2@@std@@QAEXI@Z ; std::basic_string<char,std::char_traits<char>,std::allocator<char> >::_Eos
$LN1@assign:

; 1162 : 			}
; 1163 : 		return (*this);

	mov	eax, DWORD PTR _this$[ebp]
$LN4@assign:

; 1164 : 		}

	pop	edi
	pop	esi
	pop	ebx
	add	esp, 204				; 000000ccH
	cmp	ebp, esp
	call	__RTC_CheckEsp
	mov	esp, ebp
	pop	ebp
	ret	8
?assign@?$basic_string@DU?$char_traits@D@std@@V?$allocator@D@2@@std@@QAEAAV12@PBDI@Z ENDP ; std::basic_string<char,std::char_traits<char>,std::allocator<char> >::assign
_TEXT	ENDS
; Function compile flags: /Odtp /RTCsu /ZI
; File c:\program files (x86)\microsoft visual studio 12.0\vc\include\xstring
;	COMDAT ?assign@?$basic_string@DU?$char_traits@D@std@@V?$allocator@D@2@@std@@QAEAAV12@ABV12@II@Z
_TEXT	SEGMENT
__Num$ = -20						; size = 4
_this$ = -8						; size = 4
__Right$ = 8						; size = 4
__Roff$ = 12						; size = 4
__Count$ = 16						; size = 4
?assign@?$basic_string@DU?$char_traits@D@std@@V?$allocator@D@2@@std@@QAEAAV12@ABV12@II@Z PROC ; std::basic_string<char,std::char_traits<char>,std::allocator<char> >::assign, COMDAT
; _this$ = ecx

; 1129 : 		{	// assign _Right [_Roff, _Roff + _Count)

	push	ebp
	mov	ebp, esp
	sub	esp, 216				; 000000d8H
	push	ebx
	push	esi
	push	edi
	push	ecx
	lea	edi, DWORD PTR [ebp-216]
	mov	ecx, 54					; 00000036H
	mov	eax, -858993460				; ccccccccH
	rep stosd
	pop	ecx
	mov	DWORD PTR _this$[ebp], ecx

; 1130 : 		if (_Right.size() < _Roff)

	mov	ecx, DWORD PTR __Right$[ebp]
	call	?size@?$basic_string@DU?$char_traits@D@std@@V?$allocator@D@2@@std@@QBEIXZ ; std::basic_string<char,std::char_traits<char>,std::allocator<char> >::size
	cmp	eax, DWORD PTR __Roff$[ebp]
	jae	SHORT $LN5@assign

; 1131 : 			_Xran();	// _Roff off end

	mov	ecx, DWORD PTR _this$[ebp]
	call	?_Xran@?$basic_string@DU?$char_traits@D@std@@V?$allocator@D@2@@std@@QBEXXZ ; std::basic_string<char,std::char_traits<char>,std::allocator<char> >::_Xran
$LN5@assign:

; 1132 : 		size_type _Num = _Right.size() - _Roff;

	mov	ecx, DWORD PTR __Right$[ebp]
	call	?size@?$basic_string@DU?$char_traits@D@std@@V?$allocator@D@2@@std@@QBEIXZ ; std::basic_string<char,std::char_traits<char>,std::allocator<char> >::size
	sub	eax, DWORD PTR __Roff$[ebp]
	mov	DWORD PTR __Num$[ebp], eax

; 1133 : 		if (_Count < _Num)

	mov	eax, DWORD PTR __Count$[ebp]
	cmp	eax, DWORD PTR __Num$[ebp]
	jae	SHORT $LN4@assign

; 1134 : 			_Num = _Count;	// trim _Num to size

	mov	eax, DWORD PTR __Count$[ebp]
	mov	DWORD PTR __Num$[ebp], eax
$LN4@assign:

; 1135 : 
; 1136 : 		if (this == &_Right)

	mov	eax, DWORD PTR _this$[ebp]
	cmp	eax, DWORD PTR __Right$[ebp]
	jne	SHORT $LN3@assign

; 1137 : 			erase((size_type)(_Roff + _Num)), erase(0, _Roff);	// substring

	mov	eax, DWORD PTR __Roff$[ebp]
	add	eax, DWORD PTR __Num$[ebp]
	push	eax
	mov	ecx, DWORD PTR _this$[ebp]
	call	?erase@?$basic_string@DU?$char_traits@D@std@@V?$allocator@D@2@@std@@QAEAAV12@I@Z ; std::basic_string<char,std::char_traits<char>,std::allocator<char> >::erase
	mov	ecx, DWORD PTR __Roff$[ebp]
	push	ecx
	push	0
	mov	ecx, DWORD PTR _this$[ebp]
	call	?erase@?$basic_string@DU?$char_traits@D@std@@V?$allocator@D@2@@std@@QAEAAV12@II@Z ; std::basic_string<char,std::char_traits<char>,std::allocator<char> >::erase
	jmp	SHORT $LN2@assign
$LN3@assign:

; 1138 : 		else if (_Grow(_Num))

	push	0
	mov	eax, DWORD PTR __Num$[ebp]
	push	eax
	mov	ecx, DWORD PTR _this$[ebp]
	call	?_Grow@?$basic_string@DU?$char_traits@D@std@@V?$allocator@D@2@@std@@QAE_NI_N@Z ; std::basic_string<char,std::char_traits<char>,std::allocator<char> >::_Grow
	movzx	ecx, al
	test	ecx, ecx
	je	SHORT $LN2@assign

; 1139 : 			{	// make room and assign new stuff
; 1140 : 			_Traits::copy(this->_Myptr(),
; 1141 : 				_Right._Myptr() + _Roff, _Num);

	mov	eax, DWORD PTR __Num$[ebp]
	push	eax
	mov	ecx, DWORD PTR __Right$[ebp]
	call	?_Myptr@?$_String_val@U?$_Simple_types@D@std@@@std@@QBEPBDXZ ; std::_String_val<std::_Simple_types<char> >::_Myptr
	add	eax, DWORD PTR __Roff$[ebp]
	push	eax
	mov	ecx, DWORD PTR _this$[ebp]
	call	?_Myptr@?$_String_val@U?$_Simple_types@D@std@@@std@@QAEPADXZ ; std::_String_val<std::_Simple_types<char> >::_Myptr
	push	eax
	call	?copy@?$char_traits@D@std@@SAPADPADPBDI@Z ; std::char_traits<char>::copy
	add	esp, 12					; 0000000cH

; 1142 : 			_Eos(_Num);

	mov	eax, DWORD PTR __Num$[ebp]
	push	eax
	mov	ecx, DWORD PTR _this$[ebp]
	call	?_Eos@?$basic_string@DU?$char_traits@D@std@@V?$allocator@D@2@@std@@QAEXI@Z ; std::basic_string<char,std::char_traits<char>,std::allocator<char> >::_Eos
$LN2@assign:

; 1143 : 			}
; 1144 : 		return (*this);

	mov	eax, DWORD PTR _this$[ebp]
$LN7@assign:

; 1145 : 		}

	pop	edi
	pop	esi
	pop	ebx
	add	esp, 216				; 000000d8H
	cmp	ebp, esp
	call	__RTC_CheckEsp
	mov	esp, ebp
	pop	ebp
	ret	12					; 0000000cH
?assign@?$basic_string@DU?$char_traits@D@std@@V?$allocator@D@2@@std@@QAEAAV12@ABV12@II@Z ENDP ; std::basic_string<char,std::char_traits<char>,std::allocator<char> >::assign
_TEXT	ENDS
; Function compile flags: /Odtp /RTCsu /ZI
; File c:\program files (x86)\microsoft visual studio 12.0\vc\include\xstring
;	COMDAT ??0?$basic_string@DU?$char_traits@D@std@@V?$allocator@D@2@@std@@QAE@PBD@Z
_TEXT	SEGMENT
$T2 = -221						; size = 1
_this$ = -20						; size = 4
__$EHRec$ = -12						; size = 12
__Ptr$ = 8						; size = 4
??0?$basic_string@DU?$char_traits@D@std@@V?$allocator@D@2@@std@@QAE@PBD@Z PROC ; std::basic_string<char,std::char_traits<char>,std::allocator<char> >::basic_string<char,std::char_traits<char>,std::allocator<char> >, COMDAT
; _this$ = ecx

; 780  : 		{	// construct from [_Ptr, <null>)

	push	ebp
	mov	ebp, esp
	push	-1
	push	__ehhandler$??0?$basic_string@DU?$char_traits@D@std@@V?$allocator@D@2@@std@@QAE@PBD@Z
	mov	eax, DWORD PTR fs:0
	push	eax
	sub	esp, 216				; 000000d8H
	push	ebx
	push	esi
	push	edi
	push	ecx
	lea	edi, DWORD PTR [ebp-228]
	mov	ecx, 54					; 00000036H
	mov	eax, -858993460				; ccccccccH
	rep stosd
	pop	ecx
	mov	eax, DWORD PTR ___security_cookie
	xor	eax, ebp
	push	eax
	lea	eax, DWORD PTR __$EHRec$[ebp]
	mov	DWORD PTR fs:0, eax
	mov	DWORD PTR _this$[ebp], ecx
	lea	ecx, DWORD PTR $T2[ebp]
	call	??0?$allocator@D@std@@QAE@XZ		; std::allocator<char>::allocator<char>
	push	eax
	mov	ecx, DWORD PTR _this$[ebp]
	call	??0?$_String_alloc@$0A@U?$_String_base_types@DV?$allocator@D@std@@@std@@@std@@QAE@ABV?$allocator@D@1@@Z ; std::_String_alloc<0,std::_String_base_types<char,std::allocator<char> > >::_String_alloc<0,std::_String_base_types<char,std::allocator<char> > >
	mov	DWORD PTR __$EHRec$[ebp+8], 0

; 781  : 		_Tidy();

	push	0
	push	0
	mov	ecx, DWORD PTR _this$[ebp]
	call	?_Tidy@?$basic_string@DU?$char_traits@D@std@@V?$allocator@D@2@@std@@QAEX_NI@Z ; std::basic_string<char,std::char_traits<char>,std::allocator<char> >::_Tidy

; 782  : 		assign(_Ptr);

	mov	eax, DWORD PTR __Ptr$[ebp]
	push	eax
	mov	ecx, DWORD PTR _this$[ebp]
	call	?assign@?$basic_string@DU?$char_traits@D@std@@V?$allocator@D@2@@std@@QAEAAV12@PBD@Z ; std::basic_string<char,std::char_traits<char>,std::allocator<char> >::assign

; 783  : 		}

	mov	DWORD PTR __$EHRec$[ebp+8], -1
	mov	eax, DWORD PTR _this$[ebp]
	mov	ecx, DWORD PTR __$EHRec$[ebp]
	mov	DWORD PTR fs:0, ecx
	pop	ecx
	pop	edi
	pop	esi
	pop	ebx
	add	esp, 228				; 000000e4H
	cmp	ebp, esp
	call	__RTC_CheckEsp
	mov	esp, ebp
	pop	ebp
	ret	4
_TEXT	ENDS
;	COMDAT text$x
text$x	SEGMENT
__unwindfunclet$??0?$basic_string@DU?$char_traits@D@std@@V?$allocator@D@2@@std@@QAE@PBD@Z$0:
	mov	ecx, DWORD PTR _this$[ebp]
	jmp	??1?$_String_alloc@$0A@U?$_String_base_types@DV?$allocator@D@std@@@std@@@std@@QAE@XZ ; std::_String_alloc<0,std::_String_base_types<char,std::allocator<char> > >::~_String_alloc<0,std::_String_base_types<char,std::allocator<char> > >
__ehhandler$??0?$basic_string@DU?$char_traits@D@std@@V?$allocator@D@2@@std@@QAE@PBD@Z:
	mov	edx, DWORD PTR [esp+8]
	lea	eax, DWORD PTR [edx+12]
	mov	ecx, DWORD PTR [edx-232]
	xor	ecx, eax
	call	@__security_check_cookie@4
	mov	eax, OFFSET __ehfuncinfo$??0?$basic_string@DU?$char_traits@D@std@@V?$allocator@D@2@@std@@QAE@PBD@Z
	jmp	___CxxFrameHandler3
text$x	ENDS
??0?$basic_string@DU?$char_traits@D@std@@V?$allocator@D@2@@std@@QAE@PBD@Z ENDP ; std::basic_string<char,std::char_traits<char>,std::allocator<char> >::basic_string<char,std::char_traits<char>,std::allocator<char> >
; Function compile flags: /Odtp /RTCsu /ZI
; File c:\program files (x86)\microsoft visual studio 12.0\vc\include\xstring
;	COMDAT ?_Getal@?$_String_alloc@$0A@U?$_String_base_types@DV?$allocator@D@std@@@std@@@std@@QBE?AU?$_Wrap_alloc@V?$allocator@D@std@@@2@XZ
_TEXT	SEGMENT
_this$ = -8						; size = 4
___$ReturnUdt$ = 8					; size = 4
?_Getal@?$_String_alloc@$0A@U?$_String_base_types@DV?$allocator@D@std@@@std@@@std@@QBE?AU?$_Wrap_alloc@V?$allocator@D@std@@@2@XZ PROC ; std::_String_alloc<0,std::_String_base_types<char,std::allocator<char> > >::_Getal, COMDAT
; _this$ = ecx

; 683  : 		{	// get reference to allocator

	push	ebp
	mov	ebp, esp
	sub	esp, 204				; 000000ccH
	push	ebx
	push	esi
	push	edi
	push	ecx
	lea	edi, DWORD PTR [ebp-204]
	mov	ecx, 51					; 00000033H
	mov	eax, -858993460				; ccccccccH
	rep stosd
	pop	ecx
	mov	DWORD PTR _this$[ebp], ecx

; 684  : 		return (_Alty());

	mov	ecx, DWORD PTR ___$ReturnUdt$[ebp]
	call	??0?$_Wrap_alloc@V?$allocator@D@std@@@std@@QAE@XZ ; std::_Wrap_alloc<std::allocator<char> >::_Wrap_alloc<std::allocator<char> >
	mov	eax, DWORD PTR ___$ReturnUdt$[ebp]

; 685  : 		}

	pop	edi
	pop	esi
	pop	ebx
	add	esp, 204				; 000000ccH
	cmp	ebp, esp
	call	__RTC_CheckEsp
	mov	esp, ebp
	pop	ebp
	ret	4
?_Getal@?$_String_alloc@$0A@U?$_String_base_types@DV?$allocator@D@std@@@std@@@std@@QBE?AU?$_Wrap_alloc@V?$allocator@D@std@@@2@XZ ENDP ; std::_String_alloc<0,std::_String_base_types<char,std::allocator<char> > >::_Getal
_TEXT	ENDS
; Function compile flags: /Odtp /RTCsu /ZI
; File c:\program files (x86)\microsoft visual studio 12.0\vc\include\xstring
;	COMDAT ?_Free_proxy@?$_String_alloc@$0A@U?$_String_base_types@DV?$allocator@D@std@@@std@@@std@@QAEXXZ
_TEXT	SEGMENT
__Alproxy$ = -17					; size = 1
_this$ = -8						; size = 4
?_Free_proxy@?$_String_alloc@$0A@U?$_String_base_types@DV?$allocator@D@std@@@std@@@std@@QAEXXZ PROC ; std::_String_alloc<0,std::_String_base_types<char,std::allocator<char> > >::_Free_proxy, COMDAT
; _this$ = ecx

; 672  : 		{	// destroy proxy

	push	ebp
	mov	ebp, esp
	sub	esp, 216				; 000000d8H
	push	ebx
	push	esi
	push	edi
	push	ecx
	lea	edi, DWORD PTR [ebp-216]
	mov	ecx, 54					; 00000036H
	mov	eax, -858993460				; ccccccccH
	rep stosd
	pop	ecx
	mov	DWORD PTR _this$[ebp], ecx

; 673  : 		typename _Alloc::template rebind<_Container_proxy>::other
; 674  : 			_Alproxy;

	lea	ecx, DWORD PTR __Alproxy$[ebp]
	call	??0?$allocator@U_Container_proxy@std@@@std@@QAE@XZ ; std::allocator<std::_Container_proxy>::allocator<std::_Container_proxy>

; 675  : 		this->_Orphan_all();

	mov	ecx, DWORD PTR _this$[ebp]
	call	?_Orphan_all@_Container_base12@std@@QAEXXZ ; std::_Container_base12::_Orphan_all

; 676  : 		_Alproxy.destroy(this->_Myproxy);

	mov	eax, DWORD PTR _this$[ebp]
	mov	ecx, DWORD PTR [eax]
	push	ecx
	lea	ecx, DWORD PTR __Alproxy$[ebp]
	call	??$destroy@U_Container_proxy@std@@@?$allocator@U_Container_proxy@std@@@std@@QAEXPAU_Container_proxy@1@@Z ; std::allocator<std::_Container_proxy>::destroy<std::_Container_proxy>

; 677  : 		_Alproxy.deallocate(this->_Myproxy, 1);

	push	1
	mov	eax, DWORD PTR _this$[ebp]
	mov	ecx, DWORD PTR [eax]
	push	ecx
	lea	ecx, DWORD PTR __Alproxy$[ebp]
	call	?deallocate@?$allocator@U_Container_proxy@std@@@std@@QAEXPAU_Container_proxy@2@I@Z ; std::allocator<std::_Container_proxy>::deallocate

; 678  : 		this->_Myproxy = 0;

	mov	eax, DWORD PTR _this$[ebp]
	mov	DWORD PTR [eax], 0

; 679  : 		}

	push	edx
	mov	ecx, ebp
	push	eax
	lea	edx, DWORD PTR $LN5@Free_proxy
	call	@_RTC_CheckStackVars@8
	pop	eax
	pop	edx
	pop	edi
	pop	esi
	pop	ebx
	add	esp, 216				; 000000d8H
	cmp	ebp, esp
	call	__RTC_CheckEsp
	mov	esp, ebp
	pop	ebp
	ret	0
	npad	1
$LN5@Free_proxy:
	DD	1
	DD	$LN4@Free_proxy
$LN4@Free_proxy:
	DD	-17					; ffffffefH
	DD	1
	DD	$LN3@Free_proxy
$LN3@Free_proxy:
	DB	95					; 0000005fH
	DB	65					; 00000041H
	DB	108					; 0000006cH
	DB	112					; 00000070H
	DB	114					; 00000072H
	DB	111					; 0000006fH
	DB	120					; 00000078H
	DB	121					; 00000079H
	DB	0
?_Free_proxy@?$_String_alloc@$0A@U?$_String_base_types@DV?$allocator@D@std@@@std@@@std@@QAEXXZ ENDP ; std::_String_alloc<0,std::_String_base_types<char,std::allocator<char> > >::_Free_proxy
_TEXT	ENDS
; Function compile flags: /Odtp /RTCsu /ZI
; File c:\program files (x86)\microsoft visual studio 12.0\vc\include\xstring
;	COMDAT ?_Alloc_proxy@?$_String_alloc@$0A@U?$_String_base_types@DV?$allocator@D@std@@@std@@@std@@QAEXXZ
_TEXT	SEGMENT
$T1 = -228						; size = 8
__Alproxy$ = -17					; size = 1
_this$ = -8						; size = 4
?_Alloc_proxy@?$_String_alloc@$0A@U?$_String_base_types@DV?$allocator@D@std@@@std@@@std@@QAEXXZ PROC ; std::_String_alloc<0,std::_String_base_types<char,std::allocator<char> > >::_Alloc_proxy, COMDAT
; _this$ = ecx

; 663  : 		{	// construct proxy from _Alval

	push	ebp
	mov	ebp, esp
	sub	esp, 232				; 000000e8H
	push	ebx
	push	esi
	push	edi
	push	ecx
	lea	edi, DWORD PTR [ebp-232]
	mov	ecx, 58					; 0000003aH
	mov	eax, -858993460				; ccccccccH
	rep stosd
	pop	ecx
	mov	DWORD PTR _this$[ebp], ecx

; 664  : 		typename _Alloc::template rebind<_Container_proxy>::other
; 665  : 			_Alproxy;

	lea	ecx, DWORD PTR __Alproxy$[ebp]
	call	??0?$allocator@U_Container_proxy@std@@@std@@QAE@XZ ; std::allocator<std::_Container_proxy>::allocator<std::_Container_proxy>

; 666  : 		this->_Myproxy = _Alproxy.allocate(1);

	push	1
	lea	ecx, DWORD PTR __Alproxy$[ebp]
	call	?allocate@?$allocator@U_Container_proxy@std@@@std@@QAEPAU_Container_proxy@2@I@Z ; std::allocator<std::_Container_proxy>::allocate
	mov	ecx, DWORD PTR _this$[ebp]
	mov	DWORD PTR [ecx], eax

; 667  : 		_Alproxy.construct(this->_Myproxy, _Container_proxy());

	lea	ecx, DWORD PTR $T1[ebp]
	call	??0_Container_proxy@std@@QAE@XZ		; std::_Container_proxy::_Container_proxy
	push	eax
	mov	eax, DWORD PTR _this$[ebp]
	mov	ecx, DWORD PTR [eax]
	push	ecx
	lea	ecx, DWORD PTR __Alproxy$[ebp]
	call	??$construct@U_Container_proxy@std@@U12@@?$allocator@U_Container_proxy@std@@@std@@QAEXPAU_Container_proxy@1@$$QAU21@@Z ; std::allocator<std::_Container_proxy>::construct<std::_Container_proxy,std::_Container_proxy>

; 668  : 		this->_Myproxy->_Mycont = this;

	mov	eax, DWORD PTR _this$[ebp]
	mov	ecx, DWORD PTR [eax]
	mov	edx, DWORD PTR _this$[ebp]
	mov	DWORD PTR [ecx], edx

; 669  : 		}

	push	edx
	mov	ecx, ebp
	push	eax
	lea	edx, DWORD PTR $LN5@Alloc_prox
	call	@_RTC_CheckStackVars@8
	pop	eax
	pop	edx
	pop	edi
	pop	esi
	pop	ebx
	add	esp, 232				; 000000e8H
	cmp	ebp, esp
	call	__RTC_CheckEsp
	mov	esp, ebp
	pop	ebp
	ret	0
	npad	1
$LN5@Alloc_prox:
	DD	1
	DD	$LN4@Alloc_prox
$LN4@Alloc_prox:
	DD	-17					; ffffffefH
	DD	1
	DD	$LN3@Alloc_prox
$LN3@Alloc_prox:
	DB	95					; 0000005fH
	DB	65					; 00000041H
	DB	108					; 0000006cH
	DB	112					; 00000070H
	DB	114					; 00000072H
	DB	111					; 0000006fH
	DB	120					; 00000078H
	DB	121					; 00000079H
	DB	0
?_Alloc_proxy@?$_String_alloc@$0A@U?$_String_base_types@DV?$allocator@D@std@@@std@@@std@@QAEXXZ ENDP ; std::_String_alloc<0,std::_String_base_types<char,std::allocator<char> > >::_Alloc_proxy
_TEXT	ENDS
; Function compile flags: /Odtp /RTCsu /ZI
; File c:\program files (x86)\microsoft visual studio 12.0\vc\include\xstring
;	COMDAT ??1?$_String_alloc@$0A@U?$_String_base_types@DV?$allocator@D@std@@@std@@@std@@QAE@XZ
_TEXT	SEGMENT
_this$ = -8						; size = 4
??1?$_String_alloc@$0A@U?$_String_base_types@DV?$allocator@D@std@@@std@@@std@@QAE@XZ PROC ; std::_String_alloc<0,std::_String_base_types<char,std::allocator<char> > >::~_String_alloc<0,std::_String_base_types<char,std::allocator<char> > >, COMDAT
; _this$ = ecx

; 649  : 		{	// destroy the object

	push	ebp
	mov	ebp, esp
	sub	esp, 204				; 000000ccH
	push	ebx
	push	esi
	push	edi
	push	ecx
	lea	edi, DWORD PTR [ebp-204]
	mov	ecx, 51					; 00000033H
	mov	eax, -858993460				; ccccccccH
	rep stosd
	pop	ecx
	mov	DWORD PTR _this$[ebp], ecx

; 650  : 		_Free_proxy();

	mov	ecx, DWORD PTR _this$[ebp]
	call	?_Free_proxy@?$_String_alloc@$0A@U?$_String_base_types@DV?$allocator@D@std@@@std@@@std@@QAEXXZ ; std::_String_alloc<0,std::_String_base_types<char,std::allocator<char> > >::_Free_proxy

; 651  : 		}

	mov	ecx, DWORD PTR _this$[ebp]
	call	??1?$_String_val@U?$_Simple_types@D@std@@@std@@QAE@XZ
	pop	edi
	pop	esi
	pop	ebx
	add	esp, 204				; 000000ccH
	cmp	ebp, esp
	call	__RTC_CheckEsp
	mov	esp, ebp
	pop	ebp
	ret	0
??1?$_String_alloc@$0A@U?$_String_base_types@DV?$allocator@D@std@@@std@@@std@@QAE@XZ ENDP ; std::_String_alloc<0,std::_String_base_types<char,std::allocator<char> > >::~_String_alloc<0,std::_String_base_types<char,std::allocator<char> > >
_TEXT	ENDS
; Function compile flags: /Odtp /RTCsu /ZI
; File c:\program files (x86)\microsoft visual studio 12.0\vc\include\xstring
;	COMDAT ??0?$_String_alloc@$0A@U?$_String_base_types@DV?$allocator@D@std@@@std@@@std@@QAE@ABV?$allocator@D@1@@Z
_TEXT	SEGMENT
_this$ = -20						; size = 4
__$EHRec$ = -12						; size = 12
___formal$ = 8						; size = 4
??0?$_String_alloc@$0A@U?$_String_base_types@DV?$allocator@D@std@@@std@@@std@@QAE@ABV?$allocator@D@1@@Z PROC ; std::_String_alloc<0,std::_String_base_types<char,std::allocator<char> > >::_String_alloc<0,std::_String_base_types<char,std::allocator<char> > >, COMDAT
; _this$ = ecx

; 643  : 	_String_alloc(const _Alloc& = _Alloc())

	push	ebp
	mov	ebp, esp
	push	-1
	push	__ehhandler$??0?$_String_alloc@$0A@U?$_String_base_types@DV?$allocator@D@std@@@std@@@std@@QAE@ABV?$allocator@D@1@@Z
	mov	eax, DWORD PTR fs:0
	push	eax
	sub	esp, 204				; 000000ccH
	push	ebx
	push	esi
	push	edi
	push	ecx
	lea	edi, DWORD PTR [ebp-216]
	mov	ecx, 51					; 00000033H
	mov	eax, -858993460				; ccccccccH
	rep stosd
	pop	ecx
	mov	eax, DWORD PTR ___security_cookie
	xor	eax, ebp
	push	eax
	lea	eax, DWORD PTR __$EHRec$[ebp]
	mov	DWORD PTR fs:0, eax
	mov	DWORD PTR _this$[ebp], ecx
	mov	ecx, DWORD PTR _this$[ebp]
	call	??0?$_String_val@U?$_Simple_types@D@std@@@std@@QAE@XZ ; std::_String_val<std::_Simple_types<char> >::_String_val<std::_Simple_types<char> >
	mov	DWORD PTR __$EHRec$[ebp+8], 0

; 644  : 		{	// construct allocator from _Al
; 645  : 		_Alloc_proxy();

	mov	ecx, DWORD PTR _this$[ebp]
	call	?_Alloc_proxy@?$_String_alloc@$0A@U?$_String_base_types@DV?$allocator@D@std@@@std@@@std@@QAEXXZ ; std::_String_alloc<0,std::_String_base_types<char,std::allocator<char> > >::_Alloc_proxy

; 646  : 		}

	mov	DWORD PTR __$EHRec$[ebp+8], -1
	mov	eax, DWORD PTR _this$[ebp]
	mov	ecx, DWORD PTR __$EHRec$[ebp]
	mov	DWORD PTR fs:0, ecx
	pop	ecx
	pop	edi
	pop	esi
	pop	ebx
	add	esp, 216				; 000000d8H
	cmp	ebp, esp
	call	__RTC_CheckEsp
	mov	esp, ebp
	pop	ebp
	ret	4
_TEXT	ENDS
;	COMDAT text$x
text$x	SEGMENT
__unwindfunclet$??0?$_String_alloc@$0A@U?$_String_base_types@DV?$allocator@D@std@@@std@@@std@@QAE@ABV?$allocator@D@1@@Z$0:
	mov	ecx, DWORD PTR _this$[ebp]
	jmp	??1?$_String_val@U?$_Simple_types@D@std@@@std@@QAE@XZ
__ehhandler$??0?$_String_alloc@$0A@U?$_String_base_types@DV?$allocator@D@std@@@std@@@std@@QAE@ABV?$allocator@D@1@@Z:
	mov	edx, DWORD PTR [esp+8]
	lea	eax, DWORD PTR [edx+12]
	mov	ecx, DWORD PTR [edx-220]
	xor	ecx, eax
	call	@__security_check_cookie@4
	mov	eax, OFFSET __ehfuncinfo$??0?$_String_alloc@$0A@U?$_String_base_types@DV?$allocator@D@std@@@std@@@std@@QAE@ABV?$allocator@D@1@@Z
	jmp	___CxxFrameHandler3
text$x	ENDS
??0?$_String_alloc@$0A@U?$_String_base_types@DV?$allocator@D@std@@@std@@@std@@QAE@ABV?$allocator@D@1@@Z ENDP ; std::_String_alloc<0,std::_String_base_types<char,std::allocator<char> > >::_String_alloc<0,std::_String_base_types<char,std::allocator<char> > >
; Function compile flags: /Odtp /RTCsu /ZI
;	COMDAT ??1?$_String_val@U?$_Simple_types@D@std@@@std@@QAE@XZ
_TEXT	SEGMENT
_this$ = -8						; size = 4
??1?$_String_val@U?$_Simple_types@D@std@@@std@@QAE@XZ PROC ; std::_String_val<std::_Simple_types<char> >::~_String_val<std::_Simple_types<char> >, COMDAT
; _this$ = ecx
	push	ebp
	mov	ebp, esp
	sub	esp, 204				; 000000ccH
	push	ebx
	push	esi
	push	edi
	push	ecx
	lea	edi, DWORD PTR [ebp-204]
	mov	ecx, 51					; 00000033H
	mov	eax, -858993460				; ccccccccH
	rep stosd
	pop	ecx
	mov	DWORD PTR _this$[ebp], ecx
	mov	ecx, DWORD PTR _this$[ebp]
	call	??1_Container_base12@std@@QAE@XZ	; std::_Container_base12::~_Container_base12
	pop	edi
	pop	esi
	pop	ebx
	add	esp, 204				; 000000ccH
	cmp	ebp, esp
	call	__RTC_CheckEsp
	mov	esp, ebp
	pop	ebp
	ret	0
??1?$_String_val@U?$_Simple_types@D@std@@@std@@QAE@XZ ENDP ; std::_String_val<std::_Simple_types<char> >::~_String_val<std::_Simple_types<char> >
_TEXT	ENDS
; Function compile flags: /Odtp /RTCsu /ZI
; File c:\program files (x86)\microsoft visual studio 12.0\vc\include\xstring
;	COMDAT ?_Myptr@?$_String_val@U?$_Simple_types@D@std@@@std@@QBEPBDXZ
_TEXT	SEGMENT
tv72 = -208						; size = 4
_this$ = -8						; size = 4
?_Myptr@?$_String_val@U?$_Simple_types@D@std@@@std@@QBEPBDXZ PROC ; std::_String_val<std::_Simple_types<char> >::_Myptr, COMDAT
; _this$ = ecx

; 517  : 		{	// determine current pointer to buffer for nonmutable string

	push	ebp
	mov	ebp, esp
	sub	esp, 208				; 000000d0H
	push	ebx
	push	esi
	push	edi
	push	ecx
	lea	edi, DWORD PTR [ebp-208]
	mov	ecx, 52					; 00000034H
	mov	eax, -858993460				; ccccccccH
	rep stosd
	pop	ecx
	mov	DWORD PTR _this$[ebp], ecx

; 518  : 		return (this->_BUF_SIZE <= this->_Myres
; 519  : 			? _STD addressof(*this->_Bx._Ptr)
; 520  : 			: this->_Bx._Buf);

	mov	eax, DWORD PTR _this$[ebp]
	cmp	DWORD PTR [eax+24], 16			; 00000010H
	jb	SHORT $LN3@Myptr
	mov	ecx, DWORD PTR _this$[ebp]
	mov	edx, DWORD PTR [ecx+4]
	push	edx
	call	??$addressof@D@std@@YAPADAAD@Z		; std::addressof<char>
	add	esp, 4
	mov	DWORD PTR tv72[ebp], eax
	jmp	SHORT $LN4@Myptr
$LN3@Myptr:
	mov	eax, DWORD PTR _this$[ebp]
	add	eax, 4
	mov	DWORD PTR tv72[ebp], eax
$LN4@Myptr:
	mov	eax, DWORD PTR tv72[ebp]

; 521  : 		}

	pop	edi
	pop	esi
	pop	ebx
	add	esp, 208				; 000000d0H
	cmp	ebp, esp
	call	__RTC_CheckEsp
	mov	esp, ebp
	pop	ebp
	ret	0
?_Myptr@?$_String_val@U?$_Simple_types@D@std@@@std@@QBEPBDXZ ENDP ; std::_String_val<std::_Simple_types<char> >::_Myptr
_TEXT	ENDS
; Function compile flags: /Odtp /RTCsu /ZI
; File c:\program files (x86)\microsoft visual studio 12.0\vc\include\xstring
;	COMDAT ?_Myptr@?$_String_val@U?$_Simple_types@D@std@@@std@@QAEPADXZ
_TEXT	SEGMENT
tv72 = -208						; size = 4
_this$ = -8						; size = 4
?_Myptr@?$_String_val@U?$_Simple_types@D@std@@@std@@QAEPADXZ PROC ; std::_String_val<std::_Simple_types<char> >::_Myptr, COMDAT
; _this$ = ecx

; 510  : 		{	// determine current pointer to buffer for mutable string

	push	ebp
	mov	ebp, esp
	sub	esp, 208				; 000000d0H
	push	ebx
	push	esi
	push	edi
	push	ecx
	lea	edi, DWORD PTR [ebp-208]
	mov	ecx, 52					; 00000034H
	mov	eax, -858993460				; ccccccccH
	rep stosd
	pop	ecx
	mov	DWORD PTR _this$[ebp], ecx

; 511  : 		return (this->_BUF_SIZE <= this->_Myres
; 512  : 			? _STD addressof(*this->_Bx._Ptr)
; 513  : 			: this->_Bx._Buf);

	mov	eax, DWORD PTR _this$[ebp]
	cmp	DWORD PTR [eax+24], 16			; 00000010H
	jb	SHORT $LN3@Myptr
	mov	ecx, DWORD PTR _this$[ebp]
	mov	edx, DWORD PTR [ecx+4]
	push	edx
	call	??$addressof@D@std@@YAPADAAD@Z		; std::addressof<char>
	add	esp, 4
	mov	DWORD PTR tv72[ebp], eax
	jmp	SHORT $LN4@Myptr
$LN3@Myptr:
	mov	eax, DWORD PTR _this$[ebp]
	add	eax, 4
	mov	DWORD PTR tv72[ebp], eax
$LN4@Myptr:
	mov	eax, DWORD PTR tv72[ebp]

; 514  : 		}

	pop	edi
	pop	esi
	pop	ebx
	add	esp, 208				; 000000d0H
	cmp	ebp, esp
	call	__RTC_CheckEsp
	mov	esp, ebp
	pop	ebp
	ret	0
?_Myptr@?$_String_val@U?$_Simple_types@D@std@@@std@@QAEPADXZ ENDP ; std::_String_val<std::_Simple_types<char> >::_Myptr
_TEXT	ENDS
; Function compile flags: /Odtp /RTCsu /ZI
; File c:\program files (x86)\microsoft visual studio 12.0\vc\include\xstring
;	COMDAT ??0?$_String_val@U?$_Simple_types@D@std@@@std@@QAE@XZ
_TEXT	SEGMENT
_this$ = -8						; size = 4
??0?$_String_val@U?$_Simple_types@D@std@@@std@@QAE@XZ PROC ; std::_String_val<std::_Simple_types<char> >::_String_val<std::_Simple_types<char> >, COMDAT
; _this$ = ecx

; 492  : 	_String_val()

	push	ebp
	mov	ebp, esp
	sub	esp, 204				; 000000ccH
	push	ebx
	push	esi
	push	edi
	push	ecx
	lea	edi, DWORD PTR [ebp-204]
	mov	ecx, 51					; 00000033H
	mov	eax, -858993460				; ccccccccH
	rep stosd
	pop	ecx
	mov	DWORD PTR _this$[ebp], ecx
	mov	ecx, DWORD PTR _this$[ebp]
	call	??0_Container_base12@std@@QAE@XZ	; std::_Container_base12::_Container_base12

; 493  : 		{	// initialize values
; 494  : 		_Mysize = 0;

	mov	eax, DWORD PTR _this$[ebp]
	mov	DWORD PTR [eax+20], 0

; 495  : 		_Myres = 0;

	mov	eax, DWORD PTR _this$[ebp]
	mov	DWORD PTR [eax+24], 0

; 496  : 		}

	mov	eax, DWORD PTR _this$[ebp]
	pop	edi
	pop	esi
	pop	ebx
	add	esp, 204				; 000000ccH
	cmp	ebp, esp
	call	__RTC_CheckEsp
	mov	esp, ebp
	pop	ebp
	ret	0
??0?$_String_val@U?$_Simple_types@D@std@@@std@@QAE@XZ ENDP ; std::_String_val<std::_Simple_types<char> >::_String_val<std::_Simple_types<char> >
_TEXT	ENDS
; Function compile flags: /Odtp /RTCsu /ZI
; File c:\program files (x86)\microsoft visual studio 12.0\vc\include\xmemory0
;	COMDAT ?max_size@?$_Wrap_alloc@V?$allocator@D@std@@@std@@QBEIXZ
_TEXT	SEGMENT
_this$ = -8						; size = 4
?max_size@?$_Wrap_alloc@V?$allocator@D@std@@@std@@QBEIXZ PROC ; std::_Wrap_alloc<std::allocator<char> >::max_size, COMDAT
; _this$ = ecx

; 883  : 		{	// get maximum size

	push	ebp
	mov	ebp, esp
	sub	esp, 204				; 000000ccH
	push	ebx
	push	esi
	push	edi
	push	ecx
	lea	edi, DWORD PTR [ebp-204]
	mov	ecx, 51					; 00000033H
	mov	eax, -858993460				; ccccccccH
	rep stosd
	pop	ecx
	mov	DWORD PTR _this$[ebp], ecx

; 884  : 		return (_Mytraits::max_size(*this));

	mov	eax, DWORD PTR _this$[ebp]
	push	eax
	call	?max_size@?$allocator_traits@V?$allocator@D@std@@@std@@SAIABV?$allocator@D@2@@Z ; std::allocator_traits<std::allocator<char> >::max_size
	add	esp, 4

; 885  : 		}

	pop	edi
	pop	esi
	pop	ebx
	add	esp, 204				; 000000ccH
	cmp	ebp, esp
	call	__RTC_CheckEsp
	mov	esp, ebp
	pop	ebp
	ret	0
?max_size@?$_Wrap_alloc@V?$allocator@D@std@@@std@@QBEIXZ ENDP ; std::_Wrap_alloc<std::allocator<char> >::max_size
_TEXT	ENDS
; Function compile flags: /Odtp /RTCsu /ZI
; File c:\program files (x86)\microsoft visual studio 12.0\vc\include\xmemory0
;	COMDAT ?deallocate@?$_Wrap_alloc@V?$allocator@D@std@@@std@@QAEXPADI@Z
_TEXT	SEGMENT
_this$ = -8						; size = 4
__Ptr$ = 8						; size = 4
__Count$ = 12						; size = 4
?deallocate@?$_Wrap_alloc@V?$allocator@D@std@@@std@@QAEXPADI@Z PROC ; std::_Wrap_alloc<std::allocator<char> >::deallocate, COMDAT
; _this$ = ecx

; 857  : 		{	// deallocate object at _Ptr, ignore size

	push	ebp
	mov	ebp, esp
	sub	esp, 204				; 000000ccH
	push	ebx
	push	esi
	push	edi
	push	ecx
	lea	edi, DWORD PTR [ebp-204]
	mov	ecx, 51					; 00000033H
	mov	eax, -858993460				; ccccccccH
	rep stosd
	pop	ecx
	mov	DWORD PTR _this$[ebp], ecx

; 858  : 		_Mybase::deallocate(_Ptr, _Count);

	mov	eax, DWORD PTR __Count$[ebp]
	push	eax
	mov	ecx, DWORD PTR __Ptr$[ebp]
	push	ecx
	mov	ecx, DWORD PTR _this$[ebp]
	call	?deallocate@?$allocator@D@std@@QAEXPADI@Z ; std::allocator<char>::deallocate

; 859  : 		}

	pop	edi
	pop	esi
	pop	ebx
	add	esp, 204				; 000000ccH
	cmp	ebp, esp
	call	__RTC_CheckEsp
	mov	esp, ebp
	pop	ebp
	ret	8
?deallocate@?$_Wrap_alloc@V?$allocator@D@std@@@std@@QAEXPADI@Z ENDP ; std::_Wrap_alloc<std::allocator<char> >::deallocate
_TEXT	ENDS
; Function compile flags: /Odtp /RTCsu /ZI
; File c:\program files (x86)\microsoft visual studio 12.0\vc\include\xmemory0
;	COMDAT ?allocate@?$_Wrap_alloc@V?$allocator@D@std@@@std@@QAEPADI@Z
_TEXT	SEGMENT
_this$ = -8						; size = 4
__Count$ = 8						; size = 4
?allocate@?$_Wrap_alloc@V?$allocator@D@std@@@std@@QAEPADI@Z PROC ; std::_Wrap_alloc<std::allocator<char> >::allocate, COMDAT
; _this$ = ecx

; 846  : 		{	// allocate array of _Count elements

	push	ebp
	mov	ebp, esp
	sub	esp, 204				; 000000ccH
	push	ebx
	push	esi
	push	edi
	push	ecx
	lea	edi, DWORD PTR [ebp-204]
	mov	ecx, 51					; 00000033H
	mov	eax, -858993460				; ccccccccH
	rep stosd
	pop	ecx
	mov	DWORD PTR _this$[ebp], ecx

; 847  : 		return (_Mybase::allocate(_Count));

	mov	eax, DWORD PTR __Count$[ebp]
	push	eax
	mov	ecx, DWORD PTR _this$[ebp]
	call	?allocate@?$allocator@D@std@@QAEPADI@Z	; std::allocator<char>::allocate

; 848  : 		}

	pop	edi
	pop	esi
	pop	ebx
	add	esp, 204				; 000000ccH
	cmp	ebp, esp
	call	__RTC_CheckEsp
	mov	esp, ebp
	pop	ebp
	ret	4
?allocate@?$_Wrap_alloc@V?$allocator@D@std@@@std@@QAEPADI@Z ENDP ; std::_Wrap_alloc<std::allocator<char> >::allocate
_TEXT	ENDS
; Function compile flags: /Odtp /RTCsu /ZI
; File c:\program files (x86)\microsoft visual studio 12.0\vc\include\xmemory0
;	COMDAT ??0?$_Wrap_alloc@V?$allocator@D@std@@@std@@QAE@XZ
_TEXT	SEGMENT
_this$ = -8						; size = 4
??0?$_Wrap_alloc@V?$allocator@D@std@@@std@@QAE@XZ PROC	; std::_Wrap_alloc<std::allocator<char> >::_Wrap_alloc<std::allocator<char> >, COMDAT
; _this$ = ecx

; 801  : 		{	// construct default allocator (do nothing)

	push	ebp
	mov	ebp, esp
	sub	esp, 204				; 000000ccH
	push	ebx
	push	esi
	push	edi
	push	ecx
	lea	edi, DWORD PTR [ebp-204]
	mov	ecx, 51					; 00000033H
	mov	eax, -858993460				; ccccccccH
	rep stosd
	pop	ecx
	mov	DWORD PTR _this$[ebp], ecx
	mov	ecx, DWORD PTR _this$[ebp]
	call	??0?$allocator@D@std@@QAE@XZ		; std::allocator<char>::allocator<char>

; 802  : 		}

	mov	eax, DWORD PTR _this$[ebp]
	pop	edi
	pop	esi
	pop	ebx
	add	esp, 204				; 000000ccH
	cmp	ebp, esp
	call	__RTC_CheckEsp
	mov	esp, ebp
	pop	ebp
	ret	0
??0?$_Wrap_alloc@V?$allocator@D@std@@@std@@QAE@XZ ENDP	; std::_Wrap_alloc<std::allocator<char> >::_Wrap_alloc<std::allocator<char> >
_TEXT	ENDS
; Function compile flags: /Odtp /RTCsu /ZI
; File c:\program files (x86)\microsoft visual studio 12.0\vc\include\xmemory0
;	COMDAT ?max_size@?$allocator_traits@V?$allocator@D@std@@@std@@SAIABV?$allocator@D@2@@Z
_TEXT	SEGMENT
__Al$ = 8						; size = 4
?max_size@?$allocator_traits@V?$allocator@D@std@@@std@@SAIABV?$allocator@D@2@@Z PROC ; std::allocator_traits<std::allocator<char> >::max_size, COMDAT

; 734  : 		{	// get maximum size

	push	ebp
	mov	ebp, esp
	sub	esp, 192				; 000000c0H
	push	ebx
	push	esi
	push	edi
	lea	edi, DWORD PTR [ebp-192]
	mov	ecx, 48					; 00000030H
	mov	eax, -858993460				; ccccccccH
	rep stosd

; 735  : 		return (_Al.max_size());

	mov	ecx, DWORD PTR __Al$[ebp]
	call	?max_size@?$allocator@D@std@@QBEIXZ	; std::allocator<char>::max_size

; 736  : 		}

	pop	edi
	pop	esi
	pop	ebx
	add	esp, 192				; 000000c0H
	cmp	ebp, esp
	call	__RTC_CheckEsp
	mov	esp, ebp
	pop	ebp
	ret	0
?max_size@?$allocator_traits@V?$allocator@D@std@@@std@@SAIABV?$allocator@D@2@@Z ENDP ; std::allocator_traits<std::allocator<char> >::max_size
_TEXT	ENDS
; Function compile flags: /Odtp /RTCsu /ZI
; File c:\program files (x86)\microsoft visual studio 12.0\vc\include\xmemory0
;	COMDAT ?max_size@?$allocator@D@std@@QBEIXZ
_TEXT	SEGMENT
_this$ = -8						; size = 4
?max_size@?$allocator@D@std@@QBEIXZ PROC		; std::allocator<char>::max_size, COMDAT
; _this$ = ecx

; 611  : 		{	// estimate maximum array size

	push	ebp
	mov	ebp, esp
	sub	esp, 204				; 000000ccH
	push	ebx
	push	esi
	push	edi
	push	ecx
	lea	edi, DWORD PTR [ebp-204]
	mov	ecx, 51					; 00000033H
	mov	eax, -858993460				; ccccccccH
	rep stosd
	pop	ecx
	mov	DWORD PTR _this$[ebp], ecx

; 612  : 		return ((size_t)(-1) / sizeof (_Ty));

	or	eax, -1

; 613  : 		}

	pop	edi
	pop	esi
	pop	ebx
	mov	esp, ebp
	pop	ebp
	ret	0
?max_size@?$allocator@D@std@@QBEIXZ ENDP		; std::allocator<char>::max_size
_TEXT	ENDS
; Function compile flags: /Odtp /RTCsu /ZI
; File c:\program files (x86)\microsoft visual studio 12.0\vc\include\xmemory0
;	COMDAT ?allocate@?$allocator@D@std@@QAEPADI@Z
_TEXT	SEGMENT
_this$ = -8						; size = 4
__Count$ = 8						; size = 4
?allocate@?$allocator@D@std@@QAEPADI@Z PROC		; std::allocator<char>::allocate, COMDAT
; _this$ = ecx

; 577  : 		{	// allocate array of _Count elements

	push	ebp
	mov	ebp, esp
	sub	esp, 204				; 000000ccH
	push	ebx
	push	esi
	push	edi
	push	ecx
	lea	edi, DWORD PTR [ebp-204]
	mov	ecx, 51					; 00000033H
	mov	eax, -858993460				; ccccccccH
	rep stosd
	pop	ecx
	mov	DWORD PTR _this$[ebp], ecx

; 578  : 		return (_Allocate(_Count, (pointer)0));

	push	0
	mov	eax, DWORD PTR __Count$[ebp]
	push	eax
	call	??$_Allocate@D@std@@YAPADIPAD@Z		; std::_Allocate<char>
	add	esp, 8

; 579  : 		}

	pop	edi
	pop	esi
	pop	ebx
	add	esp, 204				; 000000ccH
	cmp	ebp, esp
	call	__RTC_CheckEsp
	mov	esp, ebp
	pop	ebp
	ret	4
?allocate@?$allocator@D@std@@QAEPADI@Z ENDP		; std::allocator<char>::allocate
_TEXT	ENDS
; Function compile flags: /Odtp /RTCsu /ZI
; File c:\program files (x86)\microsoft visual studio 12.0\vc\include\xmemory0
;	COMDAT ?deallocate@?$allocator@D@std@@QAEXPADI@Z
_TEXT	SEGMENT
_this$ = -8						; size = 4
__Ptr$ = 8						; size = 4
___formal$ = 12						; size = 4
?deallocate@?$allocator@D@std@@QAEXPADI@Z PROC		; std::allocator<char>::deallocate, COMDAT
; _this$ = ecx

; 572  : 		{	// deallocate object at _Ptr, ignore size

	push	ebp
	mov	ebp, esp
	sub	esp, 204				; 000000ccH
	push	ebx
	push	esi
	push	edi
	push	ecx
	lea	edi, DWORD PTR [ebp-204]
	mov	ecx, 51					; 00000033H
	mov	eax, -858993460				; ccccccccH
	rep stosd
	pop	ecx
	mov	DWORD PTR _this$[ebp], ecx

; 573  : 		::operator delete(_Ptr);

	mov	eax, DWORD PTR __Ptr$[ebp]
	push	eax
	call	??3@YAXPAX@Z				; operator delete
	add	esp, 4

; 574  : 		}

	pop	edi
	pop	esi
	pop	ebx
	add	esp, 204				; 000000ccH
	cmp	ebp, esp
	call	__RTC_CheckEsp
	mov	esp, ebp
	pop	ebp
	ret	8
?deallocate@?$allocator@D@std@@QAEXPADI@Z ENDP		; std::allocator<char>::deallocate
_TEXT	ENDS
; Function compile flags: /Odtp /RTCsu /ZI
; File c:\program files (x86)\microsoft visual studio 12.0\vc\include\xmemory0
;	COMDAT ??0?$allocator@D@std@@QAE@XZ
_TEXT	SEGMENT
_this$ = -8						; size = 4
??0?$allocator@D@std@@QAE@XZ PROC			; std::allocator<char>::allocator<char>, COMDAT
; _this$ = ecx

; 552  : 	allocator() _THROW0()

	push	ebp
	mov	ebp, esp
	sub	esp, 204				; 000000ccH
	push	ebx
	push	esi
	push	edi
	push	ecx
	lea	edi, DWORD PTR [ebp-204]
	mov	ecx, 51					; 00000033H
	mov	eax, -858993460				; ccccccccH
	rep stosd
	pop	ecx
	mov	DWORD PTR _this$[ebp], ecx

; 553  : 		{	// construct default allocator (do nothing)
; 554  : 		}

	mov	eax, DWORD PTR _this$[ebp]
	pop	edi
	pop	esi
	pop	ebx
	mov	esp, ebp
	pop	ebp
	ret	0
??0?$allocator@D@std@@QAE@XZ ENDP			; std::allocator<char>::allocator<char>
_TEXT	ENDS
; Function compile flags: /Odtp /RTCsu /ZI
; File c:\program files (x86)\microsoft visual studio 12.0\vc\include\xutility
;	COMDAT ??__Eallocator_arg@std@@YAXXZ
text$di	SEGMENT
$T1 = -197						; size = 1
??__Eallocator_arg@std@@YAXXZ PROC			; std::`dynamic initializer for 'allocator_arg'', COMDAT

; 3451 : const allocator_arg_t allocator_arg = allocator_arg_t();

	push	ebp
	mov	ebp, esp
	sub	esp, 204				; 000000ccH
	push	ebx
	push	esi
	push	edi
	lea	edi, DWORD PTR [ebp-204]
	mov	ecx, 51					; 00000033H
	mov	eax, -858993460				; ccccccccH
	rep stosd
	xor	eax, eax
	mov	BYTE PTR $T1[ebp], al
	pop	edi
	pop	esi
	pop	ebx
	mov	esp, ebp
	pop	ebp
	ret	0
??__Eallocator_arg@std@@YAXXZ ENDP			; std::`dynamic initializer for 'allocator_arg''
text$di	ENDS
; Function compile flags: /Odtp /RTCsu /ZI
; File c:\program files (x86)\microsoft visual studio 12.0\vc\include\xutility
;	COMDAT ?_Orphan_all@_Container_base12@std@@QAEXXZ
_TEXT	SEGMENT
__Pnext$1 = -32						; size = 4
__Lock$2 = -20						; size = 4
_this$ = -8						; size = 4
?_Orphan_all@_Container_base12@std@@QAEXXZ PROC		; std::_Container_base12::_Orphan_all, COMDAT
; _this$ = ecx

; 214  : 	{	// orphan all iterators

	push	ebp
	mov	ebp, esp
	sub	esp, 228				; 000000e4H
	push	ebx
	push	esi
	push	edi
	push	ecx
	lea	edi, DWORD PTR [ebp-228]
	mov	ecx, 57					; 00000039H
	mov	eax, -858993460				; ccccccccH
	rep stosd
	pop	ecx
	mov	DWORD PTR _this$[ebp], ecx

; 215  :  #if _ITERATOR_DEBUG_LEVEL == 2
; 216  : 	if (_Myproxy != 0)

	mov	eax, DWORD PTR _this$[ebp]
	cmp	DWORD PTR [eax], 0
	je	SHORT $LN5@Orphan_all

; 217  : 		{	// proxy allocated, drain it
; 218  : 		_Lockit _Lock(_LOCK_DEBUG);

	push	3
	lea	ecx, DWORD PTR __Lock$2[ebp]
	call	??0_Lockit@std@@QAE@H@Z			; std::_Lockit::_Lockit

; 219  : 
; 220  : 		for (_Iterator_base12 **_Pnext = &_Myproxy->_Myfirstiter;

	mov	eax, DWORD PTR _this$[ebp]
	mov	ecx, DWORD PTR [eax]
	add	ecx, 4
	mov	DWORD PTR __Pnext$1[ebp], ecx

; 221  : 			*_Pnext != 0; *_Pnext = (*_Pnext)->_Mynextiter)

	jmp	SHORT $LN3@Orphan_all
$LN2@Orphan_all:
	mov	eax, DWORD PTR __Pnext$1[ebp]
	mov	ecx, DWORD PTR [eax]
	mov	edx, DWORD PTR __Pnext$1[ebp]
	mov	eax, DWORD PTR [ecx+4]
	mov	DWORD PTR [edx], eax
$LN3@Orphan_all:
	mov	eax, DWORD PTR __Pnext$1[ebp]
	cmp	DWORD PTR [eax], 0
	je	SHORT $LN1@Orphan_all

; 222  : 			(*_Pnext)->_Myproxy = 0;

	mov	eax, DWORD PTR __Pnext$1[ebp]
	mov	ecx, DWORD PTR [eax]
	mov	DWORD PTR [ecx], 0
	jmp	SHORT $LN2@Orphan_all
$LN1@Orphan_all:

; 223  : 		_Myproxy->_Myfirstiter = 0;

	mov	eax, DWORD PTR _this$[ebp]
	mov	ecx, DWORD PTR [eax]
	mov	DWORD PTR [ecx+4], 0

; 224  : 		}

	lea	ecx, DWORD PTR __Lock$2[ebp]
	call	??1_Lockit@std@@QAE@XZ			; std::_Lockit::~_Lockit
$LN5@Orphan_all:

; 225  :  #endif /* _ITERATOR_DEBUG_LEVEL == 2 */
; 226  : 	}

	push	edx
	mov	ecx, ebp
	push	eax
	lea	edx, DWORD PTR $LN10@Orphan_all
	call	@_RTC_CheckStackVars@8
	pop	eax
	pop	edx
	pop	edi
	pop	esi
	pop	ebx
	add	esp, 228				; 000000e4H
	cmp	ebp, esp
	call	__RTC_CheckEsp
	mov	esp, ebp
	pop	ebp
	ret	0
	npad	3
$LN10@Orphan_all:
	DD	1
	DD	$LN9@Orphan_all
$LN9@Orphan_all:
	DD	-20					; ffffffecH
	DD	4
	DD	$LN8@Orphan_all
$LN8@Orphan_all:
	DB	95					; 0000005fH
	DB	76					; 0000004cH
	DB	111					; 0000006fH
	DB	99					; 00000063H
	DB	107					; 0000006bH
	DB	0
?_Orphan_all@_Container_base12@std@@QAEXXZ ENDP		; std::_Container_base12::_Orphan_all
_TEXT	ENDS
; Function compile flags: /Odtp /RTCsu /ZI
; File c:\program files (x86)\microsoft visual studio 12.0\vc\include\xutility
;	COMDAT ??1_Container_base12@std@@QAE@XZ
_TEXT	SEGMENT
_this$ = -8						; size = 4
??1_Container_base12@std@@QAE@XZ PROC			; std::_Container_base12::~_Container_base12, COMDAT
; _this$ = ecx

; 94   : 		{	// destroy the container

	push	ebp
	mov	ebp, esp
	sub	esp, 204				; 000000ccH
	push	ebx
	push	esi
	push	edi
	push	ecx
	lea	edi, DWORD PTR [ebp-204]
	mov	ecx, 51					; 00000033H
	mov	eax, -858993460				; ccccccccH
	rep stosd
	pop	ecx
	mov	DWORD PTR _this$[ebp], ecx

; 95   : 		_Orphan_all();

	mov	ecx, DWORD PTR _this$[ebp]
	call	?_Orphan_all@_Container_base12@std@@QAEXXZ ; std::_Container_base12::_Orphan_all

; 96   : 		}

	pop	edi
	pop	esi
	pop	ebx
	add	esp, 204				; 000000ccH
	cmp	ebp, esp
	call	__RTC_CheckEsp
	mov	esp, ebp
	pop	ebp
	ret	0
??1_Container_base12@std@@QAE@XZ ENDP			; std::_Container_base12::~_Container_base12
_TEXT	ENDS
; Function compile flags: /Odtp /RTCsu /ZI
; File c:\program files (x86)\microsoft visual studio 12.0\vc\include\xutility
;	COMDAT ??0_Container_base12@std@@QAE@XZ
_TEXT	SEGMENT
_this$ = -8						; size = 4
??0_Container_base12@std@@QAE@XZ PROC			; std::_Container_base12::_Container_base12, COMDAT
; _this$ = ecx

; 80   : 		{	// construct childless container

	push	ebp
	mov	ebp, esp
	sub	esp, 204				; 000000ccH
	push	ebx
	push	esi
	push	edi
	push	ecx
	lea	edi, DWORD PTR [ebp-204]
	mov	ecx, 51					; 00000033H
	mov	eax, -858993460				; ccccccccH
	rep stosd
	pop	ecx
	mov	DWORD PTR _this$[ebp], ecx
	mov	eax, DWORD PTR _this$[ebp]
	mov	DWORD PTR [eax], 0

; 81   : 		}

	mov	eax, DWORD PTR _this$[ebp]
	pop	edi
	pop	esi
	pop	ebx
	mov	esp, ebp
	pop	ebp
	ret	0
??0_Container_base12@std@@QAE@XZ ENDP			; std::_Container_base12::_Container_base12
_TEXT	ENDS
; Function compile flags: /Odtp /RTCsu /ZI
; File c:\program files (x86)\microsoft visual studio 12.0\vc\include\xutility
;	COMDAT ??0_Container_proxy@std@@QAE@XZ
_TEXT	SEGMENT
_this$ = -8						; size = 4
??0_Container_proxy@std@@QAE@XZ PROC			; std::_Container_proxy::_Container_proxy, COMDAT
; _this$ = ecx

; 68   : 		{	// construct from pointers

	push	ebp
	mov	ebp, esp
	sub	esp, 204				; 000000ccH
	push	ebx
	push	esi
	push	edi
	push	ecx
	lea	edi, DWORD PTR [ebp-204]
	mov	ecx, 51					; 00000033H
	mov	eax, -858993460				; ccccccccH
	rep stosd
	pop	ecx
	mov	DWORD PTR _this$[ebp], ecx
	mov	eax, DWORD PTR _this$[ebp]
	mov	DWORD PTR [eax], 0
	mov	eax, DWORD PTR _this$[ebp]
	mov	DWORD PTR [eax+4], 0

; 69   : 		}

	mov	eax, DWORD PTR _this$[ebp]
	pop	edi
	pop	esi
	pop	ebx
	mov	esp, ebp
	pop	ebp
	ret	0
??0_Container_proxy@std@@QAE@XZ ENDP			; std::_Container_proxy::_Container_proxy
_TEXT	ENDS
; Function compile flags: /Odtp /RTCsu /ZI
; File c:\program files (x86)\microsoft visual studio 12.0\vc\include\utility
;	COMDAT ??__Epiecewise_construct@std@@YAXXZ
text$di	SEGMENT
$T1 = -197						; size = 1
??__Epiecewise_construct@std@@YAXXZ PROC		; std::`dynamic initializer for 'piecewise_construct'', COMDAT

; 70   : 	piecewise_construct_t();

	push	ebp
	mov	ebp, esp
	sub	esp, 204				; 000000ccH
	push	ebx
	push	esi
	push	edi
	lea	edi, DWORD PTR [ebp-204]
	mov	ecx, 51					; 00000033H
	mov	eax, -858993460				; ccccccccH
	rep stosd
	xor	eax, eax
	mov	BYTE PTR $T1[ebp], al
	pop	edi
	pop	esi
	pop	ebx
	mov	esp, ebp
	pop	ebp
	ret	0
??__Epiecewise_construct@std@@YAXXZ ENDP		; std::`dynamic initializer for 'piecewise_construct''
text$di	ENDS
; Function compile flags: /Odtp /RTCsu /ZI
; File c:\program files (x86)\microsoft visual studio 12.0\vc\include\iosfwd
;	COMDAT ?assign@?$char_traits@D@std@@SAXAADABD@Z
_TEXT	SEGMENT
__Left$ = 8						; size = 4
__Right$ = 12						; size = 4
?assign@?$char_traits@D@std@@SAXAADABD@Z PROC		; std::char_traits<char>::assign, COMDAT

; 563  : 		{	// assign an element

	push	ebp
	mov	ebp, esp
	sub	esp, 192				; 000000c0H
	push	ebx
	push	esi
	push	edi
	lea	edi, DWORD PTR [ebp-192]
	mov	ecx, 48					; 00000030H
	mov	eax, -858993460				; ccccccccH
	rep stosd

; 564  : 		_Left = _Right;

	mov	eax, DWORD PTR __Left$[ebp]
	mov	ecx, DWORD PTR __Right$[ebp]
	mov	dl, BYTE PTR [ecx]
	mov	BYTE PTR [eax], dl

; 565  : 		}

	pop	edi
	pop	esi
	pop	ebx
	mov	esp, ebp
	pop	ebp
	ret	0
?assign@?$char_traits@D@std@@SAXAADABD@Z ENDP		; std::char_traits<char>::assign
_TEXT	ENDS
; Function compile flags: /Odtp /RTCsu /ZI
; File c:\program files (x86)\microsoft visual studio 12.0\vc\include\iosfwd
;	COMDAT ?move@?$char_traits@D@std@@SAPADPADPBDI@Z
_TEXT	SEGMENT
tv69 = -196						; size = 4
__First1$ = 8						; size = 4
__First2$ = 12						; size = 4
__Count$ = 16						; size = 4
?move@?$char_traits@D@std@@SAPADPADPBDI@Z PROC		; std::char_traits<char>::move, COMDAT

; 551  : 		{	// copy [_First2, _First2 + _Count) to [_First1, ...)

	push	ebp
	mov	ebp, esp
	sub	esp, 196				; 000000c4H
	push	ebx
	push	esi
	push	edi
	lea	edi, DWORD PTR [ebp-196]
	mov	ecx, 49					; 00000031H
	mov	eax, -858993460				; ccccccccH
	rep stosd

; 552  : 		return (_Count == 0 ? _First1
; 553  : 			: (_Elem *)_CSTD memmove(_First1, _First2, _Count));

	cmp	DWORD PTR __Count$[ebp], 0
	jne	SHORT $LN3@move
	mov	eax, DWORD PTR __First1$[ebp]
	mov	DWORD PTR tv69[ebp], eax
	jmp	SHORT $LN4@move
$LN3@move:
	mov	ecx, DWORD PTR __Count$[ebp]
	push	ecx
	mov	edx, DWORD PTR __First2$[ebp]
	push	edx
	mov	eax, DWORD PTR __First1$[ebp]
	push	eax
	call	_memmove
	add	esp, 12					; 0000000cH
	mov	DWORD PTR tv69[ebp], eax
$LN4@move:
	mov	eax, DWORD PTR tv69[ebp]

; 554  : 		}

	pop	edi
	pop	esi
	pop	ebx
	add	esp, 196				; 000000c4H
	cmp	ebp, esp
	call	__RTC_CheckEsp
	mov	esp, ebp
	pop	ebp
	ret	0
?move@?$char_traits@D@std@@SAPADPADPBDI@Z ENDP		; std::char_traits<char>::move
_TEXT	ENDS
; Function compile flags: /Odtp /RTCsu /ZI
; File c:\program files (x86)\microsoft visual studio 12.0\vc\include\iosfwd
;	COMDAT ?copy@?$char_traits@D@std@@SAPADPADPBDI@Z
_TEXT	SEGMENT
tv69 = -196						; size = 4
__First1$ = 8						; size = 4
__First2$ = 12						; size = 4
__Count$ = 16						; size = 4
?copy@?$char_traits@D@std@@SAPADPADPBDI@Z PROC		; std::char_traits<char>::copy, COMDAT

; 528  : 		{	// copy [_First2, _First2 + _Count) to [_First1, ...)

	push	ebp
	mov	ebp, esp
	sub	esp, 196				; 000000c4H
	push	ebx
	push	esi
	push	edi
	lea	edi, DWORD PTR [ebp-196]
	mov	ecx, 49					; 00000031H
	mov	eax, -858993460				; ccccccccH
	rep stosd

; 529  : 		return (_Count == 0 ? _First1
; 530  : 			: (_Elem *)_CSTD memcpy(_First1, _First2, _Count));

	cmp	DWORD PTR __Count$[ebp], 0
	jne	SHORT $LN3@copy
	mov	eax, DWORD PTR __First1$[ebp]
	mov	DWORD PTR tv69[ebp], eax
	jmp	SHORT $LN4@copy
$LN3@copy:
	mov	ecx, DWORD PTR __Count$[ebp]
	push	ecx
	mov	edx, DWORD PTR __First2$[ebp]
	push	edx
	mov	eax, DWORD PTR __First1$[ebp]
	push	eax
	call	_memcpy
	add	esp, 12					; 0000000cH
	mov	DWORD PTR tv69[ebp], eax
$LN4@copy:
	mov	eax, DWORD PTR tv69[ebp]

; 531  : 		}

	pop	edi
	pop	esi
	pop	ebx
	add	esp, 196				; 000000c4H
	cmp	ebp, esp
	call	__RTC_CheckEsp
	mov	esp, ebp
	pop	ebp
	ret	0
?copy@?$char_traits@D@std@@SAPADPADPBDI@Z ENDP		; std::char_traits<char>::copy
_TEXT	ENDS
; Function compile flags: /Odtp /RTCsu /ZI
; File c:\program files (x86)\microsoft visual studio 12.0\vc\include\iosfwd
;	COMDAT ?length@?$char_traits@D@std@@SAIPBD@Z
_TEXT	SEGMENT
tv68 = -196						; size = 4
__First$ = 8						; size = 4
?length@?$char_traits@D@std@@SAIPBD@Z PROC		; std::char_traits<char>::length, COMDAT

; 521  : 		{	// find length of null-terminated string

	push	ebp
	mov	ebp, esp
	sub	esp, 196				; 000000c4H
	push	ebx
	push	esi
	push	edi
	lea	edi, DWORD PTR [ebp-196]
	mov	ecx, 49					; 00000031H
	mov	eax, -858993460				; ccccccccH
	rep stosd

; 522  : 		return (*_First == 0 ? 0
; 523  : 			: _CSTD strlen(_First));

	mov	eax, DWORD PTR __First$[ebp]
	movsx	ecx, BYTE PTR [eax]
	test	ecx, ecx
	jne	SHORT $LN3@length
	mov	DWORD PTR tv68[ebp], 0
	jmp	SHORT $LN4@length
$LN3@length:
	mov	edx, DWORD PTR __First$[ebp]
	push	edx
	call	_strlen
	add	esp, 4
	mov	DWORD PTR tv68[ebp], eax
$LN4@length:
	mov	eax, DWORD PTR tv68[ebp]

; 524  : 		}

	pop	edi
	pop	esi
	pop	ebx
	add	esp, 196				; 000000c4H
	cmp	ebp, esp
	call	__RTC_CheckEsp
	mov	esp, ebp
	pop	ebp
	ret	0
?length@?$char_traits@D@std@@SAIPBD@Z ENDP		; std::char_traits<char>::length
_TEXT	ENDS
; Function compile flags: /Odtp /RTCsu /ZI
; File c:\program files (x86)\microsoft visual studio 12.0\vc\include\new
;	COMDAT ??3@YAXPAX0@Z
_TEXT	SEGMENT
___formal$ = 8						; size = 4
___formal$ = 12						; size = 4
??3@YAXPAX0@Z PROC					; operator delete, COMDAT

; 64   : 	{	// delete if placement new fails

	push	ebp
	mov	ebp, esp
	sub	esp, 192				; 000000c0H
	push	ebx
	push	esi
	push	edi
	lea	edi, DWORD PTR [ebp-192]
	mov	ecx, 48					; 00000030H
	mov	eax, -858993460				; ccccccccH
	rep stosd

; 65   : 	}

	pop	edi
	pop	esi
	pop	ebx
	mov	esp, ebp
	pop	ebp
	ret	0
??3@YAXPAX0@Z ENDP					; operator delete
_TEXT	ENDS
; Function compile flags: /Odtp /RTCsu /ZI
; File c:\program files (x86)\microsoft visual studio 12.0\vc\include\new
;	COMDAT ??2@YAPAXIPAX@Z
_TEXT	SEGMENT
___formal$ = 8						; size = 4
__Where$ = 12						; size = 4
??2@YAPAXIPAX@Z PROC					; operator new, COMDAT

; 59   : 	{	// construct array with placement at _Where

	push	ebp
	mov	ebp, esp
	sub	esp, 192				; 000000c0H
	push	ebx
	push	esi
	push	edi
	lea	edi, DWORD PTR [ebp-192]
	mov	ecx, 48					; 00000030H
	mov	eax, -858993460				; ccccccccH
	rep stosd

; 60   : 	return (_Where);

	mov	eax, DWORD PTR __Where$[ebp]

; 61   : 	}

	pop	edi
	pop	esi
	pop	ebx
	mov	esp, ebp
	pop	ebp
	ret	0
??2@YAPAXIPAX@Z ENDP					; operator new
_TEXT	ENDS
; Function compile flags: /Odtp /RTCsu /ZI
; File c:\program files (x86)\microsoft visual studio 12.0\vc\include\math.h
;	COMDAT _fabsf
_TEXT	SEGMENT
tv71 = -196						; size = 4
__X$ = 8						; size = 4
_fabsf	PROC						; COMDAT

; 686  : {

	push	ebp
	mov	ebp, esp
	sub	esp, 196				; 000000c4H
	push	ebx
	push	esi
	push	edi
	lea	edi, DWORD PTR [ebp-196]
	mov	ecx, 49					; 00000031H
	mov	eax, -858993460				; ccccccccH
	rep stosd

; 687  :     return (float)fabs(_X);

	cvtss2sd xmm0, DWORD PTR __X$[ebp]
	sub	esp, 8
	movsd	QWORD PTR [esp], xmm0
	call	_fabs
	add	esp, 8
	fstp	DWORD PTR tv71[ebp]
	fld	DWORD PTR tv71[ebp]

; 688  : }

	pop	edi
	pop	esi
	pop	ebx
	add	esp, 196				; 000000c4H
	cmp	ebp, esp
	call	__RTC_CheckEsp
	mov	esp, ebp
	pop	ebp
	ret	0
_fabsf	ENDP
_TEXT	ENDS
; Function compile flags: /Odtp /RTCsu /ZI
; File c:\program files (x86)\microsoft visual studio 12.0\vc\include\math.h
;	COMDAT _hypot
_TEXT	SEGMENT
__X$ = 8						; size = 8
__Y$ = 16						; size = 8
_hypot	PROC						; COMDAT

; 556  : {

	push	ebp
	mov	ebp, esp
	sub	esp, 192				; 000000c0H
	push	ebx
	push	esi
	push	edi
	lea	edi, DWORD PTR [ebp-192]
	mov	ecx, 48					; 00000030H
	mov	eax, -858993460				; ccccccccH
	rep stosd

; 557  :     return _hypot(_X, _Y);

	sub	esp, 8
	movsd	xmm0, QWORD PTR __Y$[ebp]
	movsd	QWORD PTR [esp], xmm0
	sub	esp, 8
	movsd	xmm0, QWORD PTR __X$[ebp]
	movsd	QWORD PTR [esp], xmm0
	call	__hypot
	add	esp, 16					; 00000010H

; 558  : }

	pop	edi
	pop	esi
	pop	ebx
	add	esp, 192				; 000000c0H
	cmp	ebp, esp
	call	__RTC_CheckEsp
	mov	esp, ebp
	pop	ebp
	ret	0
_hypot	ENDP
_TEXT	ENDS
END
