; Listing generated by Microsoft (R) Optimizing Compiler Version 18.00.30501.0 

	TITLE	C:\Users\Simon\Documents\GitHub\UCLAN-sparta\Import\Math\CMatrix4x4.cpp
	.686P
	.XMM
	include listing.inc
	.model	flat

INCLUDELIB LIBCMTD
INCLUDELIB OLDNAMES

PUBLIC	?digits@?$numeric_limits@H@std@@2HB		; std::numeric_limits<int>::digits
PUBLIC	?digits10@?$numeric_limits@H@std@@2HB		; std::numeric_limits<int>::digits10
PUBLIC	?is_signed@?$numeric_limits@I@std@@2_NB		; std::numeric_limits<unsigned int>::is_signed
PUBLIC	?digits@?$numeric_limits@I@std@@2HB		; std::numeric_limits<unsigned int>::digits
PUBLIC	?digits10@?$numeric_limits@I@std@@2HB		; std::numeric_limits<unsigned int>::digits10
PUBLIC	?value@?$integral_constant@I$07@std@@2IB	; std::integral_constant<unsigned int,8>::value
PUBLIC	?is_signed@?$numeric_limits@J@std@@2_NB		; std::numeric_limits<long>::is_signed
PUBLIC	?digits@?$numeric_limits@J@std@@2HB		; std::numeric_limits<long>::digits
PUBLIC	?digits10@?$numeric_limits@J@std@@2HB		; std::numeric_limits<long>::digits10
PUBLIC	?value@?$integral_constant@_N$0A@@std@@2_NB	; std::integral_constant<bool,0>::value
PUBLIC	?value@?$integral_constant@_N$00@std@@2_NB	; std::integral_constant<bool,1>::value
PUBLIC	?value@?$integral_constant@I$03@std@@2IB	; std::integral_constant<unsigned int,4>::value
PUBLIC	?is_signed@?$numeric_limits@K@std@@2_NB		; std::numeric_limits<unsigned long>::is_signed
PUBLIC	?digits@?$numeric_limits@K@std@@2HB		; std::numeric_limits<unsigned long>::digits
PUBLIC	?digits10@?$numeric_limits@K@std@@2HB		; std::numeric_limits<unsigned long>::digits10
PUBLIC	?is_signed@?$numeric_limits@_J@std@@2_NB	; std::numeric_limits<__int64>::is_signed
PUBLIC	?digits@?$numeric_limits@_J@std@@2HB		; std::numeric_limits<__int64>::digits
PUBLIC	?digits10@?$numeric_limits@_J@std@@2HB		; std::numeric_limits<__int64>::digits10
PUBLIC	?value@?$integral_constant@I$01@std@@2IB	; std::integral_constant<unsigned int,2>::value
PUBLIC	?is_signed@?$numeric_limits@_K@std@@2_NB	; std::numeric_limits<unsigned __int64>::is_signed
PUBLIC	?digits@?$numeric_limits@_K@std@@2HB		; std::numeric_limits<unsigned __int64>::digits
PUBLIC	?digits10@?$numeric_limits@_K@std@@2HB		; std::numeric_limits<unsigned __int64>::digits10
PUBLIC	?skipws@?$_Iosb@H@std@@2W4_Fmtflags@12@B	; std::_Iosb<int>::skipws
PUBLIC	?unitbuf@?$_Iosb@H@std@@2W4_Fmtflags@12@B	; std::_Iosb<int>::unitbuf
PUBLIC	?uppercase@?$_Iosb@H@std@@2W4_Fmtflags@12@B	; std::_Iosb<int>::uppercase
PUBLIC	?showbase@?$_Iosb@H@std@@2W4_Fmtflags@12@B	; std::_Iosb<int>::showbase
PUBLIC	?showpoint@?$_Iosb@H@std@@2W4_Fmtflags@12@B	; std::_Iosb<int>::showpoint
PUBLIC	?showpos@?$_Iosb@H@std@@2W4_Fmtflags@12@B	; std::_Iosb<int>::showpos
PUBLIC	?left@?$_Iosb@H@std@@2W4_Fmtflags@12@B		; std::_Iosb<int>::left
PUBLIC	?right@?$_Iosb@H@std@@2W4_Fmtflags@12@B		; std::_Iosb<int>::right
PUBLIC	?internal@?$_Iosb@H@std@@2W4_Fmtflags@12@B	; std::_Iosb<int>::internal
PUBLIC	?dec@?$_Iosb@H@std@@2W4_Fmtflags@12@B		; std::_Iosb<int>::dec
PUBLIC	?oct@?$_Iosb@H@std@@2W4_Fmtflags@12@B		; std::_Iosb<int>::oct
PUBLIC	?digits@?$numeric_limits@M@std@@2HB		; std::numeric_limits<float>::digits
PUBLIC	?value@?$integral_constant@I$00@std@@2IB	; std::integral_constant<unsigned int,1>::value
PUBLIC	?digits10@?$numeric_limits@M@std@@2HB		; std::numeric_limits<float>::digits10
PUBLIC	?hex@?$_Iosb@H@std@@2W4_Fmtflags@12@B		; std::_Iosb<int>::hex
PUBLIC	?max_digits10@?$numeric_limits@M@std@@2HB	; std::numeric_limits<float>::max_digits10
PUBLIC	?scientific@?$_Iosb@H@std@@2W4_Fmtflags@12@B	; std::_Iosb<int>::scientific
PUBLIC	?fixed@?$_Iosb@H@std@@2W4_Fmtflags@12@B		; std::_Iosb<int>::fixed
PUBLIC	?max_exponent@?$numeric_limits@M@std@@2HB	; std::numeric_limits<float>::max_exponent
PUBLIC	?hexfloat@?$_Iosb@H@std@@2W4_Fmtflags@12@B	; std::_Iosb<int>::hexfloat
PUBLIC	?max_exponent10@?$numeric_limits@M@std@@2HB	; std::numeric_limits<float>::max_exponent10
PUBLIC	?boolalpha@?$_Iosb@H@std@@2W4_Fmtflags@12@B	; std::_Iosb<int>::boolalpha
PUBLIC	?min_exponent@?$numeric_limits@M@std@@2HB	; std::numeric_limits<float>::min_exponent
PUBLIC	?_Stdio@?$_Iosb@H@std@@2W4_Fmtflags@12@B	; std::_Iosb<int>::_Stdio
PUBLIC	?adjustfield@?$_Iosb@H@std@@2W4_Fmtflags@12@B	; std::_Iosb<int>::adjustfield
PUBLIC	?min_exponent10@?$numeric_limits@M@std@@2HB	; std::numeric_limits<float>::min_exponent10
PUBLIC	?basefield@?$_Iosb@H@std@@2W4_Fmtflags@12@B	; std::_Iosb<int>::basefield
PUBLIC	?value@?$_Maximum@$S@std@@2IB			; std::_Maximum<>::value
PUBLIC	?floatfield@?$_Iosb@H@std@@2W4_Fmtflags@12@B	; std::_Iosb<int>::floatfield
PUBLIC	?goodbit@?$_Iosb@H@std@@2W4_Iostate@12@B	; std::_Iosb<int>::goodbit
PUBLIC	?eofbit@?$_Iosb@H@std@@2W4_Iostate@12@B		; std::_Iosb<int>::eofbit
PUBLIC	?failbit@?$_Iosb@H@std@@2W4_Iostate@12@B	; std::_Iosb<int>::failbit
PUBLIC	?badbit@?$_Iosb@H@std@@2W4_Iostate@12@B		; std::_Iosb<int>::badbit
PUBLIC	?_Hardfail@?$_Iosb@H@std@@2W4_Iostate@12@B	; std::_Iosb<int>::_Hardfail
PUBLIC	?in@?$_Iosb@H@std@@2W4_Openmode@12@B		; std::_Iosb<int>::in
PUBLIC	?digits@?$numeric_limits@N@std@@2HB		; std::numeric_limits<double>::digits
PUBLIC	?out@?$_Iosb@H@std@@2W4_Openmode@12@B		; std::_Iosb<int>::out
PUBLIC	?ate@?$_Iosb@H@std@@2W4_Openmode@12@B		; std::_Iosb<int>::ate
PUBLIC	?digits10@?$numeric_limits@N@std@@2HB		; std::numeric_limits<double>::digits10
PUBLIC	?max_digits10@?$numeric_limits@N@std@@2HB	; std::numeric_limits<double>::max_digits10
PUBLIC	?app@?$_Iosb@H@std@@2W4_Openmode@12@B		; std::_Iosb<int>::app
PUBLIC	?value@?$integral_constant@I$0A@@std@@2IB	; std::integral_constant<unsigned int,0>::value
PUBLIC	?trunc@?$_Iosb@H@std@@2W4_Openmode@12@B		; std::_Iosb<int>::trunc
PUBLIC	?max_exponent@?$numeric_limits@N@std@@2HB	; std::numeric_limits<double>::max_exponent
PUBLIC	?_Nocreate@?$_Iosb@H@std@@2W4_Openmode@12@B	; std::_Iosb<int>::_Nocreate
PUBLIC	?max_exponent10@?$numeric_limits@N@std@@2HB	; std::numeric_limits<double>::max_exponent10
PUBLIC	?_Noreplace@?$_Iosb@H@std@@2W4_Openmode@12@B	; std::_Iosb<int>::_Noreplace
PUBLIC	?min_exponent@?$numeric_limits@N@std@@2HB	; std::numeric_limits<double>::min_exponent
PUBLIC	?binary@?$_Iosb@H@std@@2W4_Openmode@12@B	; std::_Iosb<int>::binary
PUBLIC	?min_exponent10@?$numeric_limits@N@std@@2HB	; std::numeric_limits<double>::min_exponent10
PUBLIC	?beg@?$_Iosb@H@std@@2W4_Seekdir@12@B		; std::_Iosb<int>::beg
PUBLIC	?cur@?$_Iosb@H@std@@2W4_Seekdir@12@B		; std::_Iosb<int>::cur
PUBLIC	?end@?$_Iosb@H@std@@2W4_Seekdir@12@B		; std::_Iosb<int>::end
PUBLIC	?digits@?$numeric_limits@O@std@@2HB		; std::numeric_limits<long double>::digits
PUBLIC	?digits10@?$numeric_limits@O@std@@2HB		; std::numeric_limits<long double>::digits10
PUBLIC	?max_digits10@?$numeric_limits@O@std@@2HB	; std::numeric_limits<long double>::max_digits10
PUBLIC	?max_exponent@?$numeric_limits@O@std@@2HB	; std::numeric_limits<long double>::max_exponent
PUBLIC	?collate@?$_Locbase@H@std@@2HB			; std::_Locbase<int>::collate
PUBLIC	?max_exponent10@?$numeric_limits@O@std@@2HB	; std::numeric_limits<long double>::max_exponent10
PUBLIC	?ctype@?$_Locbase@H@std@@2HB			; std::_Locbase<int>::ctype
PUBLIC	?monetary@?$_Locbase@H@std@@2HB			; std::_Locbase<int>::monetary
PUBLIC	?min_exponent@?$numeric_limits@O@std@@2HB	; std::numeric_limits<long double>::min_exponent
PUBLIC	?numeric@?$_Locbase@H@std@@2HB			; std::_Locbase<int>::numeric
PUBLIC	?time@?$_Locbase@H@std@@2HB			; std::_Locbase<int>::time
PUBLIC	?min_exponent10@?$numeric_limits@O@std@@2HB	; std::numeric_limits<long double>::min_exponent10
PUBLIC	?messages@?$_Locbase@H@std@@2HB			; std::_Locbase<int>::messages
PUBLIC	?all@?$_Locbase@H@std@@2HB			; std::_Locbase<int>::all
PUBLIC	?none@?$_Locbase@H@std@@2HB			; std::_Locbase<int>::none
PUBLIC	?table_size@?$ctype@D@std@@2IB			; std::ctype<char>::table_size
PUBLIC	?has_denorm@_Num_base@std@@2W4float_denorm_style@2@B ; std::_Num_base::has_denorm
PUBLIC	?has_denorm_loss@_Num_base@std@@2_NB		; std::_Num_base::has_denorm_loss
PUBLIC	?has_infinity@_Num_base@std@@2_NB		; std::_Num_base::has_infinity
PUBLIC	?has_quiet_NaN@_Num_base@std@@2_NB		; std::_Num_base::has_quiet_NaN
PUBLIC	?has_signaling_NaN@_Num_base@std@@2_NB		; std::_Num_base::has_signaling_NaN
PUBLIC	?is_bounded@_Num_base@std@@2_NB			; std::_Num_base::is_bounded
PUBLIC	?is_exact@_Num_base@std@@2_NB			; std::_Num_base::is_exact
PUBLIC	?is_iec559@_Num_base@std@@2_NB			; std::_Num_base::is_iec559
PUBLIC	?is_integer@_Num_base@std@@2_NB			; std::_Num_base::is_integer
PUBLIC	?is_modulo@_Num_base@std@@2_NB			; std::_Num_base::is_modulo
PUBLIC	?is_signed@_Num_base@std@@2_NB			; std::_Num_base::is_signed
PUBLIC	?is_specialized@_Num_base@std@@2_NB		; std::_Num_base::is_specialized
PUBLIC	?tinyness_before@_Num_base@std@@2_NB		; std::_Num_base::tinyness_before
PUBLIC	?traps@_Num_base@std@@2_NB			; std::_Num_base::traps
PUBLIC	?round_style@_Num_base@std@@2W4float_round_style@2@B ; std::_Num_base::round_style
PUBLIC	?digits@_Num_base@std@@2HB			; std::_Num_base::digits
PUBLIC	?digits10@_Num_base@std@@2HB			; std::_Num_base::digits10
PUBLIC	?max_digits10@_Num_base@std@@2HB		; std::_Num_base::max_digits10
PUBLIC	?max_exponent@_Num_base@std@@2HB		; std::_Num_base::max_exponent
PUBLIC	?max_exponent10@_Num_base@std@@2HB		; std::_Num_base::max_exponent10
PUBLIC	?min_exponent@_Num_base@std@@2HB		; std::_Num_base::min_exponent
PUBLIC	?min_exponent10@_Num_base@std@@2HB		; std::_Num_base::min_exponent10
PUBLIC	?radix@_Num_base@std@@2HB			; std::_Num_base::radix
PUBLIC	?is_bounded@_Num_int_base@std@@2_NB		; std::_Num_int_base::is_bounded
PUBLIC	?is_exact@_Num_int_base@std@@2_NB		; std::_Num_int_base::is_exact
PUBLIC	?is_integer@_Num_int_base@std@@2_NB		; std::_Num_int_base::is_integer
PUBLIC	?is_modulo@_Num_int_base@std@@2_NB		; std::_Num_int_base::is_modulo
PUBLIC	?is_specialized@_Num_int_base@std@@2_NB		; std::_Num_int_base::is_specialized
PUBLIC	?radix@_Num_int_base@std@@2HB			; std::_Num_int_base::radix
PUBLIC	?has_denorm@_Num_float_base@std@@2W4float_denorm_style@2@B ; std::_Num_float_base::has_denorm
PUBLIC	?has_denorm_loss@_Num_float_base@std@@2_NB	; std::_Num_float_base::has_denorm_loss
PUBLIC	?has_infinity@_Num_float_base@std@@2_NB		; std::_Num_float_base::has_infinity
PUBLIC	?has_quiet_NaN@_Num_float_base@std@@2_NB	; std::_Num_float_base::has_quiet_NaN
PUBLIC	?has_signaling_NaN@_Num_float_base@std@@2_NB	; std::_Num_float_base::has_signaling_NaN
PUBLIC	?is_bounded@_Num_float_base@std@@2_NB		; std::_Num_float_base::is_bounded
PUBLIC	?is_exact@_Num_float_base@std@@2_NB		; std::_Num_float_base::is_exact
PUBLIC	?is_iec559@_Num_float_base@std@@2_NB		; std::_Num_float_base::is_iec559
PUBLIC	?is_integer@_Num_float_base@std@@2_NB		; std::_Num_float_base::is_integer
PUBLIC	?is_modulo@_Num_float_base@std@@2_NB		; std::_Num_float_base::is_modulo
PUBLIC	?is_signed@_Num_float_base@std@@2_NB		; std::_Num_float_base::is_signed
PUBLIC	?is_specialized@_Num_float_base@std@@2_NB	; std::_Num_float_base::is_specialized
PUBLIC	?tinyness_before@_Num_float_base@std@@2_NB	; std::_Num_float_base::tinyness_before
PUBLIC	?traps@_Num_float_base@std@@2_NB		; std::_Num_float_base::traps
PUBLIC	?round_style@_Num_float_base@std@@2W4float_round_style@2@B ; std::_Num_float_base::round_style
PUBLIC	?radix@_Num_float_base@std@@2HB			; std::_Num_float_base::radix
PUBLIC	?is_signed@?$numeric_limits@D@std@@2_NB		; std::numeric_limits<char>::is_signed
PUBLIC	?digits@?$numeric_limits@D@std@@2HB		; std::numeric_limits<char>::digits
PUBLIC	?digits10@?$numeric_limits@D@std@@2HB		; std::numeric_limits<char>::digits10
PUBLIC	?is_signed@?$numeric_limits@_W@std@@2_NB	; std::numeric_limits<wchar_t>::is_signed
PUBLIC	?digits@?$numeric_limits@_W@std@@2HB		; std::numeric_limits<wchar_t>::digits
PUBLIC	?digits10@?$numeric_limits@_W@std@@2HB		; std::numeric_limits<wchar_t>::digits10
PUBLIC	?is_modulo@?$numeric_limits@_N@std@@2_NB	; std::numeric_limits<bool>::is_modulo
PUBLIC	?is_signed@?$numeric_limits@_N@std@@2_NB	; std::numeric_limits<bool>::is_signed
PUBLIC	?digits@?$numeric_limits@_N@std@@2HB		; std::numeric_limits<bool>::digits
PUBLIC	?digits10@?$numeric_limits@_N@std@@2HB		; std::numeric_limits<bool>::digits10
PUBLIC	?is_signed@?$numeric_limits@C@std@@2_NB		; std::numeric_limits<signed char>::is_signed
PUBLIC	?digits@?$numeric_limits@C@std@@2HB		; std::numeric_limits<signed char>::digits
PUBLIC	?digits10@?$numeric_limits@C@std@@2HB		; std::numeric_limits<signed char>::digits10
PUBLIC	?is_signed@?$numeric_limits@E@std@@2_NB		; std::numeric_limits<unsigned char>::is_signed
PUBLIC	?digits@?$numeric_limits@E@std@@2HB		; std::numeric_limits<unsigned char>::digits
PUBLIC	?digits10@?$numeric_limits@E@std@@2HB		; std::numeric_limits<unsigned char>::digits10
PUBLIC	?is_signed@?$numeric_limits@F@std@@2_NB		; std::numeric_limits<short>::is_signed
PUBLIC	?digits@?$numeric_limits@F@std@@2HB		; std::numeric_limits<short>::digits
PUBLIC	?digits10@?$numeric_limits@F@std@@2HB		; std::numeric_limits<short>::digits10
PUBLIC	?is_signed@?$numeric_limits@G@std@@2_NB		; std::numeric_limits<unsigned short>::is_signed
PUBLIC	?digits@?$numeric_limits@G@std@@2HB		; std::numeric_limits<unsigned short>::digits
PUBLIC	?digits10@?$numeric_limits@G@std@@2HB		; std::numeric_limits<unsigned short>::digits10
PUBLIC	?is_signed@?$numeric_limits@H@std@@2_NB		; std::numeric_limits<int>::is_signed
;	COMDAT ?is_signed@?$numeric_limits@H@std@@2_NB
CONST	SEGMENT
?is_signed@?$numeric_limits@H@std@@2_NB DB 01H		; std::numeric_limits<int>::is_signed
CONST	ENDS
;	COMDAT ?digits10@?$numeric_limits@G@std@@2HB
CONST	SEGMENT
?digits10@?$numeric_limits@G@std@@2HB DD 04H		; std::numeric_limits<unsigned short>::digits10
CONST	ENDS
;	COMDAT ?digits@?$numeric_limits@G@std@@2HB
CONST	SEGMENT
?digits@?$numeric_limits@G@std@@2HB DD 010H		; std::numeric_limits<unsigned short>::digits
CONST	ENDS
;	COMDAT ?is_signed@?$numeric_limits@G@std@@2_NB
CONST	SEGMENT
?is_signed@?$numeric_limits@G@std@@2_NB DB 00H		; std::numeric_limits<unsigned short>::is_signed
CONST	ENDS
;	COMDAT ?digits10@?$numeric_limits@F@std@@2HB
CONST	SEGMENT
?digits10@?$numeric_limits@F@std@@2HB DD 04H		; std::numeric_limits<short>::digits10
CONST	ENDS
;	COMDAT ?digits@?$numeric_limits@F@std@@2HB
CONST	SEGMENT
?digits@?$numeric_limits@F@std@@2HB DD 0fH		; std::numeric_limits<short>::digits
CONST	ENDS
;	COMDAT ?is_signed@?$numeric_limits@F@std@@2_NB
CONST	SEGMENT
?is_signed@?$numeric_limits@F@std@@2_NB DB 01H		; std::numeric_limits<short>::is_signed
CONST	ENDS
;	COMDAT ?digits10@?$numeric_limits@E@std@@2HB
CONST	SEGMENT
?digits10@?$numeric_limits@E@std@@2HB DD 02H		; std::numeric_limits<unsigned char>::digits10
CONST	ENDS
;	COMDAT ?digits@?$numeric_limits@E@std@@2HB
CONST	SEGMENT
?digits@?$numeric_limits@E@std@@2HB DD 08H		; std::numeric_limits<unsigned char>::digits
CONST	ENDS
;	COMDAT ?is_signed@?$numeric_limits@E@std@@2_NB
CONST	SEGMENT
?is_signed@?$numeric_limits@E@std@@2_NB DB 00H		; std::numeric_limits<unsigned char>::is_signed
CONST	ENDS
;	COMDAT ?digits10@?$numeric_limits@C@std@@2HB
CONST	SEGMENT
?digits10@?$numeric_limits@C@std@@2HB DD 02H		; std::numeric_limits<signed char>::digits10
CONST	ENDS
;	COMDAT ?digits@?$numeric_limits@C@std@@2HB
CONST	SEGMENT
?digits@?$numeric_limits@C@std@@2HB DD 07H		; std::numeric_limits<signed char>::digits
CONST	ENDS
;	COMDAT ?is_signed@?$numeric_limits@C@std@@2_NB
CONST	SEGMENT
?is_signed@?$numeric_limits@C@std@@2_NB DB 01H		; std::numeric_limits<signed char>::is_signed
CONST	ENDS
;	COMDAT ?digits10@?$numeric_limits@_N@std@@2HB
CONST	SEGMENT
?digits10@?$numeric_limits@_N@std@@2HB DD 00H		; std::numeric_limits<bool>::digits10
CONST	ENDS
;	COMDAT ?digits@?$numeric_limits@_N@std@@2HB
CONST	SEGMENT
?digits@?$numeric_limits@_N@std@@2HB DD 01H		; std::numeric_limits<bool>::digits
CONST	ENDS
;	COMDAT ?is_signed@?$numeric_limits@_N@std@@2_NB
CONST	SEGMENT
?is_signed@?$numeric_limits@_N@std@@2_NB DB 00H		; std::numeric_limits<bool>::is_signed
CONST	ENDS
;	COMDAT ?is_modulo@?$numeric_limits@_N@std@@2_NB
CONST	SEGMENT
?is_modulo@?$numeric_limits@_N@std@@2_NB DB 00H		; std::numeric_limits<bool>::is_modulo
CONST	ENDS
;	COMDAT ?digits10@?$numeric_limits@_W@std@@2HB
CONST	SEGMENT
?digits10@?$numeric_limits@_W@std@@2HB DD 04H		; std::numeric_limits<wchar_t>::digits10
CONST	ENDS
;	COMDAT ?digits@?$numeric_limits@_W@std@@2HB
CONST	SEGMENT
?digits@?$numeric_limits@_W@std@@2HB DD 010H		; std::numeric_limits<wchar_t>::digits
CONST	ENDS
;	COMDAT ?is_signed@?$numeric_limits@_W@std@@2_NB
CONST	SEGMENT
?is_signed@?$numeric_limits@_W@std@@2_NB DB 00H		; std::numeric_limits<wchar_t>::is_signed
CONST	ENDS
;	COMDAT ?digits10@?$numeric_limits@D@std@@2HB
CONST	SEGMENT
?digits10@?$numeric_limits@D@std@@2HB DD 02H		; std::numeric_limits<char>::digits10
CONST	ENDS
;	COMDAT ?digits@?$numeric_limits@D@std@@2HB
CONST	SEGMENT
?digits@?$numeric_limits@D@std@@2HB DD 07H		; std::numeric_limits<char>::digits
CONST	ENDS
;	COMDAT ?is_signed@?$numeric_limits@D@std@@2_NB
CONST	SEGMENT
?is_signed@?$numeric_limits@D@std@@2_NB DB 01H		; std::numeric_limits<char>::is_signed
CONST	ENDS
;	COMDAT ?radix@_Num_float_base@std@@2HB
CONST	SEGMENT
?radix@_Num_float_base@std@@2HB DD 02H			; std::_Num_float_base::radix
CONST	ENDS
;	COMDAT ?round_style@_Num_float_base@std@@2W4float_round_style@2@B
CONST	SEGMENT
?round_style@_Num_float_base@std@@2W4float_round_style@2@B DD 01H ; std::_Num_float_base::round_style
CONST	ENDS
;	COMDAT ?traps@_Num_float_base@std@@2_NB
CONST	SEGMENT
?traps@_Num_float_base@std@@2_NB DB 00H			; std::_Num_float_base::traps
CONST	ENDS
;	COMDAT ?tinyness_before@_Num_float_base@std@@2_NB
CONST	SEGMENT
?tinyness_before@_Num_float_base@std@@2_NB DB 01H	; std::_Num_float_base::tinyness_before
CONST	ENDS
;	COMDAT ?is_specialized@_Num_float_base@std@@2_NB
CONST	SEGMENT
?is_specialized@_Num_float_base@std@@2_NB DB 01H	; std::_Num_float_base::is_specialized
CONST	ENDS
;	COMDAT ?is_signed@_Num_float_base@std@@2_NB
CONST	SEGMENT
?is_signed@_Num_float_base@std@@2_NB DB 01H		; std::_Num_float_base::is_signed
CONST	ENDS
;	COMDAT ?is_modulo@_Num_float_base@std@@2_NB
CONST	SEGMENT
?is_modulo@_Num_float_base@std@@2_NB DB 00H		; std::_Num_float_base::is_modulo
CONST	ENDS
;	COMDAT ?is_integer@_Num_float_base@std@@2_NB
CONST	SEGMENT
?is_integer@_Num_float_base@std@@2_NB DB 00H		; std::_Num_float_base::is_integer
CONST	ENDS
;	COMDAT ?is_iec559@_Num_float_base@std@@2_NB
CONST	SEGMENT
?is_iec559@_Num_float_base@std@@2_NB DB 01H		; std::_Num_float_base::is_iec559
CONST	ENDS
;	COMDAT ?is_exact@_Num_float_base@std@@2_NB
CONST	SEGMENT
?is_exact@_Num_float_base@std@@2_NB DB 00H		; std::_Num_float_base::is_exact
CONST	ENDS
;	COMDAT ?is_bounded@_Num_float_base@std@@2_NB
CONST	SEGMENT
?is_bounded@_Num_float_base@std@@2_NB DB 01H		; std::_Num_float_base::is_bounded
CONST	ENDS
;	COMDAT ?has_signaling_NaN@_Num_float_base@std@@2_NB
CONST	SEGMENT
?has_signaling_NaN@_Num_float_base@std@@2_NB DB 01H	; std::_Num_float_base::has_signaling_NaN
CONST	ENDS
;	COMDAT ?has_quiet_NaN@_Num_float_base@std@@2_NB
CONST	SEGMENT
?has_quiet_NaN@_Num_float_base@std@@2_NB DB 01H		; std::_Num_float_base::has_quiet_NaN
CONST	ENDS
;	COMDAT ?has_infinity@_Num_float_base@std@@2_NB
CONST	SEGMENT
?has_infinity@_Num_float_base@std@@2_NB DB 01H		; std::_Num_float_base::has_infinity
CONST	ENDS
;	COMDAT ?has_denorm_loss@_Num_float_base@std@@2_NB
CONST	SEGMENT
?has_denorm_loss@_Num_float_base@std@@2_NB DB 01H	; std::_Num_float_base::has_denorm_loss
CONST	ENDS
;	COMDAT ?has_denorm@_Num_float_base@std@@2W4float_denorm_style@2@B
CONST	SEGMENT
?has_denorm@_Num_float_base@std@@2W4float_denorm_style@2@B DD 01H ; std::_Num_float_base::has_denorm
CONST	ENDS
;	COMDAT ?radix@_Num_int_base@std@@2HB
CONST	SEGMENT
?radix@_Num_int_base@std@@2HB DD 02H			; std::_Num_int_base::radix
CONST	ENDS
;	COMDAT ?is_specialized@_Num_int_base@std@@2_NB
CONST	SEGMENT
?is_specialized@_Num_int_base@std@@2_NB DB 01H		; std::_Num_int_base::is_specialized
CONST	ENDS
;	COMDAT ?is_modulo@_Num_int_base@std@@2_NB
CONST	SEGMENT
?is_modulo@_Num_int_base@std@@2_NB DB 01H		; std::_Num_int_base::is_modulo
CONST	ENDS
;	COMDAT ?is_integer@_Num_int_base@std@@2_NB
CONST	SEGMENT
?is_integer@_Num_int_base@std@@2_NB DB 01H		; std::_Num_int_base::is_integer
CONST	ENDS
;	COMDAT ?is_exact@_Num_int_base@std@@2_NB
CONST	SEGMENT
?is_exact@_Num_int_base@std@@2_NB DB 01H		; std::_Num_int_base::is_exact
CONST	ENDS
;	COMDAT ?is_bounded@_Num_int_base@std@@2_NB
CONST	SEGMENT
?is_bounded@_Num_int_base@std@@2_NB DB 01H		; std::_Num_int_base::is_bounded
CONST	ENDS
CONST	SEGMENT
_kfPi	DD	040490fdbr			; 3.14159
_kfEpsilon DD	0350637bdr			; 5e-007
_kfPi64	DQ	0400921fb54442d18r		; 3.14159
CONST	ENDS
;	COMDAT ?radix@_Num_base@std@@2HB
CONST	SEGMENT
?radix@_Num_base@std@@2HB DD 00H			; std::_Num_base::radix
CONST	ENDS
;	COMDAT ?min_exponent10@_Num_base@std@@2HB
CONST	SEGMENT
?min_exponent10@_Num_base@std@@2HB DD 00H		; std::_Num_base::min_exponent10
CONST	ENDS
;	COMDAT ?min_exponent@_Num_base@std@@2HB
CONST	SEGMENT
?min_exponent@_Num_base@std@@2HB DD 00H			; std::_Num_base::min_exponent
CONST	ENDS
;	COMDAT ?max_exponent10@_Num_base@std@@2HB
CONST	SEGMENT
?max_exponent10@_Num_base@std@@2HB DD 00H		; std::_Num_base::max_exponent10
CONST	ENDS
;	COMDAT ?max_exponent@_Num_base@std@@2HB
CONST	SEGMENT
?max_exponent@_Num_base@std@@2HB DD 00H			; std::_Num_base::max_exponent
CONST	ENDS
;	COMDAT ?max_digits10@_Num_base@std@@2HB
CONST	SEGMENT
?max_digits10@_Num_base@std@@2HB DD 00H			; std::_Num_base::max_digits10
CONST	ENDS
;	COMDAT ?digits10@_Num_base@std@@2HB
CONST	SEGMENT
?digits10@_Num_base@std@@2HB DD 00H			; std::_Num_base::digits10
CONST	ENDS
;	COMDAT ?digits@_Num_base@std@@2HB
CONST	SEGMENT
?digits@_Num_base@std@@2HB DD 00H			; std::_Num_base::digits
CONST	ENDS
;	COMDAT ?round_style@_Num_base@std@@2W4float_round_style@2@B
CONST	SEGMENT
?round_style@_Num_base@std@@2W4float_round_style@2@B DD 00H ; std::_Num_base::round_style
CONST	ENDS
;	COMDAT ?traps@_Num_base@std@@2_NB
CONST	SEGMENT
?traps@_Num_base@std@@2_NB DB 00H			; std::_Num_base::traps
CONST	ENDS
;	COMDAT ?tinyness_before@_Num_base@std@@2_NB
CONST	SEGMENT
?tinyness_before@_Num_base@std@@2_NB DB 00H		; std::_Num_base::tinyness_before
CONST	ENDS
;	COMDAT ?is_specialized@_Num_base@std@@2_NB
CONST	SEGMENT
?is_specialized@_Num_base@std@@2_NB DB 00H		; std::_Num_base::is_specialized
CONST	ENDS
;	COMDAT ?is_signed@_Num_base@std@@2_NB
CONST	SEGMENT
?is_signed@_Num_base@std@@2_NB DB 00H			; std::_Num_base::is_signed
CONST	ENDS
;	COMDAT ?is_modulo@_Num_base@std@@2_NB
CONST	SEGMENT
?is_modulo@_Num_base@std@@2_NB DB 00H			; std::_Num_base::is_modulo
CONST	ENDS
;	COMDAT ?is_integer@_Num_base@std@@2_NB
CONST	SEGMENT
?is_integer@_Num_base@std@@2_NB DB 00H			; std::_Num_base::is_integer
CONST	ENDS
;	COMDAT ?is_iec559@_Num_base@std@@2_NB
CONST	SEGMENT
?is_iec559@_Num_base@std@@2_NB DB 00H			; std::_Num_base::is_iec559
CONST	ENDS
;	COMDAT ?is_exact@_Num_base@std@@2_NB
CONST	SEGMENT
?is_exact@_Num_base@std@@2_NB DB 00H			; std::_Num_base::is_exact
CONST	ENDS
;	COMDAT ?is_bounded@_Num_base@std@@2_NB
CONST	SEGMENT
?is_bounded@_Num_base@std@@2_NB DB 00H			; std::_Num_base::is_bounded
CONST	ENDS
;	COMDAT ?has_signaling_NaN@_Num_base@std@@2_NB
CONST	SEGMENT
?has_signaling_NaN@_Num_base@std@@2_NB DB 00H		; std::_Num_base::has_signaling_NaN
CONST	ENDS
;	COMDAT ?has_quiet_NaN@_Num_base@std@@2_NB
CONST	SEGMENT
?has_quiet_NaN@_Num_base@std@@2_NB DB 00H		; std::_Num_base::has_quiet_NaN
CONST	ENDS
;	COMDAT ?has_infinity@_Num_base@std@@2_NB
CONST	SEGMENT
?has_infinity@_Num_base@std@@2_NB DB 00H		; std::_Num_base::has_infinity
CONST	ENDS
;	COMDAT ?has_denorm_loss@_Num_base@std@@2_NB
CONST	SEGMENT
?has_denorm_loss@_Num_base@std@@2_NB DB 00H		; std::_Num_base::has_denorm_loss
CONST	ENDS
;	COMDAT ?has_denorm@_Num_base@std@@2W4float_denorm_style@2@B
CONST	SEGMENT
?has_denorm@_Num_base@std@@2W4float_denorm_style@2@B DD 00H ; std::_Num_base::has_denorm
CONST	ENDS
;	COMDAT ?table_size@?$ctype@D@std@@2IB
CONST	SEGMENT
?table_size@?$ctype@D@std@@2IB DD 0100H			; std::ctype<char>::table_size
CONST	ENDS
;	COMDAT ?none@?$_Locbase@H@std@@2HB
CONST	SEGMENT
?none@?$_Locbase@H@std@@2HB DD 00H			; std::_Locbase<int>::none
CONST	ENDS
;	COMDAT ?all@?$_Locbase@H@std@@2HB
CONST	SEGMENT
?all@?$_Locbase@H@std@@2HB DD 03fH			; std::_Locbase<int>::all
CONST	ENDS
;	COMDAT ?messages@?$_Locbase@H@std@@2HB
CONST	SEGMENT
?messages@?$_Locbase@H@std@@2HB DD 020H			; std::_Locbase<int>::messages
CONST	ENDS
;	COMDAT ?min_exponent10@?$numeric_limits@O@std@@2HB
CONST	SEGMENT
?min_exponent10@?$numeric_limits@O@std@@2HB DD 0fffffecdH ; std::numeric_limits<long double>::min_exponent10
CONST	ENDS
;	COMDAT ?time@?$_Locbase@H@std@@2HB
CONST	SEGMENT
?time@?$_Locbase@H@std@@2HB DD 010H			; std::_Locbase<int>::time
CONST	ENDS
;	COMDAT ?numeric@?$_Locbase@H@std@@2HB
CONST	SEGMENT
?numeric@?$_Locbase@H@std@@2HB DD 08H			; std::_Locbase<int>::numeric
CONST	ENDS
;	COMDAT ?min_exponent@?$numeric_limits@O@std@@2HB
CONST	SEGMENT
?min_exponent@?$numeric_limits@O@std@@2HB DD 0fffffc03H	; std::numeric_limits<long double>::min_exponent
CONST	ENDS
;	COMDAT ?monetary@?$_Locbase@H@std@@2HB
CONST	SEGMENT
?monetary@?$_Locbase@H@std@@2HB DD 04H			; std::_Locbase<int>::monetary
CONST	ENDS
;	COMDAT ?ctype@?$_Locbase@H@std@@2HB
CONST	SEGMENT
?ctype@?$_Locbase@H@std@@2HB DD 02H			; std::_Locbase<int>::ctype
CONST	ENDS
;	COMDAT ?max_exponent10@?$numeric_limits@O@std@@2HB
CONST	SEGMENT
?max_exponent10@?$numeric_limits@O@std@@2HB DD 0134H	; std::numeric_limits<long double>::max_exponent10
CONST	ENDS
;	COMDAT ?collate@?$_Locbase@H@std@@2HB
CONST	SEGMENT
?collate@?$_Locbase@H@std@@2HB DD 01H			; std::_Locbase<int>::collate
CONST	ENDS
;	COMDAT ?max_exponent@?$numeric_limits@O@std@@2HB
CONST	SEGMENT
?max_exponent@?$numeric_limits@O@std@@2HB DD 0400H	; std::numeric_limits<long double>::max_exponent
CONST	ENDS
;	COMDAT ?max_digits10@?$numeric_limits@O@std@@2HB
CONST	SEGMENT
?max_digits10@?$numeric_limits@O@std@@2HB DD 011H	; std::numeric_limits<long double>::max_digits10
CONST	ENDS
;	COMDAT ?digits10@?$numeric_limits@O@std@@2HB
CONST	SEGMENT
?digits10@?$numeric_limits@O@std@@2HB DD 0fH		; std::numeric_limits<long double>::digits10
CONST	ENDS
;	COMDAT ?digits@?$numeric_limits@O@std@@2HB
CONST	SEGMENT
?digits@?$numeric_limits@O@std@@2HB DD 035H		; std::numeric_limits<long double>::digits
CONST	ENDS
;	COMDAT ?end@?$_Iosb@H@std@@2W4_Seekdir@12@B
CONST	SEGMENT
?end@?$_Iosb@H@std@@2W4_Seekdir@12@B DD 02H		; std::_Iosb<int>::end
CONST	ENDS
;	COMDAT ?cur@?$_Iosb@H@std@@2W4_Seekdir@12@B
CONST	SEGMENT
?cur@?$_Iosb@H@std@@2W4_Seekdir@12@B DD 01H		; std::_Iosb<int>::cur
CONST	ENDS
;	COMDAT ?beg@?$_Iosb@H@std@@2W4_Seekdir@12@B
CONST	SEGMENT
?beg@?$_Iosb@H@std@@2W4_Seekdir@12@B DD 00H		; std::_Iosb<int>::beg
CONST	ENDS
;	COMDAT ?min_exponent10@?$numeric_limits@N@std@@2HB
CONST	SEGMENT
?min_exponent10@?$numeric_limits@N@std@@2HB DD 0fffffecdH ; std::numeric_limits<double>::min_exponent10
CONST	ENDS
;	COMDAT ?binary@?$_Iosb@H@std@@2W4_Openmode@12@B
CONST	SEGMENT
?binary@?$_Iosb@H@std@@2W4_Openmode@12@B DD 020H	; std::_Iosb<int>::binary
CONST	ENDS
;	COMDAT ?min_exponent@?$numeric_limits@N@std@@2HB
CONST	SEGMENT
?min_exponent@?$numeric_limits@N@std@@2HB DD 0fffffc03H	; std::numeric_limits<double>::min_exponent
CONST	ENDS
;	COMDAT ?_Noreplace@?$_Iosb@H@std@@2W4_Openmode@12@B
CONST	SEGMENT
?_Noreplace@?$_Iosb@H@std@@2W4_Openmode@12@B DD 080H	; std::_Iosb<int>::_Noreplace
CONST	ENDS
;	COMDAT ?max_exponent10@?$numeric_limits@N@std@@2HB
CONST	SEGMENT
?max_exponent10@?$numeric_limits@N@std@@2HB DD 0134H	; std::numeric_limits<double>::max_exponent10
CONST	ENDS
;	COMDAT ?_Nocreate@?$_Iosb@H@std@@2W4_Openmode@12@B
CONST	SEGMENT
?_Nocreate@?$_Iosb@H@std@@2W4_Openmode@12@B DD 040H	; std::_Iosb<int>::_Nocreate
CONST	ENDS
;	COMDAT ?max_exponent@?$numeric_limits@N@std@@2HB
CONST	SEGMENT
?max_exponent@?$numeric_limits@N@std@@2HB DD 0400H	; std::numeric_limits<double>::max_exponent
CONST	ENDS
;	COMDAT ?trunc@?$_Iosb@H@std@@2W4_Openmode@12@B
CONST	SEGMENT
?trunc@?$_Iosb@H@std@@2W4_Openmode@12@B DD 010H		; std::_Iosb<int>::trunc
CONST	ENDS
;	COMDAT ?value@?$integral_constant@I$0A@@std@@2IB
CONST	SEGMENT
?value@?$integral_constant@I$0A@@std@@2IB DD 00H	; std::integral_constant<unsigned int,0>::value
CONST	ENDS
;	COMDAT ?app@?$_Iosb@H@std@@2W4_Openmode@12@B
CONST	SEGMENT
?app@?$_Iosb@H@std@@2W4_Openmode@12@B DD 08H		; std::_Iosb<int>::app
CONST	ENDS
;	COMDAT ?max_digits10@?$numeric_limits@N@std@@2HB
CONST	SEGMENT
?max_digits10@?$numeric_limits@N@std@@2HB DD 011H	; std::numeric_limits<double>::max_digits10
CONST	ENDS
;	COMDAT ?digits10@?$numeric_limits@N@std@@2HB
CONST	SEGMENT
?digits10@?$numeric_limits@N@std@@2HB DD 0fH		; std::numeric_limits<double>::digits10
CONST	ENDS
;	COMDAT ?ate@?$_Iosb@H@std@@2W4_Openmode@12@B
CONST	SEGMENT
?ate@?$_Iosb@H@std@@2W4_Openmode@12@B DD 04H		; std::_Iosb<int>::ate
CONST	ENDS
;	COMDAT ?out@?$_Iosb@H@std@@2W4_Openmode@12@B
CONST	SEGMENT
?out@?$_Iosb@H@std@@2W4_Openmode@12@B DD 02H		; std::_Iosb<int>::out
CONST	ENDS
;	COMDAT ?digits@?$numeric_limits@N@std@@2HB
CONST	SEGMENT
?digits@?$numeric_limits@N@std@@2HB DD 035H		; std::numeric_limits<double>::digits
CONST	ENDS
;	COMDAT ?in@?$_Iosb@H@std@@2W4_Openmode@12@B
CONST	SEGMENT
?in@?$_Iosb@H@std@@2W4_Openmode@12@B DD 01H		; std::_Iosb<int>::in
CONST	ENDS
;	COMDAT ?_Hardfail@?$_Iosb@H@std@@2W4_Iostate@12@B
CONST	SEGMENT
?_Hardfail@?$_Iosb@H@std@@2W4_Iostate@12@B DD 010H	; std::_Iosb<int>::_Hardfail
CONST	ENDS
;	COMDAT ?badbit@?$_Iosb@H@std@@2W4_Iostate@12@B
CONST	SEGMENT
?badbit@?$_Iosb@H@std@@2W4_Iostate@12@B DD 04H		; std::_Iosb<int>::badbit
CONST	ENDS
;	COMDAT ?failbit@?$_Iosb@H@std@@2W4_Iostate@12@B
CONST	SEGMENT
?failbit@?$_Iosb@H@std@@2W4_Iostate@12@B DD 02H		; std::_Iosb<int>::failbit
CONST	ENDS
;	COMDAT ?eofbit@?$_Iosb@H@std@@2W4_Iostate@12@B
CONST	SEGMENT
?eofbit@?$_Iosb@H@std@@2W4_Iostate@12@B DD 01H		; std::_Iosb<int>::eofbit
CONST	ENDS
;	COMDAT ?goodbit@?$_Iosb@H@std@@2W4_Iostate@12@B
CONST	SEGMENT
?goodbit@?$_Iosb@H@std@@2W4_Iostate@12@B DD 00H		; std::_Iosb<int>::goodbit
CONST	ENDS
;	COMDAT ?floatfield@?$_Iosb@H@std@@2W4_Fmtflags@12@B
CONST	SEGMENT
?floatfield@?$_Iosb@H@std@@2W4_Fmtflags@12@B DD 03000H	; std::_Iosb<int>::floatfield
CONST	ENDS
;	COMDAT ?value@?$_Maximum@$S@std@@2IB
CONST	SEGMENT
?value@?$_Maximum@$S@std@@2IB DD 00H			; std::_Maximum<>::value
CONST	ENDS
;	COMDAT ?basefield@?$_Iosb@H@std@@2W4_Fmtflags@12@B
CONST	SEGMENT
?basefield@?$_Iosb@H@std@@2W4_Fmtflags@12@B DD 0e00H	; std::_Iosb<int>::basefield
CONST	ENDS
;	COMDAT ?min_exponent10@?$numeric_limits@M@std@@2HB
CONST	SEGMENT
?min_exponent10@?$numeric_limits@M@std@@2HB DD 0ffffffdbH ; std::numeric_limits<float>::min_exponent10
CONST	ENDS
;	COMDAT ?adjustfield@?$_Iosb@H@std@@2W4_Fmtflags@12@B
CONST	SEGMENT
?adjustfield@?$_Iosb@H@std@@2W4_Fmtflags@12@B DD 01c0H	; std::_Iosb<int>::adjustfield
CONST	ENDS
;	COMDAT ?_Stdio@?$_Iosb@H@std@@2W4_Fmtflags@12@B
CONST	SEGMENT
?_Stdio@?$_Iosb@H@std@@2W4_Fmtflags@12@B DD 08000H	; std::_Iosb<int>::_Stdio
CONST	ENDS
;	COMDAT ?min_exponent@?$numeric_limits@M@std@@2HB
CONST	SEGMENT
?min_exponent@?$numeric_limits@M@std@@2HB DD 0ffffff83H	; std::numeric_limits<float>::min_exponent
CONST	ENDS
;	COMDAT ?boolalpha@?$_Iosb@H@std@@2W4_Fmtflags@12@B
CONST	SEGMENT
?boolalpha@?$_Iosb@H@std@@2W4_Fmtflags@12@B DD 04000H	; std::_Iosb<int>::boolalpha
CONST	ENDS
;	COMDAT ?max_exponent10@?$numeric_limits@M@std@@2HB
CONST	SEGMENT
?max_exponent10@?$numeric_limits@M@std@@2HB DD 026H	; std::numeric_limits<float>::max_exponent10
CONST	ENDS
;	COMDAT ?hexfloat@?$_Iosb@H@std@@2W4_Fmtflags@12@B
CONST	SEGMENT
?hexfloat@?$_Iosb@H@std@@2W4_Fmtflags@12@B DD 03000H	; std::_Iosb<int>::hexfloat
CONST	ENDS
;	COMDAT ?max_exponent@?$numeric_limits@M@std@@2HB
CONST	SEGMENT
?max_exponent@?$numeric_limits@M@std@@2HB DD 080H	; std::numeric_limits<float>::max_exponent
CONST	ENDS
;	COMDAT ?fixed@?$_Iosb@H@std@@2W4_Fmtflags@12@B
CONST	SEGMENT
?fixed@?$_Iosb@H@std@@2W4_Fmtflags@12@B DD 02000H	; std::_Iosb<int>::fixed
CONST	ENDS
;	COMDAT ?scientific@?$_Iosb@H@std@@2W4_Fmtflags@12@B
CONST	SEGMENT
?scientific@?$_Iosb@H@std@@2W4_Fmtflags@12@B DD 01000H	; std::_Iosb<int>::scientific
CONST	ENDS
;	COMDAT ?max_digits10@?$numeric_limits@M@std@@2HB
CONST	SEGMENT
?max_digits10@?$numeric_limits@M@std@@2HB DD 09H	; std::numeric_limits<float>::max_digits10
CONST	ENDS
;	COMDAT ?hex@?$_Iosb@H@std@@2W4_Fmtflags@12@B
CONST	SEGMENT
?hex@?$_Iosb@H@std@@2W4_Fmtflags@12@B DD 0800H		; std::_Iosb<int>::hex
CONST	ENDS
;	COMDAT ?digits10@?$numeric_limits@M@std@@2HB
CONST	SEGMENT
?digits10@?$numeric_limits@M@std@@2HB DD 06H		; std::numeric_limits<float>::digits10
CONST	ENDS
;	COMDAT ?value@?$integral_constant@I$00@std@@2IB
CONST	SEGMENT
?value@?$integral_constant@I$00@std@@2IB DD 01H		; std::integral_constant<unsigned int,1>::value
CONST	ENDS
;	COMDAT ?digits@?$numeric_limits@M@std@@2HB
CONST	SEGMENT
?digits@?$numeric_limits@M@std@@2HB DD 018H		; std::numeric_limits<float>::digits
CONST	ENDS
;	COMDAT ?oct@?$_Iosb@H@std@@2W4_Fmtflags@12@B
CONST	SEGMENT
?oct@?$_Iosb@H@std@@2W4_Fmtflags@12@B DD 0400H		; std::_Iosb<int>::oct
CONST	ENDS
;	COMDAT ?dec@?$_Iosb@H@std@@2W4_Fmtflags@12@B
CONST	SEGMENT
?dec@?$_Iosb@H@std@@2W4_Fmtflags@12@B DD 0200H		; std::_Iosb<int>::dec
CONST	ENDS
;	COMDAT ?internal@?$_Iosb@H@std@@2W4_Fmtflags@12@B
CONST	SEGMENT
?internal@?$_Iosb@H@std@@2W4_Fmtflags@12@B DD 0100H	; std::_Iosb<int>::internal
CONST	ENDS
;	COMDAT ?right@?$_Iosb@H@std@@2W4_Fmtflags@12@B
CONST	SEGMENT
?right@?$_Iosb@H@std@@2W4_Fmtflags@12@B DD 080H		; std::_Iosb<int>::right
CONST	ENDS
;	COMDAT ?left@?$_Iosb@H@std@@2W4_Fmtflags@12@B
CONST	SEGMENT
?left@?$_Iosb@H@std@@2W4_Fmtflags@12@B DD 040H		; std::_Iosb<int>::left
CONST	ENDS
;	COMDAT ?showpos@?$_Iosb@H@std@@2W4_Fmtflags@12@B
CONST	SEGMENT
?showpos@?$_Iosb@H@std@@2W4_Fmtflags@12@B DD 020H	; std::_Iosb<int>::showpos
CONST	ENDS
;	COMDAT ?showpoint@?$_Iosb@H@std@@2W4_Fmtflags@12@B
CONST	SEGMENT
?showpoint@?$_Iosb@H@std@@2W4_Fmtflags@12@B DD 010H	; std::_Iosb<int>::showpoint
CONST	ENDS
;	COMDAT ?showbase@?$_Iosb@H@std@@2W4_Fmtflags@12@B
CONST	SEGMENT
?showbase@?$_Iosb@H@std@@2W4_Fmtflags@12@B DD 08H	; std::_Iosb<int>::showbase
CONST	ENDS
;	COMDAT ?uppercase@?$_Iosb@H@std@@2W4_Fmtflags@12@B
CONST	SEGMENT
?uppercase@?$_Iosb@H@std@@2W4_Fmtflags@12@B DD 04H	; std::_Iosb<int>::uppercase
CONST	ENDS
;	COMDAT ?unitbuf@?$_Iosb@H@std@@2W4_Fmtflags@12@B
CONST	SEGMENT
?unitbuf@?$_Iosb@H@std@@2W4_Fmtflags@12@B DD 02H	; std::_Iosb<int>::unitbuf
CONST	ENDS
;	COMDAT ?skipws@?$_Iosb@H@std@@2W4_Fmtflags@12@B
CONST	SEGMENT
?skipws@?$_Iosb@H@std@@2W4_Fmtflags@12@B DD 01H		; std::_Iosb<int>::skipws
CONST	ENDS
;	COMDAT ?digits10@?$numeric_limits@_K@std@@2HB
CONST	SEGMENT
?digits10@?$numeric_limits@_K@std@@2HB DD 013H		; std::numeric_limits<unsigned __int64>::digits10
CONST	ENDS
;	COMDAT ?digits@?$numeric_limits@_K@std@@2HB
CONST	SEGMENT
?digits@?$numeric_limits@_K@std@@2HB DD 040H		; std::numeric_limits<unsigned __int64>::digits
CONST	ENDS
;	COMDAT ?is_signed@?$numeric_limits@_K@std@@2_NB
CONST	SEGMENT
?is_signed@?$numeric_limits@_K@std@@2_NB DB 00H		; std::numeric_limits<unsigned __int64>::is_signed
CONST	ENDS
;	COMDAT ?value@?$integral_constant@I$01@std@@2IB
CONST	SEGMENT
?value@?$integral_constant@I$01@std@@2IB DD 02H		; std::integral_constant<unsigned int,2>::value
CONST	ENDS
;	COMDAT ?digits10@?$numeric_limits@_J@std@@2HB
CONST	SEGMENT
?digits10@?$numeric_limits@_J@std@@2HB DD 012H		; std::numeric_limits<__int64>::digits10
CONST	ENDS
;	COMDAT ?digits@?$numeric_limits@_J@std@@2HB
CONST	SEGMENT
?digits@?$numeric_limits@_J@std@@2HB DD 03fH		; std::numeric_limits<__int64>::digits
CONST	ENDS
;	COMDAT ?is_signed@?$numeric_limits@_J@std@@2_NB
CONST	SEGMENT
?is_signed@?$numeric_limits@_J@std@@2_NB DB 01H		; std::numeric_limits<__int64>::is_signed
CONST	ENDS
;	COMDAT ?digits10@?$numeric_limits@K@std@@2HB
CONST	SEGMENT
?digits10@?$numeric_limits@K@std@@2HB DD 09H		; std::numeric_limits<unsigned long>::digits10
CONST	ENDS
;	COMDAT ?digits@?$numeric_limits@K@std@@2HB
CONST	SEGMENT
?digits@?$numeric_limits@K@std@@2HB DD 020H		; std::numeric_limits<unsigned long>::digits
CONST	ENDS
;	COMDAT ?is_signed@?$numeric_limits@K@std@@2_NB
CONST	SEGMENT
?is_signed@?$numeric_limits@K@std@@2_NB DB 00H		; std::numeric_limits<unsigned long>::is_signed
CONST	ENDS
;	COMDAT ?value@?$integral_constant@I$03@std@@2IB
CONST	SEGMENT
?value@?$integral_constant@I$03@std@@2IB DD 04H		; std::integral_constant<unsigned int,4>::value
CONST	ENDS
;	COMDAT ?value@?$integral_constant@_N$00@std@@2_NB
CONST	SEGMENT
?value@?$integral_constant@_N$00@std@@2_NB DB 01H	; std::integral_constant<bool,1>::value
CONST	ENDS
;	COMDAT ?value@?$integral_constant@_N$0A@@std@@2_NB
CONST	SEGMENT
?value@?$integral_constant@_N$0A@@std@@2_NB DB 00H	; std::integral_constant<bool,0>::value
CONST	ENDS
;	COMDAT ?digits10@?$numeric_limits@J@std@@2HB
CONST	SEGMENT
?digits10@?$numeric_limits@J@std@@2HB DD 09H		; std::numeric_limits<long>::digits10
CONST	ENDS
;	COMDAT ?digits@?$numeric_limits@J@std@@2HB
CONST	SEGMENT
?digits@?$numeric_limits@J@std@@2HB DD 01fH		; std::numeric_limits<long>::digits
CONST	ENDS
;	COMDAT ?is_signed@?$numeric_limits@J@std@@2_NB
CONST	SEGMENT
?is_signed@?$numeric_limits@J@std@@2_NB DB 01H		; std::numeric_limits<long>::is_signed
CONST	ENDS
;	COMDAT ?value@?$integral_constant@I$07@std@@2IB
CONST	SEGMENT
?value@?$integral_constant@I$07@std@@2IB DD 08H		; std::integral_constant<unsigned int,8>::value
CONST	ENDS
;	COMDAT ?digits10@?$numeric_limits@I@std@@2HB
CONST	SEGMENT
?digits10@?$numeric_limits@I@std@@2HB DD 09H		; std::numeric_limits<unsigned int>::digits10
CONST	ENDS
;	COMDAT ?digits@?$numeric_limits@I@std@@2HB
CONST	SEGMENT
?digits@?$numeric_limits@I@std@@2HB DD 020H		; std::numeric_limits<unsigned int>::digits
CONST	ENDS
;	COMDAT ?is_signed@?$numeric_limits@I@std@@2_NB
CONST	SEGMENT
?is_signed@?$numeric_limits@I@std@@2_NB DB 00H		; std::numeric_limits<unsigned int>::is_signed
CONST	ENDS
;	COMDAT ?digits10@?$numeric_limits@H@std@@2HB
CONST	SEGMENT
?digits10@?$numeric_limits@H@std@@2HB DD 09H		; std::numeric_limits<int>::digits10
CONST	ENDS
;	COMDAT ?digits@?$numeric_limits@H@std@@2HB
CONST	SEGMENT
?digits@?$numeric_limits@H@std@@2HB DD 01fH		; std::numeric_limits<int>::digits
CONST	ENDS
PUBLIC	_hypot
PUBLIC	_acosf
PUBLIC	_atan2f
PUBLIC	_cosf
PUBLIC	_fabsf
PUBLIC	_sinf
PUBLIC	_sqrtf
PUBLIC	??2@YAPAXIPAX@Z					; operator new
PUBLIC	??3@YAXPAX0@Z					; operator delete
PUBLIC	?length@?$char_traits@D@std@@SAIPBD@Z		; std::char_traits<char>::length
PUBLIC	?copy@?$char_traits@D@std@@SAPADPADPBDI@Z	; std::char_traits<char>::copy
PUBLIC	?move@?$char_traits@D@std@@SAPADPADPBDI@Z	; std::char_traits<char>::move
PUBLIC	?assign@?$char_traits@D@std@@SAXAADABD@Z	; std::char_traits<char>::assign
PUBLIC	??0_Container_proxy@std@@QAE@XZ			; std::_Container_proxy::_Container_proxy
PUBLIC	??0_Container_base12@std@@QAE@XZ		; std::_Container_base12::_Container_base12
PUBLIC	??1_Container_base12@std@@QAE@XZ		; std::_Container_base12::~_Container_base12
PUBLIC	?_Orphan_all@_Container_base12@std@@QAEXXZ	; std::_Container_base12::_Orphan_all
PUBLIC	?select_on_container_copy_construction@?$allocator@D@std@@QBE?AV12@XZ ; std::allocator<char>::select_on_container_copy_construction
PUBLIC	??0?$allocator@D@std@@QAE@XZ			; std::allocator<char>::allocator<char>
PUBLIC	??0?$allocator@D@std@@QAE@ABV01@@Z		; std::allocator<char>::allocator<char>
PUBLIC	?deallocate@?$allocator@D@std@@QAEXPADI@Z	; std::allocator<char>::deallocate
PUBLIC	?allocate@?$allocator@D@std@@QAEPADI@Z		; std::allocator<char>::allocate
PUBLIC	?max_size@?$allocator@D@std@@QBEIXZ		; std::allocator<char>::max_size
PUBLIC	?max_size@?$allocator_traits@V?$allocator@D@std@@@std@@SAIABV?$allocator@D@2@@Z ; std::allocator_traits<std::allocator<char> >::max_size
PUBLIC	?select_on_container_copy_construction@?$allocator_traits@V?$allocator@D@std@@@std@@SA?AV?$allocator@D@2@ABV32@@Z ; std::allocator_traits<std::allocator<char> >::select_on_container_copy_construction
PUBLIC	?select_on_container_copy_construction@?$_Wrap_alloc@V?$allocator@D@std@@@std@@QBE?AU12@XZ ; std::_Wrap_alloc<std::allocator<char> >::select_on_container_copy_construction
PUBLIC	??0?$_Wrap_alloc@V?$allocator@D@std@@@std@@QAE@XZ ; std::_Wrap_alloc<std::allocator<char> >::_Wrap_alloc<std::allocator<char> >
PUBLIC	??0?$_Wrap_alloc@V?$allocator@D@std@@@std@@QAE@ABV?$allocator@D@1@@Z ; std::_Wrap_alloc<std::allocator<char> >::_Wrap_alloc<std::allocator<char> >
PUBLIC	?allocate@?$_Wrap_alloc@V?$allocator@D@std@@@std@@QAEPADI@Z ; std::_Wrap_alloc<std::allocator<char> >::allocate
PUBLIC	?deallocate@?$_Wrap_alloc@V?$allocator@D@std@@@std@@QAEXPADI@Z ; std::_Wrap_alloc<std::allocator<char> >::deallocate
PUBLIC	?max_size@?$_Wrap_alloc@V?$allocator@D@std@@@std@@QBEIXZ ; std::_Wrap_alloc<std::allocator<char> >::max_size
PUBLIC	??0?$_String_val@U?$_Simple_types@D@std@@@std@@QAE@XZ ; std::_String_val<std::_Simple_types<char> >::_String_val<std::_Simple_types<char> >
PUBLIC	?_Myptr@?$_String_val@U?$_Simple_types@D@std@@@std@@QAEPADXZ ; std::_String_val<std::_Simple_types<char> >::_Myptr
PUBLIC	?_Myptr@?$_String_val@U?$_Simple_types@D@std@@@std@@QBEPBDXZ ; std::_String_val<std::_Simple_types<char> >::_Myptr
PUBLIC	??1?$_String_val@U?$_Simple_types@D@std@@@std@@QAE@XZ ; std::_String_val<std::_Simple_types<char> >::~_String_val<std::_Simple_types<char> >
PUBLIC	??0?$_String_alloc@$0A@U?$_String_base_types@DV?$allocator@D@std@@@std@@@std@@QAE@ABV?$allocator@D@1@@Z ; std::_String_alloc<0,std::_String_base_types<char,std::allocator<char> > >::_String_alloc<0,std::_String_base_types<char,std::allocator<char> > >
PUBLIC	??1?$_String_alloc@$0A@U?$_String_base_types@DV?$allocator@D@std@@@std@@@std@@QAE@XZ ; std::_String_alloc<0,std::_String_base_types<char,std::allocator<char> > >::~_String_alloc<0,std::_String_base_types<char,std::allocator<char> > >
PUBLIC	?_Alloc_proxy@?$_String_alloc@$0A@U?$_String_base_types@DV?$allocator@D@std@@@std@@@std@@QAEXXZ ; std::_String_alloc<0,std::_String_base_types<char,std::allocator<char> > >::_Alloc_proxy
PUBLIC	?_Free_proxy@?$_String_alloc@$0A@U?$_String_base_types@DV?$allocator@D@std@@@std@@@std@@QAEXXZ ; std::_String_alloc<0,std::_String_base_types<char,std::allocator<char> > >::_Free_proxy
PUBLIC	?_Getal@?$_String_alloc@$0A@U?$_String_base_types@DV?$allocator@D@std@@@std@@@std@@QBE?AU?$_Wrap_alloc@V?$allocator@D@std@@@2@XZ ; std::_String_alloc<0,std::_String_base_types<char,std::allocator<char> > >::_Getal
PUBLIC	??0?$basic_string@DU?$char_traits@D@std@@V?$allocator@D@2@@std@@QAE@ABV01@@Z ; std::basic_string<char,std::char_traits<char>,std::allocator<char> >::basic_string<char,std::char_traits<char>,std::allocator<char> >
PUBLIC	??0?$basic_string@DU?$char_traits@D@std@@V?$allocator@D@2@@std@@QAE@PBD@Z ; std::basic_string<char,std::char_traits<char>,std::allocator<char> >::basic_string<char,std::char_traits<char>,std::allocator<char> >
PUBLIC	??1?$basic_string@DU?$char_traits@D@std@@V?$allocator@D@2@@std@@QAE@XZ ; std::basic_string<char,std::char_traits<char>,std::allocator<char> >::~basic_string<char,std::char_traits<char>,std::allocator<char> >
PUBLIC	?assign@?$basic_string@DU?$char_traits@D@std@@V?$allocator@D@2@@std@@QAEAAV12@ABV12@II@Z ; std::basic_string<char,std::char_traits<char>,std::allocator<char> >::assign
PUBLIC	?assign@?$basic_string@DU?$char_traits@D@std@@V?$allocator@D@2@@std@@QAEAAV12@PBDI@Z ; std::basic_string<char,std::char_traits<char>,std::allocator<char> >::assign
PUBLIC	?assign@?$basic_string@DU?$char_traits@D@std@@V?$allocator@D@2@@std@@QAEAAV12@PBD@Z ; std::basic_string<char,std::char_traits<char>,std::allocator<char> >::assign
PUBLIC	?erase@?$basic_string@DU?$char_traits@D@std@@V?$allocator@D@2@@std@@QAEAAV12@I@Z ; std::basic_string<char,std::char_traits<char>,std::allocator<char> >::erase
PUBLIC	?erase@?$basic_string@DU?$char_traits@D@std@@V?$allocator@D@2@@std@@QAEAAV12@II@Z ; std::basic_string<char,std::char_traits<char>,std::allocator<char> >::erase
PUBLIC	?size@?$basic_string@DU?$char_traits@D@std@@V?$allocator@D@2@@std@@QBEIXZ ; std::basic_string<char,std::char_traits<char>,std::allocator<char> >::size
PUBLIC	?max_size@?$basic_string@DU?$char_traits@D@std@@V?$allocator@D@2@@std@@QBEIXZ ; std::basic_string<char,std::char_traits<char>,std::allocator<char> >::max_size
PUBLIC	?_Copy@?$basic_string@DU?$char_traits@D@std@@V?$allocator@D@2@@std@@QAEXII@Z ; std::basic_string<char,std::char_traits<char>,std::allocator<char> >::_Copy
PUBLIC	?_Eos@?$basic_string@DU?$char_traits@D@std@@V?$allocator@D@2@@std@@QAEXI@Z ; std::basic_string<char,std::char_traits<char>,std::allocator<char> >::_Eos
PUBLIC	?_Grow@?$basic_string@DU?$char_traits@D@std@@V?$allocator@D@2@@std@@QAE_NI_N@Z ; std::basic_string<char,std::char_traits<char>,std::allocator<char> >::_Grow
PUBLIC	?_Inside@?$basic_string@DU?$char_traits@D@std@@V?$allocator@D@2@@std@@QAE_NPBD@Z ; std::basic_string<char,std::char_traits<char>,std::allocator<char> >::_Inside
PUBLIC	?_Tidy@?$basic_string@DU?$char_traits@D@std@@V?$allocator@D@2@@std@@QAEX_NI@Z ; std::basic_string<char,std::char_traits<char>,std::allocator<char> >::_Tidy
PUBLIC	?_Xlen@?$basic_string@DU?$char_traits@D@std@@V?$allocator@D@2@@std@@QBEXXZ ; std::basic_string<char,std::char_traits<char>,std::allocator<char> >::_Xlen
PUBLIC	?_Xran@?$basic_string@DU?$char_traits@D@std@@V?$allocator@D@2@@std@@QBEXXZ ; std::basic_string<char,std::char_traits<char>,std::allocator<char> >::_Xran
PUBLIC	??0id@locale@std@@QAE@I@Z			; std::locale::id::id
PUBLIC	??$_Debug_pointer@D@std@@YAXPBDPB_WI@Z		; std::_Debug_pointer<char>
PUBLIC	?generic_category@std@@YAABVerror_category@1@XZ	; std::generic_category
PUBLIC	?system_category@std@@YAABVerror_category@1@XZ	; std::system_category
PUBLIC	??0error_category@std@@QAE@XZ			; std::error_category::error_category
PUBLIC	??1error_category@std@@UAE@XZ			; std::error_category::~error_category
PUBLIC	?default_error_condition@error_category@std@@UBE?AVerror_condition@2@H@Z ; std::error_category::default_error_condition
PUBLIC	?equivalent@error_category@std@@UBE_NHABVerror_condition@2@@Z ; std::error_category::equivalent
PUBLIC	?equivalent@error_category@std@@UBE_NABVerror_code@2@H@Z ; std::error_category::equivalent
PUBLIC	??8error_category@std@@QBE_NABV01@@Z		; std::error_category::operator==
PUBLIC	??_Gerror_category@std@@UAEPAXI@Z		; std::error_category::`scalar deleting destructor'
PUBLIC	?value@error_code@std@@QBEHXZ			; std::error_code::value
PUBLIC	?category@error_code@std@@QBEABVerror_category@2@XZ ; std::error_code::category
PUBLIC	??0error_condition@std@@QAE@HABVerror_category@1@@Z ; std::error_condition::error_condition
PUBLIC	?value@error_condition@std@@QBEHXZ		; std::error_condition::value
PUBLIC	?category@error_condition@std@@QBEABVerror_category@2@XZ ; std::error_condition::category
PUBLIC	??8error_condition@std@@QBE_NABV01@@Z		; std::error_condition::operator==
PUBLIC	??0_Generic_error_category@std@@QAE@XZ		; std::_Generic_error_category::_Generic_error_category
PUBLIC	?name@_Generic_error_category@std@@UBEPBDXZ	; std::_Generic_error_category::name
PUBLIC	?message@_Generic_error_category@std@@UBE?AV?$basic_string@DU?$char_traits@D@std@@V?$allocator@D@2@@2@H@Z ; std::_Generic_error_category::message
PUBLIC	??1_Generic_error_category@std@@UAE@XZ		; std::_Generic_error_category::~_Generic_error_category
PUBLIC	??_G_Generic_error_category@std@@UAEPAXI@Z	; std::_Generic_error_category::`scalar deleting destructor'
PUBLIC	??0_Iostream_error_category@std@@QAE@XZ		; std::_Iostream_error_category::_Iostream_error_category
PUBLIC	?name@_Iostream_error_category@std@@UBEPBDXZ	; std::_Iostream_error_category::name
PUBLIC	?message@_Iostream_error_category@std@@UBE?AV?$basic_string@DU?$char_traits@D@std@@V?$allocator@D@2@@2@H@Z ; std::_Iostream_error_category::message
PUBLIC	??1_Iostream_error_category@std@@UAE@XZ		; std::_Iostream_error_category::~_Iostream_error_category
PUBLIC	??_G_Iostream_error_category@std@@UAEPAXI@Z	; std::_Iostream_error_category::`scalar deleting destructor'
PUBLIC	??0_System_error_category@std@@QAE@XZ		; std::_System_error_category::_System_error_category
PUBLIC	?name@_System_error_category@std@@UBEPBDXZ	; std::_System_error_category::name
PUBLIC	?message@_System_error_category@std@@UBE?AV?$basic_string@DU?$char_traits@D@std@@V?$allocator@D@2@@2@H@Z ; std::_System_error_category::message
PUBLIC	?default_error_condition@_System_error_category@std@@UBE?AVerror_condition@2@H@Z ; std::_System_error_category::default_error_condition
PUBLIC	??1_System_error_category@std@@UAE@XZ		; std::_System_error_category::~_System_error_category
PUBLIC	??_G_System_error_category@std@@UAEPAXI@Z	; std::_System_error_category::`scalar deleting destructor'
PUBLIC	?ObjectName@gen@@YAPBDXZ			; gen::ObjectName
PUBLIC	??0CFatalException@gen@@QAE@PBD0H@Z		; gen::CFatalException::CFatalException
PUBLIC	??0CFatalException@gen@@QAE@PBD00@Z		; gen::CFatalException::CFatalException
PUBLIC	??1CFatalException@gen@@QAE@XZ			; gen::CFatalException::~CFatalException
PUBLIC	??0CFatalException@gen@@QAE@ABV01@@Z		; gen::CFatalException::CFatalException
PUBLIC	?Abs@gen@@YAIH@Z				; gen::Abs
PUBLIC	?Abs@gen@@YAMM@Z				; gen::Abs
PUBLIC	?Sqrt@gen@@YAMM@Z				; gen::Sqrt
PUBLIC	?Sin@gen@@YAMM@Z				; gen::Sin
PUBLIC	?Cos@gen@@YAMM@Z				; gen::Cos
PUBLIC	?ACos@gen@@YAMM@Z				; gen::ACos
PUBLIC	?ATan@gen@@YAMMM@Z				; gen::ATan
PUBLIC	?InvSqrt@gen@@YAMM@Z				; gen::InvSqrt
PUBLIC	?SinCos@gen@@YAXMPAM0@Z				; gen::SinCos
PUBLIC	?IsZero@gen@@YA_NMM@Z				; gen::IsZero
PUBLIC	?AreEqual@gen@@YA_NMMI@Z			; gen::AreEqual
PUBLIC	??0CVector3@gen@@QAE@XZ				; gen::CVector3::CVector3
PUBLIC	??0CVector3@gen@@QAE@MMM@Z			; gen::CVector3::CVector3
PUBLIC	??0CVector3@gen@@QAE@ABV01@@Z			; gen::CVector3::CVector3
PUBLIC	??4CVector3@gen@@QAEAAV01@ABV01@@Z		; gen::CVector3::operator=
PUBLIC	?Set@CVector3@gen@@QAEXMMM@Z			; gen::CVector3::Set
PUBLIC	?IsZero@CVector3@gen@@QBE_NXZ			; gen::CVector3::IsZero
PUBLIC	??Ggen@@YA?AVCVector3@0@ABV10@0@Z		; gen::operator-
PUBLIC	??Ggen@@YA?AVCVector3@0@ABV10@@Z		; gen::operator-
PUBLIC	??Dgen@@YA?AVCVector3@0@ABV10@M@Z		; gen::operator*
PUBLIC	?Cross@gen@@YA?AVCVector3@1@ABV21@0@Z		; gen::Cross
PUBLIC	??0CMatrix4x4@gen@@QAE@XZ			; gen::CMatrix4x4::CMatrix4x4
PUBLIC	??0CMatrix4x4@gen@@QAE@MMMMMMMMMMMMMMMM@Z	; gen::CMatrix4x4::CMatrix4x4
PUBLIC	??0CMatrix4x4@gen@@QAE@PBM_N@Z			; gen::CMatrix4x4::CMatrix4x4
PUBLIC	??0CMatrix4x4@gen@@QAE@ABVCVector4@1@000_N@Z	; gen::CMatrix4x4::CMatrix4x4
PUBLIC	??0CMatrix4x4@gen@@QAE@ABVCVector3@1@000_N@Z	; gen::CMatrix4x4::CMatrix4x4
PUBLIC	??0CMatrix4x4@gen@@QAE@ABVCVector3@1@@Z		; gen::CMatrix4x4::CMatrix4x4
PUBLIC	??0CMatrix4x4@gen@@QAE@ABVCVector3@1@0W4ERotationOrder@1@0@Z ; gen::CMatrix4x4::CMatrix4x4
PUBLIC	??0CMatrix4x4@gen@@QAE@ABVCQuaternion@1@ABVCVector3@1@1@Z ; gen::CMatrix4x4::CMatrix4x4
PUBLIC	??0CMatrix4x4@gen@@QAE@ABVCVector3@1@M00@Z	; gen::CMatrix4x4::CMatrix4x4
PUBLIC	??0CMatrix4x4@gen@@QAE@ABVCMatrix2x2@1@ABVCVector2@1@@Z ; gen::CMatrix4x4::CMatrix4x4
PUBLIC	??0CMatrix4x4@gen@@QAE@ABVCMatrix3x3@1@ABVCVector3@1@@Z ; gen::CMatrix4x4::CMatrix4x4
PUBLIC	??0CMatrix4x4@gen@@QAE@ABV01@@Z			; gen::CMatrix4x4::CMatrix4x4
PUBLIC	??4CMatrix4x4@gen@@QAEAAV01@ABV01@@Z		; gen::CMatrix4x4::operator=
PUBLIC	?Set@CMatrix4x4@gen@@QAEXMMMMMMMMMMMMMMMM@Z	; gen::CMatrix4x4::Set
PUBLIC	?Set@CMatrix4x4@gen@@QAEXPBM_N@Z		; gen::CMatrix4x4::Set
PUBLIC	?GetRow@CMatrix4x4@gen@@QBE?AVCVector4@2@I@Z	; gen::CMatrix4x4::GetRow
PUBLIC	?GetColumn@CMatrix4x4@gen@@QBE?AVCVector4@2@I@Z	; gen::CMatrix4x4::GetColumn
PUBLIC	?SetRow@CMatrix4x4@gen@@QAEXIABVCVector4@2@@Z	; gen::CMatrix4x4::SetRow
PUBLIC	?SetRow@CMatrix4x4@gen@@QAEXIABVCVector3@2@@Z	; gen::CMatrix4x4::SetRow
PUBLIC	?SetColumn@CMatrix4x4@gen@@QAEXIABVCVector4@2@@Z ; gen::CMatrix4x4::SetColumn
PUBLIC	?SetColumn@CMatrix4x4@gen@@QAEXIABVCVector3@2@@Z ; gen::CMatrix4x4::SetColumn
PUBLIC	?SetRows@CMatrix4x4@gen@@QAEXABVCVector4@2@000@Z ; gen::CMatrix4x4::SetRows
PUBLIC	?SetRows@CMatrix4x4@gen@@QAEXABVCVector3@2@000@Z ; gen::CMatrix4x4::SetRows
PUBLIC	?SetColumns@CMatrix4x4@gen@@QAEXABVCVector4@2@000@Z ; gen::CMatrix4x4::SetColumns
PUBLIC	?SetColumns@CMatrix4x4@gen@@QAEXABVCVector3@2@000@Z ; gen::CMatrix4x4::SetColumns
PUBLIC	??ACMatrix4x4@gen@@QAEAAVCVector4@1@I@Z		; gen::CMatrix4x4::operator[]
PUBLIC	??ACMatrix4x4@gen@@QBEABVCVector4@1@I@Z		; gen::CMatrix4x4::operator[]
PUBLIC	?MakeAffineEuler@CMatrix4x4@gen@@QAEXABVCVector3@2@0W4ERotationOrder@2@0@Z ; gen::CMatrix4x4::MakeAffineEuler
PUBLIC	?MakeAffineQuaternion@CMatrix4x4@gen@@QAEXABVCQuaternion@2@ABVCVector3@2@1@Z ; gen::CMatrix4x4::MakeAffineQuaternion
PUBLIC	?MakeAffineAxisAngle@CMatrix4x4@gen@@QAEXABVCVector3@2@M00@Z ; gen::CMatrix4x4::MakeAffineAxisAngle
PUBLIC	?DecomposeAffineEuler@CMatrix4x4@gen@@QBEXPAVCVector3@2@00W4ERotationOrder@2@@Z ; gen::CMatrix4x4::DecomposeAffineEuler
PUBLIC	?DecomposeAffineQuaternion@CMatrix4x4@gen@@QBEXPAVCVector3@2@PAVCQuaternion@2@0@Z ; gen::CMatrix4x4::DecomposeAffineQuaternion
PUBLIC	?DecomposeAffineAxisAngle@CMatrix4x4@gen@@QBEXPAVCVector3@2@0PAM0@Z ; gen::CMatrix4x4::DecomposeAffineAxisAngle
PUBLIC	?GetPosition@CMatrix4x4@gen@@QBE?AVCVector3@2@XZ ; gen::CMatrix4x4::GetPosition
PUBLIC	?GetScale@CMatrix4x4@gen@@QBE?AVCVector3@2@XZ	; gen::CMatrix4x4::GetScale
PUBLIC	?SetScaleX@CMatrix4x4@gen@@QAEXM@Z		; gen::CMatrix4x4::SetScaleX
PUBLIC	?SetScaleY@CMatrix4x4@gen@@QAEXM@Z		; gen::CMatrix4x4::SetScaleY
PUBLIC	?SetScaleZ@CMatrix4x4@gen@@QAEXM@Z		; gen::CMatrix4x4::SetScaleZ
PUBLIC	?SetScale@CMatrix4x4@gen@@QAEXABVCVector3@2@@Z	; gen::CMatrix4x4::SetScale
PUBLIC	?SetScale@CMatrix4x4@gen@@QAEXM@Z		; gen::CMatrix4x4::SetScale
PUBLIC	?IsIdentity@CMatrix4x4@gen@@QBE_NXZ		; gen::CMatrix4x4::IsIdentity
PUBLIC	?IsOrthogonal3x3@CMatrix4x4@gen@@QBE_NXZ	; gen::CMatrix4x4::IsOrthogonal3x3
PUBLIC	?IsOrthonormal3x3@CMatrix4x4@gen@@QBE_NXZ	; gen::CMatrix4x4::IsOrthonormal3x3
PUBLIC	?Orthogonalise3x3@CMatrix4x4@gen@@QAEXABVCVector3@2@@Z ; gen::CMatrix4x4::Orthogonalise3x3
PUBLIC	?Transpose@CMatrix4x4@gen@@QAEXXZ		; gen::CMatrix4x4::Transpose
PUBLIC	?InvertRotTrans@CMatrix4x4@gen@@QAEXXZ		; gen::CMatrix4x4::InvertRotTrans
PUBLIC	?InvertRotTransScale@CMatrix4x4@gen@@QAEXXZ	; gen::CMatrix4x4::InvertRotTransScale
PUBLIC	?InvertAffine@CMatrix4x4@gen@@QAEXXZ		; gen::CMatrix4x4::InvertAffine
PUBLIC	?Cofactor@CMatrix4x4@gen@@QAEMII@Z		; gen::CMatrix4x4::Cofactor
PUBLIC	?Invert@CMatrix4x4@gen@@QAEXXZ			; gen::CMatrix4x4::Invert
PUBLIC	?MakeIdentity@CMatrix4x4@gen@@QAEXXZ		; gen::CMatrix4x4::MakeIdentity
PUBLIC	?MakeTranslation@CMatrix4x4@gen@@QAEXABVCVector3@2@@Z ; gen::CMatrix4x4::MakeTranslation
PUBLIC	?MakeRotationX@CMatrix4x4@gen@@QAEXM@Z		; gen::CMatrix4x4::MakeRotationX
PUBLIC	?MakeRotationY@CMatrix4x4@gen@@QAEXM@Z		; gen::CMatrix4x4::MakeRotationY
PUBLIC	?MakeRotationZ@CMatrix4x4@gen@@QAEXM@Z		; gen::CMatrix4x4::MakeRotationZ
PUBLIC	?MakeRotation@CMatrix4x4@gen@@QAEXVCVector3@2@W4ERotationOrder@2@@Z ; gen::CMatrix4x4::MakeRotation
PUBLIC	?MakeRotation@CMatrix4x4@gen@@QAEXABVCVector3@2@M@Z ; gen::CMatrix4x4::MakeRotation
PUBLIC	?MakeScaling@CMatrix4x4@gen@@QAEXABVCVector3@2@@Z ; gen::CMatrix4x4::MakeScaling
PUBLIC	?MakeScaling@CMatrix4x4@gen@@QAEXM@Z		; gen::CMatrix4x4::MakeScaling
PUBLIC	?FaceTarget@CMatrix4x4@gen@@QAEXABVCVector3@2@0_N@Z ; gen::CMatrix4x4::FaceTarget
PUBLIC	?FaceDirection@CMatrix4x4@gen@@QAEXABVCVector3@2@0_N@Z ; gen::CMatrix4x4::FaceDirection
PUBLIC	??XCMatrix4x4@gen@@QAEAAV01@M@Z			; gen::CMatrix4x4::operator*=
PUBLIC	??_0CMatrix4x4@gen@@QAEAAV01@M@Z		; gen::CMatrix4x4::operator/=
PUBLIC	?Transform@CMatrix4x4@gen@@QBE?AVCVector4@2@ABV32@@Z ; gen::CMatrix4x4::Transform
PUBLIC	?TransformVector@CMatrix4x4@gen@@QBE?AVCVector3@2@ABV32@@Z ; gen::CMatrix4x4::TransformVector
PUBLIC	?TransformPoint@CMatrix4x4@gen@@QBE?AVCVector3@2@ABV32@@Z ; gen::CMatrix4x4::TransformPoint
PUBLIC	??XCMatrix4x4@gen@@QAEAAV01@ABV01@@Z		; gen::CMatrix4x4::operator*=
PUBLIC	?MultiplyAffine@CMatrix4x4@gen@@QAEAAV12@ABV12@@Z ; gen::CMatrix4x4::MultiplyAffine
PUBLIC	??8gen@@YA_NABVCMatrix4x4@0@0@Z			; gen::operator==
PUBLIC	??9gen@@YA_NABVCMatrix4x4@0@0@Z			; gen::operator!=
PUBLIC	??Dgen@@YA?AVCMatrix4x4@0@MABV10@@Z		; gen::operator*
PUBLIC	??Dgen@@YA?AVCMatrix4x4@0@ABV10@M@Z		; gen::operator*
PUBLIC	??Kgen@@YA?AVCMatrix4x4@0@ABV10@M@Z		; gen::operator/
PUBLIC	??Dgen@@YA?AVCVector4@0@ABV10@ABVCMatrix4x4@0@@Z ; gen::operator*
PUBLIC	??Dgen@@YA?AVCVector4@0@ABVCMatrix4x4@0@ABV10@@Z ; gen::operator*
PUBLIC	??Dgen@@YA?AVCMatrix4x4@0@ABV10@0@Z		; gen::operator*
PUBLIC	?MultiplyAffine@gen@@YA?AVCMatrix4x4@1@ABV21@0@Z ; gen::MultiplyAffine
PUBLIC	?Orthogonalise3x3@gen@@YA?AVCMatrix4x4@1@ABV21@ABVCVector3@1@@Z ; gen::Orthogonalise3x3
PUBLIC	?Transpose@gen@@YA?AVCMatrix4x4@1@ABV21@@Z	; gen::Transpose
PUBLIC	?InverseRotTrans@gen@@YA?AVCMatrix4x4@1@ABV21@@Z ; gen::InverseRotTrans
PUBLIC	?InverseRotTransScale@gen@@YA?AVCMatrix4x4@1@ABV21@@Z ; gen::InverseRotTransScale
PUBLIC	?InverseAffine@gen@@YA?AVCMatrix4x4@1@ABV21@@Z	; gen::InverseAffine
PUBLIC	?Cofactor@gen@@YAMABVCMatrix4x4@1@II@Z		; gen::Cofactor
PUBLIC	?Inverse@gen@@YA?AVCMatrix4x4@1@ABV21@@Z	; gen::Inverse
PUBLIC	?MatrixIdentity@gen@@YA?AVCMatrix4x4@1@XZ	; gen::MatrixIdentity
PUBLIC	?MatrixTranslation@gen@@YA?AVCMatrix4x4@1@ABVCVector3@1@@Z ; gen::MatrixTranslation
PUBLIC	?MatrixRotationX@gen@@YA?AVCMatrix4x4@1@M@Z	; gen::MatrixRotationX
PUBLIC	?MatrixRotationY@gen@@YA?AVCMatrix4x4@1@M@Z	; gen::MatrixRotationY
PUBLIC	?MatrixRotationZ@gen@@YA?AVCMatrix4x4@1@M@Z	; gen::MatrixRotationZ
PUBLIC	?MatrixRotation@gen@@YA?AVCMatrix4x4@1@VCVector3@1@W4ERotationOrder@1@@Z ; gen::MatrixRotation
PUBLIC	?MatrixRotation@gen@@YA?AVCMatrix4x4@1@ABVCVector3@1@M@Z ; gen::MatrixRotation
PUBLIC	?MatrixScaling@gen@@YA?AVCMatrix4x4@1@ABVCVector3@1@@Z ; gen::MatrixScaling
PUBLIC	?MatrixScaling@gen@@YA?AVCMatrix4x4@1@M@Z	; gen::MatrixScaling
PUBLIC	?MatrixFaceTarget@gen@@YA?AVCMatrix4x4@1@ABVCVector3@1@00_N@Z ; gen::MatrixFaceTarget
PUBLIC	?MatrixFaceDirection@gen@@YA?AVCMatrix4x4@1@ABVCVector3@1@00_N@Z ; gen::MatrixFaceDirection
PUBLIC	??0CVector4@gen@@QAE@XZ				; gen::CVector4::CVector4
PUBLIC	??0CVector4@gen@@QAE@MMMM@Z			; gen::CVector4::CVector4
PUBLIC	??0CVector4@gen@@QAE@PBM@Z			; gen::CVector4::CVector4
PUBLIC	??0CVector4@gen@@QAE@ABV01@@Z			; gen::CVector4::CVector4
PUBLIC	??ACVector4@gen@@QAEAAMI@Z			; gen::CVector4::operator[]
PUBLIC	??ACVector4@gen@@QBEABMI@Z			; gen::CVector4::operator[]
PUBLIC	??$construct@PADAAPAD@?$_Wrap_alloc@V?$allocator@D@std@@@std@@QAEXPAPADAAPAD@Z ; std::_Wrap_alloc<std::allocator<char> >::construct<char *,char * &>
PUBLIC	??$destroy@PAD@?$_Wrap_alloc@V?$allocator@D@std@@@std@@QAEXPAPAD@Z ; std::_Wrap_alloc<std::allocator<char> >::destroy<char *>
PUBLIC	??$addressof@D@std@@YAPADAAD@Z			; std::addressof<char>
PUBLIC	??0?$allocator@U_Container_proxy@std@@@std@@QAE@XZ ; std::allocator<std::_Container_proxy>::allocator<std::_Container_proxy>
PUBLIC	?deallocate@?$allocator@U_Container_proxy@std@@@std@@QAEXPAU_Container_proxy@2@I@Z ; std::allocator<std::_Container_proxy>::deallocate
PUBLIC	?allocate@?$allocator@U_Container_proxy@std@@@std@@QAEPAU_Container_proxy@2@I@Z ; std::allocator<std::_Container_proxy>::allocate
PUBLIC	??$construct@U_Container_proxy@std@@U12@@?$allocator@U_Container_proxy@std@@@std@@QAEXPAU_Container_proxy@1@$$QAU21@@Z ; std::allocator<std::_Container_proxy>::construct<std::_Container_proxy,std::_Container_proxy>
PUBLIC	??$destroy@U_Container_proxy@std@@@?$allocator@U_Container_proxy@std@@@std@@QAEXPAU_Container_proxy@1@@Z ; std::allocator<std::_Container_proxy>::destroy<std::_Container_proxy>
PUBLIC	??$_Allocate@U_Container_proxy@std@@@std@@YAPAU_Container_proxy@0@IPAU10@@Z ; std::_Allocate<std::_Container_proxy>
PUBLIC	??$_Allocate@D@std@@YAPADIPAD@Z			; std::_Allocate<char>
PUBLIC	??$forward@AAPAD@std@@YAAAPADAAPAD@Z		; std::forward<char * &>
PUBLIC	??$construct@PADAAPAD@?$allocator_traits@V?$allocator@D@std@@@std@@SAXAAV?$allocator@D@1@PAPADAAPAD@Z ; std::allocator_traits<std::allocator<char> >::construct<char *,char * &>
PUBLIC	??$destroy@PAD@?$allocator_traits@V?$allocator@D@std@@@std@@SAXAAV?$allocator@D@1@PAPAD@Z ; std::allocator_traits<std::allocator<char> >::destroy<char *>
PUBLIC	??$forward@U_Container_proxy@std@@@std@@YA$$QAU_Container_proxy@0@AAU10@@Z ; std::forward<std::_Container_proxy>
PUBLIC	??$construct@PADAAPAD@?$allocator@D@std@@QAEXPAPADAAPAD@Z ; std::allocator<char>::construct<char *,char * &>
PUBLIC	??$destroy@PAD@?$allocator@D@std@@QAEXPAPAD@Z	; std::allocator<char>::destroy<char *>
PUBLIC	?npos@?$basic_string@DU?$char_traits@D@std@@V?$allocator@D@2@@std@@2IB ; std::basic_string<char,std::char_traits<char>,std::allocator<char> >::npos
PUBLIC	??_C@_00CNPNBAHC@?$AA@				; `string'
PUBLIC	??_7error_category@std@@6B@			; std::error_category::`vftable'
PUBLIC	??_7_Generic_error_category@std@@6B@		; std::_Generic_error_category::`vftable'
PUBLIC	??_C@_07DCLBNMLN@generic?$AA@			; `string'
PUBLIC	??_C@_0O@BFJCFAAK@unknown?5error?$AA@		; `string'
PUBLIC	??_7_Iostream_error_category@std@@6B@		; std::_Iostream_error_category::`vftable'
PUBLIC	??_C@_08LLGCOLLL@iostream?$AA@			; `string'
PUBLIC	??_C@_0BG@PADBLCHM@iostream?5stream?5error?$AA@	; `string'
PUBLIC	??_7_System_error_category@std@@6B@		; std::_System_error_category::`vftable'
PUBLIC	??_C@_06FHFOAHML@system?$AA@			; `string'
PUBLIC	?_Generic_object@?$_Error_objects@H@std@@2V_Generic_error_category@2@A ; std::_Error_objects<int>::_Generic_object
PUBLIC	?_Iostream_object@?$_Error_objects@H@std@@2V_Iostream_error_category@2@A ; std::_Error_objects<int>::_Iostream_object
PUBLIC	?_System_object@?$_Error_objects@H@std@@2V_System_error_category@2@A ; std::_Error_objects<int>::_System_object
PUBLIC	?id@?$num_put@DV?$back_insert_iterator@V?$basic_string@DU?$char_traits@D@std@@V?$allocator@D@2@@std@@@std@@@std@@2V0locale@2@A ; std::num_put<char,std::back_insert_iterator<std::basic_string<char,std::char_traits<char>,std::allocator<char> > > >::id
PUBLIC	?id@?$num_put@_WV?$back_insert_iterator@V?$basic_string@_WU?$char_traits@_W@std@@V?$allocator@_W@2@@std@@@std@@@std@@2V0locale@2@A ; std::num_put<wchar_t,std::back_insert_iterator<std::basic_string<wchar_t,std::char_traits<wchar_t>,std::allocator<wchar_t> > > >::id
PUBLIC	??_C@_0CB@NBMGHEOM@Visual?5C?$CL?$CL?58?40?5?$CI2005?$CJ?5or?5greater@ ; `string'
PUBLIC	??_C@_01KICIPPFI@?2?$AA@			; `string'
PUBLIC	??_C@_01EEMJAFIK@?6?$AA@			; `string'
PUBLIC	??_C@_0BE@HBKCGNOA@Unhandled?5Exception?$AA@	; `string'
PUBLIC	?__LINE__Var@?1??InvSqrt@gen@@YAMM@Z@4JA	; `gen::InvSqrt'::`2'::__LINE__Var
PUBLIC	__TI1?AVCFatalException@gen@@
PUBLIC	__CTA1?AVCFatalException@gen@@
PUBLIC	??_R0?AVCFatalException@gen@@@8			; gen::CFatalException `RTTI Type Descriptor'
PUBLIC	__CT??_R0?AVCFatalException@gen@@@8??0CFatalException@gen@@QAE@ABV01@@Z88
PUBLIC	??_C@_0EE@DHOCJGL@c?3?2users?2simon?2documents?2github?2@ ; `string'
PUBLIC	??_C@_0BC@DBAKKFEN@Invalid?5parameter?$AA@	; `string'
PUBLIC	??_C@_0N@HFKAOJGM@gen?3?3InvSqrt?$AA@		; `string'
PUBLIC	??_C@_0BA@KCKIPOBF@gen?3?3operator?5?1?$AA@	; `string'
PUBLIC	?kIdentity@CMatrix4x4@gen@@2V12@B		; gen::CMatrix4x4::kIdentity
PUBLIC	??_C@_0BA@EJDDFENM@Singular?5matrix?$AA@	; `string'
PUBLIC	??_C@_0EE@NIOAKDJB@c?3?2users?2simon?2documents?2github?2@ ; `string'
PUBLIC	??_C@_0BI@HNLOPNMD@gen?3?3CVector4?3?3CVector4?$AA@ ; `string'
PUBLIC	?__LINE__Var@?1???0CMatrix4x4@gen@@QAE@PBM_N@Z@4JA ; `gen::CMatrix4x4::CMatrix4x4'::`2'::__LINE__Var
PUBLIC	??_C@_0EI@POGHFJCD@c?3?2users?2simon?2documents?2github?2@ ; `string'
PUBLIC	??_C@_0BM@LAPKAOOM@gen?3?3CMatrix4x4?3?3CMatrix4x4?$AA@ ; `string'
PUBLIC	?__LINE__Var@?1??Set@CMatrix4x4@gen@@QAEXPBM_N@Z@4JA ; `gen::CMatrix4x4::Set'::`2'::__LINE__Var
PUBLIC	??_C@_0BF@LLJNGHHJ@gen?3?3CMatrix4x4?3?3Set?$AA@ ; `string'
PUBLIC	?__LINE__Var@?1??GetRow@CMatrix4x4@gen@@QBE?AVCVector4@3@I@Z@4JA ; `gen::CMatrix4x4::GetRow'::`2'::__LINE__Var
PUBLIC	??_C@_0BI@COECFNCF@gen?3?3CMatrix4x4?3?3GetRow?$AA@ ; `string'
PUBLIC	?__LINE__Var@?1??GetColumn@CMatrix4x4@gen@@QBE?AVCVector4@3@I@Z@4JA ; `gen::CMatrix4x4::GetColumn'::`2'::__LINE__Var
PUBLIC	??_C@_0BL@JIEIPIJN@gen?3?3CMatrix4x4?3?3GetColumn?$AA@ ; `string'
PUBLIC	?__LINE__Var@?1??SetRow@CMatrix4x4@gen@@QAEXIABVCVector4@3@@Z@4JA ; `gen::CMatrix4x4::SetRow'::`2'::__LINE__Var
PUBLIC	??_C@_0BI@LNNDOFPI@gen?3?3CMatrix4x4?3?3SetRow?$AA@ ; `string'
PUBLIC	?__LINE__Var@?1??SetRow@CMatrix4x4@gen@@QAEXIABVCVector3@3@@Z@4JA ; `gen::CMatrix4x4::SetRow'::`2'::__LINE__Var
PUBLIC	?__LINE__Var@?1??SetColumn@CMatrix4x4@gen@@QAEXIABVCVector4@3@@Z@4JA ; `gen::CMatrix4x4::SetColumn'::`2'::__LINE__Var
PUBLIC	??_C@_0BL@LGANNJAP@gen?3?3CMatrix4x4?3?3SetColumn?$AA@ ; `string'
PUBLIC	?__LINE__Var@?1??SetColumn@CMatrix4x4@gen@@QAEXIABVCVector3@3@@Z@4JA ; `gen::CMatrix4x4::SetColumn'::`2'::__LINE__Var
PUBLIC	?__LINE__Var@?1??DecomposeAffineEuler@CMatrix4x4@gen@@QBEXPAVCVector3@3@00W4ERotationOrder@3@@Z@4JA ; `gen::CMatrix4x4::DecomposeAffineEuler'::`2'::__LINE__Var
PUBLIC	??_C@_0CG@HIGNFPPJ@gen?3?3CMatrix4x4?3?3DecomposeAffine@ ; `string'
PUBLIC	?__LINE__Var@?1??DecomposeAffineQuaternion@CMatrix4x4@gen@@QBEXPAVCVector3@3@PAVCQuaternion@3@0@Z@4JA ; `gen::CMatrix4x4::DecomposeAffineQuaternion'::`2'::__LINE__Var
PUBLIC	?__LINE__Var@?1??DecomposeAffineAxisAngle@CMatrix4x4@gen@@QBEXPAVCVector3@3@0PAM0@Z@4JA ; `gen::CMatrix4x4::DecomposeAffineAxisAngle'::`2'::__LINE__Var
PUBLIC	?__LINE__Var@?1??Orthogonalise3x3@CMatrix4x4@gen@@QAEXABVCVector3@3@@Z@4JA ; `gen::CMatrix4x4::Orthogonalise3x3'::`2'::__LINE__Var
PUBLIC	??_C@_0CC@BIGHOAJP@gen?3?3CMatrix4x4?3?3Orthogonalise3x@ ; `string'
PUBLIC	?__LINE__Var@?1??Orthogonalise3x3@gen@@YA?AVCMatrix4x4@2@ABV32@ABVCVector3@2@@Z@4JA ; `gen::Orthogonalise3x3'::`2'::__LINE__Var
PUBLIC	??_C@_0BG@EKHHHFFK@gen?3?3Orthogonalise3x3?$AA@	; `string'
PUBLIC	?__LINE__Var@?1??InvertRotTransScale@CMatrix4x4@gen@@QAEXXZ@4JA ; `gen::CMatrix4x4::InvertRotTransScale'::`2'::__LINE__Var
PUBLIC	??_C@_0CF@KNEDKMPM@gen?3?3CMatrix4x4?3?3InvertRotTransS@ ; `string'
PUBLIC	?__LINE__Var@?1??InverseRotTransScale@gen@@YA?AVCMatrix4x4@2@ABV32@@Z@4JA ; `gen::InverseRotTransScale'::`2'::__LINE__Var
PUBLIC	??_C@_0BK@PCEHJOFI@gen?3?3InverseRotTransScale?$AA@ ; `string'
PUBLIC	?__LINE__Var@?1??InverseAffine@gen@@YA?AVCMatrix4x4@2@ABV32@@Z@4JA ; `gen::InverseAffine'::`2'::__LINE__Var
PUBLIC	??_C@_0BD@PPGPBHLN@gen?3?3InverseAffine?$AA@	; `string'
PUBLIC	?__LINE__Var@?1??Inverse@gen@@YA?AVCMatrix4x4@2@ABV32@@Z@4JA ; `gen::Inverse'::`2'::__LINE__Var
PUBLIC	??_C@_0N@BLGPECID@gen?3?3Inverse?$AA@		; `string'
PUBLIC	?__LINE__Var@?1??MakeRotation@CMatrix4x4@gen@@QAEXVCVector3@3@W4ERotationOrder@3@@Z@4JA ; `gen::CMatrix4x4::MakeRotation'::`2'::__LINE__Var
PUBLIC	??_C@_0BO@EDHCIBNI@gen?3?3CMatrix4x4?3?3MakeRotation?$AA@ ; `string'
PUBLIC	?__LINE__Var@?1??MakeRotation@CMatrix4x4@gen@@QAEXABVCVector3@3@M@Z@4JA ; `gen::CMatrix4x4::MakeRotation'::`2'::__LINE__Var
PUBLIC	??_C@_0BB@OPALDBID@Zero?5length?5axis?$AA@	; `string'
PUBLIC	?__LINE__Var@?1??MatrixRotation@gen@@YA?AVCMatrix4x4@2@VCVector3@2@W4ERotationOrder@2@@Z@4JA ; `gen::MatrixRotation'::`2'::__LINE__Var
PUBLIC	??_C@_0BE@LMIKLAKG@gen?3?3MatrixRotation?$AA@	; `string'
PUBLIC	?__LINE__Var@?1??MatrixRotation@gen@@YA?AVCMatrix4x4@2@ABVCVector3@2@M@Z@4JA ; `gen::MatrixRotation'::`2'::__LINE__Var
PUBLIC	?__LINE__Var@?1???_0CMatrix4x4@gen@@QAEAAV12@M@Z@4JA ; `gen::CMatrix4x4::operator/='::`2'::__LINE__Var
PUBLIC	??_C@_0BN@GEEHGKKB@gen?3?3CMatrix4x4?3?3operator?5?1?$DN?$AA@ ; `string'
PUBLIC	?__LINE__Var@?1???Kgen@@YA?AVCMatrix4x4@1@ABV21@M@Z@4JA ; `gen::operator/'::`2'::__LINE__Var
PUBLIC	??_C@_1IO@JLPDPDPD@?$AAc?$AA?3?$AA?2?$AAp?$AAr?$AAo?$AAg?$AAr?$AAa?$AAm?$AA?5?$AAf?$AAi?$AAl?$AAe?$AAs?$AA?5?$AA?$CI?$AAx?$AA8?$AA6?$AA?$CJ?$AA?2?$AAm?$AAi?$AAc?$AAr?$AAo?$AAs?$AAo?$AAf?$AAt@ ; `string'
PUBLIC	?id@?$numpunct@D@std@@2V0locale@2@A		; std::numpunct<char>::id
PUBLIC	?id@?$numpunct@_W@std@@2V0locale@2@A		; std::numpunct<wchar_t>::id
PUBLIC	??_C@_0BA@JFNIOLAK@string?5too?5long?$AA@	; `string'
PUBLIC	??_C@_0BI@CFPLBAOH@invalid?5string?5position?$AA@ ; `string'
PUBLIC	??_C@_1CK@EOPGIILJ@?$AAi?$AAn?$AAv?$AAa?$AAl?$AAi?$AAd?$AA?5?$AAn?$AAu?$AAl?$AAl?$AA?5?$AAp?$AAo?$AAi?$AAn?$AAt?$AAe?$AAr?$AA?$AA@ ; `string'
PUBLIC	??_R4error_category@std@@6B@			; std::error_category::`RTTI Complete Object Locator'
PUBLIC	??_R0?AVerror_category@std@@@8			; std::error_category `RTTI Type Descriptor'
PUBLIC	??_R3error_category@std@@8			; std::error_category::`RTTI Class Hierarchy Descriptor'
PUBLIC	??_R2error_category@std@@8			; std::error_category::`RTTI Base Class Array'
PUBLIC	??_R1A@?0A@EA@error_category@std@@8		; std::error_category::`RTTI Base Class Descriptor at (0,-1,0,64)'
PUBLIC	??_R4_Generic_error_category@std@@6B@		; std::_Generic_error_category::`RTTI Complete Object Locator'
PUBLIC	??_R0?AV_Generic_error_category@std@@@8		; std::_Generic_error_category `RTTI Type Descriptor'
PUBLIC	??_R3_Generic_error_category@std@@8		; std::_Generic_error_category::`RTTI Class Hierarchy Descriptor'
PUBLIC	??_R2_Generic_error_category@std@@8		; std::_Generic_error_category::`RTTI Base Class Array'
PUBLIC	??_R1A@?0A@EA@_Generic_error_category@std@@8	; std::_Generic_error_category::`RTTI Base Class Descriptor at (0,-1,0,64)'
PUBLIC	??_R4_Iostream_error_category@std@@6B@		; std::_Iostream_error_category::`RTTI Complete Object Locator'
PUBLIC	??_R0?AV_Iostream_error_category@std@@@8	; std::_Iostream_error_category `RTTI Type Descriptor'
PUBLIC	??_R3_Iostream_error_category@std@@8		; std::_Iostream_error_category::`RTTI Class Hierarchy Descriptor'
PUBLIC	??_R2_Iostream_error_category@std@@8		; std::_Iostream_error_category::`RTTI Base Class Array'
PUBLIC	??_R1A@?0A@EA@_Iostream_error_category@std@@8	; std::_Iostream_error_category::`RTTI Base Class Descriptor at (0,-1,0,64)'
PUBLIC	??_R4_System_error_category@std@@6B@		; std::_System_error_category::`RTTI Complete Object Locator'
PUBLIC	??_R0?AV_System_error_category@std@@@8		; std::_System_error_category `RTTI Type Descriptor'
PUBLIC	??_R3_System_error_category@std@@8		; std::_System_error_category::`RTTI Class Hierarchy Descriptor'
PUBLIC	??_R2_System_error_category@std@@8		; std::_System_error_category::`RTTI Base Class Array'
PUBLIC	??_R1A@?0A@EA@_System_error_category@std@@8	; std::_System_error_category::`RTTI Base Class Descriptor at (0,-1,0,64)'
PUBLIC	__real@00000000
PUBLIC	__real@3f000000
PUBLIC	__real@3f800000
PUBLIC	__real@40000000
PUBLIC	__xmm@80000000800000008000000080000000
EXTRN	__purecall:PROC
EXTRN	??2@YAPAXI@Z:PROC				; operator new
EXTRN	??3@YAXPAX@Z:PROC				; operator delete
EXTRN	_atexit:PROC
EXTRN	??0_Lockit@std@@QAE@H@Z:PROC			; std::_Lockit::_Lockit
EXTRN	??1_Lockit@std@@QAE@XZ:PROC			; std::_Lockit::~_Lockit
EXTRN	_abs:PROC
EXTRN	_acos:PROC
EXTRN	_atan2:PROC
EXTRN	_cos:PROC
EXTRN	_fabs:PROC
EXTRN	_sin:PROC
EXTRN	_sqrt:PROC
EXTRN	__hypot:PROC
EXTRN	_memcpy:PROC
EXTRN	_strlen:PROC
EXTRN	_memmove:PROC
EXTRN	?_Debug_message@std@@YAXPB_W0I@Z:PROC		; std::_Debug_message
EXTRN	?_Xbad_alloc@std@@YAXXZ:PROC			; std::_Xbad_alloc
EXTRN	?_Xlength_error@std@@YAXPBD@Z:PROC		; std::_Xlength_error
EXTRN	?_Xout_of_range@std@@YAXPBD@Z:PROC		; std::_Xout_of_range
EXTRN	??_Eerror_category@std@@UAEPAXI@Z:PROC		; std::error_category::`vector deleting destructor'
EXTRN	?_Syserror_map@std@@YAPBDH@Z:PROC		; std::_Syserror_map
EXTRN	?_Winerror_map@std@@YAPBDH@Z:PROC		; std::_Winerror_map
EXTRN	??_E_Generic_error_category@std@@UAEPAXI@Z:PROC	; std::_Generic_error_category::`vector deleting destructor'
EXTRN	??_E_Iostream_error_category@std@@UAEPAXI@Z:PROC ; std::_Iostream_error_category::`vector deleting destructor'
EXTRN	??_E_System_error_category@std@@UAEPAXI@Z:PROC	; std::_System_error_category::`vector deleting destructor'
EXTRN	?AppendToCallStack@CFatalException@gen@@QAEXPBD0_N@Z:PROC ; gen::CFatalException::AppendToCallStack
EXTRN	?Normalise@CVector3@gen@@QAEXXZ:PROC		; gen::CVector3::Normalise
EXTRN	?Normalise@gen@@YA?AVCVector3@1@ABV21@@Z:PROC	; gen::Normalise
EXTRN	@_RTC_CheckStackVars@8:PROC
EXTRN	@__security_check_cookie@4:PROC
EXTRN	__CxxThrowException@8:PROC
EXTRN	__RTC_CheckEsp:PROC
EXTRN	__RTC_InitBase:PROC
EXTRN	__RTC_Shutdown:PROC
EXTRN	___CxxFrameHandler3:PROC
EXTRN	??_7type_info@@6B@:QWORD			; type_info::`vftable'
EXTRN	?kZAxis@CVector3@gen@@2V12@B:BYTE		; gen::CVector3::kZAxis
EXTRN	___security_cookie:DWORD
EXTRN	__fltused:DWORD
_BSS	SEGMENT
_piecewise_construct DB 01H DUP (?)
	ALIGN	4

_allocator_arg DB 01H DUP (?)
_BSS	ENDS
;	COMDAT ?_Generic_object@?$_Error_objects@H@std@@2V_Generic_error_category@2@A
_BSS	SEGMENT
?_Generic_object@?$_Error_objects@H@std@@2V_Generic_error_category@2@A DD 01H DUP (?) ; std::_Error_objects<int>::_Generic_object
_BSS	ENDS
;	COMDAT ?_Iostream_object@?$_Error_objects@H@std@@2V_Iostream_error_category@2@A
_BSS	SEGMENT
?_Iostream_object@?$_Error_objects@H@std@@2V_Iostream_error_category@2@A DD 01H DUP (?) ; std::_Error_objects<int>::_Iostream_object
_BSS	ENDS
;	COMDAT ?_System_object@?$_Error_objects@H@std@@2V_System_error_category@2@A
_BSS	SEGMENT
?_System_object@?$_Error_objects@H@std@@2V_System_error_category@2@A DD 01H DUP (?) ; std::_Error_objects<int>::_System_object
_BSS	ENDS
;	COMDAT ?id@?$num_put@DV?$back_insert_iterator@V?$basic_string@DU?$char_traits@D@std@@V?$allocator@D@2@@std@@@std@@@std@@2V0locale@2@A
_BSS	SEGMENT
?id@?$num_put@DV?$back_insert_iterator@V?$basic_string@DU?$char_traits@D@std@@V?$allocator@D@2@@std@@@std@@@std@@2V0locale@2@A DD 01H DUP (?) ; std::num_put<char,std::back_insert_iterator<std::basic_string<char,std::char_traits<char>,std::allocator<char> > > >::id
_BSS	ENDS
;	COMDAT ?id@?$num_put@_WV?$back_insert_iterator@V?$basic_string@_WU?$char_traits@_W@std@@V?$allocator@_W@2@@std@@@std@@@std@@2V0locale@2@A
_BSS	SEGMENT
?id@?$num_put@_WV?$back_insert_iterator@V?$basic_string@_WU?$char_traits@_W@std@@V?$allocator@_W@2@@std@@@std@@@std@@2V0locale@2@A DD 01H DUP (?) ; std::num_put<wchar_t,std::back_insert_iterator<std::basic_string<wchar_t,std::char_traits<wchar_t>,std::allocator<wchar_t> > > >::id
_BSS	ENDS
_BSS	SEGMENT
	ALIGN	4

_ksCompiler DB	01cH DUP (?)
_ksPathSeparator DB 01cH DUP (?)
_ksNewline DB	01cH DUP (?)
?kIdentity@CMatrix4x4@gen@@2V12@B DB 040H DUP (?)	; gen::CMatrix4x4::kIdentity
_BSS	ENDS
;	COMDAT ?id@?$numpunct@D@std@@2V0locale@2@A
_BSS	SEGMENT
?id@?$numpunct@D@std@@2V0locale@2@A DD 01H DUP (?)	; std::numpunct<char>::id
_BSS	ENDS
;	COMDAT ?id@?$numpunct@_W@std@@2V0locale@2@A
_BSS	SEGMENT
?id@?$numpunct@_W@std@@2V0locale@2@A DD 01H DUP (?)	; std::numpunct<wchar_t>::id
_BSS	ENDS
CRT$XCU	SEGMENT
_piecewise_construct$initializer$ DD FLAT:??__Epiecewise_construct@std@@YAXXZ
CRT$XCU	ENDS
;	COMDAT __xmm@80000000800000008000000080000000
CONST	SEGMENT
__xmm@80000000800000008000000080000000 DB 00H, 00H, 00H, 080H, 00H, 00H, 00H
	DB	080H, 00H, 00H, 00H, 080H, 00H, 00H, 00H, 080H
CONST	ENDS
;	COMDAT __real@40000000
CONST	SEGMENT
__real@40000000 DD 040000000r			; 2
CONST	ENDS
;	COMDAT __real@3f800000
CONST	SEGMENT
__real@3f800000 DD 03f800000r			; 1
CONST	ENDS
;	COMDAT __real@3f000000
CONST	SEGMENT
__real@3f000000 DD 03f000000r			; 0.5
CONST	ENDS
;	COMDAT __real@00000000
CONST	SEGMENT
__real@00000000 DD 000000000r			; 0
CONST	ENDS
;	COMDAT rtc$TMZ
rtc$TMZ	SEGMENT
__RTC_Shutdown.rtc$TMZ DD FLAT:__RTC_Shutdown
rtc$TMZ	ENDS
;	COMDAT rtc$IMZ
rtc$IMZ	SEGMENT
__RTC_InitBase.rtc$IMZ DD FLAT:__RTC_InitBase
rtc$IMZ	ENDS
;	COMDAT ??_R1A@?0A@EA@_System_error_category@std@@8
rdata$r	SEGMENT
??_R1A@?0A@EA@_System_error_category@std@@8 DD FLAT:??_R0?AV_System_error_category@std@@@8 ; std::_System_error_category::`RTTI Base Class Descriptor at (0,-1,0,64)'
	DD	02H
	DD	00H
	DD	0ffffffffH
	DD	00H
	DD	040H
	DD	FLAT:??_R3_System_error_category@std@@8
rdata$r	ENDS
;	COMDAT ??_R2_System_error_category@std@@8
rdata$r	SEGMENT
??_R2_System_error_category@std@@8 DD FLAT:??_R1A@?0A@EA@_System_error_category@std@@8 ; std::_System_error_category::`RTTI Base Class Array'
	DD	FLAT:??_R1A@?0A@EA@_Generic_error_category@std@@8
	DD	FLAT:??_R1A@?0A@EA@error_category@std@@8
rdata$r	ENDS
;	COMDAT ??_R3_System_error_category@std@@8
rdata$r	SEGMENT
??_R3_System_error_category@std@@8 DD 00H		; std::_System_error_category::`RTTI Class Hierarchy Descriptor'
	DD	00H
	DD	03H
	DD	FLAT:??_R2_System_error_category@std@@8
rdata$r	ENDS
;	COMDAT ??_R0?AV_System_error_category@std@@@8
data$r	SEGMENT
??_R0?AV_System_error_category@std@@@8 DD FLAT:??_7type_info@@6B@ ; std::_System_error_category `RTTI Type Descriptor'
	DD	00H
	DB	'.?AV_System_error_category@std@@', 00H
data$r	ENDS
;	COMDAT ??_R4_System_error_category@std@@6B@
rdata$r	SEGMENT
??_R4_System_error_category@std@@6B@ DD 00H		; std::_System_error_category::`RTTI Complete Object Locator'
	DD	00H
	DD	00H
	DD	FLAT:??_R0?AV_System_error_category@std@@@8
	DD	FLAT:??_R3_System_error_category@std@@8
rdata$r	ENDS
;	COMDAT ??_R1A@?0A@EA@_Iostream_error_category@std@@8
rdata$r	SEGMENT
??_R1A@?0A@EA@_Iostream_error_category@std@@8 DD FLAT:??_R0?AV_Iostream_error_category@std@@@8 ; std::_Iostream_error_category::`RTTI Base Class Descriptor at (0,-1,0,64)'
	DD	02H
	DD	00H
	DD	0ffffffffH
	DD	00H
	DD	040H
	DD	FLAT:??_R3_Iostream_error_category@std@@8
rdata$r	ENDS
;	COMDAT ??_R2_Iostream_error_category@std@@8
rdata$r	SEGMENT
??_R2_Iostream_error_category@std@@8 DD FLAT:??_R1A@?0A@EA@_Iostream_error_category@std@@8 ; std::_Iostream_error_category::`RTTI Base Class Array'
	DD	FLAT:??_R1A@?0A@EA@_Generic_error_category@std@@8
	DD	FLAT:??_R1A@?0A@EA@error_category@std@@8
rdata$r	ENDS
;	COMDAT ??_R3_Iostream_error_category@std@@8
rdata$r	SEGMENT
??_R3_Iostream_error_category@std@@8 DD 00H		; std::_Iostream_error_category::`RTTI Class Hierarchy Descriptor'
	DD	00H
	DD	03H
	DD	FLAT:??_R2_Iostream_error_category@std@@8
rdata$r	ENDS
;	COMDAT ??_R0?AV_Iostream_error_category@std@@@8
data$r	SEGMENT
??_R0?AV_Iostream_error_category@std@@@8 DD FLAT:??_7type_info@@6B@ ; std::_Iostream_error_category `RTTI Type Descriptor'
	DD	00H
	DB	'.?AV_Iostream_error_category@std@@', 00H
data$r	ENDS
;	COMDAT ??_R4_Iostream_error_category@std@@6B@
rdata$r	SEGMENT
??_R4_Iostream_error_category@std@@6B@ DD 00H		; std::_Iostream_error_category::`RTTI Complete Object Locator'
	DD	00H
	DD	00H
	DD	FLAT:??_R0?AV_Iostream_error_category@std@@@8
	DD	FLAT:??_R3_Iostream_error_category@std@@8
rdata$r	ENDS
;	COMDAT ??_R1A@?0A@EA@_Generic_error_category@std@@8
rdata$r	SEGMENT
??_R1A@?0A@EA@_Generic_error_category@std@@8 DD FLAT:??_R0?AV_Generic_error_category@std@@@8 ; std::_Generic_error_category::`RTTI Base Class Descriptor at (0,-1,0,64)'
	DD	01H
	DD	00H
	DD	0ffffffffH
	DD	00H
	DD	040H
	DD	FLAT:??_R3_Generic_error_category@std@@8
rdata$r	ENDS
;	COMDAT ??_R2_Generic_error_category@std@@8
rdata$r	SEGMENT
??_R2_Generic_error_category@std@@8 DD FLAT:??_R1A@?0A@EA@_Generic_error_category@std@@8 ; std::_Generic_error_category::`RTTI Base Class Array'
	DD	FLAT:??_R1A@?0A@EA@error_category@std@@8
rdata$r	ENDS
;	COMDAT ??_R3_Generic_error_category@std@@8
rdata$r	SEGMENT
??_R3_Generic_error_category@std@@8 DD 00H		; std::_Generic_error_category::`RTTI Class Hierarchy Descriptor'
	DD	00H
	DD	02H
	DD	FLAT:??_R2_Generic_error_category@std@@8
rdata$r	ENDS
;	COMDAT ??_R0?AV_Generic_error_category@std@@@8
data$r	SEGMENT
??_R0?AV_Generic_error_category@std@@@8 DD FLAT:??_7type_info@@6B@ ; std::_Generic_error_category `RTTI Type Descriptor'
	DD	00H
	DB	'.?AV_Generic_error_category@std@@', 00H
data$r	ENDS
;	COMDAT ??_R4_Generic_error_category@std@@6B@
rdata$r	SEGMENT
??_R4_Generic_error_category@std@@6B@ DD 00H		; std::_Generic_error_category::`RTTI Complete Object Locator'
	DD	00H
	DD	00H
	DD	FLAT:??_R0?AV_Generic_error_category@std@@@8
	DD	FLAT:??_R3_Generic_error_category@std@@8
rdata$r	ENDS
;	COMDAT ??_R1A@?0A@EA@error_category@std@@8
rdata$r	SEGMENT
??_R1A@?0A@EA@error_category@std@@8 DD FLAT:??_R0?AVerror_category@std@@@8 ; std::error_category::`RTTI Base Class Descriptor at (0,-1,0,64)'
	DD	00H
	DD	00H
	DD	0ffffffffH
	DD	00H
	DD	040H
	DD	FLAT:??_R3error_category@std@@8
rdata$r	ENDS
;	COMDAT ??_R2error_category@std@@8
rdata$r	SEGMENT
??_R2error_category@std@@8 DD FLAT:??_R1A@?0A@EA@error_category@std@@8 ; std::error_category::`RTTI Base Class Array'
rdata$r	ENDS
;	COMDAT ??_R3error_category@std@@8
rdata$r	SEGMENT
??_R3error_category@std@@8 DD 00H			; std::error_category::`RTTI Class Hierarchy Descriptor'
	DD	00H
	DD	01H
	DD	FLAT:??_R2error_category@std@@8
rdata$r	ENDS
;	COMDAT ??_R0?AVerror_category@std@@@8
data$r	SEGMENT
??_R0?AVerror_category@std@@@8 DD FLAT:??_7type_info@@6B@ ; std::error_category `RTTI Type Descriptor'
	DD	00H
	DB	'.?AVerror_category@std@@', 00H
data$r	ENDS
;	COMDAT ??_R4error_category@std@@6B@
rdata$r	SEGMENT
??_R4error_category@std@@6B@ DD 00H			; std::error_category::`RTTI Complete Object Locator'
	DD	00H
	DD	00H
	DD	FLAT:??_R0?AVerror_category@std@@@8
	DD	FLAT:??_R3error_category@std@@8
rdata$r	ENDS
;	COMDAT ??_C@_1CK@EOPGIILJ@?$AAi?$AAn?$AAv?$AAa?$AAl?$AAi?$AAd?$AA?5?$AAn?$AAu?$AAl?$AAl?$AA?5?$AAp?$AAo?$AAi?$AAn?$AAt?$AAe?$AAr?$AA?$AA@
CONST	SEGMENT
??_C@_1CK@EOPGIILJ@?$AAi?$AAn?$AAv?$AAa?$AAl?$AAi?$AAd?$AA?5?$AAn?$AAu?$AAl?$AAl?$AA?5?$AAp?$AAo?$AAi?$AAn?$AAt?$AAe?$AAr?$AA?$AA@ DB 'i'
	DB	00H, 'n', 00H, 'v', 00H, 'a', 00H, 'l', 00H, 'i', 00H, 'd', 00H
	DB	' ', 00H, 'n', 00H, 'u', 00H, 'l', 00H, 'l', 00H, ' ', 00H, 'p'
	DB	00H, 'o', 00H, 'i', 00H, 'n', 00H, 't', 00H, 'e', 00H, 'r', 00H
	DB	00H, 00H					; `string'
CONST	ENDS
;	COMDAT ??_C@_0BI@CFPLBAOH@invalid?5string?5position?$AA@
CONST	SEGMENT
??_C@_0BI@CFPLBAOH@invalid?5string?5position?$AA@ DB 'invalid string posi'
	DB	'tion', 00H					; `string'
CONST	ENDS
;	COMDAT ??_C@_0BA@JFNIOLAK@string?5too?5long?$AA@
CONST	SEGMENT
??_C@_0BA@JFNIOLAK@string?5too?5long?$AA@ DB 'string too long', 00H ; `string'
CONST	ENDS
;	COMDAT ??_C@_1IO@JLPDPDPD@?$AAc?$AA?3?$AA?2?$AAp?$AAr?$AAo?$AAg?$AAr?$AAa?$AAm?$AA?5?$AAf?$AAi?$AAl?$AAe?$AAs?$AA?5?$AA?$CI?$AAx?$AA8?$AA6?$AA?$CJ?$AA?2?$AAm?$AAi?$AAc?$AAr?$AAo?$AAs?$AAo?$AAf?$AAt@
CONST	SEGMENT
??_C@_1IO@JLPDPDPD@?$AAc?$AA?3?$AA?2?$AAp?$AAr?$AAo?$AAg?$AAr?$AAa?$AAm?$AA?5?$AAf?$AAi?$AAl?$AAe?$AAs?$AA?5?$AA?$CI?$AAx?$AA8?$AA6?$AA?$CJ?$AA?2?$AAm?$AAi?$AAc?$AAr?$AAo?$AAs?$AAo?$AAf?$AAt@ DB 'c'
	DB	00H, ':', 00H, '\', 00H, 'p', 00H, 'r', 00H, 'o', 00H, 'g', 00H
	DB	'r', 00H, 'a', 00H, 'm', 00H, ' ', 00H, 'f', 00H, 'i', 00H, 'l'
	DB	00H, 'e', 00H, 's', 00H, ' ', 00H, '(', 00H, 'x', 00H, '8', 00H
	DB	'6', 00H, ')', 00H, '\', 00H, 'm', 00H, 'i', 00H, 'c', 00H, 'r'
	DB	00H, 'o', 00H, 's', 00H, 'o', 00H, 'f', 00H, 't', 00H, ' ', 00H
	DB	'v', 00H, 'i', 00H, 's', 00H, 'u', 00H, 'a', 00H, 'l', 00H, ' '
	DB	00H, 's', 00H, 't', 00H, 'u', 00H, 'd', 00H, 'i', 00H, 'o', 00H
	DB	' ', 00H, '1', 00H, '2', 00H, '.', 00H, '0', 00H, '\', 00H, 'v'
	DB	00H, 'c', 00H, '\', 00H, 'i', 00H, 'n', 00H, 'c', 00H, 'l', 00H
	DB	'u', 00H, 'd', 00H, 'e', 00H, '\', 00H, 'x', 00H, 's', 00H, 't'
	DB	00H, 'r', 00H, 'i', 00H, 'n', 00H, 'g', 00H, 00H, 00H ; `string'
CONST	ENDS
;	COMDAT ?__LINE__Var@?1???Kgen@@YA?AVCMatrix4x4@1@ABV21@M@Z@4JA
_DATA	SEGMENT
?__LINE__Var@?1???Kgen@@YA?AVCMatrix4x4@1@ABV21@M@Z@4JA DD 0c07H ; `gen::operator/'::`2'::__LINE__Var
_DATA	ENDS
;	COMDAT ??_C@_0BN@GEEHGKKB@gen?3?3CMatrix4x4?3?3operator?5?1?$DN?$AA@
CONST	SEGMENT
??_C@_0BN@GEEHGKKB@gen?3?3CMatrix4x4?3?3operator?5?1?$DN?$AA@ DB 'gen::CM'
	DB	'atrix4x4::operator /=', 00H			; `string'
CONST	ENDS
;	COMDAT ?__LINE__Var@?1???_0CMatrix4x4@gen@@QAEAAV12@M@Z@4JA
_DATA	SEGMENT
?__LINE__Var@?1???_0CMatrix4x4@gen@@QAEAAV12@M@Z@4JA DD 0be7H ; `gen::CMatrix4x4::operator/='::`2'::__LINE__Var
_DATA	ENDS
;	COMDAT ?__LINE__Var@?1??MatrixRotation@gen@@YA?AVCMatrix4x4@2@ABVCVector3@2@M@Z@4JA
_DATA	SEGMENT
?__LINE__Var@?1??MatrixRotation@gen@@YA?AVCMatrix4x4@2@ABVCVector3@2@M@Z@4JA DD 0a68H ; `gen::MatrixRotation'::`2'::__LINE__Var
_DATA	ENDS
;	COMDAT ??_C@_0BE@LMIKLAKG@gen?3?3MatrixRotation?$AA@
CONST	SEGMENT
??_C@_0BE@LMIKLAKG@gen?3?3MatrixRotation?$AA@ DB 'gen::MatrixRotation', 00H ; `string'
CONST	ENDS
;	COMDAT ?__LINE__Var@?1??MatrixRotation@gen@@YA?AVCMatrix4x4@2@VCVector3@2@W4ERotationOrder@2@@Z@4JA
_DATA	SEGMENT
?__LINE__Var@?1??MatrixRotation@gen@@YA?AVCMatrix4x4@2@VCVector3@2@W4ERotationOrder@2@@Z@4JA DD 09dfH ; `gen::MatrixRotation'::`2'::__LINE__Var
_DATA	ENDS
;	COMDAT ??_C@_0BB@OPALDBID@Zero?5length?5axis?$AA@
CONST	SEGMENT
??_C@_0BB@OPALDBID@Zero?5length?5axis?$AA@ DB 'Zero length axis', 00H ; `string'
CONST	ENDS
;	COMDAT ?__LINE__Var@?1??MakeRotation@CMatrix4x4@gen@@QAEXABVCVector3@3@M@Z@4JA
_DATA	SEGMENT
?__LINE__Var@?1??MakeRotation@CMatrix4x4@gen@@QAEXABVCVector3@3@M@Z@4JA DD 08dfH ; `gen::CMatrix4x4::MakeRotation'::`2'::__LINE__Var
_DATA	ENDS
;	COMDAT ??_C@_0BO@EDHCIBNI@gen?3?3CMatrix4x4?3?3MakeRotation?$AA@
CONST	SEGMENT
??_C@_0BO@EDHCIBNI@gen?3?3CMatrix4x4?3?3MakeRotation?$AA@ DB 'gen::CMatri'
	DB	'x4x4::MakeRotation', 00H			; `string'
CONST	ENDS
;	COMDAT ?__LINE__Var@?1??MakeRotation@CMatrix4x4@gen@@QAEXVCVector3@3@W4ERotationOrder@3@@Z@4JA
_DATA	SEGMENT
?__LINE__Var@?1??MakeRotation@CMatrix4x4@gen@@QAEXVCVector3@3@W4ERotationOrder@3@@Z@4JA DD 085bH ; `gen::CMatrix4x4::MakeRotation'::`2'::__LINE__Var
_DATA	ENDS
;	COMDAT ??_C@_0N@BLGPECID@gen?3?3Inverse?$AA@
CONST	SEGMENT
??_C@_0N@BLGPECID@gen?3?3Inverse?$AA@ DB 'gen::Inverse', 00H ; `string'
CONST	ENDS
;	COMDAT ?__LINE__Var@?1??Inverse@gen@@YA?AVCMatrix4x4@2@ABV32@@Z@4JA
_DATA	SEGMENT
?__LINE__Var@?1??Inverse@gen@@YA?AVCMatrix4x4@2@ABV32@@Z@4JA DD 07b5H ; `gen::Inverse'::`2'::__LINE__Var
_DATA	ENDS
;	COMDAT ??_C@_0BD@PPGPBHLN@gen?3?3InverseAffine?$AA@
CONST	SEGMENT
??_C@_0BD@PPGPBHLN@gen?3?3InverseAffine?$AA@ DB 'gen::InverseAffine', 00H ; `string'
CONST	ENDS
;	COMDAT ?__LINE__Var@?1??InverseAffine@gen@@YA?AVCMatrix4x4@2@ABV32@@Z@4JA
_DATA	SEGMENT
?__LINE__Var@?1??InverseAffine@gen@@YA?AVCMatrix4x4@2@ABV32@@Z@4JA DD 0756H ; `gen::InverseAffine'::`2'::__LINE__Var
_DATA	ENDS
;	COMDAT ??_C@_0BK@PCEHJOFI@gen?3?3InverseRotTransScale?$AA@
CONST	SEGMENT
??_C@_0BK@PCEHJOFI@gen?3?3InverseRotTransScale?$AA@ DB 'gen::InverseRotTr'
	DB	'ansScale', 00H				; `string'
CONST	ENDS
;	COMDAT ?__LINE__Var@?1??InverseRotTransScale@gen@@YA?AVCMatrix4x4@2@ABV32@@Z@4JA
_DATA	SEGMENT
?__LINE__Var@?1??InverseRotTransScale@gen@@YA?AVCMatrix4x4@2@ABV32@@Z@4JA DD 0722H ; `gen::InverseRotTransScale'::`2'::__LINE__Var
_DATA	ENDS
;	COMDAT ??_C@_0CF@KNEDKMPM@gen?3?3CMatrix4x4?3?3InvertRotTransS@
CONST	SEGMENT
??_C@_0CF@KNEDKMPM@gen?3?3CMatrix4x4?3?3InvertRotTransS@ DB 'gen::CMatrix'
	DB	'4x4::InvertRotTransScale', 00H		; `string'
CONST	ENDS
;	COMDAT ?__LINE__Var@?1??InvertRotTransScale@CMatrix4x4@gen@@QAEXXZ@4JA
_DATA	SEGMENT
?__LINE__Var@?1??InvertRotTransScale@CMatrix4x4@gen@@QAEXXZ@4JA DD 06f4H ; `gen::CMatrix4x4::InvertRotTransScale'::`2'::__LINE__Var
_DATA	ENDS
;	COMDAT ??_C@_0BG@EKHHHFFK@gen?3?3Orthogonalise3x3?$AA@
CONST	SEGMENT
??_C@_0BG@EKHHHFFK@gen?3?3Orthogonalise3x3?$AA@ DB 'gen::Orthogonalise3x3'
	DB	00H						; `string'
CONST	ENDS
;	COMDAT ?__LINE__Var@?1??Orthogonalise3x3@gen@@YA?AVCMatrix4x4@2@ABV32@ABVCVector3@2@@Z@4JA
_DATA	SEGMENT
?__LINE__Var@?1??Orthogonalise3x3@gen@@YA?AVCMatrix4x4@2@ABV32@ABVCVector3@2@@Z@4JA DD 0637H ; `gen::Orthogonalise3x3'::`2'::__LINE__Var
_DATA	ENDS
;	COMDAT ??_C@_0CC@BIGHOAJP@gen?3?3CMatrix4x4?3?3Orthogonalise3x@
CONST	SEGMENT
??_C@_0CC@BIGHOAJP@gen?3?3CMatrix4x4?3?3Orthogonalise3x@ DB 'gen::CMatrix'
	DB	'4x4::Orthogonalise3x3', 00H			; `string'
CONST	ENDS
;	COMDAT ?__LINE__Var@?1??Orthogonalise3x3@CMatrix4x4@gen@@QAEXABVCVector3@3@@Z@4JA
_DATA	SEGMENT
?__LINE__Var@?1??Orthogonalise3x3@CMatrix4x4@gen@@QAEXABVCVector3@3@@Z@4JA DD 0600H ; `gen::CMatrix4x4::Orthogonalise3x3'::`2'::__LINE__Var
_DATA	ENDS
;	COMDAT ?__LINE__Var@?1??DecomposeAffineAxisAngle@CMatrix4x4@gen@@QBEXPAVCVector3@3@0PAM0@Z@4JA
_DATA	SEGMENT
?__LINE__Var@?1??DecomposeAffineAxisAngle@CMatrix4x4@gen@@QBEXPAVCVector3@3@0PAM0@Z@4JA DD 04e5H ; `gen::CMatrix4x4::DecomposeAffineAxisAngle'::`2'::__LINE__Var
_DATA	ENDS
;	COMDAT ?__LINE__Var@?1??DecomposeAffineQuaternion@CMatrix4x4@gen@@QBEXPAVCVector3@3@PAVCQuaternion@3@0@Z@4JA
_DATA	SEGMENT
?__LINE__Var@?1??DecomposeAffineQuaternion@CMatrix4x4@gen@@QBEXPAVCVector3@3@PAVCQuaternion@3@0@Z@4JA DD 047cH ; `gen::CMatrix4x4::DecomposeAffineQuaternion'::`2'::__LINE__Var
_DATA	ENDS
;	COMDAT ??_C@_0CG@HIGNFPPJ@gen?3?3CMatrix4x4?3?3DecomposeAffine@
CONST	SEGMENT
??_C@_0CG@HIGNFPPJ@gen?3?3CMatrix4x4?3?3DecomposeAffine@ DB 'gen::CMatrix'
	DB	'4x4::DecomposeAffineEuler', 00H		; `string'
CONST	ENDS
;	COMDAT ?__LINE__Var@?1??DecomposeAffineEuler@CMatrix4x4@gen@@QBEXPAVCVector3@3@00W4ERotationOrder@3@@Z@4JA
_DATA	SEGMENT
?__LINE__Var@?1??DecomposeAffineEuler@CMatrix4x4@gen@@QBEXPAVCVector3@3@00W4ERotationOrder@3@@Z@4JA DD 03aeH ; `gen::CMatrix4x4::DecomposeAffineEuler'::`2'::__LINE__Var
_DATA	ENDS
;	COMDAT ?__LINE__Var@?1??SetColumn@CMatrix4x4@gen@@QAEXIABVCVector3@3@@Z@4JA
_DATA	SEGMENT
?__LINE__Var@?1??SetColumn@CMatrix4x4@gen@@QAEXIABVCVector3@3@@Z@4JA DD 02a4H ; `gen::CMatrix4x4::SetColumn'::`2'::__LINE__Var
_DATA	ENDS
;	COMDAT ??_C@_0BL@LGANNJAP@gen?3?3CMatrix4x4?3?3SetColumn?$AA@
CONST	SEGMENT
??_C@_0BL@LGANNJAP@gen?3?3CMatrix4x4?3?3SetColumn?$AA@ DB 'gen::CMatrix4x'
	DB	'4::SetColumn', 00H				; `string'
CONST	ENDS
;	COMDAT ?__LINE__Var@?1??SetColumn@CMatrix4x4@gen@@QAEXIABVCVector4@3@@Z@4JA
_DATA	SEGMENT
?__LINE__Var@?1??SetColumn@CMatrix4x4@gen@@QAEXIABVCVector4@3@@Z@4JA DD 0291H ; `gen::CMatrix4x4::SetColumn'::`2'::__LINE__Var
_DATA	ENDS
;	COMDAT ?__LINE__Var@?1??SetRow@CMatrix4x4@gen@@QAEXIABVCVector3@3@@Z@4JA
_DATA	SEGMENT
?__LINE__Var@?1??SetRow@CMatrix4x4@gen@@QAEXIABVCVector3@3@@Z@4JA DD 027eH ; `gen::CMatrix4x4::SetRow'::`2'::__LINE__Var
_DATA	ENDS
;	COMDAT ??_C@_0BI@LNNDOFPI@gen?3?3CMatrix4x4?3?3SetRow?$AA@
CONST	SEGMENT
??_C@_0BI@LNNDOFPI@gen?3?3CMatrix4x4?3?3SetRow?$AA@ DB 'gen::CMatrix4x4::'
	DB	'SetRow', 00H				; `string'
CONST	ENDS
;	COMDAT ?__LINE__Var@?1??SetRow@CMatrix4x4@gen@@QAEXIABVCVector4@3@@Z@4JA
_DATA	SEGMENT
?__LINE__Var@?1??SetRow@CMatrix4x4@gen@@QAEXIABVCVector4@3@@Z@4JA DD 026bH ; `gen::CMatrix4x4::SetRow'::`2'::__LINE__Var
_DATA	ENDS
;	COMDAT ??_C@_0BL@JIEIPIJN@gen?3?3CMatrix4x4?3?3GetColumn?$AA@
CONST	SEGMENT
??_C@_0BL@JIEIPIJN@gen?3?3CMatrix4x4?3?3GetColumn?$AA@ DB 'gen::CMatrix4x'
	DB	'4::GetColumn', 00H				; `string'
CONST	ENDS
;	COMDAT ?__LINE__Var@?1??GetColumn@CMatrix4x4@gen@@QBE?AVCVector4@3@I@Z@4JA
_DATA	SEGMENT
?__LINE__Var@?1??GetColumn@CMatrix4x4@gen@@QBE?AVCVector4@3@I@Z@4JA DD 025aH ; `gen::CMatrix4x4::GetColumn'::`2'::__LINE__Var
_DATA	ENDS
;	COMDAT ??_C@_0BI@COECFNCF@gen?3?3CMatrix4x4?3?3GetRow?$AA@
CONST	SEGMENT
??_C@_0BI@COECFNCF@gen?3?3CMatrix4x4?3?3GetRow?$AA@ DB 'gen::CMatrix4x4::'
	DB	'GetRow', 00H				; `string'
CONST	ENDS
;	COMDAT ?__LINE__Var@?1??GetRow@CMatrix4x4@gen@@QBE?AVCVector4@3@I@Z@4JA
_DATA	SEGMENT
?__LINE__Var@?1??GetRow@CMatrix4x4@gen@@QBE?AVCVector4@3@I@Z@4JA DD 024fH ; `gen::CMatrix4x4::GetRow'::`2'::__LINE__Var
_DATA	ENDS
;	COMDAT ??_C@_0BF@LLJNGHHJ@gen?3?3CMatrix4x4?3?3Set?$AA@
CONST	SEGMENT
??_C@_0BF@LLJNGHHJ@gen?3?3CMatrix4x4?3?3Set?$AA@ DB 'gen::CMatrix4x4::Set'
	DB	00H						; `string'
CONST	ENDS
;	COMDAT ?__LINE__Var@?1??Set@CMatrix4x4@gen@@QAEXPBM_N@Z@4JA
_DATA	SEGMENT
?__LINE__Var@?1??Set@CMatrix4x4@gen@@QAEXPBM_N@Z@4JA DD 0214H ; `gen::CMatrix4x4::Set'::`2'::__LINE__Var
_DATA	ENDS
;	COMDAT ??_C@_0BM@LAPKAOOM@gen?3?3CMatrix4x4?3?3CMatrix4x4?$AA@
CONST	SEGMENT
??_C@_0BM@LAPKAOOM@gen?3?3CMatrix4x4?3?3CMatrix4x4?$AA@ DB 'gen::CMatrix4'
	DB	'x4::CMatrix4x4', 00H			; `string'
CONST	ENDS
;	COMDAT ??_C@_0EI@POGHFJCD@c?3?2users?2simon?2documents?2github?2@
CONST	SEGMENT
??_C@_0EI@POGHFJCD@c?3?2users?2simon?2documents?2github?2@ DB 'c:\users\s'
	DB	'imon\documents\github\uclan-sparta\import\math\cmatrix4x4.cpp'
	DB	00H						; `string'
CONST	ENDS
;	COMDAT ?__LINE__Var@?1???0CMatrix4x4@gen@@QAE@PBM_N@Z@4JA
_DATA	SEGMENT
?__LINE__Var@?1???0CMatrix4x4@gen@@QAE@PBM_N@Z@4JA DD 046H ; `gen::CMatrix4x4::CMatrix4x4'::`2'::__LINE__Var
_DATA	ENDS
;	COMDAT ??_C@_0BI@HNLOPNMD@gen?3?3CVector4?3?3CVector4?$AA@
CONST	SEGMENT
??_C@_0BI@HNLOPNMD@gen?3?3CVector4?3?3CVector4?$AA@ DB 'gen::CVector4::CV'
	DB	'ector4', 00H				; `string'
CONST	ENDS
;	COMDAT ??_C@_0EE@NIOAKDJB@c?3?2users?2simon?2documents?2github?2@
CONST	SEGMENT
??_C@_0EE@NIOAKDJB@c?3?2users?2simon?2documents?2github?2@ DB 'c:\users\s'
	DB	'imon\documents\github\uclan-sparta\import\math\cvector4.h', 00H ; `string'
CONST	ENDS
;	COMDAT ??_C@_0BA@EJDDFENM@Singular?5matrix?$AA@
CONST	SEGMENT
??_C@_0BA@EJDDFENM@Singular?5matrix?$AA@ DB 'Singular matrix', 00H ; `string'
CONST	ENDS
;	COMDAT ??_C@_0BA@KCKIPOBF@gen?3?3operator?5?1?$AA@
CONST	SEGMENT
??_C@_0BA@KCKIPOBF@gen?3?3operator?5?1?$AA@ DB 'gen::operator /', 00H ; `string'
CONST	ENDS
;	COMDAT ??_C@_0N@HFKAOJGM@gen?3?3InvSqrt?$AA@
CONST	SEGMENT
??_C@_0N@HFKAOJGM@gen?3?3InvSqrt?$AA@ DB 'gen::InvSqrt', 00H ; `string'
CONST	ENDS
;	COMDAT ??_C@_0BC@DBAKKFEN@Invalid?5parameter?$AA@
CONST	SEGMENT
??_C@_0BC@DBAKKFEN@Invalid?5parameter?$AA@ DB 'Invalid parameter', 00H ; `string'
CONST	ENDS
;	COMDAT ??_C@_0EE@DHOCJGL@c?3?2users?2simon?2documents?2github?2@
CONST	SEGMENT
??_C@_0EE@DHOCJGL@c?3?2users?2simon?2documents?2github?2@ DB 'c:\users\si'
	DB	'mon\documents\github\uclan-sparta\import\math\basemath.h', 00H ; `string'
CONST	ENDS
;	COMDAT __CT??_R0?AVCFatalException@gen@@@8??0CFatalException@gen@@QAE@ABV01@@Z88
xdata$x	SEGMENT
__CT??_R0?AVCFatalException@gen@@@8??0CFatalException@gen@@QAE@ABV01@@Z88 DD 00H
	DD	FLAT:??_R0?AVCFatalException@gen@@@8
	DD	00H
	DD	0ffffffffH
	ORG $+4
	DD	058H
	DD	FLAT:??0CFatalException@gen@@QAE@ABV01@@Z
xdata$x	ENDS
;	COMDAT ??_R0?AVCFatalException@gen@@@8
data$r	SEGMENT
??_R0?AVCFatalException@gen@@@8 DD FLAT:??_7type_info@@6B@ ; gen::CFatalException `RTTI Type Descriptor'
	DD	00H
	DB	'.?AVCFatalException@gen@@', 00H
data$r	ENDS
;	COMDAT __CTA1?AVCFatalException@gen@@
xdata$x	SEGMENT
__CTA1?AVCFatalException@gen@@ DD 01H
	DD	FLAT:__CT??_R0?AVCFatalException@gen@@@8??0CFatalException@gen@@QAE@ABV01@@Z88
xdata$x	ENDS
;	COMDAT __TI1?AVCFatalException@gen@@
xdata$x	SEGMENT
__TI1?AVCFatalException@gen@@ DD 00H
	DD	FLAT:??1CFatalException@gen@@QAE@XZ
	DD	00H
	DD	FLAT:__CTA1?AVCFatalException@gen@@
xdata$x	ENDS
;	COMDAT ?__LINE__Var@?1??InvSqrt@gen@@YAMM@Z@4JA
_DATA	SEGMENT
?__LINE__Var@?1??InvSqrt@gen@@YAMM@Z@4JA DD 09eH	; `gen::InvSqrt'::`2'::__LINE__Var
_DATA	ENDS
;	COMDAT ??_C@_0BE@HBKCGNOA@Unhandled?5Exception?$AA@
CONST	SEGMENT
??_C@_0BE@HBKCGNOA@Unhandled?5Exception?$AA@ DB 'Unhandled Exception', 00H ; `string'
CONST	ENDS
;	COMDAT ??_C@_01EEMJAFIK@?6?$AA@
CONST	SEGMENT
??_C@_01EEMJAFIK@?6?$AA@ DB 0aH, 00H			; `string'
CONST	ENDS
;	COMDAT ??_C@_01KICIPPFI@?2?$AA@
CONST	SEGMENT
??_C@_01KICIPPFI@?2?$AA@ DB '\', 00H			; `string'
CONST	ENDS
;	COMDAT ??_C@_0CB@NBMGHEOM@Visual?5C?$CL?$CL?58?40?5?$CI2005?$CJ?5or?5greater@
CONST	SEGMENT
??_C@_0CB@NBMGHEOM@Visual?5C?$CL?$CL?58?40?5?$CI2005?$CJ?5or?5greater@ DB 'V'
	DB	'isual C++ 8.0 (2005) or greater', 00H	; `string'
CONST	ENDS
;	COMDAT ??_C@_06FHFOAHML@system?$AA@
CONST	SEGMENT
??_C@_06FHFOAHML@system?$AA@ DB 'system', 00H		; `string'
CONST	ENDS
;	COMDAT ??_7_System_error_category@std@@6B@
CONST	SEGMENT
??_7_System_error_category@std@@6B@ DD FLAT:??_R4_System_error_category@std@@6B@ ; std::_System_error_category::`vftable'
	DD	FLAT:??_E_System_error_category@std@@UAEPAXI@Z
	DD	FLAT:?name@_System_error_category@std@@UBEPBDXZ
	DD	FLAT:?message@_System_error_category@std@@UBE?AV?$basic_string@DU?$char_traits@D@std@@V?$allocator@D@2@@2@H@Z
	DD	FLAT:?default_error_condition@_System_error_category@std@@UBE?AVerror_condition@2@H@Z
	DD	FLAT:?equivalent@error_category@std@@UBE_NABVerror_code@2@H@Z
	DD	FLAT:?equivalent@error_category@std@@UBE_NHABVerror_condition@2@@Z
CONST	ENDS
;	COMDAT ??_C@_0BG@PADBLCHM@iostream?5stream?5error?$AA@
CONST	SEGMENT
??_C@_0BG@PADBLCHM@iostream?5stream?5error?$AA@ DB 'iostream stream error'
	DB	00H						; `string'
CONST	ENDS
;	COMDAT ??_C@_08LLGCOLLL@iostream?$AA@
CONST	SEGMENT
??_C@_08LLGCOLLL@iostream?$AA@ DB 'iostream', 00H	; `string'
CONST	ENDS
;	COMDAT ??_7_Iostream_error_category@std@@6B@
CONST	SEGMENT
??_7_Iostream_error_category@std@@6B@ DD FLAT:??_R4_Iostream_error_category@std@@6B@ ; std::_Iostream_error_category::`vftable'
	DD	FLAT:??_E_Iostream_error_category@std@@UAEPAXI@Z
	DD	FLAT:?name@_Iostream_error_category@std@@UBEPBDXZ
	DD	FLAT:?message@_Iostream_error_category@std@@UBE?AV?$basic_string@DU?$char_traits@D@std@@V?$allocator@D@2@@2@H@Z
	DD	FLAT:?default_error_condition@error_category@std@@UBE?AVerror_condition@2@H@Z
	DD	FLAT:?equivalent@error_category@std@@UBE_NABVerror_code@2@H@Z
	DD	FLAT:?equivalent@error_category@std@@UBE_NHABVerror_condition@2@@Z
CONST	ENDS
;	COMDAT ??_C@_0O@BFJCFAAK@unknown?5error?$AA@
CONST	SEGMENT
??_C@_0O@BFJCFAAK@unknown?5error?$AA@ DB 'unknown error', 00H ; `string'
CONST	ENDS
;	COMDAT ??_C@_07DCLBNMLN@generic?$AA@
CONST	SEGMENT
??_C@_07DCLBNMLN@generic?$AA@ DB 'generic', 00H		; `string'
CONST	ENDS
;	COMDAT ??_7_Generic_error_category@std@@6B@
CONST	SEGMENT
??_7_Generic_error_category@std@@6B@ DD FLAT:??_R4_Generic_error_category@std@@6B@ ; std::_Generic_error_category::`vftable'
	DD	FLAT:??_E_Generic_error_category@std@@UAEPAXI@Z
	DD	FLAT:?name@_Generic_error_category@std@@UBEPBDXZ
	DD	FLAT:?message@_Generic_error_category@std@@UBE?AV?$basic_string@DU?$char_traits@D@std@@V?$allocator@D@2@@2@H@Z
	DD	FLAT:?default_error_condition@error_category@std@@UBE?AVerror_condition@2@H@Z
	DD	FLAT:?equivalent@error_category@std@@UBE_NABVerror_code@2@H@Z
	DD	FLAT:?equivalent@error_category@std@@UBE_NHABVerror_condition@2@@Z
CONST	ENDS
;	COMDAT ??_7error_category@std@@6B@
CONST	SEGMENT
??_7error_category@std@@6B@ DD FLAT:??_R4error_category@std@@6B@ ; std::error_category::`vftable'
	DD	FLAT:??_Eerror_category@std@@UAEPAXI@Z
	DD	FLAT:__purecall
	DD	FLAT:__purecall
	DD	FLAT:?default_error_condition@error_category@std@@UBE?AVerror_condition@2@H@Z
	DD	FLAT:?equivalent@error_category@std@@UBE_NABVerror_code@2@H@Z
	DD	FLAT:?equivalent@error_category@std@@UBE_NHABVerror_condition@2@@Z
CONST	ENDS
;	COMDAT ??_C@_00CNPNBAHC@?$AA@
CONST	SEGMENT
??_C@_00CNPNBAHC@?$AA@ DB 00H				; `string'
CONST	ENDS
;	COMDAT ?npos@?$basic_string@DU?$char_traits@D@std@@V?$allocator@D@2@@std@@2IB
CONST	SEGMENT
?npos@?$basic_string@DU?$char_traits@D@std@@V?$allocator@D@2@@std@@2IB DD 0ffffffffH ; std::basic_string<char,std::char_traits<char>,std::allocator<char> >::npos
CONST	ENDS
;	COMDAT xdata$x
xdata$x	SEGMENT
__unwindtable$??$construct@PADAAPAD@?$allocator@D@std@@QAEXPAPADAAPAD@Z DD 0ffffffffH
	DD	FLAT:__unwindfunclet$??$construct@PADAAPAD@?$allocator@D@std@@QAEXPAPADAAPAD@Z$0
__ehfuncinfo$??$construct@PADAAPAD@?$allocator@D@std@@QAEXPAPADAAPAD@Z DD 019930522H
	DD	01H
	DD	FLAT:__unwindtable$??$construct@PADAAPAD@?$allocator@D@std@@QAEXPAPADAAPAD@Z
	DD	2 DUP(00H)
	DD	2 DUP(00H)
	DD	00H
	DD	01H
xdata$x	ENDS
;	COMDAT xdata$x
xdata$x	SEGMENT
__unwindtable$??$construct@U_Container_proxy@std@@U12@@?$allocator@U_Container_proxy@std@@@std@@QAEXPAU_Container_proxy@1@$$QAU21@@Z DD 0ffffffffH
	DD	FLAT:__unwindfunclet$??$construct@U_Container_proxy@std@@U12@@?$allocator@U_Container_proxy@std@@@std@@QAEXPAU_Container_proxy@1@$$QAU21@@Z$0
__ehfuncinfo$??$construct@U_Container_proxy@std@@U12@@?$allocator@U_Container_proxy@std@@@std@@QAEXPAU_Container_proxy@1@$$QAU21@@Z DD 019930522H
	DD	01H
	DD	FLAT:__unwindtable$??$construct@U_Container_proxy@std@@U12@@?$allocator@U_Container_proxy@std@@@std@@QAEXPAU_Container_proxy@1@$$QAU21@@Z
	DD	2 DUP(00H)
	DD	2 DUP(00H)
	DD	00H
	DD	01H
xdata$x	ENDS
;	COMDAT xdata$x
xdata$x	SEGMENT
__unwindtable$??0CVector4@gen@@QAE@PBM@Z DD 0ffffffffH
	DD	00H
	DD	0ffffffffH
	DD	00H
__tryblocktable$??0CVector4@gen@@QAE@PBM@Z DD 00H
	DD	00H
	DD	01H
	DD	02H
	DD	FLAT:__catchsym$??0CVector4@gen@@QAE@PBM@Z$3
__catchsym$??0CVector4@gen@@QAE@PBM@Z$3 DD 08H
	DD	FLAT:??_R0?AVCFatalException@gen@@@8
	DD	0ffffffd8H
	DD	FLAT:__catch$??0CVector4@gen@@QAE@PBM@Z$0
	DD	040H
	DD	00H
	DD	00H
	DD	FLAT:__catch$??0CVector4@gen@@QAE@PBM@Z$1
__ehfuncinfo$??0CVector4@gen@@QAE@PBM@Z DD 019930522H
	DD	02H
	DD	FLAT:__unwindtable$??0CVector4@gen@@QAE@PBM@Z
	DD	01H
	DD	FLAT:__tryblocktable$??0CVector4@gen@@QAE@PBM@Z
	DD	2 DUP(00H)
	DD	00H
	DD	01H
xdata$x	ENDS
;	COMDAT xdata$x
xdata$x	SEGMENT
__unwindtable$?MatrixRotation@gen@@YA?AVCMatrix4x4@1@ABVCVector3@1@M@Z DD 0ffffffffH
	DD	00H
	DD	0ffffffffH
	DD	00H
__tryblocktable$?MatrixRotation@gen@@YA?AVCMatrix4x4@1@ABVCVector3@1@M@Z DD 00H
	DD	00H
	DD	01H
	DD	02H
	DD	FLAT:__catchsym$?MatrixRotation@gen@@YA?AVCMatrix4x4@1@ABVCVector3@1@M@Z$3
__catchsym$?MatrixRotation@gen@@YA?AVCMatrix4x4@1@ABVCVector3@1@M@Z$3 DD 08H
	DD	FLAT:??_R0?AVCFatalException@gen@@@8
	DD	0fffffef8H
	DD	FLAT:__catch$?MatrixRotation@gen@@YA?AVCMatrix4x4@1@ABVCVector3@1@M@Z$0
	DD	040H
	DD	00H
	DD	00H
	DD	FLAT:__catch$?MatrixRotation@gen@@YA?AVCMatrix4x4@1@ABVCVector3@1@M@Z$1
__ehfuncinfo$?MatrixRotation@gen@@YA?AVCMatrix4x4@1@ABVCVector3@1@M@Z DD 019930522H
	DD	02H
	DD	FLAT:__unwindtable$?MatrixRotation@gen@@YA?AVCMatrix4x4@1@ABVCVector3@1@M@Z
	DD	01H
	DD	FLAT:__tryblocktable$?MatrixRotation@gen@@YA?AVCMatrix4x4@1@ABVCVector3@1@M@Z
	DD	2 DUP(00H)
	DD	00H
	DD	01H
xdata$x	ENDS
;	COMDAT xdata$x
xdata$x	SEGMENT
__unwindtable$?MatrixRotation@gen@@YA?AVCMatrix4x4@1@VCVector3@1@W4ERotationOrder@1@@Z DD 0ffffffffH
	DD	00H
	DD	0ffffffffH
	DD	00H
__tryblocktable$?MatrixRotation@gen@@YA?AVCMatrix4x4@1@VCVector3@1@W4ERotationOrder@1@@Z DD 00H
	DD	00H
	DD	01H
	DD	02H
	DD	FLAT:__catchsym$?MatrixRotation@gen@@YA?AVCMatrix4x4@1@VCVector3@1@W4ERotationOrder@1@@Z$3
__catchsym$?MatrixRotation@gen@@YA?AVCMatrix4x4@1@VCVector3@1@W4ERotationOrder@1@@Z$3 DD 08H
	DD	FLAT:??_R0?AVCFatalException@gen@@@8
	DD	0ffffff54H
	DD	FLAT:__catch$?MatrixRotation@gen@@YA?AVCMatrix4x4@1@VCVector3@1@W4ERotationOrder@1@@Z$0
	DD	040H
	DD	00H
	DD	00H
	DD	FLAT:__catch$?MatrixRotation@gen@@YA?AVCMatrix4x4@1@VCVector3@1@W4ERotationOrder@1@@Z$1
__ehfuncinfo$?MatrixRotation@gen@@YA?AVCMatrix4x4@1@VCVector3@1@W4ERotationOrder@1@@Z DD 019930522H
	DD	02H
	DD	FLAT:__unwindtable$?MatrixRotation@gen@@YA?AVCMatrix4x4@1@VCVector3@1@W4ERotationOrder@1@@Z
	DD	01H
	DD	FLAT:__tryblocktable$?MatrixRotation@gen@@YA?AVCMatrix4x4@1@VCVector3@1@W4ERotationOrder@1@@Z
	DD	2 DUP(00H)
	DD	00H
	DD	01H
xdata$x	ENDS
;	COMDAT xdata$x
xdata$x	SEGMENT
__unwindtable$?Inverse@gen@@YA?AVCMatrix4x4@1@ABV21@@Z DD 0ffffffffH
	DD	00H
	DD	0ffffffffH
	DD	00H
__tryblocktable$?Inverse@gen@@YA?AVCMatrix4x4@1@ABV21@@Z DD 00H
	DD	00H
	DD	01H
	DD	02H
	DD	FLAT:__catchsym$?Inverse@gen@@YA?AVCMatrix4x4@1@ABV21@@Z$3
__catchsym$?Inverse@gen@@YA?AVCMatrix4x4@1@ABV21@@Z$3 DD 08H
	DD	FLAT:??_R0?AVCFatalException@gen@@@8
	DD	0ffffff6cH
	DD	FLAT:__catch$?Inverse@gen@@YA?AVCMatrix4x4@1@ABV21@@Z$0
	DD	040H
	DD	00H
	DD	00H
	DD	FLAT:__catch$?Inverse@gen@@YA?AVCMatrix4x4@1@ABV21@@Z$1
__ehfuncinfo$?Inverse@gen@@YA?AVCMatrix4x4@1@ABV21@@Z DD 019930522H
	DD	02H
	DD	FLAT:__unwindtable$?Inverse@gen@@YA?AVCMatrix4x4@1@ABV21@@Z
	DD	01H
	DD	FLAT:__tryblocktable$?Inverse@gen@@YA?AVCMatrix4x4@1@ABV21@@Z
	DD	2 DUP(00H)
	DD	00H
	DD	01H
xdata$x	ENDS
;	COMDAT xdata$x
xdata$x	SEGMENT
__unwindtable$?InverseAffine@gen@@YA?AVCMatrix4x4@1@ABV21@@Z DD 0ffffffffH
	DD	00H
	DD	0ffffffffH
	DD	00H
__tryblocktable$?InverseAffine@gen@@YA?AVCMatrix4x4@1@ABV21@@Z DD 00H
	DD	00H
	DD	01H
	DD	02H
	DD	FLAT:__catchsym$?InverseAffine@gen@@YA?AVCMatrix4x4@1@ABV21@@Z$3
__catchsym$?InverseAffine@gen@@YA?AVCMatrix4x4@1@ABV21@@Z$3 DD 08H
	DD	FLAT:??_R0?AVCFatalException@gen@@@8
	DD	0ffffff60H
	DD	FLAT:__catch$?InverseAffine@gen@@YA?AVCMatrix4x4@1@ABV21@@Z$0
	DD	040H
	DD	00H
	DD	00H
	DD	FLAT:__catch$?InverseAffine@gen@@YA?AVCMatrix4x4@1@ABV21@@Z$1
__ehfuncinfo$?InverseAffine@gen@@YA?AVCMatrix4x4@1@ABV21@@Z DD 019930522H
	DD	02H
	DD	FLAT:__unwindtable$?InverseAffine@gen@@YA?AVCMatrix4x4@1@ABV21@@Z
	DD	01H
	DD	FLAT:__tryblocktable$?InverseAffine@gen@@YA?AVCMatrix4x4@1@ABV21@@Z
	DD	2 DUP(00H)
	DD	00H
	DD	01H
xdata$x	ENDS
;	COMDAT xdata$x
xdata$x	SEGMENT
__unwindtable$?InverseRotTransScale@gen@@YA?AVCMatrix4x4@1@ABV21@@Z DD 0ffffffffH
	DD	00H
	DD	0ffffffffH
	DD	00H
__tryblocktable$?InverseRotTransScale@gen@@YA?AVCMatrix4x4@1@ABV21@@Z DD 00H
	DD	00H
	DD	01H
	DD	02H
	DD	FLAT:__catchsym$?InverseRotTransScale@gen@@YA?AVCMatrix4x4@1@ABV21@@Z$3
__catchsym$?InverseRotTransScale@gen@@YA?AVCMatrix4x4@1@ABV21@@Z$3 DD 08H
	DD	FLAT:??_R0?AVCFatalException@gen@@@8
	DD	0ffffff54H
	DD	FLAT:__catch$?InverseRotTransScale@gen@@YA?AVCMatrix4x4@1@ABV21@@Z$0
	DD	040H
	DD	00H
	DD	00H
	DD	FLAT:__catch$?InverseRotTransScale@gen@@YA?AVCMatrix4x4@1@ABV21@@Z$1
__ehfuncinfo$?InverseRotTransScale@gen@@YA?AVCMatrix4x4@1@ABV21@@Z DD 019930522H
	DD	02H
	DD	FLAT:__unwindtable$?InverseRotTransScale@gen@@YA?AVCMatrix4x4@1@ABV21@@Z
	DD	01H
	DD	FLAT:__tryblocktable$?InverseRotTransScale@gen@@YA?AVCMatrix4x4@1@ABV21@@Z
	DD	2 DUP(00H)
	DD	00H
	DD	01H
xdata$x	ENDS
;	COMDAT xdata$x
xdata$x	SEGMENT
__unwindtable$?Orthogonalise3x3@gen@@YA?AVCMatrix4x4@1@ABV21@ABVCVector3@1@@Z DD 0ffffffffH
	DD	00H
	DD	0ffffffffH
	DD	00H
__tryblocktable$?Orthogonalise3x3@gen@@YA?AVCMatrix4x4@1@ABV21@ABVCVector3@1@@Z DD 00H
	DD	00H
	DD	01H
	DD	02H
	DD	FLAT:__catchsym$?Orthogonalise3x3@gen@@YA?AVCMatrix4x4@1@ABV21@ABVCVector3@1@@Z$3
__catchsym$?Orthogonalise3x3@gen@@YA?AVCMatrix4x4@1@ABV21@ABVCVector3@1@@Z$3 DD 08H
	DD	FLAT:??_R0?AVCFatalException@gen@@@8
	DD	0ffffff60H
	DD	FLAT:__catch$?Orthogonalise3x3@gen@@YA?AVCMatrix4x4@1@ABV21@ABVCVector3@1@@Z$0
	DD	040H
	DD	00H
	DD	00H
	DD	FLAT:__catch$?Orthogonalise3x3@gen@@YA?AVCMatrix4x4@1@ABV21@ABVCVector3@1@@Z$1
__ehfuncinfo$?Orthogonalise3x3@gen@@YA?AVCMatrix4x4@1@ABV21@ABVCVector3@1@@Z DD 019930522H
	DD	02H
	DD	FLAT:__unwindtable$?Orthogonalise3x3@gen@@YA?AVCMatrix4x4@1@ABV21@ABVCVector3@1@@Z
	DD	01H
	DD	FLAT:__tryblocktable$?Orthogonalise3x3@gen@@YA?AVCMatrix4x4@1@ABV21@ABVCVector3@1@@Z
	DD	2 DUP(00H)
	DD	00H
	DD	01H
xdata$x	ENDS
;	COMDAT xdata$x
xdata$x	SEGMENT
__unwindtable$??Kgen@@YA?AVCMatrix4x4@0@ABV10@M@Z DD 0ffffffffH
	DD	00H
	DD	0ffffffffH
	DD	00H
__tryblocktable$??Kgen@@YA?AVCMatrix4x4@0@ABV10@M@Z DD 00H
	DD	00H
	DD	01H
	DD	02H
	DD	FLAT:__catchsym$??Kgen@@YA?AVCMatrix4x4@0@ABV10@M@Z$3
__catchsym$??Kgen@@YA?AVCMatrix4x4@0@ABV10@M@Z$3 DD 08H
	DD	FLAT:??_R0?AVCFatalException@gen@@@8
	DD	0ffffff9cH
	DD	FLAT:__catch$??Kgen@@YA?AVCMatrix4x4@0@ABV10@M@Z$0
	DD	040H
	DD	00H
	DD	00H
	DD	FLAT:__catch$??Kgen@@YA?AVCMatrix4x4@0@ABV10@M@Z$1
__ehfuncinfo$??Kgen@@YA?AVCMatrix4x4@0@ABV10@M@Z DD 019930522H
	DD	02H
	DD	FLAT:__unwindtable$??Kgen@@YA?AVCMatrix4x4@0@ABV10@M@Z
	DD	01H
	DD	FLAT:__tryblocktable$??Kgen@@YA?AVCMatrix4x4@0@ABV10@M@Z
	DD	2 DUP(00H)
	DD	00H
	DD	01H
xdata$x	ENDS
;	COMDAT xdata$x
xdata$x	SEGMENT
__unwindtable$??_0CMatrix4x4@gen@@QAEAAV01@M@Z DD 0ffffffffH
	DD	00H
	DD	0ffffffffH
	DD	00H
__tryblocktable$??_0CMatrix4x4@gen@@QAEAAV01@M@Z DD 00H
	DD	00H
	DD	01H
	DD	02H
	DD	FLAT:__catchsym$??_0CMatrix4x4@gen@@QAEAAV01@M@Z$3
__catchsym$??_0CMatrix4x4@gen@@QAEAAV01@M@Z$3 DD 08H
	DD	FLAT:??_R0?AVCFatalException@gen@@@8
	DD	0ffffffd8H
	DD	FLAT:__catch$??_0CMatrix4x4@gen@@QAEAAV01@M@Z$0
	DD	040H
	DD	00H
	DD	00H
	DD	FLAT:__catch$??_0CMatrix4x4@gen@@QAEAAV01@M@Z$1
__ehfuncinfo$??_0CMatrix4x4@gen@@QAEAAV01@M@Z DD 019930522H
	DD	02H
	DD	FLAT:__unwindtable$??_0CMatrix4x4@gen@@QAEAAV01@M@Z
	DD	01H
	DD	FLAT:__tryblocktable$??_0CMatrix4x4@gen@@QAEAAV01@M@Z
	DD	2 DUP(00H)
	DD	00H
	DD	01H
xdata$x	ENDS
;	COMDAT xdata$x
xdata$x	SEGMENT
__unwindtable$?MakeRotation@CMatrix4x4@gen@@QAEXABVCVector3@2@M@Z DD 0ffffffffH
	DD	00H
	DD	0ffffffffH
	DD	00H
__tryblocktable$?MakeRotation@CMatrix4x4@gen@@QAEXABVCVector3@2@M@Z DD 00H
	DD	00H
	DD	01H
	DD	02H
	DD	FLAT:__catchsym$?MakeRotation@CMatrix4x4@gen@@QAEXABVCVector3@2@M@Z$3
__catchsym$?MakeRotation@CMatrix4x4@gen@@QAEXABVCVector3@2@M@Z$3 DD 08H
	DD	FLAT:??_R0?AVCFatalException@gen@@@8
	DD	0ffffff34H
	DD	FLAT:__catch$?MakeRotation@CMatrix4x4@gen@@QAEXABVCVector3@2@M@Z$0
	DD	040H
	DD	00H
	DD	00H
	DD	FLAT:__catch$?MakeRotation@CMatrix4x4@gen@@QAEXABVCVector3@2@M@Z$1
__ehfuncinfo$?MakeRotation@CMatrix4x4@gen@@QAEXABVCVector3@2@M@Z DD 019930522H
	DD	02H
	DD	FLAT:__unwindtable$?MakeRotation@CMatrix4x4@gen@@QAEXABVCVector3@2@M@Z
	DD	01H
	DD	FLAT:__tryblocktable$?MakeRotation@CMatrix4x4@gen@@QAEXABVCVector3@2@M@Z
	DD	2 DUP(00H)
	DD	00H
	DD	01H
xdata$x	ENDS
;	COMDAT xdata$x
xdata$x	SEGMENT
__unwindtable$?MakeRotation@CMatrix4x4@gen@@QAEXVCVector3@2@W4ERotationOrder@2@@Z DD 0ffffffffH
	DD	00H
	DD	0ffffffffH
	DD	00H
__tryblocktable$?MakeRotation@CMatrix4x4@gen@@QAEXVCVector3@2@W4ERotationOrder@2@@Z DD 00H
	DD	00H
	DD	01H
	DD	02H
	DD	FLAT:__catchsym$?MakeRotation@CMatrix4x4@gen@@QAEXVCVector3@2@W4ERotationOrder@2@@Z$3
__catchsym$?MakeRotation@CMatrix4x4@gen@@QAEXVCVector3@2@W4ERotationOrder@2@@Z$3 DD 08H
	DD	FLAT:??_R0?AVCFatalException@gen@@@8
	DD	0ffffff90H
	DD	FLAT:__catch$?MakeRotation@CMatrix4x4@gen@@QAEXVCVector3@2@W4ERotationOrder@2@@Z$0
	DD	040H
	DD	00H
	DD	00H
	DD	FLAT:__catch$?MakeRotation@CMatrix4x4@gen@@QAEXVCVector3@2@W4ERotationOrder@2@@Z$1
__ehfuncinfo$?MakeRotation@CMatrix4x4@gen@@QAEXVCVector3@2@W4ERotationOrder@2@@Z DD 019930522H
	DD	02H
	DD	FLAT:__unwindtable$?MakeRotation@CMatrix4x4@gen@@QAEXVCVector3@2@W4ERotationOrder@2@@Z
	DD	01H
	DD	FLAT:__tryblocktable$?MakeRotation@CMatrix4x4@gen@@QAEXVCVector3@2@W4ERotationOrder@2@@Z
	DD	2 DUP(00H)
	DD	00H
	DD	01H
xdata$x	ENDS
;	COMDAT xdata$x
xdata$x	SEGMENT
__unwindtable$?InvertRotTransScale@CMatrix4x4@gen@@QAEXXZ DD 0ffffffffH
	DD	00H
	DD	0ffffffffH
	DD	00H
__tryblocktable$?InvertRotTransScale@CMatrix4x4@gen@@QAEXXZ DD 00H
	DD	00H
	DD	01H
	DD	02H
	DD	FLAT:__catchsym$?InvertRotTransScale@CMatrix4x4@gen@@QAEXXZ$3
__catchsym$?InvertRotTransScale@CMatrix4x4@gen@@QAEXXZ$3 DD 08H
	DD	FLAT:??_R0?AVCFatalException@gen@@@8
	DD	0ffffff78H
	DD	FLAT:__catch$?InvertRotTransScale@CMatrix4x4@gen@@QAEXXZ$0
	DD	040H
	DD	00H
	DD	00H
	DD	FLAT:__catch$?InvertRotTransScale@CMatrix4x4@gen@@QAEXXZ$1
__ehfuncinfo$?InvertRotTransScale@CMatrix4x4@gen@@QAEXXZ DD 019930522H
	DD	02H
	DD	FLAT:__unwindtable$?InvertRotTransScale@CMatrix4x4@gen@@QAEXXZ
	DD	01H
	DD	FLAT:__tryblocktable$?InvertRotTransScale@CMatrix4x4@gen@@QAEXXZ
	DD	2 DUP(00H)
	DD	00H
	DD	01H
xdata$x	ENDS
;	COMDAT xdata$x
xdata$x	SEGMENT
__unwindtable$?Orthogonalise3x3@CMatrix4x4@gen@@QAEXABVCVector3@2@@Z DD 0ffffffffH
	DD	00H
	DD	0ffffffffH
	DD	00H
__tryblocktable$?Orthogonalise3x3@CMatrix4x4@gen@@QAEXABVCVector3@2@@Z DD 00H
	DD	00H
	DD	01H
	DD	02H
	DD	FLAT:__catchsym$?Orthogonalise3x3@CMatrix4x4@gen@@QAEXABVCVector3@2@@Z$3
__catchsym$?Orthogonalise3x3@CMatrix4x4@gen@@QAEXABVCVector3@2@@Z$3 DD 08H
	DD	FLAT:??_R0?AVCFatalException@gen@@@8
	DD	0ffffff9cH
	DD	FLAT:__catch$?Orthogonalise3x3@CMatrix4x4@gen@@QAEXABVCVector3@2@@Z$0
	DD	040H
	DD	00H
	DD	00H
	DD	FLAT:__catch$?Orthogonalise3x3@CMatrix4x4@gen@@QAEXABVCVector3@2@@Z$1
__ehfuncinfo$?Orthogonalise3x3@CMatrix4x4@gen@@QAEXABVCVector3@2@@Z DD 019930522H
	DD	02H
	DD	FLAT:__unwindtable$?Orthogonalise3x3@CMatrix4x4@gen@@QAEXABVCVector3@2@@Z
	DD	01H
	DD	FLAT:__tryblocktable$?Orthogonalise3x3@CMatrix4x4@gen@@QAEXABVCVector3@2@@Z
	DD	2 DUP(00H)
	DD	00H
	DD	01H
xdata$x	ENDS
;	COMDAT xdata$x
xdata$x	SEGMENT
__unwindtable$?DecomposeAffineEuler@CMatrix4x4@gen@@QBEXPAVCVector3@2@00W4ERotationOrder@2@@Z DD 0ffffffffH
	DD	00H
	DD	0ffffffffH
	DD	00H
__tryblocktable$?DecomposeAffineEuler@CMatrix4x4@gen@@QBEXPAVCVector3@2@00W4ERotationOrder@2@@Z DD 00H
	DD	00H
	DD	01H
	DD	02H
	DD	FLAT:__catchsym$?DecomposeAffineEuler@CMatrix4x4@gen@@QBEXPAVCVector3@2@00W4ERotationOrder@2@@Z$3
__catchsym$?DecomposeAffineEuler@CMatrix4x4@gen@@QBEXPAVCVector3@2@00W4ERotationOrder@2@@Z$3 DD 08H
	DD	FLAT:??_R0?AVCFatalException@gen@@@8
	DD	0ffffff00H
	DD	FLAT:__catch$?DecomposeAffineEuler@CMatrix4x4@gen@@QBEXPAVCVector3@2@00W4ERotationOrder@2@@Z$0
	DD	040H
	DD	00H
	DD	00H
	DD	FLAT:__catch$?DecomposeAffineEuler@CMatrix4x4@gen@@QBEXPAVCVector3@2@00W4ERotationOrder@2@@Z$1
__ehfuncinfo$?DecomposeAffineEuler@CMatrix4x4@gen@@QBEXPAVCVector3@2@00W4ERotationOrder@2@@Z DD 019930522H
	DD	02H
	DD	FLAT:__unwindtable$?DecomposeAffineEuler@CMatrix4x4@gen@@QBEXPAVCVector3@2@00W4ERotationOrder@2@@Z
	DD	01H
	DD	FLAT:__tryblocktable$?DecomposeAffineEuler@CMatrix4x4@gen@@QBEXPAVCVector3@2@00W4ERotationOrder@2@@Z
	DD	2 DUP(00H)
	DD	00H
	DD	01H
xdata$x	ENDS
;	COMDAT xdata$x
xdata$x	SEGMENT
__unwindtable$?SetColumn@CMatrix4x4@gen@@QAEXIABVCVector3@2@@Z DD 0ffffffffH
	DD	00H
	DD	0ffffffffH
	DD	00H
__tryblocktable$?SetColumn@CMatrix4x4@gen@@QAEXIABVCVector3@2@@Z DD 00H
	DD	00H
	DD	01H
	DD	02H
	DD	FLAT:__catchsym$?SetColumn@CMatrix4x4@gen@@QAEXIABVCVector3@2@@Z$3
__catchsym$?SetColumn@CMatrix4x4@gen@@QAEXIABVCVector3@2@@Z$3 DD 08H
	DD	FLAT:??_R0?AVCFatalException@gen@@@8
	DD	0ffffffccH
	DD	FLAT:__catch$?SetColumn@CMatrix4x4@gen@@QAEXIABVCVector3@2@@Z$0
	DD	040H
	DD	00H
	DD	00H
	DD	FLAT:__catch$?SetColumn@CMatrix4x4@gen@@QAEXIABVCVector3@2@@Z$1
__ehfuncinfo$?SetColumn@CMatrix4x4@gen@@QAEXIABVCVector3@2@@Z DD 019930522H
	DD	02H
	DD	FLAT:__unwindtable$?SetColumn@CMatrix4x4@gen@@QAEXIABVCVector3@2@@Z
	DD	01H
	DD	FLAT:__tryblocktable$?SetColumn@CMatrix4x4@gen@@QAEXIABVCVector3@2@@Z
	DD	2 DUP(00H)
	DD	00H
	DD	01H
xdata$x	ENDS
;	COMDAT xdata$x
xdata$x	SEGMENT
__unwindtable$?SetColumn@CMatrix4x4@gen@@QAEXIABVCVector4@2@@Z DD 0ffffffffH
	DD	00H
	DD	0ffffffffH
	DD	00H
__tryblocktable$?SetColumn@CMatrix4x4@gen@@QAEXIABVCVector4@2@@Z DD 00H
	DD	00H
	DD	01H
	DD	02H
	DD	FLAT:__catchsym$?SetColumn@CMatrix4x4@gen@@QAEXIABVCVector4@2@@Z$3
__catchsym$?SetColumn@CMatrix4x4@gen@@QAEXIABVCVector4@2@@Z$3 DD 08H
	DD	FLAT:??_R0?AVCFatalException@gen@@@8
	DD	0ffffffccH
	DD	FLAT:__catch$?SetColumn@CMatrix4x4@gen@@QAEXIABVCVector4@2@@Z$0
	DD	040H
	DD	00H
	DD	00H
	DD	FLAT:__catch$?SetColumn@CMatrix4x4@gen@@QAEXIABVCVector4@2@@Z$1
__ehfuncinfo$?SetColumn@CMatrix4x4@gen@@QAEXIABVCVector4@2@@Z DD 019930522H
	DD	02H
	DD	FLAT:__unwindtable$?SetColumn@CMatrix4x4@gen@@QAEXIABVCVector4@2@@Z
	DD	01H
	DD	FLAT:__tryblocktable$?SetColumn@CMatrix4x4@gen@@QAEXIABVCVector4@2@@Z
	DD	2 DUP(00H)
	DD	00H
	DD	01H
xdata$x	ENDS
;	COMDAT xdata$x
xdata$x	SEGMENT
__unwindtable$?SetRow@CMatrix4x4@gen@@QAEXIABVCVector3@2@@Z DD 0ffffffffH
	DD	00H
	DD	0ffffffffH
	DD	00H
__tryblocktable$?SetRow@CMatrix4x4@gen@@QAEXIABVCVector3@2@@Z DD 00H
	DD	00H
	DD	01H
	DD	02H
	DD	FLAT:__catchsym$?SetRow@CMatrix4x4@gen@@QAEXIABVCVector3@2@@Z$3
__catchsym$?SetRow@CMatrix4x4@gen@@QAEXIABVCVector3@2@@Z$3 DD 08H
	DD	FLAT:??_R0?AVCFatalException@gen@@@8
	DD	0ffffffccH
	DD	FLAT:__catch$?SetRow@CMatrix4x4@gen@@QAEXIABVCVector3@2@@Z$0
	DD	040H
	DD	00H
	DD	00H
	DD	FLAT:__catch$?SetRow@CMatrix4x4@gen@@QAEXIABVCVector3@2@@Z$1
__ehfuncinfo$?SetRow@CMatrix4x4@gen@@QAEXIABVCVector3@2@@Z DD 019930522H
	DD	02H
	DD	FLAT:__unwindtable$?SetRow@CMatrix4x4@gen@@QAEXIABVCVector3@2@@Z
	DD	01H
	DD	FLAT:__tryblocktable$?SetRow@CMatrix4x4@gen@@QAEXIABVCVector3@2@@Z
	DD	2 DUP(00H)
	DD	00H
	DD	01H
xdata$x	ENDS
;	COMDAT xdata$x
xdata$x	SEGMENT
__unwindtable$?SetRow@CMatrix4x4@gen@@QAEXIABVCVector4@2@@Z DD 0ffffffffH
	DD	00H
	DD	0ffffffffH
	DD	00H
__tryblocktable$?SetRow@CMatrix4x4@gen@@QAEXIABVCVector4@2@@Z DD 00H
	DD	00H
	DD	01H
	DD	02H
	DD	FLAT:__catchsym$?SetRow@CMatrix4x4@gen@@QAEXIABVCVector4@2@@Z$3
__catchsym$?SetRow@CMatrix4x4@gen@@QAEXIABVCVector4@2@@Z$3 DD 08H
	DD	FLAT:??_R0?AVCFatalException@gen@@@8
	DD	0ffffffccH
	DD	FLAT:__catch$?SetRow@CMatrix4x4@gen@@QAEXIABVCVector4@2@@Z$0
	DD	040H
	DD	00H
	DD	00H
	DD	FLAT:__catch$?SetRow@CMatrix4x4@gen@@QAEXIABVCVector4@2@@Z$1
__ehfuncinfo$?SetRow@CMatrix4x4@gen@@QAEXIABVCVector4@2@@Z DD 019930522H
	DD	02H
	DD	FLAT:__unwindtable$?SetRow@CMatrix4x4@gen@@QAEXIABVCVector4@2@@Z
	DD	01H
	DD	FLAT:__tryblocktable$?SetRow@CMatrix4x4@gen@@QAEXIABVCVector4@2@@Z
	DD	2 DUP(00H)
	DD	00H
	DD	01H
xdata$x	ENDS
;	COMDAT xdata$x
xdata$x	SEGMENT
__unwindtable$?GetColumn@CMatrix4x4@gen@@QBE?AVCVector4@2@I@Z DD 0ffffffffH
	DD	00H
	DD	0ffffffffH
	DD	00H
__tryblocktable$?GetColumn@CMatrix4x4@gen@@QBE?AVCVector4@2@I@Z DD 00H
	DD	00H
	DD	01H
	DD	02H
	DD	FLAT:__catchsym$?GetColumn@CMatrix4x4@gen@@QBE?AVCVector4@2@I@Z$3
__catchsym$?GetColumn@CMatrix4x4@gen@@QBE?AVCVector4@2@I@Z$3 DD 08H
	DD	FLAT:??_R0?AVCFatalException@gen@@@8
	DD	0ffffffccH
	DD	FLAT:__catch$?GetColumn@CMatrix4x4@gen@@QBE?AVCVector4@2@I@Z$0
	DD	040H
	DD	00H
	DD	00H
	DD	FLAT:__catch$?GetColumn@CMatrix4x4@gen@@QBE?AVCVector4@2@I@Z$1
__ehfuncinfo$?GetColumn@CMatrix4x4@gen@@QBE?AVCVector4@2@I@Z DD 019930522H
	DD	02H
	DD	FLAT:__unwindtable$?GetColumn@CMatrix4x4@gen@@QBE?AVCVector4@2@I@Z
	DD	01H
	DD	FLAT:__tryblocktable$?GetColumn@CMatrix4x4@gen@@QBE?AVCVector4@2@I@Z
	DD	2 DUP(00H)
	DD	00H
	DD	01H
xdata$x	ENDS
;	COMDAT xdata$x
xdata$x	SEGMENT
__unwindtable$?GetRow@CMatrix4x4@gen@@QBE?AVCVector4@2@I@Z DD 0ffffffffH
	DD	00H
	DD	0ffffffffH
	DD	00H
__tryblocktable$?GetRow@CMatrix4x4@gen@@QBE?AVCVector4@2@I@Z DD 00H
	DD	00H
	DD	01H
	DD	02H
	DD	FLAT:__catchsym$?GetRow@CMatrix4x4@gen@@QBE?AVCVector4@2@I@Z$3
__catchsym$?GetRow@CMatrix4x4@gen@@QBE?AVCVector4@2@I@Z$3 DD 08H
	DD	FLAT:??_R0?AVCFatalException@gen@@@8
	DD	0ffffffd8H
	DD	FLAT:__catch$?GetRow@CMatrix4x4@gen@@QBE?AVCVector4@2@I@Z$0
	DD	040H
	DD	00H
	DD	00H
	DD	FLAT:__catch$?GetRow@CMatrix4x4@gen@@QBE?AVCVector4@2@I@Z$1
__ehfuncinfo$?GetRow@CMatrix4x4@gen@@QBE?AVCVector4@2@I@Z DD 019930522H
	DD	02H
	DD	FLAT:__unwindtable$?GetRow@CMatrix4x4@gen@@QBE?AVCVector4@2@I@Z
	DD	01H
	DD	FLAT:__tryblocktable$?GetRow@CMatrix4x4@gen@@QBE?AVCVector4@2@I@Z
	DD	2 DUP(00H)
	DD	00H
	DD	01H
xdata$x	ENDS
;	COMDAT xdata$x
xdata$x	SEGMENT
__unwindtable$?Set@CMatrix4x4@gen@@QAEXPBM_N@Z DD 0ffffffffH
	DD	00H
	DD	0ffffffffH
	DD	00H
__tryblocktable$?Set@CMatrix4x4@gen@@QAEXPBM_N@Z DD 00H
	DD	00H
	DD	01H
	DD	02H
	DD	FLAT:__catchsym$?Set@CMatrix4x4@gen@@QAEXPBM_N@Z$3
__catchsym$?Set@CMatrix4x4@gen@@QAEXPBM_N@Z$3 DD 08H
	DD	FLAT:??_R0?AVCFatalException@gen@@@8
	DD	0ffffffd8H
	DD	FLAT:__catch$?Set@CMatrix4x4@gen@@QAEXPBM_N@Z$0
	DD	040H
	DD	00H
	DD	00H
	DD	FLAT:__catch$?Set@CMatrix4x4@gen@@QAEXPBM_N@Z$1
__ehfuncinfo$?Set@CMatrix4x4@gen@@QAEXPBM_N@Z DD 019930522H
	DD	02H
	DD	FLAT:__unwindtable$?Set@CMatrix4x4@gen@@QAEXPBM_N@Z
	DD	01H
	DD	FLAT:__tryblocktable$?Set@CMatrix4x4@gen@@QAEXPBM_N@Z
	DD	2 DUP(00H)
	DD	00H
	DD	01H
xdata$x	ENDS
;	COMDAT xdata$x
xdata$x	SEGMENT
__unwindtable$??0CMatrix4x4@gen@@QAE@PBM_N@Z DD 0ffffffffH
	DD	00H
	DD	0ffffffffH
	DD	00H
__tryblocktable$??0CMatrix4x4@gen@@QAE@PBM_N@Z DD 00H
	DD	00H
	DD	01H
	DD	02H
	DD	FLAT:__catchsym$??0CMatrix4x4@gen@@QAE@PBM_N@Z$3
__catchsym$??0CMatrix4x4@gen@@QAE@PBM_N@Z$3 DD 08H
	DD	FLAT:??_R0?AVCFatalException@gen@@@8
	DD	0ffffffd8H
	DD	FLAT:__catch$??0CMatrix4x4@gen@@QAE@PBM_N@Z$0
	DD	040H
	DD	00H
	DD	00H
	DD	FLAT:__catch$??0CMatrix4x4@gen@@QAE@PBM_N@Z$1
__ehfuncinfo$??0CMatrix4x4@gen@@QAE@PBM_N@Z DD 019930522H
	DD	02H
	DD	FLAT:__unwindtable$??0CMatrix4x4@gen@@QAE@PBM_N@Z
	DD	01H
	DD	FLAT:__tryblocktable$??0CMatrix4x4@gen@@QAE@PBM_N@Z
	DD	2 DUP(00H)
	DD	00H
	DD	01H
xdata$x	ENDS
;	COMDAT xdata$x
xdata$x	SEGMENT
__unwindtable$?InvSqrt@gen@@YAMM@Z DD 0ffffffffH
	DD	00H
	DD	0ffffffffH
	DD	00H
__tryblocktable$?InvSqrt@gen@@YAMM@Z DD 00H
	DD	00H
	DD	01H
	DD	02H
	DD	FLAT:__catchsym$?InvSqrt@gen@@YAMM@Z$3
__catchsym$?InvSqrt@gen@@YAMM@Z$3 DD 08H
	DD	FLAT:??_R0?AVCFatalException@gen@@@8
	DD	0ffffffe4H
	DD	FLAT:__catch$?InvSqrt@gen@@YAMM@Z$0
	DD	040H
	DD	00H
	DD	00H
	DD	FLAT:__catch$?InvSqrt@gen@@YAMM@Z$1
__ehfuncinfo$?InvSqrt@gen@@YAMM@Z DD 019930522H
	DD	02H
	DD	FLAT:__unwindtable$?InvSqrt@gen@@YAMM@Z
	DD	01H
	DD	FLAT:__tryblocktable$?InvSqrt@gen@@YAMM@Z
	DD	2 DUP(00H)
	DD	00H
	DD	01H
xdata$x	ENDS
;	COMDAT xdata$x
xdata$x	SEGMENT
__unwindtable$??0CFatalException@gen@@QAE@ABV01@@Z DD 0ffffffffH
	DD	FLAT:__unwindfunclet$??0CFatalException@gen@@QAE@ABV01@@Z$0
	DD	00H
	DD	FLAT:__unwindfunclet$??0CFatalException@gen@@QAE@ABV01@@Z$1
__ehfuncinfo$??0CFatalException@gen@@QAE@ABV01@@Z DD 019930522H
	DD	02H
	DD	FLAT:__unwindtable$??0CFatalException@gen@@QAE@ABV01@@Z
	DD	2 DUP(00H)
	DD	2 DUP(00H)
	DD	00H
	DD	01H
xdata$x	ENDS
;	COMDAT xdata$x
xdata$x	SEGMENT
__unwindtable$??0CFatalException@gen@@QAE@PBD00@Z DD 0ffffffffH
	DD	FLAT:__unwindfunclet$??0CFatalException@gen@@QAE@PBD00@Z$0
	DD	00H
	DD	FLAT:__unwindfunclet$??0CFatalException@gen@@QAE@PBD00@Z$1
	DD	01H
	DD	FLAT:__unwindfunclet$??0CFatalException@gen@@QAE@PBD00@Z$2
__ehfuncinfo$??0CFatalException@gen@@QAE@PBD00@Z DD 019930522H
	DD	03H
	DD	FLAT:__unwindtable$??0CFatalException@gen@@QAE@PBD00@Z
	DD	2 DUP(00H)
	DD	2 DUP(00H)
	DD	00H
	DD	01H
xdata$x	ENDS
;	COMDAT xdata$x
xdata$x	SEGMENT
__unwindtable$??0CFatalException@gen@@QAE@PBD0H@Z DD 0ffffffffH
	DD	FLAT:__unwindfunclet$??0CFatalException@gen@@QAE@PBD0H@Z$0
	DD	00H
	DD	FLAT:__unwindfunclet$??0CFatalException@gen@@QAE@PBD0H@Z$1
__ehfuncinfo$??0CFatalException@gen@@QAE@PBD0H@Z DD 019930522H
	DD	02H
	DD	FLAT:__unwindtable$??0CFatalException@gen@@QAE@PBD0H@Z
	DD	2 DUP(00H)
	DD	2 DUP(00H)
	DD	00H
	DD	01H
xdata$x	ENDS
;	COMDAT xdata$x
xdata$x	SEGMENT
__catchsym$?_Copy@?$basic_string@DU?$char_traits@D@std@@V?$allocator@D@2@@std@@QAEXII@Z$5 DD 040H
	DD	00H
	DD	00H
	DD	FLAT:__catch$?_Copy@?$basic_string@DU?$char_traits@D@std@@V?$allocator@D@2@@std@@QAEXII@Z$0
__catchsym$?_Copy@?$basic_string@DU?$char_traits@D@std@@V?$allocator@D@2@@std@@QAEXII@Z$4 DD 040H
	DD	00H
	DD	00H
	DD	FLAT:__catch$?_Copy@?$basic_string@DU?$char_traits@D@std@@V?$allocator@D@2@@std@@QAEXII@Z$1
__unwindtable$?_Copy@?$basic_string@DU?$char_traits@D@std@@V?$allocator@D@2@@std@@QAEXII@Z DD 0ffffffffH
	DD	00H
	DD	0ffffffffH
	DD	00H
	DD	01H
	DD	00H
	DD	01H
	DD	00H
__ehfuncinfo$?_Copy@?$basic_string@DU?$char_traits@D@std@@V?$allocator@D@2@@std@@QAEXII@Z DD 019930522H
	DD	04H
	DD	FLAT:__unwindtable$?_Copy@?$basic_string@DU?$char_traits@D@std@@V?$allocator@D@2@@std@@QAEXII@Z
	DD	02H
	DD	FLAT:__tryblocktable$?_Copy@?$basic_string@DU?$char_traits@D@std@@V?$allocator@D@2@@std@@QAEXII@Z
	DD	2 DUP(00H)
	DD	00H
	DD	01H
__tryblocktable$?_Copy@?$basic_string@DU?$char_traits@D@std@@V?$allocator@D@2@@std@@QAEXII@Z DD 02H
	DD	02H
	DD	03H
	DD	01H
	DD	FLAT:__catchsym$?_Copy@?$basic_string@DU?$char_traits@D@std@@V?$allocator@D@2@@std@@QAEXII@Z$4
	DD	00H
	DD	00H
	DD	03H
	DD	01H
	DD	FLAT:__catchsym$?_Copy@?$basic_string@DU?$char_traits@D@std@@V?$allocator@D@2@@std@@QAEXII@Z$5
xdata$x	ENDS
;	COMDAT xdata$x
xdata$x	SEGMENT
__unwindtable$??0?$basic_string@DU?$char_traits@D@std@@V?$allocator@D@2@@std@@QAE@PBD@Z DD 0ffffffffH
	DD	FLAT:__unwindfunclet$??0?$basic_string@DU?$char_traits@D@std@@V?$allocator@D@2@@std@@QAE@PBD@Z$0
__ehfuncinfo$??0?$basic_string@DU?$char_traits@D@std@@V?$allocator@D@2@@std@@QAE@PBD@Z DD 019930522H
	DD	01H
	DD	FLAT:__unwindtable$??0?$basic_string@DU?$char_traits@D@std@@V?$allocator@D@2@@std@@QAE@PBD@Z
	DD	2 DUP(00H)
	DD	2 DUP(00H)
	DD	00H
	DD	01H
xdata$x	ENDS
;	COMDAT xdata$x
xdata$x	SEGMENT
__unwindtable$??0?$basic_string@DU?$char_traits@D@std@@V?$allocator@D@2@@std@@QAE@ABV01@@Z DD 0ffffffffH
	DD	FLAT:__unwindfunclet$??0?$basic_string@DU?$char_traits@D@std@@V?$allocator@D@2@@std@@QAE@ABV01@@Z$0
__ehfuncinfo$??0?$basic_string@DU?$char_traits@D@std@@V?$allocator@D@2@@std@@QAE@ABV01@@Z DD 019930522H
	DD	01H
	DD	FLAT:__unwindtable$??0?$basic_string@DU?$char_traits@D@std@@V?$allocator@D@2@@std@@QAE@ABV01@@Z
	DD	2 DUP(00H)
	DD	2 DUP(00H)
	DD	00H
	DD	01H
xdata$x	ENDS
;	COMDAT xdata$x
xdata$x	SEGMENT
__unwindtable$??0?$_String_alloc@$0A@U?$_String_base_types@DV?$allocator@D@std@@@std@@@std@@QAE@ABV?$allocator@D@1@@Z DD 0ffffffffH
	DD	FLAT:__unwindfunclet$??0?$_String_alloc@$0A@U?$_String_base_types@DV?$allocator@D@std@@@std@@@std@@QAE@ABV?$allocator@D@1@@Z$0
__ehfuncinfo$??0?$_String_alloc@$0A@U?$_String_base_types@DV?$allocator@D@std@@@std@@@std@@QAE@ABV?$allocator@D@1@@Z DD 019930522H
	DD	01H
	DD	FLAT:__unwindtable$??0?$_String_alloc@$0A@U?$_String_base_types@DV?$allocator@D@std@@@std@@@std@@QAE@ABV?$allocator@D@1@@Z
	DD	2 DUP(00H)
	DD	2 DUP(00H)
	DD	00H
	DD	01H
xdata$x	ENDS
CRT$XCU	SEGMENT
_allocator_arg$initializer$ DD FLAT:??__Eallocator_arg@std@@YAXXZ
CRT$XCU	ENDS
CRT$XCU	SEGMENT
_ksCompiler$initializer$ DD FLAT:??__EksCompiler@gen@@YAXXZ
CRT$XCU	ENDS
CRT$XCU	SEGMENT
_ksPathSeparator$initializer$ DD FLAT:??__EksPathSeparator@gen@@YAXXZ
CRT$XCU	ENDS
CRT$XCU	SEGMENT
_ksNewline$initializer$ DD FLAT:??__EksNewline@gen@@YAXXZ
CRT$XCU	ENDS
CRT$XCU	SEGMENT
?kIdentity$initializer$@CMatrix4x4@gen@@2P6AXXZA DD FLAT:??__E?kIdentity@CMatrix4x4@gen@@2V12@B@@YAXXZ ; gen::CMatrix4x4::kIdentity$initializer$
CRT$XCU	ENDS
;	COMDAT CRT$XCU
CRT$XCU	SEGMENT
?_Generic_object$initializer$@?$_Error_objects@H@std@@2P6AXXZA DD FLAT:??__E?_Generic_object@?$_Error_objects@H@std@@2V_Generic_error_category@2@A@@YAXXZ ; std::_Error_objects<int>::_Generic_object$initializer$
CRT$XCU	ENDS
;	COMDAT CRT$XCU
CRT$XCU	SEGMENT
?_Iostream_object$initializer$@?$_Error_objects@H@std@@2P6AXXZA DD FLAT:??__E?_Iostream_object@?$_Error_objects@H@std@@2V_Iostream_error_category@2@A@@YAXXZ ; std::_Error_objects<int>::_Iostream_object$initializer$
CRT$XCU	ENDS
;	COMDAT CRT$XCU
CRT$XCU	SEGMENT
?_System_object$initializer$@?$_Error_objects@H@std@@2P6AXXZA DD FLAT:??__E?_System_object@?$_Error_objects@H@std@@2V_System_error_category@2@A@@YAXXZ ; std::_Error_objects<int>::_System_object$initializer$
CRT$XCU	ENDS
;	COMDAT CRT$XCU
CRT$XCU	SEGMENT
?id$initializer$@?$num_put@DV?$back_insert_iterator@V?$basic_string@DU?$char_traits@D@std@@V?$allocator@D@2@@std@@@std@@@std@@2P6AXXZA DD FLAT:??__E?id@?$num_put@DV?$back_insert_iterator@V?$basic_string@DU?$char_traits@D@std@@V?$allocator@D@2@@std@@@std@@@std@@2V0locale@2@A@@YAXXZ ; std::num_put<char,std::back_insert_iterator<std::basic_string<char,std::char_traits<char>,std::allocator<char> > > >::id$initializer$
CRT$XCU	ENDS
;	COMDAT CRT$XCU
CRT$XCU	SEGMENT
?id$initializer$@?$num_put@_WV?$back_insert_iterator@V?$basic_string@_WU?$char_traits@_W@std@@V?$allocator@_W@2@@std@@@std@@@std@@2P6AXXZA DD FLAT:??__E?id@?$num_put@_WV?$back_insert_iterator@V?$basic_string@_WU?$char_traits@_W@std@@V?$allocator@_W@2@@std@@@std@@@std@@2V0locale@2@A@@YAXXZ ; std::num_put<wchar_t,std::back_insert_iterator<std::basic_string<wchar_t,std::char_traits<wchar_t>,std::allocator<wchar_t> > > >::id$initializer$
CRT$XCU	ENDS
;	COMDAT CRT$XCU
CRT$XCU	SEGMENT
?id$initializer$@?$numpunct@D@std@@2P6AXXZA DD FLAT:??__E?id@?$numpunct@D@std@@2V0locale@2@A@@YAXXZ ; std::numpunct<char>::id$initializer$
CRT$XCU	ENDS
;	COMDAT CRT$XCU
CRT$XCU	SEGMENT
?id$initializer$@?$numpunct@_W@std@@2P6AXXZA DD FLAT:??__E?id@?$numpunct@_W@std@@2V0locale@2@A@@YAXXZ ; std::numpunct<wchar_t>::id$initializer$
CRT$XCU	ENDS
; Function compile flags: /Odtp /RTCsu /ZI
; File c:\program files (x86)\microsoft visual studio 12.0\vc\include\xmemory0
;	COMDAT ??$destroy@PAD@?$allocator@D@std@@QAEXPAPAD@Z
_TEXT	SEGMENT
_this$ = -8						; size = 4
__Ptr$ = 8						; size = 4
??$destroy@PAD@?$allocator@D@std@@QAEXPAPAD@Z PROC	; std::allocator<char>::destroy<char *>, COMDAT
; _this$ = ecx

; 605  : 		void destroy(_Uty *_Ptr)

	push	ebp
	mov	ebp, esp
	sub	esp, 204				; 000000ccH
	push	ebx
	push	esi
	push	edi
	push	ecx
	lea	edi, DWORD PTR [ebp-204]
	mov	ecx, 51					; 00000033H
	mov	eax, -858993460				; ccccccccH
	rep stosd
	pop	ecx
	mov	DWORD PTR _this$[ebp], ecx

; 606  : 		{	// destroy object at _Ptr
; 607  : 		_Ptr->~_Uty();
; 608  : 		}

	pop	edi
	pop	esi
	pop	ebx
	mov	esp, ebp
	pop	ebp
	ret	4
??$destroy@PAD@?$allocator@D@std@@QAEXPAPAD@Z ENDP	; std::allocator<char>::destroy<char *>
_TEXT	ENDS
; Function compile flags: /Odtp /RTCsu /ZI
; File c:\program files (x86)\microsoft visual studio 12.0\vc\include\xmemory0
;	COMDAT ??$construct@PADAAPAD@?$allocator@D@std@@QAEXPAPADAAPAD@Z
_TEXT	SEGMENT
tv73 = -244						; size = 4
$T2 = -236						; size = 4
$T3 = -224						; size = 4
_this$ = -20						; size = 4
__$EHRec$ = -12						; size = 12
__Ptr$ = 8						; size = 4
_<_Args_0>$ = 12					; size = 4
??$construct@PADAAPAD@?$allocator@D@std@@QAEXPAPADAAPAD@Z PROC ; std::allocator<char>::construct<char *,char * &>, COMDAT
; _this$ = ecx

; 598  : 		void construct(_Objty *_Ptr, _Types&&... _Args)

	push	ebp
	mov	ebp, esp
	push	-1
	push	__ehhandler$??$construct@PADAAPAD@?$allocator@D@std@@QAEXPAPADAAPAD@Z
	mov	eax, DWORD PTR fs:0
	push	eax
	sub	esp, 232				; 000000e8H
	push	ebx
	push	esi
	push	edi
	push	ecx
	lea	edi, DWORD PTR [ebp-244]
	mov	ecx, 58					; 0000003aH
	mov	eax, -858993460				; ccccccccH
	rep stosd
	pop	ecx
	mov	eax, DWORD PTR ___security_cookie
	xor	eax, ebp
	push	eax
	lea	eax, DWORD PTR __$EHRec$[ebp]
	mov	DWORD PTR fs:0, eax
	mov	DWORD PTR _this$[ebp], ecx

; 599  : 		{	// construct _Objty(_Types...) at _Ptr
; 600  : 		::new ((void *)_Ptr) _Objty(_STD forward<_Types>(_Args)...);

	mov	eax, DWORD PTR __Ptr$[ebp]
	push	eax
	push	4
	call	??2@YAPAXIPAX@Z				; operator new
	add	esp, 8
	mov	DWORD PTR $T3[ebp], eax
	mov	DWORD PTR __$EHRec$[ebp+8], 0
	cmp	DWORD PTR $T3[ebp], 0
	je	SHORT $LN3@construct
	mov	ecx, DWORD PTR _<_Args_0>$[ebp]
	push	ecx
	call	??$forward@AAPAD@std@@YAAAPADAAPAD@Z	; std::forward<char * &>
	add	esp, 4
	mov	edx, DWORD PTR $T3[ebp]
	mov	eax, DWORD PTR [eax]
	mov	DWORD PTR [edx], eax
	mov	ecx, DWORD PTR $T3[ebp]
	mov	DWORD PTR tv73[ebp], ecx
	jmp	SHORT $LN4@construct
$LN3@construct:
	mov	DWORD PTR tv73[ebp], 0
$LN4@construct:
	mov	edx, DWORD PTR tv73[ebp]
	mov	DWORD PTR $T2[ebp], edx
	mov	DWORD PTR __$EHRec$[ebp+8], -1

; 601  : 		}

	mov	ecx, DWORD PTR __$EHRec$[ebp]
	mov	DWORD PTR fs:0, ecx
	pop	ecx
	pop	edi
	pop	esi
	pop	ebx
	add	esp, 244				; 000000f4H
	cmp	ebp, esp
	call	__RTC_CheckEsp
	mov	esp, ebp
	pop	ebp
	ret	8
_TEXT	ENDS
;	COMDAT text$x
text$x	SEGMENT
__unwindfunclet$??$construct@PADAAPAD@?$allocator@D@std@@QAEXPAPADAAPAD@Z$0:
	mov	eax, DWORD PTR __Ptr$[ebp]
	push	eax
	mov	eax, DWORD PTR $T3[ebp]
	push	eax
	call	??3@YAXPAX0@Z				; operator delete
	add	esp, 8
	ret	0
__ehhandler$??$construct@PADAAPAD@?$allocator@D@std@@QAEXPAPADAAPAD@Z:
	mov	edx, DWORD PTR [esp+8]
	lea	eax, DWORD PTR [edx+12]
	mov	ecx, DWORD PTR [edx-248]
	xor	ecx, eax
	call	@__security_check_cookie@4
	mov	eax, OFFSET __ehfuncinfo$??$construct@PADAAPAD@?$allocator@D@std@@QAEXPAPADAAPAD@Z
	jmp	___CxxFrameHandler3
text$x	ENDS
??$construct@PADAAPAD@?$allocator@D@std@@QAEXPAPADAAPAD@Z ENDP ; std::allocator<char>::construct<char *,char * &>
; Function compile flags: /Odtp /RTCsu /ZI
; File c:\program files (x86)\microsoft visual studio 12.0\vc\include\xlocnum
;	COMDAT ??__E?id@?$numpunct@_W@std@@2V0locale@2@A@@YAXXZ
text$di	SEGMENT
??__E?id@?$numpunct@_W@std@@2V0locale@2@A@@YAXXZ PROC	; `dynamic initializer for 'std::numpunct<wchar_t>::id'', COMDAT

; 155  : 		void _Getvals(wchar_t, const lconv *_Ptr, _Locinfo::_Cvtvec)

	push	ebp
	mov	ebp, esp
	sub	esp, 192				; 000000c0H
	push	ebx
	push	esi
	push	edi
	lea	edi, DWORD PTR [ebp-192]
	mov	ecx, 48					; 00000030H
	mov	eax, -858993460				; ccccccccH
	rep stosd
	push	0
	mov	ecx, OFFSET ?id@?$numpunct@_W@std@@2V0locale@2@A ; std::numpunct<wchar_t>::id
	call	??0id@locale@std@@QAE@I@Z		; std::locale::id::id
	pop	edi
	pop	esi
	pop	ebx
	add	esp, 192				; 000000c0H
	cmp	ebp, esp
	call	__RTC_CheckEsp
	mov	esp, ebp
	pop	ebp
	ret	0
??__E?id@?$numpunct@_W@std@@2V0locale@2@A@@YAXXZ ENDP	; `dynamic initializer for 'std::numpunct<wchar_t>::id''
text$di	ENDS
; Function compile flags: /Odtp /RTCsu /ZI
; File c:\program files (x86)\microsoft visual studio 12.0\vc\include\xlocnum
;	COMDAT ??__E?id@?$numpunct@D@std@@2V0locale@2@A@@YAXXZ
text$di	SEGMENT
??__E?id@?$numpunct@D@std@@2V0locale@2@A@@YAXXZ PROC	; `dynamic initializer for 'std::numpunct<char>::id'', COMDAT

; 155  : 		void _Getvals(wchar_t, const lconv *_Ptr, _Locinfo::_Cvtvec)

	push	ebp
	mov	ebp, esp
	sub	esp, 192				; 000000c0H
	push	ebx
	push	esi
	push	edi
	lea	edi, DWORD PTR [ebp-192]
	mov	ecx, 48					; 00000030H
	mov	eax, -858993460				; ccccccccH
	rep stosd
	push	0
	mov	ecx, OFFSET ?id@?$numpunct@D@std@@2V0locale@2@A ; std::numpunct<char>::id
	call	??0id@locale@std@@QAE@I@Z		; std::locale::id::id
	pop	edi
	pop	esi
	pop	ebx
	add	esp, 192				; 000000c0H
	cmp	ebp, esp
	call	__RTC_CheckEsp
	mov	esp, ebp
	pop	ebp
	ret	0
??__E?id@?$numpunct@D@std@@2V0locale@2@A@@YAXXZ ENDP	; `dynamic initializer for 'std::numpunct<char>::id''
text$di	ENDS
; Function compile flags: /Odtp /RTCsu /ZI
; File c:\program files (x86)\microsoft visual studio 12.0\vc\include\xlocnum
;	COMDAT ??__E?id@?$num_put@_WV?$back_insert_iterator@V?$basic_string@_WU?$char_traits@_W@std@@V?$allocator@_W@2@@std@@@std@@@std@@2V0locale@2@A@@YAXXZ
text$di	SEGMENT
??__E?id@?$num_put@_WV?$back_insert_iterator@V?$basic_string@_WU?$char_traits@_W@std@@V?$allocator@_W@2@@std@@@std@@@std@@2V0locale@2@A@@YAXXZ PROC ; `dynamic initializer for 'std::num_put<wchar_t,std::back_insert_iterator<std::basic_string<wchar_t,std::char_traits<wchar_t>,std::allocator<wchar_t> > > >::id'', COMDAT

; 155  : 		void _Getvals(wchar_t, const lconv *_Ptr, _Locinfo::_Cvtvec)

	push	ebp
	mov	ebp, esp
	sub	esp, 192				; 000000c0H
	push	ebx
	push	esi
	push	edi
	lea	edi, DWORD PTR [ebp-192]
	mov	ecx, 48					; 00000030H
	mov	eax, -858993460				; ccccccccH
	rep stosd
	push	0
	mov	ecx, OFFSET ?id@?$num_put@_WV?$back_insert_iterator@V?$basic_string@_WU?$char_traits@_W@std@@V?$allocator@_W@2@@std@@@std@@@std@@2V0locale@2@A ; std::num_put<wchar_t,std::back_insert_iterator<std::basic_string<wchar_t,std::char_traits<wchar_t>,std::allocator<wchar_t> > > >::id
	call	??0id@locale@std@@QAE@I@Z		; std::locale::id::id
	pop	edi
	pop	esi
	pop	ebx
	add	esp, 192				; 000000c0H
	cmp	ebp, esp
	call	__RTC_CheckEsp
	mov	esp, ebp
	pop	ebp
	ret	0
??__E?id@?$num_put@_WV?$back_insert_iterator@V?$basic_string@_WU?$char_traits@_W@std@@V?$allocator@_W@2@@std@@@std@@@std@@2V0locale@2@A@@YAXXZ ENDP ; `dynamic initializer for 'std::num_put<wchar_t,std::back_insert_iterator<std::basic_string<wchar_t,std::char_traits<wchar_t>,std::allocator<wchar_t> > > >::id''
text$di	ENDS
; Function compile flags: /Odtp /RTCsu /ZI
; File c:\program files (x86)\microsoft visual studio 12.0\vc\include\xlocnum
;	COMDAT ??__E?id@?$num_put@DV?$back_insert_iterator@V?$basic_string@DU?$char_traits@D@std@@V?$allocator@D@2@@std@@@std@@@std@@2V0locale@2@A@@YAXXZ
text$di	SEGMENT
??__E?id@?$num_put@DV?$back_insert_iterator@V?$basic_string@DU?$char_traits@D@std@@V?$allocator@D@2@@std@@@std@@@std@@2V0locale@2@A@@YAXXZ PROC ; `dynamic initializer for 'std::num_put<char,std::back_insert_iterator<std::basic_string<char,std::char_traits<char>,std::allocator<char> > > >::id'', COMDAT

; 155  : 		void _Getvals(wchar_t, const lconv *_Ptr, _Locinfo::_Cvtvec)

	push	ebp
	mov	ebp, esp
	sub	esp, 192				; 000000c0H
	push	ebx
	push	esi
	push	edi
	lea	edi, DWORD PTR [ebp-192]
	mov	ecx, 48					; 00000030H
	mov	eax, -858993460				; ccccccccH
	rep stosd
	push	0
	mov	ecx, OFFSET ?id@?$num_put@DV?$back_insert_iterator@V?$basic_string@DU?$char_traits@D@std@@V?$allocator@D@2@@std@@@std@@@std@@2V0locale@2@A ; std::num_put<char,std::back_insert_iterator<std::basic_string<char,std::char_traits<char>,std::allocator<char> > > >::id
	call	??0id@locale@std@@QAE@I@Z		; std::locale::id::id
	pop	edi
	pop	esi
	pop	ebx
	add	esp, 192				; 000000c0H
	cmp	ebp, esp
	call	__RTC_CheckEsp
	mov	esp, ebp
	pop	ebp
	ret	0
??__E?id@?$num_put@DV?$back_insert_iterator@V?$basic_string@DU?$char_traits@D@std@@V?$allocator@D@2@@std@@@std@@@std@@2V0locale@2@A@@YAXXZ ENDP ; `dynamic initializer for 'std::num_put<char,std::back_insert_iterator<std::basic_string<char,std::char_traits<char>,std::allocator<char> > > >::id''
text$di	ENDS
; Function compile flags: /Odtp /RTCsu /ZI
; File c:\program files (x86)\microsoft visual studio 12.0\vc\include\type_traits
;	COMDAT ??$forward@U_Container_proxy@std@@@std@@YA$$QAU_Container_proxy@0@AAU10@@Z
_TEXT	SEGMENT
__Arg$ = 8						; size = 4
??$forward@U_Container_proxy@std@@@std@@YA$$QAU_Container_proxy@0@AAU10@@Z PROC ; std::forward<std::_Container_proxy>, COMDAT

; 1504 : 	{	// forward an lvalue

	push	ebp
	mov	ebp, esp
	sub	esp, 192				; 000000c0H
	push	ebx
	push	esi
	push	edi
	lea	edi, DWORD PTR [ebp-192]
	mov	ecx, 48					; 00000030H
	mov	eax, -858993460				; ccccccccH
	rep stosd

; 1505 : 	return (static_cast<_Ty&&>(_Arg));

	mov	eax, DWORD PTR __Arg$[ebp]

; 1506 : 	}

	pop	edi
	pop	esi
	pop	ebx
	mov	esp, ebp
	pop	ebp
	ret	0
??$forward@U_Container_proxy@std@@@std@@YA$$QAU_Container_proxy@0@AAU10@@Z ENDP ; std::forward<std::_Container_proxy>
_TEXT	ENDS
; Function compile flags: /Odtp /RTCsu /ZI
; File c:\program files (x86)\microsoft visual studio 12.0\vc\include\xmemory0
;	COMDAT ??$destroy@PAD@?$allocator_traits@V?$allocator@D@std@@@std@@SAXAAV?$allocator@D@1@PAPAD@Z
_TEXT	SEGMENT
__Al$ = 8						; size = 4
__Ptr$ = 12						; size = 4
??$destroy@PAD@?$allocator_traits@V?$allocator@D@std@@@std@@SAXAAV?$allocator@D@1@PAPAD@Z PROC ; std::allocator_traits<std::allocator<char> >::destroy<char *>, COMDAT

; 728  : 		static void destroy(_Alloc& _Al, _Uty *_Ptr)

	push	ebp
	mov	ebp, esp
	sub	esp, 192				; 000000c0H
	push	ebx
	push	esi
	push	edi
	lea	edi, DWORD PTR [ebp-192]
	mov	ecx, 48					; 00000030H
	mov	eax, -858993460				; ccccccccH
	rep stosd

; 729  : 		{	// destroy object at _Ptr
; 730  : 		_Al.destroy(_Ptr);

	mov	eax, DWORD PTR __Ptr$[ebp]
	push	eax
	mov	ecx, DWORD PTR __Al$[ebp]
	call	??$destroy@PAD@?$allocator@D@std@@QAEXPAPAD@Z ; std::allocator<char>::destroy<char *>

; 731  : 		}

	pop	edi
	pop	esi
	pop	ebx
	add	esp, 192				; 000000c0H
	cmp	ebp, esp
	call	__RTC_CheckEsp
	mov	esp, ebp
	pop	ebp
	ret	0
??$destroy@PAD@?$allocator_traits@V?$allocator@D@std@@@std@@SAXAAV?$allocator@D@1@PAPAD@Z ENDP ; std::allocator_traits<std::allocator<char> >::destroy<char *>
_TEXT	ENDS
; Function compile flags: /Odtp /RTCsu /ZI
; File c:\program files (x86)\microsoft visual studio 12.0\vc\include\xmemory0
;	COMDAT ??$construct@PADAAPAD@?$allocator_traits@V?$allocator@D@std@@@std@@SAXAAV?$allocator@D@1@PAPADAAPAD@Z
_TEXT	SEGMENT
__Al$ = 8						; size = 4
__Ptr$ = 12						; size = 4
_<_Args_0>$ = 16					; size = 4
??$construct@PADAAPAD@?$allocator_traits@V?$allocator@D@std@@@std@@SAXAAV?$allocator@D@1@PAPADAAPAD@Z PROC ; std::allocator_traits<std::allocator<char> >::construct<char *,char * &>, COMDAT

; 720  : 		static void construct(_Alloc& _Al, _Objty *_Ptr,

	push	ebp
	mov	ebp, esp
	sub	esp, 192				; 000000c0H
	push	ebx
	push	esi
	push	edi
	lea	edi, DWORD PTR [ebp-192]
	mov	ecx, 48					; 00000030H
	mov	eax, -858993460				; ccccccccH
	rep stosd

; 721  : 			_Types&&... _Args)
; 722  : 		{	// construct _Objty(_Types...) at _Ptr
; 723  : 		_Al.construct(_Ptr, _STD forward<_Types>(_Args)...);

	mov	eax, DWORD PTR _<_Args_0>$[ebp]
	push	eax
	call	??$forward@AAPAD@std@@YAAAPADAAPAD@Z	; std::forward<char * &>
	add	esp, 4
	push	eax
	mov	ecx, DWORD PTR __Ptr$[ebp]
	push	ecx
	mov	ecx, DWORD PTR __Al$[ebp]
	call	??$construct@PADAAPAD@?$allocator@D@std@@QAEXPAPADAAPAD@Z ; std::allocator<char>::construct<char *,char * &>

; 724  : 		}

	pop	edi
	pop	esi
	pop	ebx
	add	esp, 192				; 000000c0H
	cmp	ebp, esp
	call	__RTC_CheckEsp
	mov	esp, ebp
	pop	ebp
	ret	0
??$construct@PADAAPAD@?$allocator_traits@V?$allocator@D@std@@@std@@SAXAAV?$allocator@D@1@PAPADAAPAD@Z ENDP ; std::allocator_traits<std::allocator<char> >::construct<char *,char * &>
_TEXT	ENDS
; Function compile flags: /Odtp /RTCsu /ZI
; File c:\program files (x86)\microsoft visual studio 12.0\vc\include\type_traits
;	COMDAT ??$forward@AAPAD@std@@YAAAPADAAPAD@Z
_TEXT	SEGMENT
__Arg$ = 8						; size = 4
??$forward@AAPAD@std@@YAAAPADAAPAD@Z PROC		; std::forward<char * &>, COMDAT

; 1504 : 	{	// forward an lvalue

	push	ebp
	mov	ebp, esp
	sub	esp, 192				; 000000c0H
	push	ebx
	push	esi
	push	edi
	lea	edi, DWORD PTR [ebp-192]
	mov	ecx, 48					; 00000030H
	mov	eax, -858993460				; ccccccccH
	rep stosd

; 1505 : 	return (static_cast<_Ty&&>(_Arg));

	mov	eax, DWORD PTR __Arg$[ebp]

; 1506 : 	}

	pop	edi
	pop	esi
	pop	ebx
	mov	esp, ebp
	pop	ebp
	ret	0
??$forward@AAPAD@std@@YAAAPADAAPAD@Z ENDP		; std::forward<char * &>
_TEXT	ENDS
; Function compile flags: /Odtp /RTCsu /ZI
;	COMDAT ??__F?_System_object@?$_Error_objects@H@std@@2V_System_error_category@2@A@@YAXXZ
text$yd	SEGMENT
??__F?_System_object@?$_Error_objects@H@std@@2V_System_error_category@2@A@@YAXXZ PROC ; `dynamic atexit destructor for 'std::_Error_objects<int>::_System_object'', COMDAT
	push	ebp
	mov	ebp, esp
	sub	esp, 192				; 000000c0H
	push	ebx
	push	esi
	push	edi
	lea	edi, DWORD PTR [ebp-192]
	mov	ecx, 48					; 00000030H
	mov	eax, -858993460				; ccccccccH
	rep stosd
	mov	ecx, OFFSET ?_System_object@?$_Error_objects@H@std@@2V_System_error_category@2@A ; std::_Error_objects<int>::_System_object
	call	??1_System_error_category@std@@UAE@XZ
	pop	edi
	pop	esi
	pop	ebx
	add	esp, 192				; 000000c0H
	cmp	ebp, esp
	call	__RTC_CheckEsp
	mov	esp, ebp
	pop	ebp
	ret	0
??__F?_System_object@?$_Error_objects@H@std@@2V_System_error_category@2@A@@YAXXZ ENDP ; `dynamic atexit destructor for 'std::_Error_objects<int>::_System_object''
text$yd	ENDS
; Function compile flags: /Odtp /RTCsu /ZI
; File c:\program files (x86)\microsoft visual studio 12.0\vc\include\xmemory0
;	COMDAT ??__E?_System_object@?$_Error_objects@H@std@@2V_System_error_category@2@A@@YAXXZ
text$di	SEGMENT
??__E?_System_object@?$_Error_objects@H@std@@2V_System_error_category@2@A@@YAXXZ PROC ; `dynamic initializer for 'std::_Error_objects<int>::_System_object'', COMDAT

; 611  : 		{	// estimate maximum array size

	push	ebp
	mov	ebp, esp
	sub	esp, 192				; 000000c0H
	push	ebx
	push	esi
	push	edi
	lea	edi, DWORD PTR [ebp-192]
	mov	ecx, 48					; 00000030H
	mov	eax, -858993460				; ccccccccH
	rep stosd
	mov	ecx, OFFSET ?_System_object@?$_Error_objects@H@std@@2V_System_error_category@2@A ; std::_Error_objects<int>::_System_object
	call	??0_System_error_category@std@@QAE@XZ	; std::_System_error_category::_System_error_category
	push	OFFSET ??__F?_System_object@?$_Error_objects@H@std@@2V_System_error_category@2@A@@YAXXZ ; `dynamic atexit destructor for 'std::_Error_objects<int>::_System_object''
	call	_atexit
	add	esp, 4
	pop	edi
	pop	esi
	pop	ebx
	add	esp, 192				; 000000c0H
	cmp	ebp, esp
	call	__RTC_CheckEsp
	mov	esp, ebp
	pop	ebp
	ret	0
??__E?_System_object@?$_Error_objects@H@std@@2V_System_error_category@2@A@@YAXXZ ENDP ; `dynamic initializer for 'std::_Error_objects<int>::_System_object''
text$di	ENDS
; Function compile flags: /Odtp /RTCsu /ZI
;	COMDAT ??__F?_Iostream_object@?$_Error_objects@H@std@@2V_Iostream_error_category@2@A@@YAXXZ
text$yd	SEGMENT
??__F?_Iostream_object@?$_Error_objects@H@std@@2V_Iostream_error_category@2@A@@YAXXZ PROC ; `dynamic atexit destructor for 'std::_Error_objects<int>::_Iostream_object'', COMDAT
	push	ebp
	mov	ebp, esp
	sub	esp, 192				; 000000c0H
	push	ebx
	push	esi
	push	edi
	lea	edi, DWORD PTR [ebp-192]
	mov	ecx, 48					; 00000030H
	mov	eax, -858993460				; ccccccccH
	rep stosd
	mov	ecx, OFFSET ?_Iostream_object@?$_Error_objects@H@std@@2V_Iostream_error_category@2@A ; std::_Error_objects<int>::_Iostream_object
	call	??1_Iostream_error_category@std@@UAE@XZ
	pop	edi
	pop	esi
	pop	ebx
	add	esp, 192				; 000000c0H
	cmp	ebp, esp
	call	__RTC_CheckEsp
	mov	esp, ebp
	pop	ebp
	ret	0
??__F?_Iostream_object@?$_Error_objects@H@std@@2V_Iostream_error_category@2@A@@YAXXZ ENDP ; `dynamic atexit destructor for 'std::_Error_objects<int>::_Iostream_object''
text$yd	ENDS
; Function compile flags: /Odtp /RTCsu /ZI
; File c:\program files (x86)\microsoft visual studio 12.0\vc\include\xmemory0
;	COMDAT ??__E?_Iostream_object@?$_Error_objects@H@std@@2V_Iostream_error_category@2@A@@YAXXZ
text$di	SEGMENT
??__E?_Iostream_object@?$_Error_objects@H@std@@2V_Iostream_error_category@2@A@@YAXXZ PROC ; `dynamic initializer for 'std::_Error_objects<int>::_Iostream_object'', COMDAT

; 611  : 		{	// estimate maximum array size

	push	ebp
	mov	ebp, esp
	sub	esp, 192				; 000000c0H
	push	ebx
	push	esi
	push	edi
	lea	edi, DWORD PTR [ebp-192]
	mov	ecx, 48					; 00000030H
	mov	eax, -858993460				; ccccccccH
	rep stosd
	mov	ecx, OFFSET ?_Iostream_object@?$_Error_objects@H@std@@2V_Iostream_error_category@2@A ; std::_Error_objects<int>::_Iostream_object
	call	??0_Iostream_error_category@std@@QAE@XZ	; std::_Iostream_error_category::_Iostream_error_category
	push	OFFSET ??__F?_Iostream_object@?$_Error_objects@H@std@@2V_Iostream_error_category@2@A@@YAXXZ ; `dynamic atexit destructor for 'std::_Error_objects<int>::_Iostream_object''
	call	_atexit
	add	esp, 4
	pop	edi
	pop	esi
	pop	ebx
	add	esp, 192				; 000000c0H
	cmp	ebp, esp
	call	__RTC_CheckEsp
	mov	esp, ebp
	pop	ebp
	ret	0
??__E?_Iostream_object@?$_Error_objects@H@std@@2V_Iostream_error_category@2@A@@YAXXZ ENDP ; `dynamic initializer for 'std::_Error_objects<int>::_Iostream_object''
text$di	ENDS
; Function compile flags: /Odtp /RTCsu /ZI
;	COMDAT ??__F?_Generic_object@?$_Error_objects@H@std@@2V_Generic_error_category@2@A@@YAXXZ
text$yd	SEGMENT
??__F?_Generic_object@?$_Error_objects@H@std@@2V_Generic_error_category@2@A@@YAXXZ PROC ; `dynamic atexit destructor for 'std::_Error_objects<int>::_Generic_object'', COMDAT
	push	ebp
	mov	ebp, esp
	sub	esp, 192				; 000000c0H
	push	ebx
	push	esi
	push	edi
	lea	edi, DWORD PTR [ebp-192]
	mov	ecx, 48					; 00000030H
	mov	eax, -858993460				; ccccccccH
	rep stosd
	mov	ecx, OFFSET ?_Generic_object@?$_Error_objects@H@std@@2V_Generic_error_category@2@A ; std::_Error_objects<int>::_Generic_object
	call	??1_Generic_error_category@std@@UAE@XZ
	pop	edi
	pop	esi
	pop	ebx
	add	esp, 192				; 000000c0H
	cmp	ebp, esp
	call	__RTC_CheckEsp
	mov	esp, ebp
	pop	ebp
	ret	0
??__F?_Generic_object@?$_Error_objects@H@std@@2V_Generic_error_category@2@A@@YAXXZ ENDP ; `dynamic atexit destructor for 'std::_Error_objects<int>::_Generic_object''
text$yd	ENDS
; Function compile flags: /Odtp /RTCsu /ZI
; File c:\program files (x86)\microsoft visual studio 12.0\vc\include\xmemory0
;	COMDAT ??__E?_Generic_object@?$_Error_objects@H@std@@2V_Generic_error_category@2@A@@YAXXZ
text$di	SEGMENT
??__E?_Generic_object@?$_Error_objects@H@std@@2V_Generic_error_category@2@A@@YAXXZ PROC ; `dynamic initializer for 'std::_Error_objects<int>::_Generic_object'', COMDAT

; 611  : 		{	// estimate maximum array size

	push	ebp
	mov	ebp, esp
	sub	esp, 192				; 000000c0H
	push	ebx
	push	esi
	push	edi
	lea	edi, DWORD PTR [ebp-192]
	mov	ecx, 48					; 00000030H
	mov	eax, -858993460				; ccccccccH
	rep stosd
	mov	ecx, OFFSET ?_Generic_object@?$_Error_objects@H@std@@2V_Generic_error_category@2@A ; std::_Error_objects<int>::_Generic_object
	call	??0_Generic_error_category@std@@QAE@XZ	; std::_Generic_error_category::_Generic_error_category
	push	OFFSET ??__F?_Generic_object@?$_Error_objects@H@std@@2V_Generic_error_category@2@A@@YAXXZ ; `dynamic atexit destructor for 'std::_Error_objects<int>::_Generic_object''
	call	_atexit
	add	esp, 4
	pop	edi
	pop	esi
	pop	ebx
	add	esp, 192				; 000000c0H
	cmp	ebp, esp
	call	__RTC_CheckEsp
	mov	esp, ebp
	pop	ebp
	ret	0
??__E?_Generic_object@?$_Error_objects@H@std@@2V_Generic_error_category@2@A@@YAXXZ ENDP ; `dynamic initializer for 'std::_Error_objects<int>::_Generic_object''
text$di	ENDS
; Function compile flags: /Odtp /RTCsu /ZI
; File c:\program files (x86)\microsoft visual studio 12.0\vc\include\xmemory0
;	COMDAT ??$_Allocate@D@std@@YAPADIPAD@Z
_TEXT	SEGMENT
__Ptr$ = -8						; size = 4
__Count$ = 8						; size = 4
___formal$ = 12						; size = 4
??$_Allocate@D@std@@YAPADIPAD@Z PROC			; std::_Allocate<char>, COMDAT

; 22   : 	{	// allocate storage for _Count elements of type _Ty

	push	ebp
	mov	ebp, esp
	sub	esp, 204				; 000000ccH
	push	ebx
	push	esi
	push	edi
	lea	edi, DWORD PTR [ebp-204]
	mov	ecx, 51					; 00000033H
	mov	eax, -858993460				; ccccccccH
	rep stosd

; 23   : 	void *_Ptr = 0;

	mov	DWORD PTR __Ptr$[ebp], 0

; 24   : 
; 25   : 	if (_Count == 0)

	cmp	DWORD PTR __Count$[ebp], 0
	jne	SHORT $LN4@Allocate

; 26   : 		;
; 27   : 	else if (((size_t)(-1) / sizeof (_Ty) < _Count)

	jmp	SHORT $LN3@Allocate
$LN4@Allocate:

; 28   : 		|| (_Ptr = ::operator new(_Count * sizeof (_Ty))) == 0)

	cmp	DWORD PTR __Count$[ebp], -1
	ja	SHORT $LN1@Allocate
	mov	eax, DWORD PTR __Count$[ebp]
	push	eax
	call	??2@YAPAXI@Z				; operator new
	add	esp, 4
	mov	DWORD PTR __Ptr$[ebp], eax
	cmp	DWORD PTR __Ptr$[ebp], 0
	jne	SHORT $LN3@Allocate
$LN1@Allocate:

; 29   : 		_Xbad_alloc();	// report no memory

	call	?_Xbad_alloc@std@@YAXXZ			; std::_Xbad_alloc
$LN3@Allocate:

; 30   : 
; 31   : 	return ((_Ty *)_Ptr);

	mov	eax, DWORD PTR __Ptr$[ebp]
$LN6@Allocate:

; 32   : 	}

	pop	edi
	pop	esi
	pop	ebx
	add	esp, 204				; 000000ccH
	cmp	ebp, esp
	call	__RTC_CheckEsp
	mov	esp, ebp
	pop	ebp
	ret	0
??$_Allocate@D@std@@YAPADIPAD@Z ENDP			; std::_Allocate<char>
_TEXT	ENDS
; Function compile flags: /Odtp /RTCsu /ZI
; File c:\program files (x86)\microsoft visual studio 12.0\vc\include\xmemory0
;	COMDAT ??$_Allocate@U_Container_proxy@std@@@std@@YAPAU_Container_proxy@0@IPAU10@@Z
_TEXT	SEGMENT
__Ptr$ = -8						; size = 4
__Count$ = 8						; size = 4
___formal$ = 12						; size = 4
??$_Allocate@U_Container_proxy@std@@@std@@YAPAU_Container_proxy@0@IPAU10@@Z PROC ; std::_Allocate<std::_Container_proxy>, COMDAT

; 22   : 	{	// allocate storage for _Count elements of type _Ty

	push	ebp
	mov	ebp, esp
	sub	esp, 204				; 000000ccH
	push	ebx
	push	esi
	push	edi
	lea	edi, DWORD PTR [ebp-204]
	mov	ecx, 51					; 00000033H
	mov	eax, -858993460				; ccccccccH
	rep stosd

; 23   : 	void *_Ptr = 0;

	mov	DWORD PTR __Ptr$[ebp], 0

; 24   : 
; 25   : 	if (_Count == 0)

	cmp	DWORD PTR __Count$[ebp], 0
	jne	SHORT $LN4@Allocate

; 26   : 		;
; 27   : 	else if (((size_t)(-1) / sizeof (_Ty) < _Count)

	jmp	SHORT $LN3@Allocate
$LN4@Allocate:

; 28   : 		|| (_Ptr = ::operator new(_Count * sizeof (_Ty))) == 0)

	cmp	DWORD PTR __Count$[ebp], 536870911	; 1fffffffH
	ja	SHORT $LN1@Allocate
	mov	eax, DWORD PTR __Count$[ebp]
	shl	eax, 3
	push	eax
	call	??2@YAPAXI@Z				; operator new
	add	esp, 4
	mov	DWORD PTR __Ptr$[ebp], eax
	cmp	DWORD PTR __Ptr$[ebp], 0
	jne	SHORT $LN3@Allocate
$LN1@Allocate:

; 29   : 		_Xbad_alloc();	// report no memory

	call	?_Xbad_alloc@std@@YAXXZ			; std::_Xbad_alloc
$LN3@Allocate:

; 30   : 
; 31   : 	return ((_Ty *)_Ptr);

	mov	eax, DWORD PTR __Ptr$[ebp]
$LN6@Allocate:

; 32   : 	}

	pop	edi
	pop	esi
	pop	ebx
	add	esp, 204				; 000000ccH
	cmp	ebp, esp
	call	__RTC_CheckEsp
	mov	esp, ebp
	pop	ebp
	ret	0
??$_Allocate@U_Container_proxy@std@@@std@@YAPAU_Container_proxy@0@IPAU10@@Z ENDP ; std::_Allocate<std::_Container_proxy>
_TEXT	ENDS
; Function compile flags: /Odtp /RTCsu /ZI
; File c:\program files (x86)\microsoft visual studio 12.0\vc\include\xmemory0
;	COMDAT ??$destroy@U_Container_proxy@std@@@?$allocator@U_Container_proxy@std@@@std@@QAEXPAU_Container_proxy@1@@Z
_TEXT	SEGMENT
_this$ = -8						; size = 4
__Ptr$ = 8						; size = 4
??$destroy@U_Container_proxy@std@@@?$allocator@U_Container_proxy@std@@@std@@QAEXPAU_Container_proxy@1@@Z PROC ; std::allocator<std::_Container_proxy>::destroy<std::_Container_proxy>, COMDAT
; _this$ = ecx

; 605  : 		void destroy(_Uty *_Ptr)

	push	ebp
	mov	ebp, esp
	sub	esp, 204				; 000000ccH
	push	ebx
	push	esi
	push	edi
	push	ecx
	lea	edi, DWORD PTR [ebp-204]
	mov	ecx, 51					; 00000033H
	mov	eax, -858993460				; ccccccccH
	rep stosd
	pop	ecx
	mov	DWORD PTR _this$[ebp], ecx

; 606  : 		{	// destroy object at _Ptr
; 607  : 		_Ptr->~_Uty();
; 608  : 		}

	pop	edi
	pop	esi
	pop	ebx
	mov	esp, ebp
	pop	ebp
	ret	4
??$destroy@U_Container_proxy@std@@@?$allocator@U_Container_proxy@std@@@std@@QAEXPAU_Container_proxy@1@@Z ENDP ; std::allocator<std::_Container_proxy>::destroy<std::_Container_proxy>
_TEXT	ENDS
; Function compile flags: /Odtp /RTCsu /ZI
; File c:\program files (x86)\microsoft visual studio 12.0\vc\include\xmemory0
;	COMDAT ??$construct@U_Container_proxy@std@@U12@@?$allocator@U_Container_proxy@std@@@std@@QAEXPAU_Container_proxy@1@$$QAU21@@Z
_TEXT	SEGMENT
tv74 = -244						; size = 4
$T2 = -236						; size = 4
$T3 = -224						; size = 4
_this$ = -20						; size = 4
__$EHRec$ = -12						; size = 12
__Ptr$ = 8						; size = 4
_<_Args_0>$ = 12					; size = 4
??$construct@U_Container_proxy@std@@U12@@?$allocator@U_Container_proxy@std@@@std@@QAEXPAU_Container_proxy@1@$$QAU21@@Z PROC ; std::allocator<std::_Container_proxy>::construct<std::_Container_proxy,std::_Container_proxy>, COMDAT
; _this$ = ecx

; 598  : 		void construct(_Objty *_Ptr, _Types&&... _Args)

	push	ebp
	mov	ebp, esp
	push	-1
	push	__ehhandler$??$construct@U_Container_proxy@std@@U12@@?$allocator@U_Container_proxy@std@@@std@@QAEXPAU_Container_proxy@1@$$QAU21@@Z
	mov	eax, DWORD PTR fs:0
	push	eax
	sub	esp, 232				; 000000e8H
	push	ebx
	push	esi
	push	edi
	push	ecx
	lea	edi, DWORD PTR [ebp-244]
	mov	ecx, 58					; 0000003aH
	mov	eax, -858993460				; ccccccccH
	rep stosd
	pop	ecx
	mov	eax, DWORD PTR ___security_cookie
	xor	eax, ebp
	push	eax
	lea	eax, DWORD PTR __$EHRec$[ebp]
	mov	DWORD PTR fs:0, eax
	mov	DWORD PTR _this$[ebp], ecx

; 599  : 		{	// construct _Objty(_Types...) at _Ptr
; 600  : 		::new ((void *)_Ptr) _Objty(_STD forward<_Types>(_Args)...);

	mov	eax, DWORD PTR __Ptr$[ebp]
	push	eax
	push	8
	call	??2@YAPAXIPAX@Z				; operator new
	add	esp, 8
	mov	DWORD PTR $T3[ebp], eax
	mov	DWORD PTR __$EHRec$[ebp+8], 0
	cmp	DWORD PTR $T3[ebp], 0
	je	SHORT $LN3@construct
	mov	ecx, DWORD PTR _<_Args_0>$[ebp]
	push	ecx
	call	??$forward@U_Container_proxy@std@@@std@@YA$$QAU_Container_proxy@0@AAU10@@Z ; std::forward<std::_Container_proxy>
	add	esp, 4
	mov	edx, DWORD PTR [eax]
	mov	eax, DWORD PTR [eax+4]
	mov	ecx, DWORD PTR $T3[ebp]
	mov	DWORD PTR [ecx], edx
	mov	DWORD PTR [ecx+4], eax
	mov	edx, DWORD PTR $T3[ebp]
	mov	DWORD PTR tv74[ebp], edx
	jmp	SHORT $LN4@construct
$LN3@construct:
	mov	DWORD PTR tv74[ebp], 0
$LN4@construct:
	mov	eax, DWORD PTR tv74[ebp]
	mov	DWORD PTR $T2[ebp], eax
	mov	DWORD PTR __$EHRec$[ebp+8], -1

; 601  : 		}

	mov	ecx, DWORD PTR __$EHRec$[ebp]
	mov	DWORD PTR fs:0, ecx
	pop	ecx
	pop	edi
	pop	esi
	pop	ebx
	add	esp, 244				; 000000f4H
	cmp	ebp, esp
	call	__RTC_CheckEsp
	mov	esp, ebp
	pop	ebp
	ret	8
_TEXT	ENDS
;	COMDAT text$x
text$x	SEGMENT
__unwindfunclet$??$construct@U_Container_proxy@std@@U12@@?$allocator@U_Container_proxy@std@@@std@@QAEXPAU_Container_proxy@1@$$QAU21@@Z$0:
	mov	eax, DWORD PTR __Ptr$[ebp]
	push	eax
	mov	eax, DWORD PTR $T3[ebp]
	push	eax
	call	??3@YAXPAX0@Z				; operator delete
	add	esp, 8
	ret	0
__ehhandler$??$construct@U_Container_proxy@std@@U12@@?$allocator@U_Container_proxy@std@@@std@@QAEXPAU_Container_proxy@1@$$QAU21@@Z:
	mov	edx, DWORD PTR [esp+8]
	lea	eax, DWORD PTR [edx+12]
	mov	ecx, DWORD PTR [edx-248]
	xor	ecx, eax
	call	@__security_check_cookie@4
	mov	eax, OFFSET __ehfuncinfo$??$construct@U_Container_proxy@std@@U12@@?$allocator@U_Container_proxy@std@@@std@@QAEXPAU_Container_proxy@1@$$QAU21@@Z
	jmp	___CxxFrameHandler3
text$x	ENDS
??$construct@U_Container_proxy@std@@U12@@?$allocator@U_Container_proxy@std@@@std@@QAEXPAU_Container_proxy@1@$$QAU21@@Z ENDP ; std::allocator<std::_Container_proxy>::construct<std::_Container_proxy,std::_Container_proxy>
; Function compile flags: /Odtp /RTCsu /ZI
; File c:\program files (x86)\microsoft visual studio 12.0\vc\include\xmemory0
;	COMDAT ?allocate@?$allocator@U_Container_proxy@std@@@std@@QAEPAU_Container_proxy@2@I@Z
_TEXT	SEGMENT
_this$ = -8						; size = 4
__Count$ = 8						; size = 4
?allocate@?$allocator@U_Container_proxy@std@@@std@@QAEPAU_Container_proxy@2@I@Z PROC ; std::allocator<std::_Container_proxy>::allocate, COMDAT
; _this$ = ecx

; 577  : 		{	// allocate array of _Count elements

	push	ebp
	mov	ebp, esp
	sub	esp, 204				; 000000ccH
	push	ebx
	push	esi
	push	edi
	push	ecx
	lea	edi, DWORD PTR [ebp-204]
	mov	ecx, 51					; 00000033H
	mov	eax, -858993460				; ccccccccH
	rep stosd
	pop	ecx
	mov	DWORD PTR _this$[ebp], ecx

; 578  : 		return (_Allocate(_Count, (pointer)0));

	push	0
	mov	eax, DWORD PTR __Count$[ebp]
	push	eax
	call	??$_Allocate@U_Container_proxy@std@@@std@@YAPAU_Container_proxy@0@IPAU10@@Z ; std::_Allocate<std::_Container_proxy>
	add	esp, 8

; 579  : 		}

	pop	edi
	pop	esi
	pop	ebx
	add	esp, 204				; 000000ccH
	cmp	ebp, esp
	call	__RTC_CheckEsp
	mov	esp, ebp
	pop	ebp
	ret	4
?allocate@?$allocator@U_Container_proxy@std@@@std@@QAEPAU_Container_proxy@2@I@Z ENDP ; std::allocator<std::_Container_proxy>::allocate
_TEXT	ENDS
; Function compile flags: /Odtp /RTCsu /ZI
; File c:\program files (x86)\microsoft visual studio 12.0\vc\include\xmemory0
;	COMDAT ?deallocate@?$allocator@U_Container_proxy@std@@@std@@QAEXPAU_Container_proxy@2@I@Z
_TEXT	SEGMENT
_this$ = -8						; size = 4
__Ptr$ = 8						; size = 4
___formal$ = 12						; size = 4
?deallocate@?$allocator@U_Container_proxy@std@@@std@@QAEXPAU_Container_proxy@2@I@Z PROC ; std::allocator<std::_Container_proxy>::deallocate, COMDAT
; _this$ = ecx

; 572  : 		{	// deallocate object at _Ptr, ignore size

	push	ebp
	mov	ebp, esp
	sub	esp, 204				; 000000ccH
	push	ebx
	push	esi
	push	edi
	push	ecx
	lea	edi, DWORD PTR [ebp-204]
	mov	ecx, 51					; 00000033H
	mov	eax, -858993460				; ccccccccH
	rep stosd
	pop	ecx
	mov	DWORD PTR _this$[ebp], ecx

; 573  : 		::operator delete(_Ptr);

	mov	eax, DWORD PTR __Ptr$[ebp]
	push	eax
	call	??3@YAXPAX@Z				; operator delete
	add	esp, 4

; 574  : 		}

	pop	edi
	pop	esi
	pop	ebx
	add	esp, 204				; 000000ccH
	cmp	ebp, esp
	call	__RTC_CheckEsp
	mov	esp, ebp
	pop	ebp
	ret	8
?deallocate@?$allocator@U_Container_proxy@std@@@std@@QAEXPAU_Container_proxy@2@I@Z ENDP ; std::allocator<std::_Container_proxy>::deallocate
_TEXT	ENDS
; Function compile flags: /Odtp /RTCsu /ZI
; File c:\program files (x86)\microsoft visual studio 12.0\vc\include\xmemory0
;	COMDAT ??0?$allocator@U_Container_proxy@std@@@std@@QAE@XZ
_TEXT	SEGMENT
_this$ = -8						; size = 4
??0?$allocator@U_Container_proxy@std@@@std@@QAE@XZ PROC	; std::allocator<std::_Container_proxy>::allocator<std::_Container_proxy>, COMDAT
; _this$ = ecx

; 552  : 	allocator() _THROW0()

	push	ebp
	mov	ebp, esp
	sub	esp, 204				; 000000ccH
	push	ebx
	push	esi
	push	edi
	push	ecx
	lea	edi, DWORD PTR [ebp-204]
	mov	ecx, 51					; 00000033H
	mov	eax, -858993460				; ccccccccH
	rep stosd
	pop	ecx
	mov	DWORD PTR _this$[ebp], ecx

; 553  : 		{	// construct default allocator (do nothing)
; 554  : 		}

	mov	eax, DWORD PTR _this$[ebp]
	pop	edi
	pop	esi
	pop	ebx
	mov	esp, ebp
	pop	ebp
	ret	0
??0?$allocator@U_Container_proxy@std@@@std@@QAE@XZ ENDP	; std::allocator<std::_Container_proxy>::allocator<std::_Container_proxy>
_TEXT	ENDS
; Function compile flags: /Odtp /RTCsu /ZI
; File c:\program files (x86)\microsoft visual studio 12.0\vc\include\xstddef
;	COMDAT ??$addressof@D@std@@YAPADAAD@Z
_TEXT	SEGMENT
__Val$ = 8						; size = 4
??$addressof@D@std@@YAPADAAD@Z PROC			; std::addressof<char>, COMDAT

; 92   : 	{	// return address of _Val

	push	ebp
	mov	ebp, esp
	sub	esp, 192				; 000000c0H
	push	ebx
	push	esi
	push	edi
	lea	edi, DWORD PTR [ebp-192]
	mov	ecx, 48					; 00000030H
	mov	eax, -858993460				; ccccccccH
	rep stosd

; 93   : 	return (reinterpret_cast<_Ty *>(
; 94   : 		(&const_cast<char&>(
; 95   : 		reinterpret_cast<const volatile char&>(_Val)))));

	mov	eax, DWORD PTR __Val$[ebp]

; 96   : 	}

	pop	edi
	pop	esi
	pop	ebx
	mov	esp, ebp
	pop	ebp
	ret	0
??$addressof@D@std@@YAPADAAD@Z ENDP			; std::addressof<char>
_TEXT	ENDS
; Function compile flags: /Odtp /RTCsu /ZI
; File c:\program files (x86)\microsoft visual studio 12.0\vc\include\xmemory0
;	COMDAT ??$destroy@PAD@?$_Wrap_alloc@V?$allocator@D@std@@@std@@QAEXPAPAD@Z
_TEXT	SEGMENT
_this$ = -8						; size = 4
__Ptr$ = 8						; size = 4
??$destroy@PAD@?$_Wrap_alloc@V?$allocator@D@std@@@std@@QAEXPAPAD@Z PROC ; std::_Wrap_alloc<std::allocator<char> >::destroy<char *>, COMDAT
; _this$ = ecx

; 877  : 		void destroy(_Ty *_Ptr)

	push	ebp
	mov	ebp, esp
	sub	esp, 204				; 000000ccH
	push	ebx
	push	esi
	push	edi
	push	ecx
	lea	edi, DWORD PTR [ebp-204]
	mov	ecx, 51					; 00000033H
	mov	eax, -858993460				; ccccccccH
	rep stosd
	pop	ecx
	mov	DWORD PTR _this$[ebp], ecx

; 878  : 		{	// destroy object at _Ptr
; 879  : 		_Mytraits::destroy(*this, _Ptr);

	mov	eax, DWORD PTR __Ptr$[ebp]
	push	eax
	mov	ecx, DWORD PTR _this$[ebp]
	push	ecx
	call	??$destroy@PAD@?$allocator_traits@V?$allocator@D@std@@@std@@SAXAAV?$allocator@D@1@PAPAD@Z ; std::allocator_traits<std::allocator<char> >::destroy<char *>
	add	esp, 8

; 880  : 		}

	pop	edi
	pop	esi
	pop	ebx
	add	esp, 204				; 000000ccH
	cmp	ebp, esp
	call	__RTC_CheckEsp
	mov	esp, ebp
	pop	ebp
	ret	4
??$destroy@PAD@?$_Wrap_alloc@V?$allocator@D@std@@@std@@QAEXPAPAD@Z ENDP ; std::_Wrap_alloc<std::allocator<char> >::destroy<char *>
_TEXT	ENDS
; Function compile flags: /Odtp /RTCsu /ZI
; File c:\program files (x86)\microsoft visual studio 12.0\vc\include\xmemory0
;	COMDAT ??$construct@PADAAPAD@?$_Wrap_alloc@V?$allocator@D@std@@@std@@QAEXPAPADAAPAD@Z
_TEXT	SEGMENT
_this$ = -8						; size = 4
__Ptr$ = 8						; size = 4
_<_Args_0>$ = 12					; size = 4
??$construct@PADAAPAD@?$_Wrap_alloc@V?$allocator@D@std@@@std@@QAEXPAPADAAPAD@Z PROC ; std::_Wrap_alloc<std::allocator<char> >::construct<char *,char * &>, COMDAT
; _this$ = ecx

; 868  : 		void construct(_Ty *_Ptr,

	push	ebp
	mov	ebp, esp
	sub	esp, 204				; 000000ccH
	push	ebx
	push	esi
	push	edi
	push	ecx
	lea	edi, DWORD PTR [ebp-204]
	mov	ecx, 51					; 00000033H
	mov	eax, -858993460				; ccccccccH
	rep stosd
	pop	ecx
	mov	DWORD PTR _this$[ebp], ecx

; 869  : 			_Types&&... _Args)
; 870  : 		{	// construct _Ty(_Types...) at _Ptr
; 871  : 		_Mytraits::construct(*this, _Ptr,
; 872  : 			_STD forward<_Types>(_Args)...);

	mov	eax, DWORD PTR _<_Args_0>$[ebp]
	push	eax
	call	??$forward@AAPAD@std@@YAAAPADAAPAD@Z	; std::forward<char * &>
	add	esp, 4
	push	eax
	mov	ecx, DWORD PTR __Ptr$[ebp]
	push	ecx
	mov	edx, DWORD PTR _this$[ebp]
	push	edx
	call	??$construct@PADAAPAD@?$allocator_traits@V?$allocator@D@std@@@std@@SAXAAV?$allocator@D@1@PAPADAAPAD@Z ; std::allocator_traits<std::allocator<char> >::construct<char *,char * &>
	add	esp, 12					; 0000000cH

; 873  : 		}

	pop	edi
	pop	esi
	pop	ebx
	add	esp, 204				; 000000ccH
	cmp	ebp, esp
	call	__RTC_CheckEsp
	mov	esp, ebp
	pop	ebp
	ret	8
??$construct@PADAAPAD@?$_Wrap_alloc@V?$allocator@D@std@@@std@@QAEXPAPADAAPAD@Z ENDP ; std::_Wrap_alloc<std::allocator<char> >::construct<char *,char * &>
_TEXT	ENDS
; Function compile flags: /Odtp /RTCsu /ZI
; File c:\users\simon\documents\github\uclan-sparta\import\math\cmatrix4x4.cpp
;	COMDAT ??__E?kIdentity@CMatrix4x4@gen@@2V12@B@@YAXXZ
text$di	SEGMENT
??__E?kIdentity@CMatrix4x4@gen@@2V12@B@@YAXXZ PROC	; `dynamic initializer for 'gen::CMatrix4x4::kIdentity'', COMDAT

; 3347 :                                        0.0f, 0.0f, 0.0f, 1.0f);

	push	ebp
	mov	ebp, esp
	sub	esp, 192				; 000000c0H
	push	ebx
	push	esi
	push	edi
	lea	edi, DWORD PTR [ebp-192]
	mov	ecx, 48					; 00000030H
	mov	eax, -858993460				; ccccccccH
	rep stosd
	push	ecx
	movss	xmm0, DWORD PTR __real@3f800000
	movss	DWORD PTR [esp], xmm0
	push	ecx
	movss	xmm0, DWORD PTR __real@00000000
	movss	DWORD PTR [esp], xmm0
	push	ecx
	movss	xmm0, DWORD PTR __real@00000000
	movss	DWORD PTR [esp], xmm0
	push	ecx
	movss	xmm0, DWORD PTR __real@00000000
	movss	DWORD PTR [esp], xmm0
	push	ecx
	movss	xmm0, DWORD PTR __real@00000000
	movss	DWORD PTR [esp], xmm0
	push	ecx
	movss	xmm0, DWORD PTR __real@3f800000
	movss	DWORD PTR [esp], xmm0
	push	ecx
	movss	xmm0, DWORD PTR __real@00000000
	movss	DWORD PTR [esp], xmm0
	push	ecx
	movss	xmm0, DWORD PTR __real@00000000
	movss	DWORD PTR [esp], xmm0
	push	ecx
	movss	xmm0, DWORD PTR __real@00000000
	movss	DWORD PTR [esp], xmm0
	push	ecx
	movss	xmm0, DWORD PTR __real@00000000
	movss	DWORD PTR [esp], xmm0
	push	ecx
	movss	xmm0, DWORD PTR __real@3f800000
	movss	DWORD PTR [esp], xmm0
	push	ecx
	movss	xmm0, DWORD PTR __real@00000000
	movss	DWORD PTR [esp], xmm0
	push	ecx
	movss	xmm0, DWORD PTR __real@00000000
	movss	DWORD PTR [esp], xmm0
	push	ecx
	movss	xmm0, DWORD PTR __real@00000000
	movss	DWORD PTR [esp], xmm0
	push	ecx
	movss	xmm0, DWORD PTR __real@00000000
	movss	DWORD PTR [esp], xmm0
	push	ecx
	movss	xmm0, DWORD PTR __real@3f800000
	movss	DWORD PTR [esp], xmm0
	mov	ecx, OFFSET ?kIdentity@CMatrix4x4@gen@@2V12@B ; gen::CMatrix4x4::kIdentity
	call	??0CMatrix4x4@gen@@QAE@MMMMMMMMMMMMMMMM@Z ; gen::CMatrix4x4::CMatrix4x4
	pop	edi
	pop	esi
	pop	ebx
	add	esp, 192				; 000000c0H
	cmp	ebp, esp
	call	__RTC_CheckEsp
	mov	esp, ebp
	pop	ebp
	ret	0
??__E?kIdentity@CMatrix4x4@gen@@2V12@B@@YAXXZ ENDP	; `dynamic initializer for 'gen::CMatrix4x4::kIdentity''
text$di	ENDS
; Function compile flags: /Odtp /RTCsu /ZI
; File c:\users\simon\documents\github\uclan-sparta\import\math\cvector4.h
;	COMDAT ??ACVector4@gen@@QBEABMI@Z
_TEXT	SEGMENT
_this$ = -8						; size = 4
_index$ = 8						; size = 4
??ACVector4@gen@@QBEABMI@Z PROC				; gen::CVector4::operator[], COMDAT
; _this$ = ecx

; 178  : 	{

	push	ebp
	mov	ebp, esp
	sub	esp, 204				; 000000ccH
	push	ebx
	push	esi
	push	edi
	push	ecx
	lea	edi, DWORD PTR [ebp-204]
	mov	ecx, 51					; 00000033H
	mov	eax, -858993460				; ccccccccH
	rep stosd
	pop	ecx
	mov	DWORD PTR _this$[ebp], ecx

; 179  : 		return (&x)[index];

	mov	eax, DWORD PTR _index$[ebp]
	mov	ecx, DWORD PTR _this$[ebp]
	lea	eax, DWORD PTR [ecx+eax*4]

; 180  : 	}

	pop	edi
	pop	esi
	pop	ebx
	mov	esp, ebp
	pop	ebp
	ret	4
??ACVector4@gen@@QBEABMI@Z ENDP				; gen::CVector4::operator[]
_TEXT	ENDS
; Function compile flags: /Odtp /RTCsu /ZI
; File c:\users\simon\documents\github\uclan-sparta\import\math\cvector4.h
;	COMDAT ??ACVector4@gen@@QAEAAMI@Z
_TEXT	SEGMENT
_this$ = -8						; size = 4
_index$ = 8						; size = 4
??ACVector4@gen@@QAEAAMI@Z PROC				; gen::CVector4::operator[], COMDAT
; _this$ = ecx

; 172  : 	{

	push	ebp
	mov	ebp, esp
	sub	esp, 204				; 000000ccH
	push	ebx
	push	esi
	push	edi
	push	ecx
	lea	edi, DWORD PTR [ebp-204]
	mov	ecx, 51					; 00000033H
	mov	eax, -858993460				; ccccccccH
	rep stosd
	pop	ecx
	mov	DWORD PTR _this$[ebp], ecx

; 173  : 		return (&x)[index];

	mov	eax, DWORD PTR _index$[ebp]
	mov	ecx, DWORD PTR _this$[ebp]
	lea	eax, DWORD PTR [ecx+eax*4]

; 174  : 	}

	pop	edi
	pop	esi
	pop	ebx
	mov	esp, ebp
	pop	ebp
	ret	4
??ACVector4@gen@@QAEAAMI@Z ENDP				; gen::CVector4::operator[]
_TEXT	ENDS
; Function compile flags: /Odtp /RTCsu /ZI
; File c:\users\simon\documents\github\uclan-sparta\import\math\cvector4.h
;	COMDAT ??0CVector4@gen@@QAE@ABV01@@Z
_TEXT	SEGMENT
_this$ = -8						; size = 4
_v$ = 8							; size = 4
??0CVector4@gen@@QAE@ABV01@@Z PROC			; gen::CVector4::CVector4, COMDAT
; _this$ = ecx

; 101  : 	{}

	push	ebp
	mov	ebp, esp
	sub	esp, 204				; 000000ccH
	push	ebx
	push	esi
	push	edi
	push	ecx
	lea	edi, DWORD PTR [ebp-204]
	mov	ecx, 51					; 00000033H
	mov	eax, -858993460				; ccccccccH
	rep stosd
	pop	ecx
	mov	DWORD PTR _this$[ebp], ecx
	mov	eax, DWORD PTR _this$[ebp]
	mov	ecx, DWORD PTR _v$[ebp]
	mov	edx, DWORD PTR [ecx]
	mov	DWORD PTR [eax], edx
	mov	eax, DWORD PTR _this$[ebp]
	mov	ecx, DWORD PTR _v$[ebp]
	mov	edx, DWORD PTR [ecx+4]
	mov	DWORD PTR [eax+4], edx
	mov	eax, DWORD PTR _this$[ebp]
	mov	ecx, DWORD PTR _v$[ebp]
	mov	edx, DWORD PTR [ecx+8]
	mov	DWORD PTR [eax+8], edx
	mov	eax, DWORD PTR _this$[ebp]
	mov	ecx, DWORD PTR _v$[ebp]
	mov	edx, DWORD PTR [ecx+12]
	mov	DWORD PTR [eax+12], edx
	mov	eax, DWORD PTR _this$[ebp]
	pop	edi
	pop	esi
	pop	ebx
	mov	esp, ebp
	pop	ebp
	ret	4
??0CVector4@gen@@QAE@ABV01@@Z ENDP			; gen::CVector4::CVector4
_TEXT	ENDS
; Function compile flags: /Odtp /RTCsu /ZI
; File c:\users\simon\documents\github\uclan-sparta\import\math\cvector4.h
;	COMDAT ??0CVector4@gen@@QAE@PBM@Z
_TEXT	SEGMENT
$T2 = -520						; size = 88
$T3 = -424						; size = 88
$T4 = -328						; size = 88
_e$5 = -40						; size = 4
_this$ = -28						; size = 4
__$ArrayPad$ = -20					; size = 4
__$EHRec$ = -16						; size = 16
_pfElts$ = 8						; size = 4
??0CVector4@gen@@QAE@PBM@Z PROC				; gen::CVector4::CVector4, COMDAT
; _this$ = ecx

; 52   : 	explicit CVector4( const TFloat32* pfElts )

	push	ebp
	mov	ebp, esp
	push	-1
	push	__ehhandler$??0CVector4@gen@@QAE@PBM@Z
	mov	eax, DWORD PTR fs:0
	push	eax
	push	ecx
	sub	esp, 508				; 000001fcH
	push	ebx
	push	esi
	push	edi
	push	ecx
	lea	edi, DWORD PTR [ebp-524]
	mov	ecx, 127				; 0000007fH
	mov	eax, -858993460				; ccccccccH
	rep stosd
	pop	ecx
	mov	eax, DWORD PTR ___security_cookie
	xor	eax, ebp
	mov	DWORD PTR __$ArrayPad$[ebp], eax
	push	eax
	lea	eax, DWORD PTR __$EHRec$[ebp+4]
	mov	DWORD PTR fs:0, eax
	mov	DWORD PTR __$EHRec$[ebp], esp
	mov	DWORD PTR _this$[ebp], ecx

; 53   : 	{
; 54   : 		GEN_GUARD_OPT;

	mov	DWORD PTR __$EHRec$[ebp+12], 0

; 55   : 		GEN_ASSERT_OPT( pfElts, "Invalid parameter" );

	cmp	DWORD PTR _pfElts$[ebp], 0
	jne	SHORT $LN1@CVector4
	push	55					; 00000037H
	push	OFFSET ??_C@_0EE@NIOAKDJB@c?3?2users?2simon?2documents?2github?2@
	push	OFFSET ??_C@_0BC@DBAKKFEN@Invalid?5parameter?$AA@
	lea	ecx, DWORD PTR $T2[ebp]
	call	??0CFatalException@gen@@QAE@PBD0H@Z	; gen::CFatalException::CFatalException
	push	OFFSET __TI1?AVCFatalException@gen@@
	lea	eax, DWORD PTR $T2[ebp]
	push	eax
	call	__CxxThrowException@8
$LN1@CVector4:

; 56   : 
; 57   : 		x = pfElts[0];

	mov	eax, 4
	imul	ecx, eax, 0
	mov	edx, DWORD PTR _this$[ebp]
	mov	eax, DWORD PTR _pfElts$[ebp]
	mov	ecx, DWORD PTR [eax+ecx]
	mov	DWORD PTR [edx], ecx

; 58   : 		y = pfElts[1];

	mov	eax, 4
	shl	eax, 0
	mov	ecx, DWORD PTR _this$[ebp]
	mov	edx, DWORD PTR _pfElts$[ebp]
	mov	eax, DWORD PTR [edx+eax]
	mov	DWORD PTR [ecx+4], eax

; 59   : 		z = pfElts[2];

	mov	eax, 4
	shl	eax, 1
	mov	ecx, DWORD PTR _this$[ebp]
	mov	edx, DWORD PTR _pfElts$[ebp]
	mov	eax, DWORD PTR [edx+eax]
	mov	DWORD PTR [ecx+8], eax

; 60   : 		w = pfElts[3];

	mov	eax, 4
	imul	ecx, eax, 3
	mov	edx, DWORD PTR _this$[ebp]
	mov	eax, DWORD PTR _pfElts$[ebp]
	mov	ecx, DWORD PTR [eax+ecx]
	mov	DWORD PTR [edx+12], ecx
	jmp	SHORT $LN5@CVector4
__catch$??0CVector4@gen@@QAE@PBM@Z$0:

; 61   : 
; 62   : 		GEN_ENDGUARD_OPT;

	push	0
	call	?ObjectName@gen@@YAPBDXZ		; gen::ObjectName
	push	eax
	push	OFFSET ??_C@_0BI@HNLOPNMD@gen?3?3CVector4?3?3CVector4?$AA@
	mov	ecx, DWORD PTR _e$5[ebp]
	call	?AppendToCallStack@CFatalException@gen@@QAEXPBD0_N@Z ; gen::CFatalException::AppendToCallStack
	mov	eax, DWORD PTR _e$5[ebp]
	push	eax
	lea	ecx, DWORD PTR $T3[ebp]
	call	??0CFatalException@gen@@QAE@ABV01@@Z
	push	OFFSET __TI1?AVCFatalException@gen@@
	lea	ecx, DWORD PTR $T3[ebp]
	push	ecx
	call	__CxxThrowException@8
	mov	eax, $LN9@CVector4
	ret	0
__catch$??0CVector4@gen@@QAE@PBM@Z$1:
	call	?ObjectName@gen@@YAPBDXZ		; gen::ObjectName
	push	eax
	push	OFFSET ??_C@_0BI@HNLOPNMD@gen?3?3CVector4?3?3CVector4?$AA@
	push	OFFSET ??_C@_0EE@NIOAKDJB@c?3?2users?2simon?2documents?2github?2@
	lea	ecx, DWORD PTR $T4[ebp]
	call	??0CFatalException@gen@@QAE@PBD00@Z	; gen::CFatalException::CFatalException
	push	OFFSET __TI1?AVCFatalException@gen@@
	lea	eax, DWORD PTR $T4[ebp]
	push	eax
	call	__CxxThrowException@8
	mov	eax, $LN11@CVector4
	ret	0
$LN5@CVector4:
	mov	DWORD PTR __$EHRec$[ebp+12], -1
	jmp	SHORT $LN10@CVector4
$LN11@CVector4:
	mov	DWORD PTR __$EHRec$[ebp+12], -1
	jmp	SHORT $LN8@CVector4
$LN10@CVector4:
	jmp	SHORT $LN8@CVector4
$LN9@CVector4:
	mov	DWORD PTR __$EHRec$[ebp+12], -1
$LN8@CVector4:

; 63   : 	}

	mov	eax, DWORD PTR _this$[ebp]
$LN4@CVector4:
	push	edx
	mov	ecx, ebp
	push	eax
	lea	edx, DWORD PTR $LN15@CVector4
	call	@_RTC_CheckStackVars@8
	pop	eax
	pop	edx
	mov	ecx, DWORD PTR __$EHRec$[ebp+4]
	mov	DWORD PTR fs:0, ecx
	pop	ecx
	pop	edi
	pop	esi
	pop	ebx
	mov	ecx, DWORD PTR __$ArrayPad$[ebp]
	xor	ecx, ebp
	call	@__security_check_cookie@4
	add	esp, 524				; 0000020cH
	cmp	ebp, esp
	call	__RTC_CheckEsp
	mov	esp, ebp
	pop	ebp
	ret	4
	npad	3
$LN15@CVector4:
	DD	1
	DD	$LN14@CVector4
$LN14@CVector4:
	DD	-40					; ffffffd8H
	DD	4
	DD	$LN12@CVector4
$LN12@CVector4:
	DB	101					; 00000065H
	DB	0
_TEXT	ENDS
;	COMDAT text$x
text$x	SEGMENT
__ehhandler$??0CVector4@gen@@QAE@PBM@Z:
	mov	edx, DWORD PTR [esp+8]
	lea	eax, DWORD PTR [edx+12]
	mov	ecx, DWORD PTR [edx-528]
	xor	ecx, eax
	call	@__security_check_cookie@4
	mov	ecx, DWORD PTR [edx-8]
	xor	ecx, eax
	call	@__security_check_cookie@4
	mov	eax, OFFSET __ehfuncinfo$??0CVector4@gen@@QAE@PBM@Z
	jmp	___CxxFrameHandler3
text$x	ENDS
??0CVector4@gen@@QAE@PBM@Z ENDP				; gen::CVector4::CVector4
; Function compile flags: /Odtp /RTCsu /ZI
; File c:\users\simon\documents\github\uclan-sparta\import\math\cvector4.h
;	COMDAT ??0CVector4@gen@@QAE@MMMM@Z
_TEXT	SEGMENT
_this$ = -8						; size = 4
_xIn$ = 8						; size = 4
_yIn$ = 12						; size = 4
_zIn$ = 16						; size = 4
_wIn$ = 20						; size = 4
??0CVector4@gen@@QAE@MMMM@Z PROC			; gen::CVector4::CVector4, COMDAT
; _this$ = ecx

; 49   : 	{}

	push	ebp
	mov	ebp, esp
	sub	esp, 204				; 000000ccH
	push	ebx
	push	esi
	push	edi
	push	ecx
	lea	edi, DWORD PTR [ebp-204]
	mov	ecx, 51					; 00000033H
	mov	eax, -858993460				; ccccccccH
	rep stosd
	pop	ecx
	mov	DWORD PTR _this$[ebp], ecx
	mov	eax, DWORD PTR _this$[ebp]
	movss	xmm0, DWORD PTR _xIn$[ebp]
	movss	DWORD PTR [eax], xmm0
	mov	eax, DWORD PTR _this$[ebp]
	movss	xmm0, DWORD PTR _yIn$[ebp]
	movss	DWORD PTR [eax+4], xmm0
	mov	eax, DWORD PTR _this$[ebp]
	movss	xmm0, DWORD PTR _zIn$[ebp]
	movss	DWORD PTR [eax+8], xmm0
	mov	eax, DWORD PTR _this$[ebp]
	movss	xmm0, DWORD PTR _wIn$[ebp]
	movss	DWORD PTR [eax+12], xmm0
	mov	eax, DWORD PTR _this$[ebp]
	pop	edi
	pop	esi
	pop	ebx
	mov	esp, ebp
	pop	ebp
	ret	16					; 00000010H
??0CVector4@gen@@QAE@MMMM@Z ENDP			; gen::CVector4::CVector4
_TEXT	ENDS
; Function compile flags: /Odtp /RTCsu /ZI
; File c:\users\simon\documents\github\uclan-sparta\import\math\cvector4.h
;	COMDAT ??0CVector4@gen@@QAE@XZ
_TEXT	SEGMENT
_this$ = -8						; size = 4
??0CVector4@gen@@QAE@XZ PROC				; gen::CVector4::CVector4, COMDAT
; _this$ = ecx

; 39   : 	CVector4() {}

	push	ebp
	mov	ebp, esp
	sub	esp, 204				; 000000ccH
	push	ebx
	push	esi
	push	edi
	push	ecx
	lea	edi, DWORD PTR [ebp-204]
	mov	ecx, 51					; 00000033H
	mov	eax, -858993460				; ccccccccH
	rep stosd
	pop	ecx
	mov	DWORD PTR _this$[ebp], ecx
	mov	eax, DWORD PTR _this$[ebp]
	pop	edi
	pop	esi
	pop	ebx
	mov	esp, ebp
	pop	ebp
	ret	0
??0CVector4@gen@@QAE@XZ ENDP				; gen::CVector4::CVector4
_TEXT	ENDS
; Function compile flags: /Odtp /RTCsu /ZI
; File c:\users\simon\documents\github\uclan-sparta\import\math\cmatrix4x4.cpp
;	COMDAT ?MatrixFaceDirection@gen@@YA?AVCMatrix4x4@1@ABVCVector3@1@00_N@Z
_TEXT	SEGMENT
$T1 = -428						; size = 12
$T2 = -408						; size = 12
$T3 = -388						; size = 12
$T4 = -368						; size = 12
$T5 = -348						; size = 12
$T6 = -328						; size = 12
$T7 = -308						; size = 12
$T8 = -288						; size = 12
$T9 = -268						; size = 12
_axisZ$ = -56						; size = 12
_axisY$ = -36						; size = 12
_axisX$ = -16						; size = 12
___$ReturnUdt$ = 8					; size = 4
_position$ = 12						; size = 4
_direction$ = 16					; size = 4
_up$ = 20						; size = 4
_bLH$ = 24						; size = 1
?MatrixFaceDirection@gen@@YA?AVCMatrix4x4@1@ABVCVector3@1@00_N@Z PROC ; gen::MatrixFaceDirection, COMDAT

; 2894 : {

	push	ebp
	mov	ebp, esp
	sub	esp, 432				; 000001b0H
	push	ebx
	push	esi
	push	edi
	lea	edi, DWORD PTR [ebp-432]
	mov	ecx, 108				; 0000006cH
	mov	eax, -858993460				; ccccccccH
	rep stosd

; 2895 : 	// Use cross product of target direction and up vector to give third axis, then orthogonalise
; 2896 : 	CVector3 axisX, axisY, axisZ;

	lea	ecx, DWORD PTR _axisX$[ebp]
	call	??0CVector3@gen@@QAE@XZ			; gen::CVector3::CVector3
	lea	ecx, DWORD PTR _axisY$[ebp]
	call	??0CVector3@gen@@QAE@XZ			; gen::CVector3::CVector3
	lea	ecx, DWORD PTR _axisZ$[ebp]
	call	??0CVector3@gen@@QAE@XZ			; gen::CVector3::CVector3

; 2897 : 	if (bLH)

	movzx	eax, BYTE PTR _bLH$[ebp]
	test	eax, eax
	je	$LN6@MatrixFace

; 2898 : 	{
; 2899 : 		axisZ = Normalise( direction );

	mov	eax, DWORD PTR _direction$[ebp]
	push	eax
	lea	ecx, DWORD PTR $T1[ebp]
	push	ecx
	call	?Normalise@gen@@YA?AVCVector3@1@ABV21@@Z ; gen::Normalise
	add	esp, 8
	push	eax
	lea	ecx, DWORD PTR _axisZ$[ebp]
	call	??4CVector3@gen@@QAEAAV01@ABV01@@Z	; gen::CVector3::operator=

; 2900 : 		if (axisZ.IsZero()) return CMatrix4x4( position );

	lea	ecx, DWORD PTR _axisZ$[ebp]
	call	?IsZero@CVector3@gen@@QBE_NXZ		; gen::CVector3::IsZero
	movzx	eax, al
	test	eax, eax
	je	SHORT $LN5@MatrixFace
	mov	eax, DWORD PTR _position$[ebp]
	push	eax
	mov	ecx, DWORD PTR ___$ReturnUdt$[ebp]
	call	??0CMatrix4x4@gen@@QAE@ABVCVector3@1@@Z	; gen::CMatrix4x4::CMatrix4x4
	mov	eax, DWORD PTR ___$ReturnUdt$[ebp]
	jmp	$LN7@MatrixFace
$LN5@MatrixFace:

; 2901 : 		axisX = Normalise( Cross( up, axisZ ) );

	lea	eax, DWORD PTR _axisZ$[ebp]
	push	eax
	mov	ecx, DWORD PTR _up$[ebp]
	push	ecx
	lea	edx, DWORD PTR $T2[ebp]
	push	edx
	call	?Cross@gen@@YA?AVCVector3@1@ABV21@0@Z	; gen::Cross
	add	esp, 12					; 0000000cH
	push	eax
	lea	eax, DWORD PTR $T3[ebp]
	push	eax
	call	?Normalise@gen@@YA?AVCVector3@1@ABV21@@Z ; gen::Normalise
	add	esp, 8
	push	eax
	lea	ecx, DWORD PTR _axisX$[ebp]
	call	??4CVector3@gen@@QAEAAV01@ABV01@@Z	; gen::CVector3::operator=

; 2902 : 		if (axisX.IsZero()) return CMatrix4x4( position );

	lea	ecx, DWORD PTR _axisX$[ebp]
	call	?IsZero@CVector3@gen@@QBE_NXZ		; gen::CVector3::IsZero
	movzx	eax, al
	test	eax, eax
	je	SHORT $LN4@MatrixFace
	mov	eax, DWORD PTR _position$[ebp]
	push	eax
	mov	ecx, DWORD PTR ___$ReturnUdt$[ebp]
	call	??0CMatrix4x4@gen@@QAE@ABVCVector3@1@@Z	; gen::CMatrix4x4::CMatrix4x4
	mov	eax, DWORD PTR ___$ReturnUdt$[ebp]
	jmp	$LN7@MatrixFace
$LN4@MatrixFace:

; 2903 : 		axisY = Cross( axisZ, axisX ); // Will already be normalised

	lea	eax, DWORD PTR _axisX$[ebp]
	push	eax
	lea	ecx, DWORD PTR _axisZ$[ebp]
	push	ecx
	lea	edx, DWORD PTR $T4[ebp]
	push	edx
	call	?Cross@gen@@YA?AVCVector3@1@ABV21@0@Z	; gen::Cross
	add	esp, 12					; 0000000cH
	push	eax
	lea	ecx, DWORD PTR _axisY$[ebp]
	call	??4CVector3@gen@@QAEAAV01@ABV01@@Z	; gen::CVector3::operator=

; 2904 : 	}
; 2905 : 	else

	jmp	$LN3@MatrixFace
$LN6@MatrixFace:

; 2906 : 	{
; 2907 : 		axisZ = Normalise( -direction );

	mov	eax, DWORD PTR _direction$[ebp]
	push	eax
	lea	ecx, DWORD PTR $T5[ebp]
	push	ecx
	call	??Ggen@@YA?AVCVector3@0@ABV10@@Z	; gen::operator-
	add	esp, 8
	push	eax
	lea	edx, DWORD PTR $T6[ebp]
	push	edx
	call	?Normalise@gen@@YA?AVCVector3@1@ABV21@@Z ; gen::Normalise
	add	esp, 8
	push	eax
	lea	ecx, DWORD PTR _axisZ$[ebp]
	call	??4CVector3@gen@@QAEAAV01@ABV01@@Z	; gen::CVector3::operator=

; 2908 : 		if (axisZ.IsZero()) return CMatrix4x4( position );

	lea	ecx, DWORD PTR _axisZ$[ebp]
	call	?IsZero@CVector3@gen@@QBE_NXZ		; gen::CVector3::IsZero
	movzx	eax, al
	test	eax, eax
	je	SHORT $LN2@MatrixFace
	mov	eax, DWORD PTR _position$[ebp]
	push	eax
	mov	ecx, DWORD PTR ___$ReturnUdt$[ebp]
	call	??0CMatrix4x4@gen@@QAE@ABVCVector3@1@@Z	; gen::CMatrix4x4::CMatrix4x4
	mov	eax, DWORD PTR ___$ReturnUdt$[ebp]
	jmp	$LN7@MatrixFace
$LN2@MatrixFace:

; 2909 : 		axisX = Normalise( Cross( axisZ, up ) );

	mov	eax, DWORD PTR _up$[ebp]
	push	eax
	lea	ecx, DWORD PTR _axisZ$[ebp]
	push	ecx
	lea	edx, DWORD PTR $T7[ebp]
	push	edx
	call	?Cross@gen@@YA?AVCVector3@1@ABV21@0@Z	; gen::Cross
	add	esp, 12					; 0000000cH
	push	eax
	lea	eax, DWORD PTR $T8[ebp]
	push	eax
	call	?Normalise@gen@@YA?AVCVector3@1@ABV21@@Z ; gen::Normalise
	add	esp, 8
	push	eax
	lea	ecx, DWORD PTR _axisX$[ebp]
	call	??4CVector3@gen@@QAEAAV01@ABV01@@Z	; gen::CVector3::operator=

; 2910 : 		if (axisX.IsZero()) return CMatrix4x4( position );

	lea	ecx, DWORD PTR _axisX$[ebp]
	call	?IsZero@CVector3@gen@@QBE_NXZ		; gen::CVector3::IsZero
	movzx	eax, al
	test	eax, eax
	je	SHORT $LN1@MatrixFace
	mov	eax, DWORD PTR _position$[ebp]
	push	eax
	mov	ecx, DWORD PTR ___$ReturnUdt$[ebp]
	call	??0CMatrix4x4@gen@@QAE@ABVCVector3@1@@Z	; gen::CMatrix4x4::CMatrix4x4
	mov	eax, DWORD PTR ___$ReturnUdt$[ebp]
	jmp	SHORT $LN7@MatrixFace
$LN1@MatrixFace:

; 2911 : 		axisY = Cross( axisX, axisZ ); // Will already be normalised

	lea	eax, DWORD PTR _axisZ$[ebp]
	push	eax
	lea	ecx, DWORD PTR _axisX$[ebp]
	push	ecx
	lea	edx, DWORD PTR $T9[ebp]
	push	edx
	call	?Cross@gen@@YA?AVCVector3@1@ABV21@0@Z	; gen::Cross
	add	esp, 12					; 0000000cH
	push	eax
	lea	ecx, DWORD PTR _axisY$[ebp]
	call	??4CVector3@gen@@QAEAAV01@ABV01@@Z	; gen::CVector3::operator=
$LN3@MatrixFace:

; 2912 : 	}
; 2913 : 	
; 2914 : 	return CMatrix4x4( axisX, axisY, axisZ, position );

	push	1
	mov	eax, DWORD PTR _position$[ebp]
	push	eax
	lea	ecx, DWORD PTR _axisZ$[ebp]
	push	ecx
	lea	edx, DWORD PTR _axisY$[ebp]
	push	edx
	lea	eax, DWORD PTR _axisX$[ebp]
	push	eax
	mov	ecx, DWORD PTR ___$ReturnUdt$[ebp]
	call	??0CMatrix4x4@gen@@QAE@ABVCVector3@1@000_N@Z ; gen::CMatrix4x4::CMatrix4x4
	mov	eax, DWORD PTR ___$ReturnUdt$[ebp]
$LN7@MatrixFace:

; 2915 : }

	push	edx
	mov	ecx, ebp
	push	eax
	lea	edx, DWORD PTR $LN13@MatrixFace
	call	@_RTC_CheckStackVars@8
	pop	eax
	pop	edx
	pop	edi
	pop	esi
	pop	ebx
	add	esp, 432				; 000001b0H
	cmp	ebp, esp
	call	__RTC_CheckEsp
	mov	esp, ebp
	pop	ebp
	ret	0
	npad	2
$LN13@MatrixFace:
	DD	3
	DD	$LN12@MatrixFace
$LN12@MatrixFace:
	DD	-16					; fffffff0H
	DD	12					; 0000000cH
	DD	$LN9@MatrixFace
	DD	-36					; ffffffdcH
	DD	12					; 0000000cH
	DD	$LN10@MatrixFace
	DD	-56					; ffffffc8H
	DD	12					; 0000000cH
	DD	$LN11@MatrixFace
$LN11@MatrixFace:
	DB	97					; 00000061H
	DB	120					; 00000078H
	DB	105					; 00000069H
	DB	115					; 00000073H
	DB	90					; 0000005aH
	DB	0
$LN10@MatrixFace:
	DB	97					; 00000061H
	DB	120					; 00000078H
	DB	105					; 00000069H
	DB	115					; 00000073H
	DB	89					; 00000059H
	DB	0
$LN9@MatrixFace:
	DB	97					; 00000061H
	DB	120					; 00000078H
	DB	105					; 00000069H
	DB	115					; 00000073H
	DB	88					; 00000058H
	DB	0
?MatrixFaceDirection@gen@@YA?AVCMatrix4x4@1@ABVCVector3@1@00_N@Z ENDP ; gen::MatrixFaceDirection
_TEXT	ENDS
; Function compile flags: /Odtp /RTCsu /ZI
; File c:\users\simon\documents\github\uclan-sparta\import\math\cmatrix4x4.cpp
;	COMDAT ?MatrixFaceTarget@gen@@YA?AVCMatrix4x4@1@ABVCVector3@1@00_N@Z
_TEXT	SEGMENT
$T1 = -448						; size = 12
$T2 = -428						; size = 12
$T3 = -408						; size = 12
$T4 = -388						; size = 12
$T5 = -368						; size = 12
$T6 = -348						; size = 12
$T7 = -328						; size = 12
$T8 = -308						; size = 12
$T9 = -288						; size = 12
$T10 = -268						; size = 12
_axisZ$ = -56						; size = 12
_axisY$ = -36						; size = 12
_axisX$ = -16						; size = 12
___$ReturnUdt$ = 8					; size = 4
_position$ = 12						; size = 4
_target$ = 16						; size = 4
_up$ = 20						; size = 4
_bLH$ = 24						; size = 1
?MatrixFaceTarget@gen@@YA?AVCMatrix4x4@1@ABVCVector3@1@00_N@Z PROC ; gen::MatrixFaceTarget, COMDAT

; 2822 : {

	push	ebp
	mov	ebp, esp
	sub	esp, 452				; 000001c4H
	push	ebx
	push	esi
	push	edi
	lea	edi, DWORD PTR [ebp-452]
	mov	ecx, 113				; 00000071H
	mov	eax, -858993460				; ccccccccH
	rep stosd

; 2823 : 	// Use cross product of target direction and up vector to give third axis, then orthogonalise
; 2824 : 	CVector3 axisX, axisY, axisZ;

	lea	ecx, DWORD PTR _axisX$[ebp]
	call	??0CVector3@gen@@QAE@XZ			; gen::CVector3::CVector3
	lea	ecx, DWORD PTR _axisY$[ebp]
	call	??0CVector3@gen@@QAE@XZ			; gen::CVector3::CVector3
	lea	ecx, DWORD PTR _axisZ$[ebp]
	call	??0CVector3@gen@@QAE@XZ			; gen::CVector3::CVector3

; 2825 : 	if (bLH)

	movzx	eax, BYTE PTR _bLH$[ebp]
	test	eax, eax
	je	$LN6@MatrixFace

; 2826 : 	{
; 2827 : 		axisZ = Normalise( target - position );

	mov	eax, DWORD PTR _position$[ebp]
	push	eax
	mov	ecx, DWORD PTR _target$[ebp]
	push	ecx
	lea	edx, DWORD PTR $T1[ebp]
	push	edx
	call	??Ggen@@YA?AVCVector3@0@ABV10@0@Z	; gen::operator-
	add	esp, 12					; 0000000cH
	push	eax
	lea	eax, DWORD PTR $T2[ebp]
	push	eax
	call	?Normalise@gen@@YA?AVCVector3@1@ABV21@@Z ; gen::Normalise
	add	esp, 8
	push	eax
	lea	ecx, DWORD PTR _axisZ$[ebp]
	call	??4CVector3@gen@@QAEAAV01@ABV01@@Z	; gen::CVector3::operator=

; 2828 : 		if (axisZ.IsZero()) return CMatrix4x4( position );

	lea	ecx, DWORD PTR _axisZ$[ebp]
	call	?IsZero@CVector3@gen@@QBE_NXZ		; gen::CVector3::IsZero
	movzx	eax, al
	test	eax, eax
	je	SHORT $LN5@MatrixFace
	mov	eax, DWORD PTR _position$[ebp]
	push	eax
	mov	ecx, DWORD PTR ___$ReturnUdt$[ebp]
	call	??0CMatrix4x4@gen@@QAE@ABVCVector3@1@@Z	; gen::CMatrix4x4::CMatrix4x4
	mov	eax, DWORD PTR ___$ReturnUdt$[ebp]
	jmp	$LN7@MatrixFace
$LN5@MatrixFace:

; 2829 : 		axisX = Normalise( Cross( up, axisZ ) );

	lea	eax, DWORD PTR _axisZ$[ebp]
	push	eax
	mov	ecx, DWORD PTR _up$[ebp]
	push	ecx
	lea	edx, DWORD PTR $T3[ebp]
	push	edx
	call	?Cross@gen@@YA?AVCVector3@1@ABV21@0@Z	; gen::Cross
	add	esp, 12					; 0000000cH
	push	eax
	lea	eax, DWORD PTR $T4[ebp]
	push	eax
	call	?Normalise@gen@@YA?AVCVector3@1@ABV21@@Z ; gen::Normalise
	add	esp, 8
	push	eax
	lea	ecx, DWORD PTR _axisX$[ebp]
	call	??4CVector3@gen@@QAEAAV01@ABV01@@Z	; gen::CVector3::operator=

; 2830 : 		if (axisX.IsZero()) return CMatrix4x4( position );

	lea	ecx, DWORD PTR _axisX$[ebp]
	call	?IsZero@CVector3@gen@@QBE_NXZ		; gen::CVector3::IsZero
	movzx	eax, al
	test	eax, eax
	je	SHORT $LN4@MatrixFace
	mov	eax, DWORD PTR _position$[ebp]
	push	eax
	mov	ecx, DWORD PTR ___$ReturnUdt$[ebp]
	call	??0CMatrix4x4@gen@@QAE@ABVCVector3@1@@Z	; gen::CMatrix4x4::CMatrix4x4
	mov	eax, DWORD PTR ___$ReturnUdt$[ebp]
	jmp	$LN7@MatrixFace
$LN4@MatrixFace:

; 2831 : 		axisY = Cross( axisZ, axisX ); // Will already be normalised

	lea	eax, DWORD PTR _axisX$[ebp]
	push	eax
	lea	ecx, DWORD PTR _axisZ$[ebp]
	push	ecx
	lea	edx, DWORD PTR $T5[ebp]
	push	edx
	call	?Cross@gen@@YA?AVCVector3@1@ABV21@0@Z	; gen::Cross
	add	esp, 12					; 0000000cH
	push	eax
	lea	ecx, DWORD PTR _axisY$[ebp]
	call	??4CVector3@gen@@QAEAAV01@ABV01@@Z	; gen::CVector3::operator=

; 2832 : 	}
; 2833 : 	else

	jmp	$LN3@MatrixFace
$LN6@MatrixFace:

; 2834 : 	{
; 2835 : 		axisZ = Normalise( position - target );

	mov	eax, DWORD PTR _target$[ebp]
	push	eax
	mov	ecx, DWORD PTR _position$[ebp]
	push	ecx
	lea	edx, DWORD PTR $T6[ebp]
	push	edx
	call	??Ggen@@YA?AVCVector3@0@ABV10@0@Z	; gen::operator-
	add	esp, 12					; 0000000cH
	push	eax
	lea	eax, DWORD PTR $T7[ebp]
	push	eax
	call	?Normalise@gen@@YA?AVCVector3@1@ABV21@@Z ; gen::Normalise
	add	esp, 8
	push	eax
	lea	ecx, DWORD PTR _axisZ$[ebp]
	call	??4CVector3@gen@@QAEAAV01@ABV01@@Z	; gen::CVector3::operator=

; 2836 : 		if (axisZ.IsZero()) return CMatrix4x4( position );

	lea	ecx, DWORD PTR _axisZ$[ebp]
	call	?IsZero@CVector3@gen@@QBE_NXZ		; gen::CVector3::IsZero
	movzx	eax, al
	test	eax, eax
	je	SHORT $LN2@MatrixFace
	mov	eax, DWORD PTR _position$[ebp]
	push	eax
	mov	ecx, DWORD PTR ___$ReturnUdt$[ebp]
	call	??0CMatrix4x4@gen@@QAE@ABVCVector3@1@@Z	; gen::CMatrix4x4::CMatrix4x4
	mov	eax, DWORD PTR ___$ReturnUdt$[ebp]
	jmp	$LN7@MatrixFace
$LN2@MatrixFace:

; 2837 : 		axisX = Normalise( Cross( axisZ, up ) );

	mov	eax, DWORD PTR _up$[ebp]
	push	eax
	lea	ecx, DWORD PTR _axisZ$[ebp]
	push	ecx
	lea	edx, DWORD PTR $T8[ebp]
	push	edx
	call	?Cross@gen@@YA?AVCVector3@1@ABV21@0@Z	; gen::Cross
	add	esp, 12					; 0000000cH
	push	eax
	lea	eax, DWORD PTR $T9[ebp]
	push	eax
	call	?Normalise@gen@@YA?AVCVector3@1@ABV21@@Z ; gen::Normalise
	add	esp, 8
	push	eax
	lea	ecx, DWORD PTR _axisX$[ebp]
	call	??4CVector3@gen@@QAEAAV01@ABV01@@Z	; gen::CVector3::operator=

; 2838 : 		if (axisX.IsZero()) return CMatrix4x4( position );

	lea	ecx, DWORD PTR _axisX$[ebp]
	call	?IsZero@CVector3@gen@@QBE_NXZ		; gen::CVector3::IsZero
	movzx	eax, al
	test	eax, eax
	je	SHORT $LN1@MatrixFace
	mov	eax, DWORD PTR _position$[ebp]
	push	eax
	mov	ecx, DWORD PTR ___$ReturnUdt$[ebp]
	call	??0CMatrix4x4@gen@@QAE@ABVCVector3@1@@Z	; gen::CMatrix4x4::CMatrix4x4
	mov	eax, DWORD PTR ___$ReturnUdt$[ebp]
	jmp	SHORT $LN7@MatrixFace
$LN1@MatrixFace:

; 2839 : 		axisY = Cross( axisX, axisZ ); // Will already be normalised

	lea	eax, DWORD PTR _axisZ$[ebp]
	push	eax
	lea	ecx, DWORD PTR _axisX$[ebp]
	push	ecx
	lea	edx, DWORD PTR $T10[ebp]
	push	edx
	call	?Cross@gen@@YA?AVCVector3@1@ABV21@0@Z	; gen::Cross
	add	esp, 12					; 0000000cH
	push	eax
	lea	ecx, DWORD PTR _axisY$[ebp]
	call	??4CVector3@gen@@QAEAAV01@ABV01@@Z	; gen::CVector3::operator=
$LN3@MatrixFace:

; 2840 : 	}
; 2841 : 	
; 2842 : 	return CMatrix4x4( axisX, axisY, axisZ, position );

	push	1
	mov	eax, DWORD PTR _position$[ebp]
	push	eax
	lea	ecx, DWORD PTR _axisZ$[ebp]
	push	ecx
	lea	edx, DWORD PTR _axisY$[ebp]
	push	edx
	lea	eax, DWORD PTR _axisX$[ebp]
	push	eax
	mov	ecx, DWORD PTR ___$ReturnUdt$[ebp]
	call	??0CMatrix4x4@gen@@QAE@ABVCVector3@1@000_N@Z ; gen::CMatrix4x4::CMatrix4x4
	mov	eax, DWORD PTR ___$ReturnUdt$[ebp]
$LN7@MatrixFace:

; 2843 : }

	push	edx
	mov	ecx, ebp
	push	eax
	lea	edx, DWORD PTR $LN13@MatrixFace
	call	@_RTC_CheckStackVars@8
	pop	eax
	pop	edx
	pop	edi
	pop	esi
	pop	ebx
	add	esp, 452				; 000001c4H
	cmp	ebp, esp
	call	__RTC_CheckEsp
	mov	esp, ebp
	pop	ebp
	ret	0
	npad	2
$LN13@MatrixFace:
	DD	3
	DD	$LN12@MatrixFace
$LN12@MatrixFace:
	DD	-16					; fffffff0H
	DD	12					; 0000000cH
	DD	$LN9@MatrixFace
	DD	-36					; ffffffdcH
	DD	12					; 0000000cH
	DD	$LN10@MatrixFace
	DD	-56					; ffffffc8H
	DD	12					; 0000000cH
	DD	$LN11@MatrixFace
$LN11@MatrixFace:
	DB	97					; 00000061H
	DB	120					; 00000078H
	DB	105					; 00000069H
	DB	115					; 00000073H
	DB	90					; 0000005aH
	DB	0
$LN10@MatrixFace:
	DB	97					; 00000061H
	DB	120					; 00000078H
	DB	105					; 00000069H
	DB	115					; 00000073H
	DB	89					; 00000059H
	DB	0
$LN9@MatrixFace:
	DB	97					; 00000061H
	DB	120					; 00000078H
	DB	105					; 00000069H
	DB	115					; 00000073H
	DB	88					; 00000058H
	DB	0
?MatrixFaceTarget@gen@@YA?AVCMatrix4x4@1@ABVCVector3@1@00_N@Z ENDP ; gen::MatrixFaceTarget
_TEXT	ENDS
; Function compile flags: /Odtp /RTCsu /ZI
; File c:\users\simon\documents\github\uclan-sparta\import\math\cmatrix4x4.cpp
;	COMDAT ?MatrixScaling@gen@@YA?AVCMatrix4x4@1@M@Z
_TEXT	SEGMENT
_m$ = -68						; size = 64
___$ReturnUdt$ = 8					; size = 4
_fScale$ = 12						; size = 4
?MatrixScaling@gen@@YA?AVCMatrix4x4@1@M@Z PROC		; gen::MatrixScaling, COMDAT

; 2743 : {

	push	ebp
	mov	ebp, esp
	sub	esp, 264				; 00000108H
	push	ebx
	push	esi
	push	edi
	lea	edi, DWORD PTR [ebp-264]
	mov	ecx, 66					; 00000042H
	mov	eax, -858993460				; ccccccccH
	rep stosd

; 2744 : 	CMatrix4x4 m;

	lea	ecx, DWORD PTR _m$[ebp]
	call	??0CMatrix4x4@gen@@QAE@XZ		; gen::CMatrix4x4::CMatrix4x4

; 2745 : 
; 2746 : 	m.e00 = fScale;

	movss	xmm0, DWORD PTR _fScale$[ebp]
	movss	DWORD PTR _m$[ebp], xmm0

; 2747 : 	m.e01 = 0.0f;

	movss	xmm0, DWORD PTR __real@00000000
	movss	DWORD PTR _m$[ebp+4], xmm0

; 2748 : 	m.e02 = 0.0f;

	movss	xmm0, DWORD PTR __real@00000000
	movss	DWORD PTR _m$[ebp+8], xmm0

; 2749 : 	m.e03 = 0.0f;

	movss	xmm0, DWORD PTR __real@00000000
	movss	DWORD PTR _m$[ebp+12], xmm0

; 2750 : 
; 2751 : 	m.e10 = 0.0f;

	movss	xmm0, DWORD PTR __real@00000000
	movss	DWORD PTR _m$[ebp+16], xmm0

; 2752 : 	m.e11 = fScale;

	movss	xmm0, DWORD PTR _fScale$[ebp]
	movss	DWORD PTR _m$[ebp+20], xmm0

; 2753 : 	m.e12 = 0.0f;

	movss	xmm0, DWORD PTR __real@00000000
	movss	DWORD PTR _m$[ebp+24], xmm0

; 2754 : 	m.e13 = 0.0f;

	movss	xmm0, DWORD PTR __real@00000000
	movss	DWORD PTR _m$[ebp+28], xmm0

; 2755 : 
; 2756 : 	m.e20 = 0.0f;

	movss	xmm0, DWORD PTR __real@00000000
	movss	DWORD PTR _m$[ebp+32], xmm0

; 2757 : 	m.e21 = 0.0f;

	movss	xmm0, DWORD PTR __real@00000000
	movss	DWORD PTR _m$[ebp+36], xmm0

; 2758 : 	m.e22 = fScale;

	movss	xmm0, DWORD PTR _fScale$[ebp]
	movss	DWORD PTR _m$[ebp+40], xmm0

; 2759 : 	m.e23 = 0.0f;

	movss	xmm0, DWORD PTR __real@00000000
	movss	DWORD PTR _m$[ebp+44], xmm0

; 2760 : 
; 2761 : 	m.e30 = 0.0f;

	movss	xmm0, DWORD PTR __real@00000000
	movss	DWORD PTR _m$[ebp+48], xmm0

; 2762 : 	m.e31 = 0.0f;

	movss	xmm0, DWORD PTR __real@00000000
	movss	DWORD PTR _m$[ebp+52], xmm0

; 2763 : 	m.e32 = 0.0f;

	movss	xmm0, DWORD PTR __real@00000000
	movss	DWORD PTR _m$[ebp+56], xmm0

; 2764 : 	m.e33 = 1.0f;

	movss	xmm0, DWORD PTR __real@3f800000
	movss	DWORD PTR _m$[ebp+60], xmm0

; 2765 : 
; 2766 : 	return m;

	lea	eax, DWORD PTR _m$[ebp]
	push	eax
	mov	ecx, DWORD PTR ___$ReturnUdt$[ebp]
	call	??0CMatrix4x4@gen@@QAE@ABV01@@Z		; gen::CMatrix4x4::CMatrix4x4
	mov	eax, DWORD PTR ___$ReturnUdt$[ebp]

; 2767 : }

	push	edx
	mov	ecx, ebp
	push	eax
	lea	edx, DWORD PTR $LN5@MatrixScal
	call	@_RTC_CheckStackVars@8
	pop	eax
	pop	edx
	pop	edi
	pop	esi
	pop	ebx
	add	esp, 264				; 00000108H
	cmp	ebp, esp
	call	__RTC_CheckEsp
	mov	esp, ebp
	pop	ebp
	ret	0
	npad	3
$LN5@MatrixScal:
	DD	1
	DD	$LN4@MatrixScal
$LN4@MatrixScal:
	DD	-68					; ffffffbcH
	DD	64					; 00000040H
	DD	$LN3@MatrixScal
$LN3@MatrixScal:
	DB	109					; 0000006dH
	DB	0
?MatrixScaling@gen@@YA?AVCMatrix4x4@1@M@Z ENDP		; gen::MatrixScaling
_TEXT	ENDS
; Function compile flags: /Odtp /RTCsu /ZI
; File c:\users\simon\documents\github\uclan-sparta\import\math\cmatrix4x4.cpp
;	COMDAT ?MatrixScaling@gen@@YA?AVCMatrix4x4@1@ABVCVector3@1@@Z
_TEXT	SEGMENT
_m$ = -68						; size = 64
___$ReturnUdt$ = 8					; size = 4
_scale$ = 12						; size = 4
?MatrixScaling@gen@@YA?AVCMatrix4x4@1@ABVCVector3@1@@Z PROC ; gen::MatrixScaling, COMDAT

; 2715 : {

	push	ebp
	mov	ebp, esp
	sub	esp, 264				; 00000108H
	push	ebx
	push	esi
	push	edi
	lea	edi, DWORD PTR [ebp-264]
	mov	ecx, 66					; 00000042H
	mov	eax, -858993460				; ccccccccH
	rep stosd

; 2716 : 	CMatrix4x4 m;

	lea	ecx, DWORD PTR _m$[ebp]
	call	??0CMatrix4x4@gen@@QAE@XZ		; gen::CMatrix4x4::CMatrix4x4

; 2717 : 
; 2718 : 	m.e00 = scale.x;

	mov	eax, DWORD PTR _scale$[ebp]
	movss	xmm0, DWORD PTR [eax]
	movss	DWORD PTR _m$[ebp], xmm0

; 2719 : 	m.e01 = 0.0f;

	movss	xmm0, DWORD PTR __real@00000000
	movss	DWORD PTR _m$[ebp+4], xmm0

; 2720 : 	m.e02 = 0.0f;

	movss	xmm0, DWORD PTR __real@00000000
	movss	DWORD PTR _m$[ebp+8], xmm0

; 2721 : 	m.e03 = 0.0f;

	movss	xmm0, DWORD PTR __real@00000000
	movss	DWORD PTR _m$[ebp+12], xmm0

; 2722 : 
; 2723 : 	m.e10 = 0.0f;

	movss	xmm0, DWORD PTR __real@00000000
	movss	DWORD PTR _m$[ebp+16], xmm0

; 2724 : 	m.e11 = scale.y;

	mov	eax, DWORD PTR _scale$[ebp]
	movss	xmm0, DWORD PTR [eax+4]
	movss	DWORD PTR _m$[ebp+20], xmm0

; 2725 : 	m.e12 = 0.0f;

	movss	xmm0, DWORD PTR __real@00000000
	movss	DWORD PTR _m$[ebp+24], xmm0

; 2726 : 	m.e13 = 0.0f;

	movss	xmm0, DWORD PTR __real@00000000
	movss	DWORD PTR _m$[ebp+28], xmm0

; 2727 : 
; 2728 : 	m.e20 = 0.0f;

	movss	xmm0, DWORD PTR __real@00000000
	movss	DWORD PTR _m$[ebp+32], xmm0

; 2729 : 	m.e21 = 0.0f;

	movss	xmm0, DWORD PTR __real@00000000
	movss	DWORD PTR _m$[ebp+36], xmm0

; 2730 : 	m.e22 = scale.z;

	mov	eax, DWORD PTR _scale$[ebp]
	movss	xmm0, DWORD PTR [eax+8]
	movss	DWORD PTR _m$[ebp+40], xmm0

; 2731 : 	m.e23 = 0.0f;

	movss	xmm0, DWORD PTR __real@00000000
	movss	DWORD PTR _m$[ebp+44], xmm0

; 2732 : 
; 2733 : 	m.e30 = 0.0f;

	movss	xmm0, DWORD PTR __real@00000000
	movss	DWORD PTR _m$[ebp+48], xmm0

; 2734 : 	m.e31 = 0.0f;

	movss	xmm0, DWORD PTR __real@00000000
	movss	DWORD PTR _m$[ebp+52], xmm0

; 2735 : 	m.e32 = 0.0f;

	movss	xmm0, DWORD PTR __real@00000000
	movss	DWORD PTR _m$[ebp+56], xmm0

; 2736 : 	m.e33 = 1.0f;

	movss	xmm0, DWORD PTR __real@3f800000
	movss	DWORD PTR _m$[ebp+60], xmm0

; 2737 : 
; 2738 : 	return m;

	lea	eax, DWORD PTR _m$[ebp]
	push	eax
	mov	ecx, DWORD PTR ___$ReturnUdt$[ebp]
	call	??0CMatrix4x4@gen@@QAE@ABV01@@Z		; gen::CMatrix4x4::CMatrix4x4
	mov	eax, DWORD PTR ___$ReturnUdt$[ebp]

; 2739 : }

	push	edx
	mov	ecx, ebp
	push	eax
	lea	edx, DWORD PTR $LN5@MatrixScal
	call	@_RTC_CheckStackVars@8
	pop	eax
	pop	edx
	pop	edi
	pop	esi
	pop	ebx
	add	esp, 264				; 00000108H
	cmp	ebp, esp
	call	__RTC_CheckEsp
	mov	esp, ebp
	pop	ebp
	ret	0
	npad	3
$LN5@MatrixScal:
	DD	1
	DD	$LN4@MatrixScal
$LN4@MatrixScal:
	DD	-68					; ffffffbcH
	DD	64					; 00000040H
	DD	$LN3@MatrixScal
$LN3@MatrixScal:
	DB	109					; 0000006dH
	DB	0
?MatrixScaling@gen@@YA?AVCMatrix4x4@1@ABVCVector3@1@@Z ENDP ; gen::MatrixScaling
_TEXT	ENDS
; Function compile flags: /Odtp /RTCsu /ZI
; File c:\users\simon\documents\github\uclan-sparta\import\math\cmatrix4x4.cpp
;	COMDAT ?MatrixRotation@gen@@YA?AVCMatrix4x4@1@ABVCVector3@1@M@Z
_TEXT	SEGMENT
tv187 = -749						; size = 1
$T2 = -744						; size = 88
$T3 = -648						; size = 88
$T4 = -552						; size = 88
_e$5 = -264						; size = 4
_tzx$6 = -252						; size = 4
_tyz$7 = -240						; size = 4
_txy$8 = -228						; size = 4
_tz$9 = -216						; size = 4
_ty$10 = -204						; size = 4
_tx$11 = -192						; size = 4
_sz$12 = -180						; size = 4
_sy$13 = -168						; size = 4
_sx$14 = -156						; size = 4
_axisNorm$15 = -144					; size = 12
_t$16 = -124						; size = 4
_c$17 = -112						; size = 4
_s$18 = -100						; size = 4
_m$19 = -88						; size = 64
__$ArrayPad$ = -20					; size = 4
__$EHRec$ = -16						; size = 16
___$ReturnUdt$ = 8					; size = 4
_axis$ = 12						; size = 4
_fAngle$ = 16						; size = 4
?MatrixRotation@gen@@YA?AVCMatrix4x4@1@ABVCVector3@1@M@Z PROC ; gen::MatrixRotation, COMDAT

; 2664 : {

	push	ebp
	mov	ebp, esp
	push	-1
	push	__ehhandler$?MatrixRotation@gen@@YA?AVCMatrix4x4@1@ABVCVector3@1@M@Z
	mov	eax, DWORD PTR fs:0
	push	eax
	push	ecx
	sub	esp, 736				; 000002e0H
	push	ebx
	push	esi
	push	edi
	lea	edi, DWORD PTR [ebp-752]
	mov	ecx, 184				; 000000b8H
	mov	eax, -858993460				; ccccccccH
	rep stosd
	mov	eax, DWORD PTR ___security_cookie
	xor	eax, ebp
	mov	DWORD PTR __$ArrayPad$[ebp], eax
	push	eax
	lea	eax, DWORD PTR __$EHRec$[ebp+4]
	mov	DWORD PTR fs:0, eax
	mov	DWORD PTR __$EHRec$[ebp], esp

; 2665 : 	GEN_GUARD;

	mov	DWORD PTR __$EHRec$[ebp+12], 0

; 2666 : 
; 2667 : 	CMatrix4x4 m;

	lea	ecx, DWORD PTR _m$19[ebp]
	call	??0CMatrix4x4@gen@@QAE@XZ		; gen::CMatrix4x4::CMatrix4x4

; 2668 : 
; 2669 : 	TFloat32 s, c;
; 2670 : 	SinCos( fAngle, &s, &c );

	lea	eax, DWORD PTR _c$17[ebp]
	push	eax
	lea	ecx, DWORD PTR _s$18[ebp]
	push	ecx
	push	ecx
	movss	xmm0, DWORD PTR _fAngle$[ebp]
	movss	DWORD PTR [esp], xmm0
	call	?SinCos@gen@@YAXMPAM0@Z			; gen::SinCos
	add	esp, 12					; 0000000cH

; 2671 : 	TFloat32 t = 1.0f - c;

	movss	xmm0, DWORD PTR __real@3f800000
	subss	xmm0, DWORD PTR _c$17[ebp]
	movss	DWORD PTR _t$16[ebp], xmm0

; 2672 : 
; 2673 : 	CVector3 axisNorm = Normalise( axis );

	mov	eax, DWORD PTR _axis$[ebp]
	push	eax
	lea	ecx, DWORD PTR _axisNorm$15[ebp]
	push	ecx
	call	?Normalise@gen@@YA?AVCVector3@1@ABV21@@Z ; gen::Normalise
	add	esp, 8

; 2674 : 	GEN_ASSERT( !axisNorm.IsZero(), "Zero length axis" );

	lea	ecx, DWORD PTR _axisNorm$15[ebp]
	call	?IsZero@CVector3@gen@@QBE_NXZ		; gen::CVector3::IsZero
	mov	BYTE PTR tv187[ebp], al
	movzx	eax, BYTE PTR tv187[ebp]
	test	eax, eax
	je	SHORT $LN1@MatrixRota
	mov	eax, DWORD PTR ?__LINE__Var@?1??MatrixRotation@gen@@YA?AVCMatrix4x4@2@ABVCVector3@2@M@Z@4JA
	add	eax, 10					; 0000000aH
	push	eax
	push	OFFSET ??_C@_0EI@POGHFJCD@c?3?2users?2simon?2documents?2github?2@
	push	OFFSET ??_C@_0BB@OPALDBID@Zero?5length?5axis?$AA@
	lea	ecx, DWORD PTR $T2[ebp]
	call	??0CFatalException@gen@@QAE@PBD0H@Z	; gen::CFatalException::CFatalException
	push	OFFSET __TI1?AVCFatalException@gen@@
	lea	ecx, DWORD PTR $T2[ebp]
	push	ecx
	call	__CxxThrowException@8
$LN1@MatrixRota:

; 2675 : 
; 2676 : 	TFloat32 sx = s * axisNorm.x;

	movss	xmm0, DWORD PTR _s$18[ebp]
	mulss	xmm0, DWORD PTR _axisNorm$15[ebp]
	movss	DWORD PTR _sx$14[ebp], xmm0

; 2677 : 	TFloat32 sy = s * axisNorm.y;

	movss	xmm0, DWORD PTR _s$18[ebp]
	mulss	xmm0, DWORD PTR _axisNorm$15[ebp+4]
	movss	DWORD PTR _sy$13[ebp], xmm0

; 2678 : 	TFloat32 sz = s * axisNorm.z;

	movss	xmm0, DWORD PTR _s$18[ebp]
	mulss	xmm0, DWORD PTR _axisNorm$15[ebp+8]
	movss	DWORD PTR _sz$12[ebp], xmm0

; 2679 : 	TFloat32 tx = t * axisNorm.x;  

	movss	xmm0, DWORD PTR _t$16[ebp]
	mulss	xmm0, DWORD PTR _axisNorm$15[ebp]
	movss	DWORD PTR _tx$11[ebp], xmm0

; 2680 : 	TFloat32 ty = t * axisNorm.y;

	movss	xmm0, DWORD PTR _t$16[ebp]
	mulss	xmm0, DWORD PTR _axisNorm$15[ebp+4]
	movss	DWORD PTR _ty$10[ebp], xmm0

; 2681 : 	TFloat32 tz = t * axisNorm.z;

	movss	xmm0, DWORD PTR _t$16[ebp]
	mulss	xmm0, DWORD PTR _axisNorm$15[ebp+8]
	movss	DWORD PTR _tz$9[ebp], xmm0

; 2682 : 	TFloat32 txy = ty * axisNorm.x;

	movss	xmm0, DWORD PTR _ty$10[ebp]
	mulss	xmm0, DWORD PTR _axisNorm$15[ebp]
	movss	DWORD PTR _txy$8[ebp], xmm0

; 2683 : 	TFloat32 tyz = tz * axisNorm.y;

	movss	xmm0, DWORD PTR _tz$9[ebp]
	mulss	xmm0, DWORD PTR _axisNorm$15[ebp+4]
	movss	DWORD PTR _tyz$7[ebp], xmm0

; 2684 : 	TFloat32 tzx = tx * axisNorm.z;

	movss	xmm0, DWORD PTR _tx$11[ebp]
	mulss	xmm0, DWORD PTR _axisNorm$15[ebp+8]
	movss	DWORD PTR _tzx$6[ebp], xmm0

; 2685 : 
; 2686 : 	m.e00 = tx * axisNorm.x + c;

	movss	xmm0, DWORD PTR _tx$11[ebp]
	mulss	xmm0, DWORD PTR _axisNorm$15[ebp]
	addss	xmm0, DWORD PTR _c$17[ebp]
	movss	DWORD PTR _m$19[ebp], xmm0

; 2687 : 	m.e01 = txy + sz;

	movss	xmm0, DWORD PTR _txy$8[ebp]
	addss	xmm0, DWORD PTR _sz$12[ebp]
	movss	DWORD PTR _m$19[ebp+4], xmm0

; 2688 : 	m.e02 = tzx - sy;

	movss	xmm0, DWORD PTR _tzx$6[ebp]
	subss	xmm0, DWORD PTR _sy$13[ebp]
	movss	DWORD PTR _m$19[ebp+8], xmm0

; 2689 : 	m.e03 = 0.0f;

	movss	xmm0, DWORD PTR __real@00000000
	movss	DWORD PTR _m$19[ebp+12], xmm0

; 2690 : 
; 2691 : 	m.e10 = txy - sz; 

	movss	xmm0, DWORD PTR _txy$8[ebp]
	subss	xmm0, DWORD PTR _sz$12[ebp]
	movss	DWORD PTR _m$19[ebp+16], xmm0

; 2692 : 	m.e11 = ty * axisNorm.y + c;

	movss	xmm0, DWORD PTR _ty$10[ebp]
	mulss	xmm0, DWORD PTR _axisNorm$15[ebp+4]
	addss	xmm0, DWORD PTR _c$17[ebp]
	movss	DWORD PTR _m$19[ebp+20], xmm0

; 2693 : 	m.e12 = tyz + sx;

	movss	xmm0, DWORD PTR _tyz$7[ebp]
	addss	xmm0, DWORD PTR _sx$14[ebp]
	movss	DWORD PTR _m$19[ebp+24], xmm0

; 2694 : 	m.e13 = 0.0f;

	movss	xmm0, DWORD PTR __real@00000000
	movss	DWORD PTR _m$19[ebp+28], xmm0

; 2695 : 
; 2696 : 	m.e20 = tzx + sy;

	movss	xmm0, DWORD PTR _tzx$6[ebp]
	addss	xmm0, DWORD PTR _sy$13[ebp]
	movss	DWORD PTR _m$19[ebp+32], xmm0

; 2697 : 	m.e21 = tyz - sx;

	movss	xmm0, DWORD PTR _tyz$7[ebp]
	subss	xmm0, DWORD PTR _sx$14[ebp]
	movss	DWORD PTR _m$19[ebp+36], xmm0

; 2698 : 	m.e22 = tz * axisNorm.z + c;

	movss	xmm0, DWORD PTR _tz$9[ebp]
	mulss	xmm0, DWORD PTR _axisNorm$15[ebp+8]
	addss	xmm0, DWORD PTR _c$17[ebp]
	movss	DWORD PTR _m$19[ebp+40], xmm0

; 2699 : 	m.e23 = 0.0f;

	movss	xmm0, DWORD PTR __real@00000000
	movss	DWORD PTR _m$19[ebp+44], xmm0

; 2700 : 
; 2701 : 	m.e30 = 0.0f;

	movss	xmm0, DWORD PTR __real@00000000
	movss	DWORD PTR _m$19[ebp+48], xmm0

; 2702 : 	m.e31 = 0.0f;

	movss	xmm0, DWORD PTR __real@00000000
	movss	DWORD PTR _m$19[ebp+52], xmm0

; 2703 : 	m.e32 = 0.0f;

	movss	xmm0, DWORD PTR __real@00000000
	movss	DWORD PTR _m$19[ebp+56], xmm0

; 2704 : 	m.e33 = 1.0f;

	movss	xmm0, DWORD PTR __real@3f800000
	movss	DWORD PTR _m$19[ebp+60], xmm0

; 2705 : 
; 2706 : 	return m;

	lea	eax, DWORD PTR _m$19[ebp]
	push	eax
	mov	ecx, DWORD PTR ___$ReturnUdt$[ebp]
	call	??0CMatrix4x4@gen@@QAE@ABV01@@Z		; gen::CMatrix4x4::CMatrix4x4
	mov	eax, DWORD PTR ___$ReturnUdt$[ebp]
	jmp	$LN8@MatrixRota
__catch$?MatrixRotation@gen@@YA?AVCMatrix4x4@1@ABVCVector3@1@M@Z$0:

; 2707 : 
; 2708 : 	GEN_ENDGUARD;

	push	0
	call	?ObjectName@gen@@YAPBDXZ		; gen::ObjectName
	push	eax
	push	OFFSET ??_C@_0BE@LMIKLAKG@gen?3?3MatrixRotation?$AA@
	mov	ecx, DWORD PTR _e$5[ebp]
	call	?AppendToCallStack@CFatalException@gen@@QAEXPBD0_N@Z ; gen::CFatalException::AppendToCallStack
	mov	eax, DWORD PTR _e$5[ebp]
	push	eax
	lea	ecx, DWORD PTR $T3[ebp]
	call	??0CFatalException@gen@@QAE@ABV01@@Z
	push	OFFSET __TI1?AVCFatalException@gen@@
	lea	ecx, DWORD PTR $T3[ebp]
	push	ecx
	call	__CxxThrowException@8
	mov	eax, $LN9@MatrixRota
	ret	0
__catch$?MatrixRotation@gen@@YA?AVCMatrix4x4@1@ABVCVector3@1@M@Z$1:
	call	?ObjectName@gen@@YAPBDXZ		; gen::ObjectName
	push	eax
	push	OFFSET ??_C@_0BE@LMIKLAKG@gen?3?3MatrixRotation?$AA@
	push	OFFSET ??_C@_0EI@POGHFJCD@c?3?2users?2simon?2documents?2github?2@
	lea	ecx, DWORD PTR $T4[ebp]
	call	??0CFatalException@gen@@QAE@PBD00@Z	; gen::CFatalException::CFatalException
	push	OFFSET __TI1?AVCFatalException@gen@@
	lea	eax, DWORD PTR $T4[ebp]
	push	eax
	call	__CxxThrowException@8
	mov	eax, $LN11@MatrixRota
	ret	0
	mov	DWORD PTR __$EHRec$[ebp+12], -1
	jmp	SHORT $LN10@MatrixRota
$LN11@MatrixRota:
	mov	DWORD PTR __$EHRec$[ebp+12], -1
	jmp	SHORT $LN8@MatrixRota
$LN10@MatrixRota:
	jmp	SHORT $LN8@MatrixRota
$LN9@MatrixRota:
	mov	DWORD PTR __$EHRec$[ebp+12], -1
$LN8@MatrixRota:

; 2709 : }

	push	edx
	mov	ecx, ebp
	push	eax
	lea	edx, DWORD PTR $LN19@MatrixRota
	call	@_RTC_CheckStackVars@8
	pop	eax
	pop	edx
	mov	ecx, DWORD PTR __$EHRec$[ebp+4]
	mov	DWORD PTR fs:0, ecx
	pop	ecx
	pop	edi
	pop	esi
	pop	ebx
	mov	ecx, DWORD PTR __$ArrayPad$[ebp]
	xor	ecx, ebp
	call	@__security_check_cookie@4
	add	esp, 752				; 000002f0H
	cmp	ebp, esp
	call	__RTC_CheckEsp
	mov	esp, ebp
	pop	ebp
	ret	0
	npad	1
$LN19@MatrixRota:
	DD	5
	DD	$LN18@MatrixRota
$LN18@MatrixRota:
	DD	-88					; ffffffa8H
	DD	64					; 00000040H
	DD	$LN12@MatrixRota
	DD	-100					; ffffff9cH
	DD	4
	DD	$LN13@MatrixRota
	DD	-112					; ffffff90H
	DD	4
	DD	$LN14@MatrixRota
	DD	-144					; ffffff70H
	DD	12					; 0000000cH
	DD	$LN15@MatrixRota
	DD	-264					; fffffef8H
	DD	4
	DD	$LN16@MatrixRota
$LN16@MatrixRota:
	DB	101					; 00000065H
	DB	0
$LN15@MatrixRota:
	DB	97					; 00000061H
	DB	120					; 00000078H
	DB	105					; 00000069H
	DB	115					; 00000073H
	DB	78					; 0000004eH
	DB	111					; 0000006fH
	DB	114					; 00000072H
	DB	109					; 0000006dH
	DB	0
$LN14@MatrixRota:
	DB	99					; 00000063H
	DB	0
$LN13@MatrixRota:
	DB	115					; 00000073H
	DB	0
$LN12@MatrixRota:
	DB	109					; 0000006dH
	DB	0
_TEXT	ENDS
;	COMDAT text$x
text$x	SEGMENT
__ehhandler$?MatrixRotation@gen@@YA?AVCMatrix4x4@1@ABVCVector3@1@M@Z:
	mov	edx, DWORD PTR [esp+8]
	lea	eax, DWORD PTR [edx+12]
	mov	ecx, DWORD PTR [edx-756]
	xor	ecx, eax
	call	@__security_check_cookie@4
	mov	ecx, DWORD PTR [edx-8]
	xor	ecx, eax
	call	@__security_check_cookie@4
	mov	eax, OFFSET __ehfuncinfo$?MatrixRotation@gen@@YA?AVCMatrix4x4@1@ABVCVector3@1@M@Z
	jmp	___CxxFrameHandler3
text$x	ENDS
?MatrixRotation@gen@@YA?AVCMatrix4x4@1@ABVCVector3@1@M@Z ENDP ; gen::MatrixRotation
; Function compile flags: /Odtp /RTCsu /ZI
; File c:\users\simon\documents\github\uclan-sparta\import\math\cmatrix4x4.cpp
;	COMDAT ?MatrixRotation@gen@@YA?AVCMatrix4x4@1@VCVector3@1@W4ERotationOrder@1@@Z
_TEXT	SEGMENT
tv74 = -660						; size = 4
$T2 = -652						; size = 88
$T3 = -556						; size = 88
$T4 = -460						; size = 88
_e$5 = -172						; size = 4
_cZ$6 = -160						; size = 4
_sZ$7 = -148						; size = 4
_cY$8 = -136						; size = 4
_sY$9 = -124						; size = 4
_cX$10 = -112						; size = 4
_sX$11 = -100						; size = 4
_m$12 = -88						; size = 64
__$ArrayPad$ = -20					; size = 4
__$EHRec$ = -16						; size = 16
___$ReturnUdt$ = 8					; size = 4
_angles$ = 12						; size = 12
_eRotOrder$ = 24					; size = 4
?MatrixRotation@gen@@YA?AVCMatrix4x4@1@VCVector3@1@W4ERotationOrder@1@@Z PROC ; gen::MatrixRotation, COMDAT

; 2527 : {

	push	ebp
	mov	ebp, esp
	push	-1
	push	__ehhandler$?MatrixRotation@gen@@YA?AVCMatrix4x4@1@VCVector3@1@W4ERotationOrder@1@@Z
	mov	eax, DWORD PTR fs:0
	push	eax
	push	ecx
	sub	esp, 644				; 00000284H
	push	ebx
	push	esi
	push	edi
	lea	edi, DWORD PTR [ebp-660]
	mov	ecx, 161				; 000000a1H
	mov	eax, -858993460				; ccccccccH
	rep stosd
	mov	eax, DWORD PTR ___security_cookie
	xor	eax, ebp
	mov	DWORD PTR __$ArrayPad$[ebp], eax
	push	eax
	lea	eax, DWORD PTR __$EHRec$[ebp+4]
	mov	DWORD PTR fs:0, eax
	mov	DWORD PTR __$EHRec$[ebp], esp

; 2528 : 	GEN_GUARD;

	mov	DWORD PTR __$EHRec$[ebp+12], 0

; 2529 : 
; 2530 : 	CMatrix4x4 m;

	lea	ecx, DWORD PTR _m$12[ebp]
	call	??0CMatrix4x4@gen@@QAE@XZ		; gen::CMatrix4x4::CMatrix4x4

; 2531 : 
; 2532 : 	TFloat32 sX, cX, sY, cY, sZ, cZ;
; 2533 : 	SinCos( angles.x, &sX, &cX );

	lea	eax, DWORD PTR _cX$10[ebp]
	push	eax
	lea	ecx, DWORD PTR _sX$11[ebp]
	push	ecx
	push	ecx
	movss	xmm0, DWORD PTR _angles$[ebp]
	movss	DWORD PTR [esp], xmm0
	call	?SinCos@gen@@YAXMPAM0@Z			; gen::SinCos
	add	esp, 12					; 0000000cH

; 2534 : 	SinCos( angles.y, &sY, &cY );

	lea	eax, DWORD PTR _cY$8[ebp]
	push	eax
	lea	ecx, DWORD PTR _sY$9[ebp]
	push	ecx
	push	ecx
	movss	xmm0, DWORD PTR _angles$[ebp+4]
	movss	DWORD PTR [esp], xmm0
	call	?SinCos@gen@@YAXMPAM0@Z			; gen::SinCos
	add	esp, 12					; 0000000cH

; 2535 : 	SinCos( angles.z, &sZ, &cZ );

	lea	eax, DWORD PTR _cZ$6[ebp]
	push	eax
	lea	ecx, DWORD PTR _sZ$7[ebp]
	push	ecx
	push	ecx
	movss	xmm0, DWORD PTR _angles$[ebp+8]
	movss	DWORD PTR [esp], xmm0
	call	?SinCos@gen@@YAXMPAM0@Z			; gen::SinCos
	add	esp, 12					; 0000000cH

; 2536 : 
; 2537 : 	switch (eRotOrder)

	mov	eax, DWORD PTR _eRotOrder$[ebp]
	mov	DWORD PTR tv74[ebp], eax
	cmp	DWORD PTR tv74[ebp], 5
	ja	$LN1@MatrixRota
	mov	ecx, DWORD PTR tv74[ebp]
	jmp	DWORD PTR $LN31@MatrixRota[ecx*4]
$LN7@MatrixRota:

; 2538 : 	{
; 2539 : 		case kZYX:
; 2540 : 		{
; 2541 : 			m.e00 = cZ * cY;

	movss	xmm0, DWORD PTR _cZ$6[ebp]
	mulss	xmm0, DWORD PTR _cY$8[ebp]
	movss	DWORD PTR _m$12[ebp], xmm0

; 2542 : 			m.e01 = sZ * cX + cZ * sY * sX;

	movss	xmm0, DWORD PTR _cZ$6[ebp]
	mulss	xmm0, DWORD PTR _sY$9[ebp]
	mulss	xmm0, DWORD PTR _sX$11[ebp]
	movss	xmm1, DWORD PTR _sZ$7[ebp]
	mulss	xmm1, DWORD PTR _cX$10[ebp]
	addss	xmm1, xmm0
	movss	DWORD PTR _m$12[ebp+4], xmm1

; 2543 : 			m.e02 = sZ * sX + -cZ * sY * cX;

	movss	xmm0, DWORD PTR _cZ$6[ebp]
	xorps	xmm0, DWORD PTR __xmm@80000000800000008000000080000000
	mulss	xmm0, DWORD PTR _sY$9[ebp]
	mulss	xmm0, DWORD PTR _cX$10[ebp]
	movss	xmm1, DWORD PTR _sZ$7[ebp]
	mulss	xmm1, DWORD PTR _sX$11[ebp]
	addss	xmm1, xmm0
	movss	DWORD PTR _m$12[ebp+8], xmm1

; 2544 : 			m.e03 = 0.0f;

	movss	xmm0, DWORD PTR __real@00000000
	movss	DWORD PTR _m$12[ebp+12], xmm0

; 2545 : 
; 2546 : 			m.e10 = -sZ * cY;

	movss	xmm0, DWORD PTR _sZ$7[ebp]
	xorps	xmm0, DWORD PTR __xmm@80000000800000008000000080000000
	mulss	xmm0, DWORD PTR _cY$8[ebp]
	movss	DWORD PTR _m$12[ebp+16], xmm0

; 2547 : 			m.e11 = cZ * cX + -sZ * sY * sX;

	movss	xmm0, DWORD PTR _sZ$7[ebp]
	xorps	xmm0, DWORD PTR __xmm@80000000800000008000000080000000
	mulss	xmm0, DWORD PTR _sY$9[ebp]
	mulss	xmm0, DWORD PTR _sX$11[ebp]
	movss	xmm1, DWORD PTR _cZ$6[ebp]
	mulss	xmm1, DWORD PTR _cX$10[ebp]
	addss	xmm1, xmm0
	movss	DWORD PTR _m$12[ebp+20], xmm1

; 2548 : 			m.e12 = cZ * sX + sZ * sY * cX;

	movss	xmm0, DWORD PTR _sZ$7[ebp]
	mulss	xmm0, DWORD PTR _sY$9[ebp]
	mulss	xmm0, DWORD PTR _cX$10[ebp]
	movss	xmm1, DWORD PTR _cZ$6[ebp]
	mulss	xmm1, DWORD PTR _sX$11[ebp]
	addss	xmm1, xmm0
	movss	DWORD PTR _m$12[ebp+24], xmm1

; 2549 : 			m.e13 = 0.0f;

	movss	xmm0, DWORD PTR __real@00000000
	movss	DWORD PTR _m$12[ebp+28], xmm0

; 2550 : 
; 2551 : 			m.e20 = sY;

	movss	xmm0, DWORD PTR _sY$9[ebp]
	movss	DWORD PTR _m$12[ebp+32], xmm0

; 2552 : 			m.e21 = -cY * sX;

	movss	xmm0, DWORD PTR _cY$8[ebp]
	xorps	xmm0, DWORD PTR __xmm@80000000800000008000000080000000
	mulss	xmm0, DWORD PTR _sX$11[ebp]
	movss	DWORD PTR _m$12[ebp+36], xmm0

; 2553 : 			m.e22 = cY * cX;

	movss	xmm0, DWORD PTR _cY$8[ebp]
	mulss	xmm0, DWORD PTR _cX$10[ebp]
	movss	DWORD PTR _m$12[ebp+40], xmm0

; 2554 : 			break;

	jmp	$LN8@MatrixRota
$LN6@MatrixRota:

; 2555 : 		}
; 2556 : 		case kYZX:
; 2557 : 		{
; 2558 : 			m.e00 = cY * cZ;

	movss	xmm0, DWORD PTR _cY$8[ebp]
	mulss	xmm0, DWORD PTR _cZ$6[ebp]
	movss	DWORD PTR _m$12[ebp], xmm0

; 2559 : 			m.e01 = cY * sZ * cX + sY * sX;

	movss	xmm0, DWORD PTR _sY$9[ebp]
	mulss	xmm0, DWORD PTR _sX$11[ebp]
	movss	xmm1, DWORD PTR _cY$8[ebp]
	mulss	xmm1, DWORD PTR _sZ$7[ebp]
	mulss	xmm1, DWORD PTR _cX$10[ebp]
	addss	xmm1, xmm0
	movss	DWORD PTR _m$12[ebp+4], xmm1

; 2560 : 			m.e02 = cY * sZ * sX + -sY * cX;

	movss	xmm0, DWORD PTR _sY$9[ebp]
	xorps	xmm0, DWORD PTR __xmm@80000000800000008000000080000000
	mulss	xmm0, DWORD PTR _cX$10[ebp]
	movss	xmm1, DWORD PTR _cY$8[ebp]
	mulss	xmm1, DWORD PTR _sZ$7[ebp]
	mulss	xmm1, DWORD PTR _sX$11[ebp]
	addss	xmm1, xmm0
	movss	DWORD PTR _m$12[ebp+8], xmm1

; 2561 : 			m.e03 = 0.0f;

	movss	xmm0, DWORD PTR __real@00000000
	movss	DWORD PTR _m$12[ebp+12], xmm0

; 2562 : 
; 2563 : 			m.e10 = -sZ;

	movss	xmm0, DWORD PTR _sZ$7[ebp]
	xorps	xmm0, DWORD PTR __xmm@80000000800000008000000080000000
	movss	DWORD PTR _m$12[ebp+16], xmm0

; 2564 : 			m.e11 = cZ * cX;

	movss	xmm0, DWORD PTR _cZ$6[ebp]
	mulss	xmm0, DWORD PTR _cX$10[ebp]
	movss	DWORD PTR _m$12[ebp+20], xmm0

; 2565 : 			m.e12 = cZ * sX;

	movss	xmm0, DWORD PTR _cZ$6[ebp]
	mulss	xmm0, DWORD PTR _sX$11[ebp]
	movss	DWORD PTR _m$12[ebp+24], xmm0

; 2566 : 			m.e13 = 0.0f;

	movss	xmm0, DWORD PTR __real@00000000
	movss	DWORD PTR _m$12[ebp+28], xmm0

; 2567 : 
; 2568 : 			m.e20 = sY * cZ;

	movss	xmm0, DWORD PTR _sY$9[ebp]
	mulss	xmm0, DWORD PTR _cZ$6[ebp]
	movss	DWORD PTR _m$12[ebp+32], xmm0

; 2569 : 			m.e21 = sY * sZ * cX + -cY * sX;

	movss	xmm0, DWORD PTR _cY$8[ebp]
	xorps	xmm0, DWORD PTR __xmm@80000000800000008000000080000000
	mulss	xmm0, DWORD PTR _sX$11[ebp]
	movss	xmm1, DWORD PTR _sY$9[ebp]
	mulss	xmm1, DWORD PTR _sZ$7[ebp]
	mulss	xmm1, DWORD PTR _cX$10[ebp]
	addss	xmm1, xmm0
	movss	DWORD PTR _m$12[ebp+36], xmm1

; 2570 : 			m.e22 = sY * sZ * sX + cY * cX;

	movss	xmm0, DWORD PTR _cY$8[ebp]
	mulss	xmm0, DWORD PTR _cX$10[ebp]
	movss	xmm1, DWORD PTR _sY$9[ebp]
	mulss	xmm1, DWORD PTR _sZ$7[ebp]
	mulss	xmm1, DWORD PTR _sX$11[ebp]
	addss	xmm1, xmm0
	movss	DWORD PTR _m$12[ebp+40], xmm1

; 2571 : 			break;

	jmp	$LN8@MatrixRota
$LN5@MatrixRota:

; 2572 : 		}
; 2573 : 		case kXZY:
; 2574 : 		{
; 2575 : 			m.e00 = cZ * cY;

	movss	xmm0, DWORD PTR _cZ$6[ebp]
	mulss	xmm0, DWORD PTR _cY$8[ebp]
	movss	DWORD PTR _m$12[ebp], xmm0

; 2576 : 			m.e01 = sZ;

	movss	xmm0, DWORD PTR _sZ$7[ebp]
	movss	DWORD PTR _m$12[ebp+4], xmm0

; 2577 : 			m.e02 = -cZ * sY;

	movss	xmm0, DWORD PTR _cZ$6[ebp]
	xorps	xmm0, DWORD PTR __xmm@80000000800000008000000080000000
	mulss	xmm0, DWORD PTR _sY$9[ebp]
	movss	DWORD PTR _m$12[ebp+8], xmm0

; 2578 : 			m.e03 = 0.0f;

	movss	xmm0, DWORD PTR __real@00000000
	movss	DWORD PTR _m$12[ebp+12], xmm0

; 2579 : 
; 2580 : 			m.e10 = -cX * sZ * cY + sX * sY;

	movss	xmm0, DWORD PTR _sX$11[ebp]
	mulss	xmm0, DWORD PTR _sY$9[ebp]
	movss	xmm1, DWORD PTR _cX$10[ebp]
	xorps	xmm1, DWORD PTR __xmm@80000000800000008000000080000000
	mulss	xmm1, DWORD PTR _sZ$7[ebp]
	mulss	xmm1, DWORD PTR _cY$8[ebp]
	addss	xmm1, xmm0
	movss	DWORD PTR _m$12[ebp+16], xmm1

; 2581 : 			m.e11 = cX * cZ;

	movss	xmm0, DWORD PTR _cX$10[ebp]
	mulss	xmm0, DWORD PTR _cZ$6[ebp]
	movss	DWORD PTR _m$12[ebp+20], xmm0

; 2582 : 			m.e12 = cX * sZ * sY + sX * cY;

	movss	xmm0, DWORD PTR _sX$11[ebp]
	mulss	xmm0, DWORD PTR _cY$8[ebp]
	movss	xmm1, DWORD PTR _cX$10[ebp]
	mulss	xmm1, DWORD PTR _sZ$7[ebp]
	mulss	xmm1, DWORD PTR _sY$9[ebp]
	addss	xmm1, xmm0
	movss	DWORD PTR _m$12[ebp+24], xmm1

; 2583 : 			m.e13 = 0.0f;

	movss	xmm0, DWORD PTR __real@00000000
	movss	DWORD PTR _m$12[ebp+28], xmm0

; 2584 : 
; 2585 : 			m.e20 = sX * sZ * cY + cX * sY;

	movss	xmm0, DWORD PTR _cX$10[ebp]
	mulss	xmm0, DWORD PTR _sY$9[ebp]
	movss	xmm1, DWORD PTR _sX$11[ebp]
	mulss	xmm1, DWORD PTR _sZ$7[ebp]
	mulss	xmm1, DWORD PTR _cY$8[ebp]
	addss	xmm1, xmm0
	movss	DWORD PTR _m$12[ebp+32], xmm1

; 2586 : 			m.e21 = -sX * cZ;

	movss	xmm0, DWORD PTR _sX$11[ebp]
	xorps	xmm0, DWORD PTR __xmm@80000000800000008000000080000000
	mulss	xmm0, DWORD PTR _cZ$6[ebp]
	movss	DWORD PTR _m$12[ebp+36], xmm0

; 2587 : 			m.e22 = -sX * sZ * sY + cX * cY;

	movss	xmm0, DWORD PTR _cX$10[ebp]
	mulss	xmm0, DWORD PTR _cY$8[ebp]
	movss	xmm1, DWORD PTR _sX$11[ebp]
	xorps	xmm1, DWORD PTR __xmm@80000000800000008000000080000000
	mulss	xmm1, DWORD PTR _sZ$7[ebp]
	mulss	xmm1, DWORD PTR _sY$9[ebp]
	addss	xmm1, xmm0
	movss	DWORD PTR _m$12[ebp+40], xmm1

; 2588 : 			break;

	jmp	$LN8@MatrixRota
$LN4@MatrixRota:

; 2589 : 		}
; 2590 : 		case kZXY:
; 2591 : 		{
; 2592 : 			m.e00 = cZ * cY + sZ * sX * sY;

	movss	xmm0, DWORD PTR _sZ$7[ebp]
	mulss	xmm0, DWORD PTR _sX$11[ebp]
	mulss	xmm0, DWORD PTR _sY$9[ebp]
	movss	xmm1, DWORD PTR _cZ$6[ebp]
	mulss	xmm1, DWORD PTR _cY$8[ebp]
	addss	xmm1, xmm0
	movss	DWORD PTR _m$12[ebp], xmm1

; 2593 : 			m.e01 = sZ * cX;

	movss	xmm0, DWORD PTR _sZ$7[ebp]
	mulss	xmm0, DWORD PTR _cX$10[ebp]
	movss	DWORD PTR _m$12[ebp+4], xmm0

; 2594 : 			m.e02 = -cZ * sY + sZ * sX * cY;

	movss	xmm0, DWORD PTR _sZ$7[ebp]
	mulss	xmm0, DWORD PTR _sX$11[ebp]
	mulss	xmm0, DWORD PTR _cY$8[ebp]
	movss	xmm1, DWORD PTR _cZ$6[ebp]
	xorps	xmm1, DWORD PTR __xmm@80000000800000008000000080000000
	mulss	xmm1, DWORD PTR _sY$9[ebp]
	addss	xmm1, xmm0
	movss	DWORD PTR _m$12[ebp+8], xmm1

; 2595 : 			m.e03 = 0.0f;

	movss	xmm0, DWORD PTR __real@00000000
	movss	DWORD PTR _m$12[ebp+12], xmm0

; 2596 : 
; 2597 : 			m.e10 = -sZ * cY + cZ * sX * sY;

	movss	xmm0, DWORD PTR _cZ$6[ebp]
	mulss	xmm0, DWORD PTR _sX$11[ebp]
	mulss	xmm0, DWORD PTR _sY$9[ebp]
	movss	xmm1, DWORD PTR _sZ$7[ebp]
	xorps	xmm1, DWORD PTR __xmm@80000000800000008000000080000000
	mulss	xmm1, DWORD PTR _cY$8[ebp]
	addss	xmm1, xmm0
	movss	DWORD PTR _m$12[ebp+16], xmm1

; 2598 : 			m.e11 = cZ * cX;

	movss	xmm0, DWORD PTR _cZ$6[ebp]
	mulss	xmm0, DWORD PTR _cX$10[ebp]
	movss	DWORD PTR _m$12[ebp+20], xmm0

; 2599 : 			m.e12 = sZ * sY + cZ * sX * cY;

	movss	xmm0, DWORD PTR _cZ$6[ebp]
	mulss	xmm0, DWORD PTR _sX$11[ebp]
	mulss	xmm0, DWORD PTR _cY$8[ebp]
	movss	xmm1, DWORD PTR _sZ$7[ebp]
	mulss	xmm1, DWORD PTR _sY$9[ebp]
	addss	xmm1, xmm0
	movss	DWORD PTR _m$12[ebp+24], xmm1

; 2600 : 			m.e13 = 0.0f;

	movss	xmm0, DWORD PTR __real@00000000
	movss	DWORD PTR _m$12[ebp+28], xmm0

; 2601 : 
; 2602 : 			m.e20 = cX * sY;

	movss	xmm0, DWORD PTR _cX$10[ebp]
	mulss	xmm0, DWORD PTR _sY$9[ebp]
	movss	DWORD PTR _m$12[ebp+32], xmm0

; 2603 : 			m.e21 = -sX;

	movss	xmm0, DWORD PTR _sX$11[ebp]
	xorps	xmm0, DWORD PTR __xmm@80000000800000008000000080000000
	movss	DWORD PTR _m$12[ebp+36], xmm0

; 2604 : 			m.e22 = cX * cY;

	movss	xmm0, DWORD PTR _cX$10[ebp]
	mulss	xmm0, DWORD PTR _cY$8[ebp]
	movss	DWORD PTR _m$12[ebp+40], xmm0

; 2605 : 			break;

	jmp	$LN8@MatrixRota
$LN3@MatrixRota:

; 2606 : 		}
; 2607 : 		case kYXZ:
; 2608 : 		{
; 2609 : 			m.e00 = cY * cZ + -sY * sX * sZ;

	movss	xmm0, DWORD PTR _sY$9[ebp]
	xorps	xmm0, DWORD PTR __xmm@80000000800000008000000080000000
	mulss	xmm0, DWORD PTR _sX$11[ebp]
	mulss	xmm0, DWORD PTR _sZ$7[ebp]
	movss	xmm1, DWORD PTR _cY$8[ebp]
	mulss	xmm1, DWORD PTR _cZ$6[ebp]
	addss	xmm1, xmm0
	movss	DWORD PTR _m$12[ebp], xmm1

; 2610 : 			m.e01 = cY * sZ + sY * sX * cZ;

	movss	xmm0, DWORD PTR _sY$9[ebp]
	mulss	xmm0, DWORD PTR _sX$11[ebp]
	mulss	xmm0, DWORD PTR _cZ$6[ebp]
	movss	xmm1, DWORD PTR _cY$8[ebp]
	mulss	xmm1, DWORD PTR _sZ$7[ebp]
	addss	xmm1, xmm0
	movss	DWORD PTR _m$12[ebp+4], xmm1

; 2611 : 			m.e02 = -sY * cX;

	movss	xmm0, DWORD PTR _sY$9[ebp]
	xorps	xmm0, DWORD PTR __xmm@80000000800000008000000080000000
	mulss	xmm0, DWORD PTR _cX$10[ebp]
	movss	DWORD PTR _m$12[ebp+8], xmm0

; 2612 : 			m.e03 = 0.0f;

	movss	xmm0, DWORD PTR __real@00000000
	movss	DWORD PTR _m$12[ebp+12], xmm0

; 2613 : 
; 2614 : 			m.e10 = -cX * sZ;

	movss	xmm0, DWORD PTR _cX$10[ebp]
	xorps	xmm0, DWORD PTR __xmm@80000000800000008000000080000000
	mulss	xmm0, DWORD PTR _sZ$7[ebp]
	movss	DWORD PTR _m$12[ebp+16], xmm0

; 2615 : 			m.e11 = cX * cZ;

	movss	xmm0, DWORD PTR _cX$10[ebp]
	mulss	xmm0, DWORD PTR _cZ$6[ebp]
	movss	DWORD PTR _m$12[ebp+20], xmm0

; 2616 : 			m.e12 = sX;

	movss	xmm0, DWORD PTR _sX$11[ebp]
	movss	DWORD PTR _m$12[ebp+24], xmm0

; 2617 : 			m.e13 = 0.0f;

	movss	xmm0, DWORD PTR __real@00000000
	movss	DWORD PTR _m$12[ebp+28], xmm0

; 2618 : 
; 2619 : 			m.e20 = sY * cZ + cY * sX * sZ;

	movss	xmm0, DWORD PTR _cY$8[ebp]
	mulss	xmm0, DWORD PTR _sX$11[ebp]
	mulss	xmm0, DWORD PTR _sZ$7[ebp]
	movss	xmm1, DWORD PTR _sY$9[ebp]
	mulss	xmm1, DWORD PTR _cZ$6[ebp]
	addss	xmm1, xmm0
	movss	DWORD PTR _m$12[ebp+32], xmm1

; 2620 : 			m.e21 = sY * sZ + -cY * sX * cZ;

	movss	xmm0, DWORD PTR _cY$8[ebp]
	xorps	xmm0, DWORD PTR __xmm@80000000800000008000000080000000
	mulss	xmm0, DWORD PTR _sX$11[ebp]
	mulss	xmm0, DWORD PTR _cZ$6[ebp]
	movss	xmm1, DWORD PTR _sY$9[ebp]
	mulss	xmm1, DWORD PTR _sZ$7[ebp]
	addss	xmm1, xmm0
	movss	DWORD PTR _m$12[ebp+36], xmm1

; 2621 : 			m.e22 = cY * cX;

	movss	xmm0, DWORD PTR _cY$8[ebp]
	mulss	xmm0, DWORD PTR _cX$10[ebp]
	movss	DWORD PTR _m$12[ebp+40], xmm0

; 2622 : 			break;

	jmp	$LN8@MatrixRota
$LN2@MatrixRota:

; 2623 : 		}
; 2624 : 		case kXYZ:
; 2625 : 		{
; 2626 : 			m.e00 = cY * cZ;

	movss	xmm0, DWORD PTR _cY$8[ebp]
	mulss	xmm0, DWORD PTR _cZ$6[ebp]
	movss	DWORD PTR _m$12[ebp], xmm0

; 2627 : 			m.e01 = cY * sZ;

	movss	xmm0, DWORD PTR _cY$8[ebp]
	mulss	xmm0, DWORD PTR _sZ$7[ebp]
	movss	DWORD PTR _m$12[ebp+4], xmm0

; 2628 : 			m.e02 = -sY;

	movss	xmm0, DWORD PTR _sY$9[ebp]
	xorps	xmm0, DWORD PTR __xmm@80000000800000008000000080000000
	movss	DWORD PTR _m$12[ebp+8], xmm0

; 2629 : 			m.e03 = 0.0f;

	movss	xmm0, DWORD PTR __real@00000000
	movss	DWORD PTR _m$12[ebp+12], xmm0

; 2630 : 
; 2631 : 			m.e10 = sX * sY * cZ + -cX * sZ;

	movss	xmm0, DWORD PTR _cX$10[ebp]
	xorps	xmm0, DWORD PTR __xmm@80000000800000008000000080000000
	mulss	xmm0, DWORD PTR _sZ$7[ebp]
	movss	xmm1, DWORD PTR _sX$11[ebp]
	mulss	xmm1, DWORD PTR _sY$9[ebp]
	mulss	xmm1, DWORD PTR _cZ$6[ebp]
	addss	xmm1, xmm0
	movss	DWORD PTR _m$12[ebp+16], xmm1

; 2632 : 			m.e11 = sX * sY * sZ + cX * cZ;

	movss	xmm0, DWORD PTR _cX$10[ebp]
	mulss	xmm0, DWORD PTR _cZ$6[ebp]
	movss	xmm1, DWORD PTR _sX$11[ebp]
	mulss	xmm1, DWORD PTR _sY$9[ebp]
	mulss	xmm1, DWORD PTR _sZ$7[ebp]
	addss	xmm1, xmm0
	movss	DWORD PTR _m$12[ebp+20], xmm1

; 2633 : 			m.e12 = sX * cY;

	movss	xmm0, DWORD PTR _sX$11[ebp]
	mulss	xmm0, DWORD PTR _cY$8[ebp]
	movss	DWORD PTR _m$12[ebp+24], xmm0

; 2634 : 			m.e13 = 0.0f;

	movss	xmm0, DWORD PTR __real@00000000
	movss	DWORD PTR _m$12[ebp+28], xmm0

; 2635 : 
; 2636 : 			m.e20 = cX * sY * cZ + sX * sZ;

	movss	xmm0, DWORD PTR _sX$11[ebp]
	mulss	xmm0, DWORD PTR _sZ$7[ebp]
	movss	xmm1, DWORD PTR _cX$10[ebp]
	mulss	xmm1, DWORD PTR _sY$9[ebp]
	mulss	xmm1, DWORD PTR _cZ$6[ebp]
	addss	xmm1, xmm0
	movss	DWORD PTR _m$12[ebp+32], xmm1

; 2637 : 			m.e21 = cX * sY * sZ + -sX * cZ;

	movss	xmm0, DWORD PTR _sX$11[ebp]
	xorps	xmm0, DWORD PTR __xmm@80000000800000008000000080000000
	mulss	xmm0, DWORD PTR _cZ$6[ebp]
	movss	xmm1, DWORD PTR _cX$10[ebp]
	mulss	xmm1, DWORD PTR _sY$9[ebp]
	mulss	xmm1, DWORD PTR _sZ$7[ebp]
	addss	xmm1, xmm0
	movss	DWORD PTR _m$12[ebp+36], xmm1

; 2638 : 			m.e22 = cX * cY;

	movss	xmm0, DWORD PTR _cX$10[ebp]
	mulss	xmm0, DWORD PTR _cY$8[ebp]
	movss	DWORD PTR _m$12[ebp+40], xmm0

; 2639 : 			break;

	jmp	SHORT $LN8@MatrixRota
$LN1@MatrixRota:

; 2640 : 		}
; 2641 : 
; 2642 : 		default:
; 2643 : 			GEN_ERROR( "Invalid parameter" );

	mov	eax, DWORD PTR ?__LINE__Var@?1??MatrixRotation@gen@@YA?AVCMatrix4x4@2@VCVector3@2@W4ERotationOrder@2@@Z@4JA
	add	eax, 116				; 00000074H
	push	eax
	push	OFFSET ??_C@_0EI@POGHFJCD@c?3?2users?2simon?2documents?2github?2@
	push	OFFSET ??_C@_0BC@DBAKKFEN@Invalid?5parameter?$AA@
	lea	ecx, DWORD PTR $T2[ebp]
	call	??0CFatalException@gen@@QAE@PBD0H@Z	; gen::CFatalException::CFatalException
	push	OFFSET __TI1?AVCFatalException@gen@@
	lea	ecx, DWORD PTR $T2[ebp]
	push	ecx
	call	__CxxThrowException@8
$LN8@MatrixRota:

; 2644 : 	}
; 2645 : 	m.e23 = 0.0f;

	movss	xmm0, DWORD PTR __real@00000000
	movss	DWORD PTR _m$12[ebp+44], xmm0

; 2646 : 
; 2647 : 	m.e30 = 0.0f;

	movss	xmm0, DWORD PTR __real@00000000
	movss	DWORD PTR _m$12[ebp+48], xmm0

; 2648 : 	m.e31 = 0.0f;

	movss	xmm0, DWORD PTR __real@00000000
	movss	DWORD PTR _m$12[ebp+52], xmm0

; 2649 : 	m.e32 = 0.0f;

	movss	xmm0, DWORD PTR __real@00000000
	movss	DWORD PTR _m$12[ebp+56], xmm0

; 2650 : 	m.e33 = 1.0f;

	movss	xmm0, DWORD PTR __real@3f800000
	movss	DWORD PTR _m$12[ebp+60], xmm0

; 2651 : 
; 2652 : 	return m;

	lea	eax, DWORD PTR _m$12[ebp]
	push	eax
	mov	ecx, DWORD PTR ___$ReturnUdt$[ebp]
	call	??0CMatrix4x4@gen@@QAE@ABV01@@Z		; gen::CMatrix4x4::CMatrix4x4
	mov	eax, DWORD PTR ___$ReturnUdt$[ebp]
	jmp	$LN16@MatrixRota
__catch$?MatrixRotation@gen@@YA?AVCMatrix4x4@1@VCVector3@1@W4ERotationOrder@1@@Z$0:

; 2653 : 
; 2654 : 	GEN_ENDGUARD;

	push	0
	call	?ObjectName@gen@@YAPBDXZ		; gen::ObjectName
	push	eax
	push	OFFSET ??_C@_0BE@LMIKLAKG@gen?3?3MatrixRotation?$AA@
	mov	ecx, DWORD PTR _e$5[ebp]
	call	?AppendToCallStack@CFatalException@gen@@QAEXPBD0_N@Z ; gen::CFatalException::AppendToCallStack
	mov	eax, DWORD PTR _e$5[ebp]
	push	eax
	lea	ecx, DWORD PTR $T3[ebp]
	call	??0CFatalException@gen@@QAE@ABV01@@Z
	push	OFFSET __TI1?AVCFatalException@gen@@
	lea	ecx, DWORD PTR $T3[ebp]
	push	ecx
	call	__CxxThrowException@8
	mov	eax, $LN17@MatrixRota
	ret	0
__catch$?MatrixRotation@gen@@YA?AVCMatrix4x4@1@VCVector3@1@W4ERotationOrder@1@@Z$1:
	call	?ObjectName@gen@@YAPBDXZ		; gen::ObjectName
	push	eax
	push	OFFSET ??_C@_0BE@LMIKLAKG@gen?3?3MatrixRotation?$AA@
	push	OFFSET ??_C@_0EI@POGHFJCD@c?3?2users?2simon?2documents?2github?2@
	lea	ecx, DWORD PTR $T4[ebp]
	call	??0CFatalException@gen@@QAE@PBD00@Z	; gen::CFatalException::CFatalException
	push	OFFSET __TI1?AVCFatalException@gen@@
	lea	eax, DWORD PTR $T4[ebp]
	push	eax
	call	__CxxThrowException@8
	mov	eax, $LN19@MatrixRota
	ret	0
	mov	DWORD PTR __$EHRec$[ebp+12], -1
	jmp	SHORT $LN18@MatrixRota
$LN19@MatrixRota:
	mov	DWORD PTR __$EHRec$[ebp+12], -1
	jmp	SHORT $LN16@MatrixRota
$LN18@MatrixRota:
	jmp	SHORT $LN16@MatrixRota
$LN17@MatrixRota:
	mov	DWORD PTR __$EHRec$[ebp+12], -1
$LN16@MatrixRota:

; 2655 : }

	push	edx
	mov	ecx, ebp
	push	eax
	lea	edx, DWORD PTR $LN30@MatrixRota
	call	@_RTC_CheckStackVars@8
	pop	eax
	pop	edx
	mov	ecx, DWORD PTR __$EHRec$[ebp+4]
	mov	DWORD PTR fs:0, ecx
	pop	ecx
	pop	edi
	pop	esi
	pop	ebx
	mov	ecx, DWORD PTR __$ArrayPad$[ebp]
	xor	ecx, ebp
	call	@__security_check_cookie@4
	add	esp, 660				; 00000294H
	cmp	ebp, esp
	call	__RTC_CheckEsp
	mov	esp, ebp
	pop	ebp
	ret	0
$LN30@MatrixRota:
	DD	8
	DD	$LN29@MatrixRota
$LN29@MatrixRota:
	DD	-88					; ffffffa8H
	DD	64					; 00000040H
	DD	$LN20@MatrixRota
	DD	-100					; ffffff9cH
	DD	4
	DD	$LN21@MatrixRota
	DD	-112					; ffffff90H
	DD	4
	DD	$LN22@MatrixRota
	DD	-124					; ffffff84H
	DD	4
	DD	$LN23@MatrixRota
	DD	-136					; ffffff78H
	DD	4
	DD	$LN24@MatrixRota
	DD	-148					; ffffff6cH
	DD	4
	DD	$LN25@MatrixRota
	DD	-160					; ffffff60H
	DD	4
	DD	$LN26@MatrixRota
	DD	-172					; ffffff54H
	DD	4
	DD	$LN27@MatrixRota
$LN27@MatrixRota:
	DB	101					; 00000065H
	DB	0
$LN26@MatrixRota:
	DB	99					; 00000063H
	DB	90					; 0000005aH
	DB	0
$LN25@MatrixRota:
	DB	115					; 00000073H
	DB	90					; 0000005aH
	DB	0
$LN24@MatrixRota:
	DB	99					; 00000063H
	DB	89					; 00000059H
	DB	0
$LN23@MatrixRota:
	DB	115					; 00000073H
	DB	89					; 00000059H
	DB	0
$LN22@MatrixRota:
	DB	99					; 00000063H
	DB	88					; 00000058H
	DB	0
$LN21@MatrixRota:
	DB	115					; 00000073H
	DB	88					; 00000058H
	DB	0
$LN20@MatrixRota:
	DB	109					; 0000006dH
	DB	0
	npad	2
$LN31@MatrixRota:
	DD	$LN2@MatrixRota
	DD	$LN5@MatrixRota
	DD	$LN6@MatrixRota
	DD	$LN3@MatrixRota
	DD	$LN4@MatrixRota
	DD	$LN7@MatrixRota
_TEXT	ENDS
;	COMDAT text$x
text$x	SEGMENT
__ehhandler$?MatrixRotation@gen@@YA?AVCMatrix4x4@1@VCVector3@1@W4ERotationOrder@1@@Z:
	mov	edx, DWORD PTR [esp+8]
	lea	eax, DWORD PTR [edx+12]
	mov	ecx, DWORD PTR [edx-664]
	xor	ecx, eax
	call	@__security_check_cookie@4
	mov	ecx, DWORD PTR [edx-8]
	xor	ecx, eax
	call	@__security_check_cookie@4
	mov	eax, OFFSET __ehfuncinfo$?MatrixRotation@gen@@YA?AVCMatrix4x4@1@VCVector3@1@W4ERotationOrder@1@@Z
	jmp	___CxxFrameHandler3
text$x	ENDS
?MatrixRotation@gen@@YA?AVCMatrix4x4@1@VCVector3@1@W4ERotationOrder@1@@Z ENDP ; gen::MatrixRotation
; Function compile flags: /Odtp /RTCsu /ZI
; File c:\users\simon\documents\github\uclan-sparta\import\math\cmatrix4x4.cpp
;	COMDAT ?MatrixRotationZ@gen@@YA?AVCMatrix4x4@1@M@Z
_TEXT	SEGMENT
_cZ$ = -92						; size = 4
_sZ$ = -80						; size = 4
_m$ = -68						; size = 64
___$ReturnUdt$ = 8					; size = 4
_z$ = 12						; size = 4
?MatrixRotationZ@gen@@YA?AVCMatrix4x4@1@M@Z PROC	; gen::MatrixRotationZ, COMDAT

; 2491 : {

	push	ebp
	mov	ebp, esp
	sub	esp, 288				; 00000120H
	push	ebx
	push	esi
	push	edi
	lea	edi, DWORD PTR [ebp-288]
	mov	ecx, 72					; 00000048H
	mov	eax, -858993460				; ccccccccH
	rep stosd

; 2492 : 	CMatrix4x4 m;

	lea	ecx, DWORD PTR _m$[ebp]
	call	??0CMatrix4x4@gen@@QAE@XZ		; gen::CMatrix4x4::CMatrix4x4

; 2493 : 
; 2494 : 	TFloat32 sZ, cZ;
; 2495 : 	SinCos( z, &sZ, &cZ );

	lea	eax, DWORD PTR _cZ$[ebp]
	push	eax
	lea	ecx, DWORD PTR _sZ$[ebp]
	push	ecx
	push	ecx
	movss	xmm0, DWORD PTR _z$[ebp]
	movss	DWORD PTR [esp], xmm0
	call	?SinCos@gen@@YAXMPAM0@Z			; gen::SinCos
	add	esp, 12					; 0000000cH

; 2496 : 
; 2497 : 	m.e00 = cZ;

	movss	xmm0, DWORD PTR _cZ$[ebp]
	movss	DWORD PTR _m$[ebp], xmm0

; 2498 : 	m.e01 = sZ;

	movss	xmm0, DWORD PTR _sZ$[ebp]
	movss	DWORD PTR _m$[ebp+4], xmm0

; 2499 : 	m.e02 = 0.0f;

	movss	xmm0, DWORD PTR __real@00000000
	movss	DWORD PTR _m$[ebp+8], xmm0

; 2500 : 	m.e03 = 0.0f;

	movss	xmm0, DWORD PTR __real@00000000
	movss	DWORD PTR _m$[ebp+12], xmm0

; 2501 : 
; 2502 : 	m.e10 = -sZ;

	movss	xmm0, DWORD PTR _sZ$[ebp]
	xorps	xmm0, DWORD PTR __xmm@80000000800000008000000080000000
	movss	DWORD PTR _m$[ebp+16], xmm0

; 2503 : 	m.e11 = cZ;

	movss	xmm0, DWORD PTR _cZ$[ebp]
	movss	DWORD PTR _m$[ebp+20], xmm0

; 2504 : 	m.e12 = 0.0f;

	movss	xmm0, DWORD PTR __real@00000000
	movss	DWORD PTR _m$[ebp+24], xmm0

; 2505 : 	m.e13 = 0.0f;

	movss	xmm0, DWORD PTR __real@00000000
	movss	DWORD PTR _m$[ebp+28], xmm0

; 2506 : 
; 2507 : 	m.e20 = 0.0f;

	movss	xmm0, DWORD PTR __real@00000000
	movss	DWORD PTR _m$[ebp+32], xmm0

; 2508 : 	m.e21 = 0.0f;

	movss	xmm0, DWORD PTR __real@00000000
	movss	DWORD PTR _m$[ebp+36], xmm0

; 2509 : 	m.e22 = 1.0f;

	movss	xmm0, DWORD PTR __real@3f800000
	movss	DWORD PTR _m$[ebp+40], xmm0

; 2510 : 	m.e23 = 0.0f;

	movss	xmm0, DWORD PTR __real@00000000
	movss	DWORD PTR _m$[ebp+44], xmm0

; 2511 : 
; 2512 : 	m.e30 = 0.0f;

	movss	xmm0, DWORD PTR __real@00000000
	movss	DWORD PTR _m$[ebp+48], xmm0

; 2513 : 	m.e31 = 0.0f;

	movss	xmm0, DWORD PTR __real@00000000
	movss	DWORD PTR _m$[ebp+52], xmm0

; 2514 : 	m.e32 = 0.0f;

	movss	xmm0, DWORD PTR __real@00000000
	movss	DWORD PTR _m$[ebp+56], xmm0

; 2515 : 	m.e33 = 1.0f;

	movss	xmm0, DWORD PTR __real@3f800000
	movss	DWORD PTR _m$[ebp+60], xmm0

; 2516 : 
; 2517 : 	return m;

	lea	eax, DWORD PTR _m$[ebp]
	push	eax
	mov	ecx, DWORD PTR ___$ReturnUdt$[ebp]
	call	??0CMatrix4x4@gen@@QAE@ABV01@@Z		; gen::CMatrix4x4::CMatrix4x4
	mov	eax, DWORD PTR ___$ReturnUdt$[ebp]

; 2518 : }

	push	edx
	mov	ecx, ebp
	push	eax
	lea	edx, DWORD PTR $LN7@MatrixRota
	call	@_RTC_CheckStackVars@8
	pop	eax
	pop	edx
	pop	edi
	pop	esi
	pop	ebx
	add	esp, 288				; 00000120H
	cmp	ebp, esp
	call	__RTC_CheckEsp
	mov	esp, ebp
	pop	ebp
	ret	0
$LN7@MatrixRota:
	DD	3
	DD	$LN6@MatrixRota
$LN6@MatrixRota:
	DD	-68					; ffffffbcH
	DD	64					; 00000040H
	DD	$LN3@MatrixRota
	DD	-80					; ffffffb0H
	DD	4
	DD	$LN4@MatrixRota
	DD	-92					; ffffffa4H
	DD	4
	DD	$LN5@MatrixRota
$LN5@MatrixRota:
	DB	99					; 00000063H
	DB	90					; 0000005aH
	DB	0
$LN4@MatrixRota:
	DB	115					; 00000073H
	DB	90					; 0000005aH
	DB	0
$LN3@MatrixRota:
	DB	109					; 0000006dH
	DB	0
?MatrixRotationZ@gen@@YA?AVCMatrix4x4@1@M@Z ENDP	; gen::MatrixRotationZ
_TEXT	ENDS
; Function compile flags: /Odtp /RTCsu /ZI
; File c:\users\simon\documents\github\uclan-sparta\import\math\cmatrix4x4.cpp
;	COMDAT ?MatrixRotationY@gen@@YA?AVCMatrix4x4@1@M@Z
_TEXT	SEGMENT
_cY$ = -92						; size = 4
_sY$ = -80						; size = 4
_m$ = -68						; size = 64
___$ReturnUdt$ = 8					; size = 4
_y$ = 12						; size = 4
?MatrixRotationY@gen@@YA?AVCMatrix4x4@1@M@Z PROC	; gen::MatrixRotationY, COMDAT

; 2460 : {

	push	ebp
	mov	ebp, esp
	sub	esp, 288				; 00000120H
	push	ebx
	push	esi
	push	edi
	lea	edi, DWORD PTR [ebp-288]
	mov	ecx, 72					; 00000048H
	mov	eax, -858993460				; ccccccccH
	rep stosd

; 2461 : 	CMatrix4x4 m;

	lea	ecx, DWORD PTR _m$[ebp]
	call	??0CMatrix4x4@gen@@QAE@XZ		; gen::CMatrix4x4::CMatrix4x4

; 2462 : 
; 2463 : 	TFloat32 sY, cY;
; 2464 : 	SinCos( y, &sY, &cY );

	lea	eax, DWORD PTR _cY$[ebp]
	push	eax
	lea	ecx, DWORD PTR _sY$[ebp]
	push	ecx
	push	ecx
	movss	xmm0, DWORD PTR _y$[ebp]
	movss	DWORD PTR [esp], xmm0
	call	?SinCos@gen@@YAXMPAM0@Z			; gen::SinCos
	add	esp, 12					; 0000000cH

; 2465 : 
; 2466 : 	m.e00 = cY;

	movss	xmm0, DWORD PTR _cY$[ebp]
	movss	DWORD PTR _m$[ebp], xmm0

; 2467 : 	m.e01 = 0.0f;

	movss	xmm0, DWORD PTR __real@00000000
	movss	DWORD PTR _m$[ebp+4], xmm0

; 2468 : 	m.e02 = -sY;

	movss	xmm0, DWORD PTR _sY$[ebp]
	xorps	xmm0, DWORD PTR __xmm@80000000800000008000000080000000
	movss	DWORD PTR _m$[ebp+8], xmm0

; 2469 : 	m.e03 = 0.0f;

	movss	xmm0, DWORD PTR __real@00000000
	movss	DWORD PTR _m$[ebp+12], xmm0

; 2470 : 
; 2471 : 	m.e10 = 0.0f;

	movss	xmm0, DWORD PTR __real@00000000
	movss	DWORD PTR _m$[ebp+16], xmm0

; 2472 : 	m.e11 = 1.0f;

	movss	xmm0, DWORD PTR __real@3f800000
	movss	DWORD PTR _m$[ebp+20], xmm0

; 2473 : 	m.e12 = 0.0f;

	movss	xmm0, DWORD PTR __real@00000000
	movss	DWORD PTR _m$[ebp+24], xmm0

; 2474 : 	m.e13 = 0.0f;

	movss	xmm0, DWORD PTR __real@00000000
	movss	DWORD PTR _m$[ebp+28], xmm0

; 2475 : 
; 2476 : 	m.e20 = sY;

	movss	xmm0, DWORD PTR _sY$[ebp]
	movss	DWORD PTR _m$[ebp+32], xmm0

; 2477 : 	m.e21 = 0.0f;

	movss	xmm0, DWORD PTR __real@00000000
	movss	DWORD PTR _m$[ebp+36], xmm0

; 2478 : 	m.e22 = cY;

	movss	xmm0, DWORD PTR _cY$[ebp]
	movss	DWORD PTR _m$[ebp+40], xmm0

; 2479 : 	m.e23 = 0.0f;

	movss	xmm0, DWORD PTR __real@00000000
	movss	DWORD PTR _m$[ebp+44], xmm0

; 2480 : 
; 2481 : 	m.e30 = 0.0f;

	movss	xmm0, DWORD PTR __real@00000000
	movss	DWORD PTR _m$[ebp+48], xmm0

; 2482 : 	m.e31 = 0.0f;

	movss	xmm0, DWORD PTR __real@00000000
	movss	DWORD PTR _m$[ebp+52], xmm0

; 2483 : 	m.e32 = 0.0f;

	movss	xmm0, DWORD PTR __real@00000000
	movss	DWORD PTR _m$[ebp+56], xmm0

; 2484 : 	m.e33 = 1.0f;    

	movss	xmm0, DWORD PTR __real@3f800000
	movss	DWORD PTR _m$[ebp+60], xmm0

; 2485 : 
; 2486 : 	return m;

	lea	eax, DWORD PTR _m$[ebp]
	push	eax
	mov	ecx, DWORD PTR ___$ReturnUdt$[ebp]
	call	??0CMatrix4x4@gen@@QAE@ABV01@@Z		; gen::CMatrix4x4::CMatrix4x4
	mov	eax, DWORD PTR ___$ReturnUdt$[ebp]

; 2487 : }

	push	edx
	mov	ecx, ebp
	push	eax
	lea	edx, DWORD PTR $LN7@MatrixRota
	call	@_RTC_CheckStackVars@8
	pop	eax
	pop	edx
	pop	edi
	pop	esi
	pop	ebx
	add	esp, 288				; 00000120H
	cmp	ebp, esp
	call	__RTC_CheckEsp
	mov	esp, ebp
	pop	ebp
	ret	0
$LN7@MatrixRota:
	DD	3
	DD	$LN6@MatrixRota
$LN6@MatrixRota:
	DD	-68					; ffffffbcH
	DD	64					; 00000040H
	DD	$LN3@MatrixRota
	DD	-80					; ffffffb0H
	DD	4
	DD	$LN4@MatrixRota
	DD	-92					; ffffffa4H
	DD	4
	DD	$LN5@MatrixRota
$LN5@MatrixRota:
	DB	99					; 00000063H
	DB	89					; 00000059H
	DB	0
$LN4@MatrixRota:
	DB	115					; 00000073H
	DB	89					; 00000059H
	DB	0
$LN3@MatrixRota:
	DB	109					; 0000006dH
	DB	0
?MatrixRotationY@gen@@YA?AVCMatrix4x4@1@M@Z ENDP	; gen::MatrixRotationY
_TEXT	ENDS
; Function compile flags: /Odtp /RTCsu /ZI
; File c:\users\simon\documents\github\uclan-sparta\import\math\cmatrix4x4.cpp
;	COMDAT ?MatrixRotationX@gen@@YA?AVCMatrix4x4@1@M@Z
_TEXT	SEGMENT
_cX$ = -92						; size = 4
_sX$ = -80						; size = 4
_m$ = -68						; size = 64
___$ReturnUdt$ = 8					; size = 4
_x$ = 12						; size = 4
?MatrixRotationX@gen@@YA?AVCMatrix4x4@1@M@Z PROC	; gen::MatrixRotationX, COMDAT

; 2429 : {

	push	ebp
	mov	ebp, esp
	sub	esp, 288				; 00000120H
	push	ebx
	push	esi
	push	edi
	lea	edi, DWORD PTR [ebp-288]
	mov	ecx, 72					; 00000048H
	mov	eax, -858993460				; ccccccccH
	rep stosd

; 2430 : 	CMatrix4x4 m;

	lea	ecx, DWORD PTR _m$[ebp]
	call	??0CMatrix4x4@gen@@QAE@XZ		; gen::CMatrix4x4::CMatrix4x4

; 2431 : 
; 2432 : 	TFloat32 sX, cX;
; 2433 : 	SinCos( x, &sX, &cX );

	lea	eax, DWORD PTR _cX$[ebp]
	push	eax
	lea	ecx, DWORD PTR _sX$[ebp]
	push	ecx
	push	ecx
	movss	xmm0, DWORD PTR _x$[ebp]
	movss	DWORD PTR [esp], xmm0
	call	?SinCos@gen@@YAXMPAM0@Z			; gen::SinCos
	add	esp, 12					; 0000000cH

; 2434 : 
; 2435 : 	m.e00 = 1.0f;

	movss	xmm0, DWORD PTR __real@3f800000
	movss	DWORD PTR _m$[ebp], xmm0

; 2436 : 	m.e01 = 0.0f;

	movss	xmm0, DWORD PTR __real@00000000
	movss	DWORD PTR _m$[ebp+4], xmm0

; 2437 : 	m.e02 = 0.0f;

	movss	xmm0, DWORD PTR __real@00000000
	movss	DWORD PTR _m$[ebp+8], xmm0

; 2438 : 	m.e03 = 0.0f;

	movss	xmm0, DWORD PTR __real@00000000
	movss	DWORD PTR _m$[ebp+12], xmm0

; 2439 : 
; 2440 : 	m.e10 = 0.0f;

	movss	xmm0, DWORD PTR __real@00000000
	movss	DWORD PTR _m$[ebp+16], xmm0

; 2441 : 	m.e11 = cX;

	movss	xmm0, DWORD PTR _cX$[ebp]
	movss	DWORD PTR _m$[ebp+20], xmm0

; 2442 : 	m.e12 = sX;

	movss	xmm0, DWORD PTR _sX$[ebp]
	movss	DWORD PTR _m$[ebp+24], xmm0

; 2443 : 	m.e13 = 0.0f;

	movss	xmm0, DWORD PTR __real@00000000
	movss	DWORD PTR _m$[ebp+28], xmm0

; 2444 : 
; 2445 : 	m.e20 = 0.0f;

	movss	xmm0, DWORD PTR __real@00000000
	movss	DWORD PTR _m$[ebp+32], xmm0

; 2446 : 	m.e21 = -sX;

	movss	xmm0, DWORD PTR _sX$[ebp]
	xorps	xmm0, DWORD PTR __xmm@80000000800000008000000080000000
	movss	DWORD PTR _m$[ebp+36], xmm0

; 2447 : 	m.e22 = cX;

	movss	xmm0, DWORD PTR _cX$[ebp]
	movss	DWORD PTR _m$[ebp+40], xmm0

; 2448 : 	m.e23 = 0.0f;

	movss	xmm0, DWORD PTR __real@00000000
	movss	DWORD PTR _m$[ebp+44], xmm0

; 2449 : 
; 2450 : 	m.e30 = 0.0f;

	movss	xmm0, DWORD PTR __real@00000000
	movss	DWORD PTR _m$[ebp+48], xmm0

; 2451 : 	m.e31 = 0.0f;

	movss	xmm0, DWORD PTR __real@00000000
	movss	DWORD PTR _m$[ebp+52], xmm0

; 2452 : 	m.e32 = 0.0f;

	movss	xmm0, DWORD PTR __real@00000000
	movss	DWORD PTR _m$[ebp+56], xmm0

; 2453 : 	m.e33 = 1.0f;

	movss	xmm0, DWORD PTR __real@3f800000
	movss	DWORD PTR _m$[ebp+60], xmm0

; 2454 : 
; 2455 : 	return m;

	lea	eax, DWORD PTR _m$[ebp]
	push	eax
	mov	ecx, DWORD PTR ___$ReturnUdt$[ebp]
	call	??0CMatrix4x4@gen@@QAE@ABV01@@Z		; gen::CMatrix4x4::CMatrix4x4
	mov	eax, DWORD PTR ___$ReturnUdt$[ebp]

; 2456 : }

	push	edx
	mov	ecx, ebp
	push	eax
	lea	edx, DWORD PTR $LN7@MatrixRota
	call	@_RTC_CheckStackVars@8
	pop	eax
	pop	edx
	pop	edi
	pop	esi
	pop	ebx
	add	esp, 288				; 00000120H
	cmp	ebp, esp
	call	__RTC_CheckEsp
	mov	esp, ebp
	pop	ebp
	ret	0
$LN7@MatrixRota:
	DD	3
	DD	$LN6@MatrixRota
$LN6@MatrixRota:
	DD	-68					; ffffffbcH
	DD	64					; 00000040H
	DD	$LN3@MatrixRota
	DD	-80					; ffffffb0H
	DD	4
	DD	$LN4@MatrixRota
	DD	-92					; ffffffa4H
	DD	4
	DD	$LN5@MatrixRota
$LN5@MatrixRota:
	DB	99					; 00000063H
	DB	88					; 00000058H
	DB	0
$LN4@MatrixRota:
	DB	115					; 00000073H
	DB	88					; 00000058H
	DB	0
$LN3@MatrixRota:
	DB	109					; 0000006dH
	DB	0
?MatrixRotationX@gen@@YA?AVCMatrix4x4@1@M@Z ENDP	; gen::MatrixRotationX
_TEXT	ENDS
; Function compile flags: /Odtp /RTCsu /ZI
; File c:\users\simon\documents\github\uclan-sparta\import\math\cmatrix4x4.cpp
;	COMDAT ?MatrixTranslation@gen@@YA?AVCMatrix4x4@1@ABVCVector3@1@@Z
_TEXT	SEGMENT
_m$ = -68						; size = 64
___$ReturnUdt$ = 8					; size = 4
_translate$ = 12					; size = 4
?MatrixTranslation@gen@@YA?AVCMatrix4x4@1@ABVCVector3@1@@Z PROC ; gen::MatrixTranslation, COMDAT

; 2400 : {

	push	ebp
	mov	ebp, esp
	sub	esp, 264				; 00000108H
	push	ebx
	push	esi
	push	edi
	lea	edi, DWORD PTR [ebp-264]
	mov	ecx, 66					; 00000042H
	mov	eax, -858993460				; ccccccccH
	rep stosd

; 2401 : 	CMatrix4x4 m;

	lea	ecx, DWORD PTR _m$[ebp]
	call	??0CMatrix4x4@gen@@QAE@XZ		; gen::CMatrix4x4::CMatrix4x4

; 2402 : 
; 2403 : 	m.e00 = 1.0f;

	movss	xmm0, DWORD PTR __real@3f800000
	movss	DWORD PTR _m$[ebp], xmm0

; 2404 : 	m.e01 = 0.0f;

	movss	xmm0, DWORD PTR __real@00000000
	movss	DWORD PTR _m$[ebp+4], xmm0

; 2405 : 	m.e02 = 0.0f;

	movss	xmm0, DWORD PTR __real@00000000
	movss	DWORD PTR _m$[ebp+8], xmm0

; 2406 : 	m.e03 = 0.0f;

	movss	xmm0, DWORD PTR __real@00000000
	movss	DWORD PTR _m$[ebp+12], xmm0

; 2407 : 
; 2408 : 	m.e10 = 0.0f;

	movss	xmm0, DWORD PTR __real@00000000
	movss	DWORD PTR _m$[ebp+16], xmm0

; 2409 : 	m.e11 = 1.0f;

	movss	xmm0, DWORD PTR __real@3f800000
	movss	DWORD PTR _m$[ebp+20], xmm0

; 2410 : 	m.e12 = 0.0f;

	movss	xmm0, DWORD PTR __real@00000000
	movss	DWORD PTR _m$[ebp+24], xmm0

; 2411 : 	m.e13 = 0.0f;

	movss	xmm0, DWORD PTR __real@00000000
	movss	DWORD PTR _m$[ebp+28], xmm0

; 2412 : 
; 2413 : 	m.e20 = 0.0f;

	movss	xmm0, DWORD PTR __real@00000000
	movss	DWORD PTR _m$[ebp+32], xmm0

; 2414 : 	m.e21 = 0.0f;

	movss	xmm0, DWORD PTR __real@00000000
	movss	DWORD PTR _m$[ebp+36], xmm0

; 2415 : 	m.e22 = 1.0f;

	movss	xmm0, DWORD PTR __real@3f800000
	movss	DWORD PTR _m$[ebp+40], xmm0

; 2416 : 	m.e23 = 0.0f;

	movss	xmm0, DWORD PTR __real@00000000
	movss	DWORD PTR _m$[ebp+44], xmm0

; 2417 : 
; 2418 : 	m.e30 = translate.x;

	mov	eax, DWORD PTR _translate$[ebp]
	movss	xmm0, DWORD PTR [eax]
	movss	DWORD PTR _m$[ebp+48], xmm0

; 2419 : 	m.e31 = translate.y;

	mov	eax, DWORD PTR _translate$[ebp]
	movss	xmm0, DWORD PTR [eax+4]
	movss	DWORD PTR _m$[ebp+52], xmm0

; 2420 : 	m.e32 = translate.z;

	mov	eax, DWORD PTR _translate$[ebp]
	movss	xmm0, DWORD PTR [eax+8]
	movss	DWORD PTR _m$[ebp+56], xmm0

; 2421 : 	m.e33 = 1.0f;

	movss	xmm0, DWORD PTR __real@3f800000
	movss	DWORD PTR _m$[ebp+60], xmm0

; 2422 : 
; 2423 : 	return m;

	lea	eax, DWORD PTR _m$[ebp]
	push	eax
	mov	ecx, DWORD PTR ___$ReturnUdt$[ebp]
	call	??0CMatrix4x4@gen@@QAE@ABV01@@Z		; gen::CMatrix4x4::CMatrix4x4
	mov	eax, DWORD PTR ___$ReturnUdt$[ebp]

; 2424 : }

	push	edx
	mov	ecx, ebp
	push	eax
	lea	edx, DWORD PTR $LN5@MatrixTran
	call	@_RTC_CheckStackVars@8
	pop	eax
	pop	edx
	pop	edi
	pop	esi
	pop	ebx
	add	esp, 264				; 00000108H
	cmp	ebp, esp
	call	__RTC_CheckEsp
	mov	esp, ebp
	pop	ebp
	ret	0
	npad	3
$LN5@MatrixTran:
	DD	1
	DD	$LN4@MatrixTran
$LN4@MatrixTran:
	DD	-68					; ffffffbcH
	DD	64					; 00000040H
	DD	$LN3@MatrixTran
$LN3@MatrixTran:
	DB	109					; 0000006dH
	DB	0
?MatrixTranslation@gen@@YA?AVCMatrix4x4@1@ABVCVector3@1@@Z ENDP ; gen::MatrixTranslation
_TEXT	ENDS
; Function compile flags: /Odtp /RTCsu /ZI
; File c:\users\simon\documents\github\uclan-sparta\import\math\cmatrix4x4.cpp
;	COMDAT ?MatrixIdentity@gen@@YA?AVCMatrix4x4@1@XZ
_TEXT	SEGMENT
_m$ = -68						; size = 64
___$ReturnUdt$ = 8					; size = 4
?MatrixIdentity@gen@@YA?AVCMatrix4x4@1@XZ PROC		; gen::MatrixIdentity, COMDAT

; 2372 : {

	push	ebp
	mov	ebp, esp
	sub	esp, 264				; 00000108H
	push	ebx
	push	esi
	push	edi
	lea	edi, DWORD PTR [ebp-264]
	mov	ecx, 66					; 00000042H
	mov	eax, -858993460				; ccccccccH
	rep stosd

; 2373 : 	CMatrix4x4 m;

	lea	ecx, DWORD PTR _m$[ebp]
	call	??0CMatrix4x4@gen@@QAE@XZ		; gen::CMatrix4x4::CMatrix4x4

; 2374 : 
; 2375 : 	m.e00 = 1.0f;

	movss	xmm0, DWORD PTR __real@3f800000
	movss	DWORD PTR _m$[ebp], xmm0

; 2376 : 	m.e01 = 0.0f;

	movss	xmm0, DWORD PTR __real@00000000
	movss	DWORD PTR _m$[ebp+4], xmm0

; 2377 : 	m.e02 = 0.0f; 

	movss	xmm0, DWORD PTR __real@00000000
	movss	DWORD PTR _m$[ebp+8], xmm0

; 2378 : 	m.e03 = 0.0f;

	movss	xmm0, DWORD PTR __real@00000000
	movss	DWORD PTR _m$[ebp+12], xmm0

; 2379 : 
; 2380 : 	m.e10 = 0.0f;

	movss	xmm0, DWORD PTR __real@00000000
	movss	DWORD PTR _m$[ebp+16], xmm0

; 2381 : 	m.e11 = 1.0f;

	movss	xmm0, DWORD PTR __real@3f800000
	movss	DWORD PTR _m$[ebp+20], xmm0

; 2382 : 	m.e12 = 0.0f;

	movss	xmm0, DWORD PTR __real@00000000
	movss	DWORD PTR _m$[ebp+24], xmm0

; 2383 : 	m.e13 = 0.0f;

	movss	xmm0, DWORD PTR __real@00000000
	movss	DWORD PTR _m$[ebp+28], xmm0

; 2384 : 
; 2385 : 	m.e20 = 0.0f;

	movss	xmm0, DWORD PTR __real@00000000
	movss	DWORD PTR _m$[ebp+32], xmm0

; 2386 : 	m.e21 = 0.0f;

	movss	xmm0, DWORD PTR __real@00000000
	movss	DWORD PTR _m$[ebp+36], xmm0

; 2387 : 	m.e22 = 1.0f;

	movss	xmm0, DWORD PTR __real@3f800000
	movss	DWORD PTR _m$[ebp+40], xmm0

; 2388 : 	m.e23 = 0.0f;

	movss	xmm0, DWORD PTR __real@00000000
	movss	DWORD PTR _m$[ebp+44], xmm0

; 2389 : 
; 2390 : 	m.e30 = 0.0f;

	movss	xmm0, DWORD PTR __real@00000000
	movss	DWORD PTR _m$[ebp+48], xmm0

; 2391 : 	m.e31 = 0.0f;

	movss	xmm0, DWORD PTR __real@00000000
	movss	DWORD PTR _m$[ebp+52], xmm0

; 2392 : 	m.e32 = 0.0f;

	movss	xmm0, DWORD PTR __real@00000000
	movss	DWORD PTR _m$[ebp+56], xmm0

; 2393 : 	m.e33 = 1.0f;

	movss	xmm0, DWORD PTR __real@3f800000
	movss	DWORD PTR _m$[ebp+60], xmm0

; 2394 : 
; 2395 : 	return m;

	lea	eax, DWORD PTR _m$[ebp]
	push	eax
	mov	ecx, DWORD PTR ___$ReturnUdt$[ebp]
	call	??0CMatrix4x4@gen@@QAE@ABV01@@Z		; gen::CMatrix4x4::CMatrix4x4
	mov	eax, DWORD PTR ___$ReturnUdt$[ebp]

; 2396 : }

	push	edx
	mov	ecx, ebp
	push	eax
	lea	edx, DWORD PTR $LN5@MatrixIden
	call	@_RTC_CheckStackVars@8
	pop	eax
	pop	edx
	pop	edi
	pop	esi
	pop	ebx
	add	esp, 264				; 00000108H
	cmp	ebp, esp
	call	__RTC_CheckEsp
	mov	esp, ebp
	pop	ebp
	ret	0
	npad	2
$LN5@MatrixIden:
	DD	1
	DD	$LN4@MatrixIden
$LN4@MatrixIden:
	DD	-68					; ffffffbcH
	DD	64					; 00000040H
	DD	$LN3@MatrixIden
$LN3@MatrixIden:
	DB	109					; 0000006dH
	DB	0
?MatrixIdentity@gen@@YA?AVCMatrix4x4@1@XZ ENDP		; gen::MatrixIdentity
_TEXT	ENDS
; Function compile flags: /Odtp /RTCsu /ZI
; File c:\users\simon\documents\github\uclan-sparta\import\math\cmatrix4x4.cpp
;	COMDAT ?Inverse@gen@@YA?AVCMatrix4x4@1@ABV21@@Z
_TEXT	SEGMENT
tv175 = -648						; size = 4
tv179 = -644						; size = 4
tv174 = -644						; size = 4
tv178 = -640						; size = 4
tv173 = -640						; size = 4
tv177 = -636						; size = 4
tv172 = -636						; size = 4
tv176 = -633						; size = 1
$T2 = -628						; size = 88
$T3 = -532						; size = 88
$T4 = -436						; size = 88
_e$5 = -148						; size = 4
_j$6 = -136						; size = 4
_i$7 = -124						; size = 4
_invDet$8 = -112					; size = 4
_det$9 = -100						; size = 4
_mOut$10 = -88						; size = 64
__$ArrayPad$ = -20					; size = 4
__$EHRec$ = -16						; size = 16
___$ReturnUdt$ = 8					; size = 4
_m$ = 12						; size = 4
?Inverse@gen@@YA?AVCMatrix4x4@1@ABV21@@Z PROC		; gen::Inverse, COMDAT

; 1973 : {

	push	ebp
	mov	ebp, esp
	push	-1
	push	__ehhandler$?Inverse@gen@@YA?AVCMatrix4x4@1@ABV21@@Z
	mov	eax, DWORD PTR fs:0
	push	eax
	push	ecx
	sub	esp, 632				; 00000278H
	push	ebx
	push	esi
	push	edi
	lea	edi, DWORD PTR [ebp-648]
	mov	ecx, 158				; 0000009eH
	mov	eax, -858993460				; ccccccccH
	rep stosd
	mov	eax, DWORD PTR ___security_cookie
	xor	eax, ebp
	mov	DWORD PTR __$ArrayPad$[ebp], eax
	push	eax
	lea	eax, DWORD PTR __$EHRec$[ebp+4]
	mov	DWORD PTR fs:0, eax
	mov	DWORD PTR __$EHRec$[ebp], esp

; 1974 : 	GEN_GUARD;

	mov	DWORD PTR __$EHRec$[ebp+12], 0

; 1975 : 
; 1976 : 	CMatrix4x4 mOut;

	lea	ecx, DWORD PTR _mOut$10[ebp]
	call	??0CMatrix4x4@gen@@QAE@XZ		; gen::CMatrix4x4::CMatrix4x4

; 1977 : 
; 1978 : 	// Calculate determinant
; 1979 : 	TFloat32 det = m.e00 * Cofactor( m, 0, 0 ) + m.e01 * Cofactor( m, 0, 1 ) + 
; 1980 : 	               m.e02 * Cofactor( m, 0, 2 ) + m.e03 * Cofactor( m, 0, 3 ); 

	push	0
	push	0
	mov	eax, DWORD PTR _m$[ebp]
	push	eax
	call	?Cofactor@gen@@YAMABVCMatrix4x4@1@II@Z	; gen::Cofactor
	add	esp, 12					; 0000000cH
	fstp	DWORD PTR tv172[ebp]
	push	1
	push	0
	mov	ecx, DWORD PTR _m$[ebp]
	push	ecx
	call	?Cofactor@gen@@YAMABVCMatrix4x4@1@II@Z	; gen::Cofactor
	add	esp, 12					; 0000000cH
	fstp	DWORD PTR tv173[ebp]
	push	2
	push	0
	mov	edx, DWORD PTR _m$[ebp]
	push	edx
	call	?Cofactor@gen@@YAMABVCMatrix4x4@1@II@Z	; gen::Cofactor
	add	esp, 12					; 0000000cH
	fstp	DWORD PTR tv174[ebp]
	push	3
	push	0
	mov	eax, DWORD PTR _m$[ebp]
	push	eax
	call	?Cofactor@gen@@YAMABVCMatrix4x4@1@II@Z	; gen::Cofactor
	add	esp, 12					; 0000000cH
	fstp	DWORD PTR tv175[ebp]
	mov	ecx, DWORD PTR _m$[ebp]
	movss	xmm0, DWORD PTR [ecx+12]
	mulss	xmm0, DWORD PTR tv175[ebp]
	mov	edx, DWORD PTR _m$[ebp]
	movss	xmm1, DWORD PTR [edx+8]
	mulss	xmm1, DWORD PTR tv174[ebp]
	mov	eax, DWORD PTR _m$[ebp]
	movss	xmm2, DWORD PTR [eax+4]
	mulss	xmm2, DWORD PTR tv173[ebp]
	mov	ecx, DWORD PTR _m$[ebp]
	movss	xmm3, DWORD PTR [ecx]
	mulss	xmm3, DWORD PTR tv172[ebp]
	addss	xmm3, xmm2
	addss	xmm3, xmm1
	addss	xmm3, xmm0
	movss	DWORD PTR _det$9[ebp], xmm3

; 1981 : 	GEN_ASSERT( !IsZero(det), "Singular matrix" );

	push	ecx
	movss	xmm0, DWORD PTR _kfEpsilon
	movss	DWORD PTR [esp], xmm0
	push	ecx
	movss	xmm0, DWORD PTR _det$9[ebp]
	movss	DWORD PTR [esp], xmm0
	call	?IsZero@gen@@YA_NMM@Z			; gen::IsZero
	add	esp, 8
	mov	BYTE PTR tv176[ebp], al
	movzx	eax, BYTE PTR tv176[ebp]
	test	eax, eax
	je	SHORT $LN7@Inverse
	mov	eax, DWORD PTR ?__LINE__Var@?1??Inverse@gen@@YA?AVCMatrix4x4@2@ABV32@@Z@4JA
	add	eax, 8
	push	eax
	push	OFFSET ??_C@_0EI@POGHFJCD@c?3?2users?2simon?2documents?2github?2@
	push	OFFSET ??_C@_0BA@EJDDFENM@Singular?5matrix?$AA@
	lea	ecx, DWORD PTR $T2[ebp]
	call	??0CFatalException@gen@@QAE@PBD0H@Z	; gen::CFatalException::CFatalException
	push	OFFSET __TI1?AVCFatalException@gen@@
	lea	ecx, DWORD PTR $T2[ebp]
	push	ecx
	call	__CxxThrowException@8
$LN7@Inverse:

; 1982 : 
; 1983 : 	// Inverse is (1/determinant)*adjoint matrix. Adjoint matrix is transposed matrix of cofactors
; 1984 : 	TFloat32 invDet = 1.0f / det;

	movss	xmm0, DWORD PTR __real@3f800000
	divss	xmm0, DWORD PTR _det$9[ebp]
	movss	DWORD PTR _invDet$8[ebp], xmm0

; 1985 : 	for (TUInt32 i = 0; i < 4; ++i)

	mov	DWORD PTR _i$7[ebp], 0
	jmp	SHORT $LN6@Inverse
$LN5@Inverse:
	mov	eax, DWORD PTR _i$7[ebp]
	add	eax, 1
	mov	DWORD PTR _i$7[ebp], eax
$LN6@Inverse:
	cmp	DWORD PTR _i$7[ebp], 4
	jae	$LN4@Inverse

; 1986 : 	{
; 1987 : 		for (TUInt32 j = 0; j < 4; ++j)

	mov	DWORD PTR _j$6[ebp], 0
	jmp	SHORT $LN3@Inverse
$LN2@Inverse:
	mov	eax, DWORD PTR _j$6[ebp]
	add	eax, 1
	mov	DWORD PTR _j$6[ebp], eax
$LN3@Inverse:
	cmp	DWORD PTR _j$6[ebp], 4
	jae	SHORT $LN1@Inverse

; 1988 : 		{
; 1989 : 			mOut[i][j] = invDet * Cofactor( m, j, i );

	mov	eax, DWORD PTR _i$7[ebp]
	push	eax
	mov	ecx, DWORD PTR _j$6[ebp]
	push	ecx
	mov	edx, DWORD PTR _m$[ebp]
	push	edx
	call	?Cofactor@gen@@YAMABVCMatrix4x4@1@II@Z	; gen::Cofactor
	add	esp, 12					; 0000000cH
	fstp	DWORD PTR tv177[ebp]
	mov	eax, DWORD PTR _i$7[ebp]
	push	eax
	lea	ecx, DWORD PTR _mOut$10[ebp]
	call	??ACMatrix4x4@gen@@QAEAAVCVector4@1@I@Z	; gen::CMatrix4x4::operator[]
	mov	DWORD PTR tv178[ebp], eax
	mov	ecx, DWORD PTR _j$6[ebp]
	push	ecx
	mov	ecx, DWORD PTR tv178[ebp]
	call	??ACVector4@gen@@QAEAAMI@Z		; gen::CVector4::operator[]
	mov	DWORD PTR tv179[ebp], eax
	movss	xmm0, DWORD PTR _invDet$8[ebp]
	mulss	xmm0, DWORD PTR tv177[ebp]
	mov	edx, DWORD PTR tv179[ebp]
	movss	DWORD PTR [edx], xmm0

; 1990 : 		}

	jmp	SHORT $LN2@Inverse
$LN1@Inverse:

; 1991 : 	}

	jmp	$LN5@Inverse
$LN4@Inverse:

; 1992 : 
; 1993 : 	return mOut;

	lea	eax, DWORD PTR _mOut$10[ebp]
	push	eax
	mov	ecx, DWORD PTR ___$ReturnUdt$[ebp]
	call	??0CMatrix4x4@gen@@QAE@ABV01@@Z		; gen::CMatrix4x4::CMatrix4x4
	mov	eax, DWORD PTR ___$ReturnUdt$[ebp]
	jmp	$LN14@Inverse
__catch$?Inverse@gen@@YA?AVCMatrix4x4@1@ABV21@@Z$0:

; 1994 : 
; 1995 : 	GEN_ENDGUARD;

	push	0
	call	?ObjectName@gen@@YAPBDXZ		; gen::ObjectName
	push	eax
	push	OFFSET ??_C@_0N@BLGPECID@gen?3?3Inverse?$AA@
	mov	ecx, DWORD PTR _e$5[ebp]
	call	?AppendToCallStack@CFatalException@gen@@QAEXPBD0_N@Z ; gen::CFatalException::AppendToCallStack
	mov	eax, DWORD PTR _e$5[ebp]
	push	eax
	lea	ecx, DWORD PTR $T3[ebp]
	call	??0CFatalException@gen@@QAE@ABV01@@Z
	push	OFFSET __TI1?AVCFatalException@gen@@
	lea	ecx, DWORD PTR $T3[ebp]
	push	ecx
	call	__CxxThrowException@8
	mov	eax, $LN15@Inverse
	ret	0
__catch$?Inverse@gen@@YA?AVCMatrix4x4@1@ABV21@@Z$1:
	call	?ObjectName@gen@@YAPBDXZ		; gen::ObjectName
	push	eax
	push	OFFSET ??_C@_0N@BLGPECID@gen?3?3Inverse?$AA@
	push	OFFSET ??_C@_0EI@POGHFJCD@c?3?2users?2simon?2documents?2github?2@
	lea	ecx, DWORD PTR $T4[ebp]
	call	??0CFatalException@gen@@QAE@PBD00@Z	; gen::CFatalException::CFatalException
	push	OFFSET __TI1?AVCFatalException@gen@@
	lea	eax, DWORD PTR $T4[ebp]
	push	eax
	call	__CxxThrowException@8
	mov	eax, $LN17@Inverse
	ret	0
	mov	DWORD PTR __$EHRec$[ebp+12], -1
	jmp	SHORT $LN16@Inverse
$LN17@Inverse:
	mov	DWORD PTR __$EHRec$[ebp+12], -1
	jmp	SHORT $LN14@Inverse
$LN16@Inverse:
	jmp	SHORT $LN14@Inverse
$LN15@Inverse:
	mov	DWORD PTR __$EHRec$[ebp+12], -1
$LN14@Inverse:

; 1996 : }

	push	edx
	mov	ecx, ebp
	push	eax
	lea	edx, DWORD PTR $LN22@Inverse
	call	@_RTC_CheckStackVars@8
	pop	eax
	pop	edx
	mov	ecx, DWORD PTR __$EHRec$[ebp+4]
	mov	DWORD PTR fs:0, ecx
	pop	ecx
	pop	edi
	pop	esi
	pop	ebx
	mov	ecx, DWORD PTR __$ArrayPad$[ebp]
	xor	ecx, ebp
	call	@__security_check_cookie@4
	add	esp, 648				; 00000288H
	cmp	ebp, esp
	call	__RTC_CheckEsp
	mov	esp, ebp
	pop	ebp
	ret	0
	npad	1
$LN22@Inverse:
	DD	2
	DD	$LN21@Inverse
$LN21@Inverse:
	DD	-88					; ffffffa8H
	DD	64					; 00000040H
	DD	$LN18@Inverse
	DD	-148					; ffffff6cH
	DD	4
	DD	$LN19@Inverse
$LN19@Inverse:
	DB	101					; 00000065H
	DB	0
$LN18@Inverse:
	DB	109					; 0000006dH
	DB	79					; 0000004fH
	DB	117					; 00000075H
	DB	116					; 00000074H
	DB	0
_TEXT	ENDS
;	COMDAT text$x
text$x	SEGMENT
__ehhandler$?Inverse@gen@@YA?AVCMatrix4x4@1@ABV21@@Z:
	mov	edx, DWORD PTR [esp+8]
	lea	eax, DWORD PTR [edx+12]
	mov	ecx, DWORD PTR [edx-652]
	xor	ecx, eax
	call	@__security_check_cookie@4
	mov	ecx, DWORD PTR [edx-8]
	xor	ecx, eax
	call	@__security_check_cookie@4
	mov	eax, OFFSET __ehfuncinfo$?Inverse@gen@@YA?AVCMatrix4x4@1@ABV21@@Z
	jmp	___CxxFrameHandler3
text$x	ENDS
?Inverse@gen@@YA?AVCMatrix4x4@1@ABV21@@Z ENDP		; gen::Inverse
; Function compile flags: /Odtp /RTCsu /ZI
; File c:\users\simon\documents\github\uclan-sparta\import\math\cmatrix4x4.cpp
;	COMDAT ?Cofactor@gen@@YAMABVCMatrix4x4@1@II@Z
_TEXT	SEGMENT
tv396 = -328						; size = 4
tv394 = -324						; size = 4
tv392 = -324						; size = 4
tv390 = -324						; size = 4
tv388 = -324						; size = 4
tv274 = -324						; size = 4
_det$ = -124						; size = 4
_det2$ = -112						; size = 4
_det1$ = -100						; size = 4
_det0$ = -88						; size = 4
_rowCol$1 = -76						; size = 4
_col$ = -64						; size = 4
_row$ = -52						; size = 4
_cols$ = -40						; size = 12
_rows$ = -20						; size = 12
__$ArrayPad$ = -4					; size = 4
_m$ = 8							; size = 4
_i$ = 12						; size = 4
_j$ = 16						; size = 4
?Cofactor@gen@@YAMABVCMatrix4x4@1@II@Z PROC		; gen::Cofactor, COMDAT

; 1936 : {

	push	ebp
	mov	ebp, esp
	sub	esp, 328				; 00000148H
	push	ebx
	push	esi
	push	edi
	lea	edi, DWORD PTR [ebp-328]
	mov	ecx, 82					; 00000052H
	mov	eax, -858993460				; ccccccccH
	rep stosd
	mov	eax, DWORD PTR ___security_cookie
	xor	eax, ebp
	mov	DWORD PTR __$ArrayPad$[ebp], eax

; 1937 : 	// Get rows and columns involved
; 1938 : 	TUInt32 rows[3];
; 1939 : 	TUInt32 cols[3];
; 1940 : 	TUInt32 row = 0, col = 0;

	mov	DWORD PTR _row$[ebp], 0
	mov	DWORD PTR _col$[ebp], 0

; 1941 : 	for (TUInt32 rowCol = 0; rowCol < 4; ++rowCol)

	mov	DWORD PTR _rowCol$1[ebp], 0
	jmp	SHORT $LN5@Cofactor
$LN4@Cofactor:
	mov	eax, DWORD PTR _rowCol$1[ebp]
	add	eax, 1
	mov	DWORD PTR _rowCol$1[ebp], eax
$LN5@Cofactor:
	cmp	DWORD PTR _rowCol$1[ebp], 4
	jae	SHORT $LN3@Cofactor

; 1942 : 	{
; 1943 : 		if (rowCol != i) rows[row++] = rowCol;

	mov	eax, DWORD PTR _rowCol$1[ebp]
	cmp	eax, DWORD PTR _i$[ebp]
	je	SHORT $LN2@Cofactor
	mov	eax, DWORD PTR _row$[ebp]
	mov	ecx, DWORD PTR _rowCol$1[ebp]
	mov	DWORD PTR _rows$[ebp+eax*4], ecx
	mov	edx, DWORD PTR _row$[ebp]
	add	edx, 1
	mov	DWORD PTR _row$[ebp], edx
$LN2@Cofactor:

; 1944 : 		if (rowCol != j) cols[col++] = rowCol;

	mov	eax, DWORD PTR _rowCol$1[ebp]
	cmp	eax, DWORD PTR _j$[ebp]
	je	SHORT $LN1@Cofactor
	mov	eax, DWORD PTR _col$[ebp]
	mov	ecx, DWORD PTR _rowCol$1[ebp]
	mov	DWORD PTR _cols$[ebp+eax*4], ecx
	mov	edx, DWORD PTR _col$[ebp]
	add	edx, 1
	mov	DWORD PTR _col$[ebp], edx
$LN1@Cofactor:

; 1945 : 	}

	jmp	SHORT $LN4@Cofactor
$LN3@Cofactor:

; 1946 : 
; 1947 : 	// Calculate 3x3 determinant
; 1948 : 	TFloat32 det0 = m[rows[1]][cols[1]]*m[rows[2]][cols[2]] - 
; 1949 : 	                m[rows[1]][cols[2]]*m[rows[2]][cols[1]];

	mov	eax, 4
	shl	eax, 0
	mov	ecx, DWORD PTR _cols$[ebp+eax]
	push	ecx
	mov	edx, 4
	shl	edx, 0
	mov	eax, DWORD PTR _rows$[ebp+edx]
	push	eax
	mov	ecx, DWORD PTR _m$[ebp]
	call	??ACMatrix4x4@gen@@QBEABVCVector4@1@I@Z	; gen::CMatrix4x4::operator[]
	mov	ecx, eax
	call	??ACVector4@gen@@QBEABMI@Z		; gen::CVector4::operator[]
	mov	esi, eax
	mov	ecx, 4
	shl	ecx, 1
	mov	edx, DWORD PTR _cols$[ebp+ecx]
	push	edx
	mov	eax, 4
	shl	eax, 1
	mov	ecx, DWORD PTR _rows$[ebp+eax]
	push	ecx
	mov	ecx, DWORD PTR _m$[ebp]
	call	??ACMatrix4x4@gen@@QBEABVCVector4@1@I@Z	; gen::CMatrix4x4::operator[]
	mov	ecx, eax
	call	??ACVector4@gen@@QBEABMI@Z		; gen::CVector4::operator[]
	movss	xmm0, DWORD PTR [esi]
	mulss	xmm0, DWORD PTR [eax]
	mov	edx, 4
	shl	edx, 1
	mov	eax, DWORD PTR _cols$[ebp+edx]
	push	eax
	mov	ecx, 4
	shl	ecx, 0
	mov	edx, DWORD PTR _rows$[ebp+ecx]
	push	edx
	mov	ecx, DWORD PTR _m$[ebp]
	movss	DWORD PTR tv388[ebp], xmm0
	call	??ACMatrix4x4@gen@@QBEABVCVector4@1@I@Z	; gen::CMatrix4x4::operator[]
	mov	ecx, eax
	call	??ACVector4@gen@@QBEABMI@Z		; gen::CVector4::operator[]
	mov	esi, eax
	mov	eax, 4
	shl	eax, 0
	mov	ecx, DWORD PTR _cols$[ebp+eax]
	push	ecx
	mov	edx, 4
	shl	edx, 1
	mov	eax, DWORD PTR _rows$[ebp+edx]
	push	eax
	mov	ecx, DWORD PTR _m$[ebp]
	call	??ACMatrix4x4@gen@@QBEABVCVector4@1@I@Z	; gen::CMatrix4x4::operator[]
	mov	ecx, eax
	call	??ACVector4@gen@@QBEABMI@Z		; gen::CVector4::operator[]
	movss	xmm0, DWORD PTR [esi]
	mulss	xmm0, DWORD PTR [eax]
	movss	xmm1, DWORD PTR tv388[ebp]
	subss	xmm1, xmm0
	movss	DWORD PTR _det0$[ebp], xmm1

; 1950 : 	TFloat32 det1 = m[rows[1]][cols[2]]*m[rows[2]][cols[0]] - 
; 1951 : 	                m[rows[1]][cols[0]]*m[rows[2]][cols[2]];

	mov	eax, 4
	shl	eax, 1
	mov	ecx, DWORD PTR _cols$[ebp+eax]
	push	ecx
	mov	edx, 4
	shl	edx, 0
	mov	eax, DWORD PTR _rows$[ebp+edx]
	push	eax
	mov	ecx, DWORD PTR _m$[ebp]
	call	??ACMatrix4x4@gen@@QBEABVCVector4@1@I@Z	; gen::CMatrix4x4::operator[]
	mov	ecx, eax
	call	??ACVector4@gen@@QBEABMI@Z		; gen::CVector4::operator[]
	mov	esi, eax
	mov	ecx, 4
	imul	edx, ecx, 0
	mov	eax, DWORD PTR _cols$[ebp+edx]
	push	eax
	mov	ecx, 4
	shl	ecx, 1
	mov	edx, DWORD PTR _rows$[ebp+ecx]
	push	edx
	mov	ecx, DWORD PTR _m$[ebp]
	call	??ACMatrix4x4@gen@@QBEABVCVector4@1@I@Z	; gen::CMatrix4x4::operator[]
	mov	ecx, eax
	call	??ACVector4@gen@@QBEABMI@Z		; gen::CVector4::operator[]
	movss	xmm0, DWORD PTR [esi]
	mulss	xmm0, DWORD PTR [eax]
	mov	eax, 4
	imul	ecx, eax, 0
	mov	edx, DWORD PTR _cols$[ebp+ecx]
	push	edx
	mov	eax, 4
	shl	eax, 0
	mov	ecx, DWORD PTR _rows$[ebp+eax]
	push	ecx
	mov	ecx, DWORD PTR _m$[ebp]
	movss	DWORD PTR tv390[ebp], xmm0
	call	??ACMatrix4x4@gen@@QBEABVCVector4@1@I@Z	; gen::CMatrix4x4::operator[]
	mov	ecx, eax
	call	??ACVector4@gen@@QBEABMI@Z		; gen::CVector4::operator[]
	mov	esi, eax
	mov	edx, 4
	shl	edx, 1
	mov	eax, DWORD PTR _cols$[ebp+edx]
	push	eax
	mov	ecx, 4
	shl	ecx, 1
	mov	edx, DWORD PTR _rows$[ebp+ecx]
	push	edx
	mov	ecx, DWORD PTR _m$[ebp]
	call	??ACMatrix4x4@gen@@QBEABVCVector4@1@I@Z	; gen::CMatrix4x4::operator[]
	mov	ecx, eax
	call	??ACVector4@gen@@QBEABMI@Z		; gen::CVector4::operator[]
	movss	xmm0, DWORD PTR [esi]
	mulss	xmm0, DWORD PTR [eax]
	movss	xmm1, DWORD PTR tv390[ebp]
	subss	xmm1, xmm0
	movss	DWORD PTR _det1$[ebp], xmm1

; 1952 : 	TFloat32 det2 = m[rows[1]][cols[0]]*m[rows[2]][cols[1]] - 
; 1953 : 	                m[rows[1]][cols[1]]*m[rows[2]][cols[0]];

	mov	eax, 4
	imul	ecx, eax, 0
	mov	edx, DWORD PTR _cols$[ebp+ecx]
	push	edx
	mov	eax, 4
	shl	eax, 0
	mov	ecx, DWORD PTR _rows$[ebp+eax]
	push	ecx
	mov	ecx, DWORD PTR _m$[ebp]
	call	??ACMatrix4x4@gen@@QBEABVCVector4@1@I@Z	; gen::CMatrix4x4::operator[]
	mov	ecx, eax
	call	??ACVector4@gen@@QBEABMI@Z		; gen::CVector4::operator[]
	mov	esi, eax
	mov	edx, 4
	shl	edx, 0
	mov	eax, DWORD PTR _cols$[ebp+edx]
	push	eax
	mov	ecx, 4
	shl	ecx, 1
	mov	edx, DWORD PTR _rows$[ebp+ecx]
	push	edx
	mov	ecx, DWORD PTR _m$[ebp]
	call	??ACMatrix4x4@gen@@QBEABVCVector4@1@I@Z	; gen::CMatrix4x4::operator[]
	mov	ecx, eax
	call	??ACVector4@gen@@QBEABMI@Z		; gen::CVector4::operator[]
	movss	xmm0, DWORD PTR [esi]
	mulss	xmm0, DWORD PTR [eax]
	mov	eax, 4
	shl	eax, 0
	mov	ecx, DWORD PTR _cols$[ebp+eax]
	push	ecx
	mov	edx, 4
	shl	edx, 0
	mov	eax, DWORD PTR _rows$[ebp+edx]
	push	eax
	mov	ecx, DWORD PTR _m$[ebp]
	movss	DWORD PTR tv392[ebp], xmm0
	call	??ACMatrix4x4@gen@@QBEABVCVector4@1@I@Z	; gen::CMatrix4x4::operator[]
	mov	ecx, eax
	call	??ACVector4@gen@@QBEABMI@Z		; gen::CVector4::operator[]
	mov	esi, eax
	mov	ecx, 4
	imul	edx, ecx, 0
	mov	eax, DWORD PTR _cols$[ebp+edx]
	push	eax
	mov	ecx, 4
	shl	ecx, 1
	mov	edx, DWORD PTR _rows$[ebp+ecx]
	push	edx
	mov	ecx, DWORD PTR _m$[ebp]
	call	??ACMatrix4x4@gen@@QBEABVCVector4@1@I@Z	; gen::CMatrix4x4::operator[]
	mov	ecx, eax
	call	??ACVector4@gen@@QBEABMI@Z		; gen::CVector4::operator[]
	movss	xmm0, DWORD PTR [esi]
	mulss	xmm0, DWORD PTR [eax]
	movss	xmm1, DWORD PTR tv392[ebp]
	subss	xmm1, xmm0
	movss	DWORD PTR _det2$[ebp], xmm1

; 1954 : 	TFloat32 det = m[rows[0]][cols[0]]*det0 + 
; 1955 : 	               m[rows[0]][cols[1]]*det1 +
; 1956 : 				   m[rows[0]][cols[2]]*det2;

	mov	eax, 4
	imul	ecx, eax, 0
	mov	edx, DWORD PTR _cols$[ebp+ecx]
	push	edx
	mov	eax, 4
	imul	ecx, eax, 0
	mov	edx, DWORD PTR _rows$[ebp+ecx]
	push	edx
	mov	ecx, DWORD PTR _m$[ebp]
	call	??ACMatrix4x4@gen@@QBEABVCVector4@1@I@Z	; gen::CMatrix4x4::operator[]
	mov	ecx, eax
	call	??ACVector4@gen@@QBEABMI@Z		; gen::CVector4::operator[]
	movss	xmm0, DWORD PTR [eax]
	mulss	xmm0, DWORD PTR _det0$[ebp]
	mov	eax, 4
	shl	eax, 0
	mov	ecx, DWORD PTR _cols$[ebp+eax]
	push	ecx
	mov	edx, 4
	imul	eax, edx, 0
	mov	ecx, DWORD PTR _rows$[ebp+eax]
	push	ecx
	mov	ecx, DWORD PTR _m$[ebp]
	movss	DWORD PTR tv394[ebp], xmm0
	call	??ACMatrix4x4@gen@@QBEABVCVector4@1@I@Z	; gen::CMatrix4x4::operator[]
	mov	ecx, eax
	call	??ACVector4@gen@@QBEABMI@Z		; gen::CVector4::operator[]
	movss	xmm0, DWORD PTR [eax]
	mulss	xmm0, DWORD PTR _det1$[ebp]
	movss	xmm1, DWORD PTR tv394[ebp]
	addss	xmm1, xmm0
	mov	edx, 4
	shl	edx, 1
	mov	eax, DWORD PTR _cols$[ebp+edx]
	push	eax
	mov	ecx, 4
	imul	edx, ecx, 0
	mov	eax, DWORD PTR _rows$[ebp+edx]
	push	eax
	mov	ecx, DWORD PTR _m$[ebp]
	movss	DWORD PTR tv396[ebp], xmm1
	call	??ACMatrix4x4@gen@@QBEABVCVector4@1@I@Z	; gen::CMatrix4x4::operator[]
	mov	ecx, eax
	call	??ACVector4@gen@@QBEABMI@Z		; gen::CVector4::operator[]
	movss	xmm0, DWORD PTR [eax]
	mulss	xmm0, DWORD PTR _det2$[ebp]
	movss	xmm1, DWORD PTR tv396[ebp]
	addss	xmm1, xmm0
	movss	DWORD PTR _det$[ebp], xmm1

; 1957 : 
; 1958 : 	// Determine if i+j is even/odd to calculate (-1) term
; 1959 : 	return ((((i+j) & 1) == 0) ? det : -det);

	mov	eax, DWORD PTR _i$[ebp]
	add	eax, DWORD PTR _j$[ebp]
	and	eax, 1
	jne	SHORT $LN8@Cofactor
	movss	xmm0, DWORD PTR _det$[ebp]
	movss	DWORD PTR tv274[ebp], xmm0
	jmp	SHORT $LN9@Cofactor
$LN8@Cofactor:
	movss	xmm0, DWORD PTR _det$[ebp]
	xorps	xmm0, DWORD PTR __xmm@80000000800000008000000080000000
	movss	DWORD PTR tv274[ebp], xmm0
$LN9@Cofactor:
	fld	DWORD PTR tv274[ebp]

; 1960 : }

	push	edx
	mov	ecx, ebp
	push	eax
	lea	edx, DWORD PTR $LN13@Cofactor
	call	@_RTC_CheckStackVars@8
	pop	eax
	pop	edx
	pop	edi
	pop	esi
	pop	ebx
	mov	ecx, DWORD PTR __$ArrayPad$[ebp]
	xor	ecx, ebp
	call	@__security_check_cookie@4
	add	esp, 328				; 00000148H
	cmp	ebp, esp
	call	__RTC_CheckEsp
	mov	esp, ebp
	pop	ebp
	ret	0
$LN13@Cofactor:
	DD	2
	DD	$LN12@Cofactor
$LN12@Cofactor:
	DD	-20					; ffffffecH
	DD	12					; 0000000cH
	DD	$LN10@Cofactor
	DD	-40					; ffffffd8H
	DD	12					; 0000000cH
	DD	$LN11@Cofactor
$LN11@Cofactor:
	DB	99					; 00000063H
	DB	111					; 0000006fH
	DB	108					; 0000006cH
	DB	115					; 00000073H
	DB	0
$LN10@Cofactor:
	DB	114					; 00000072H
	DB	111					; 0000006fH
	DB	119					; 00000077H
	DB	115					; 00000073H
	DB	0
?Cofactor@gen@@YAMABVCMatrix4x4@1@II@Z ENDP		; gen::Cofactor
_TEXT	ENDS
; Function compile flags: /Odtp /RTCsu /ZI
; File c:\users\simon\documents\github\uclan-sparta\import\math\cmatrix4x4.cpp
;	COMDAT ?InverseAffine@gen@@YA?AVCMatrix4x4@1@ABV21@@Z
_TEXT	SEGMENT
tv275 = -645						; size = 1
$T2 = -640						; size = 88
$T3 = -544						; size = 88
$T4 = -448						; size = 88
_e$5 = -160						; size = 4
_invDet$6 = -148					; size = 4
_det$7 = -136						; size = 4
_det2$8 = -124						; size = 4
_det1$9 = -112						; size = 4
_det0$10 = -100						; size = 4
_mOut$11 = -88						; size = 64
__$ArrayPad$ = -20					; size = 4
__$EHRec$ = -16						; size = 16
___$ReturnUdt$ = 8					; size = 4
_m$ = 12						; size = 4
?InverseAffine@gen@@YA?AVCMatrix4x4@1@ABV21@@Z PROC	; gen::InverseAffine, COMDAT

; 1878 : {

	push	ebp
	mov	ebp, esp
	push	-1
	push	__ehhandler$?InverseAffine@gen@@YA?AVCMatrix4x4@1@ABV21@@Z
	mov	eax, DWORD PTR fs:0
	push	eax
	push	ecx
	sub	esp, 632				; 00000278H
	push	ebx
	push	esi
	push	edi
	lea	edi, DWORD PTR [ebp-648]
	mov	ecx, 158				; 0000009eH
	mov	eax, -858993460				; ccccccccH
	rep stosd
	mov	eax, DWORD PTR ___security_cookie
	xor	eax, ebp
	mov	DWORD PTR __$ArrayPad$[ebp], eax
	push	eax
	lea	eax, DWORD PTR __$EHRec$[ebp+4]
	mov	DWORD PTR fs:0, eax
	mov	DWORD PTR __$EHRec$[ebp], esp

; 1879 : 	GEN_GUARD;

	mov	DWORD PTR __$EHRec$[ebp+12], 0

; 1880 : 
; 1881 : 	CMatrix4x4 mOut;

	lea	ecx, DWORD PTR _mOut$11[ebp]
	call	??0CMatrix4x4@gen@@QAE@XZ		; gen::CMatrix4x4::CMatrix4x4

; 1882 : 
; 1883 : 	// Calculate determinant of upper left 3x3
; 1884 : 	TFloat32 det0 = m.e11*m.e22 - m.e12*m.e21;

	mov	eax, DWORD PTR _m$[ebp]
	mov	ecx, DWORD PTR _m$[ebp]
	movss	xmm0, DWORD PTR [eax+24]
	mulss	xmm0, DWORD PTR [ecx+36]
	mov	edx, DWORD PTR _m$[ebp]
	mov	eax, DWORD PTR _m$[ebp]
	movss	xmm1, DWORD PTR [edx+20]
	mulss	xmm1, DWORD PTR [eax+40]
	subss	xmm1, xmm0
	movss	DWORD PTR _det0$10[ebp], xmm1

; 1885 : 	TFloat32 det1 = m.e12*m.e20 - m.e10*m.e22;

	mov	eax, DWORD PTR _m$[ebp]
	mov	ecx, DWORD PTR _m$[ebp]
	movss	xmm0, DWORD PTR [eax+16]
	mulss	xmm0, DWORD PTR [ecx+40]
	mov	edx, DWORD PTR _m$[ebp]
	mov	eax, DWORD PTR _m$[ebp]
	movss	xmm1, DWORD PTR [edx+24]
	mulss	xmm1, DWORD PTR [eax+32]
	subss	xmm1, xmm0
	movss	DWORD PTR _det1$9[ebp], xmm1

; 1886 : 	TFloat32 det2 = m.e10*m.e21 - m.e11*m.e20;

	mov	eax, DWORD PTR _m$[ebp]
	mov	ecx, DWORD PTR _m$[ebp]
	movss	xmm0, DWORD PTR [eax+20]
	mulss	xmm0, DWORD PTR [ecx+32]
	mov	edx, DWORD PTR _m$[ebp]
	mov	eax, DWORD PTR _m$[ebp]
	movss	xmm1, DWORD PTR [edx+16]
	mulss	xmm1, DWORD PTR [eax+36]
	subss	xmm1, xmm0
	movss	DWORD PTR _det2$8[ebp], xmm1

; 1887 : 	TFloat32 det = m.e00*det0 + m.e01*det1 + m.e02*det2;

	mov	eax, DWORD PTR _m$[ebp]
	movss	xmm0, DWORD PTR [eax+8]
	mulss	xmm0, DWORD PTR _det2$8[ebp]
	mov	ecx, DWORD PTR _m$[ebp]
	movss	xmm1, DWORD PTR [ecx+4]
	mulss	xmm1, DWORD PTR _det1$9[ebp]
	mov	edx, DWORD PTR _m$[ebp]
	movss	xmm2, DWORD PTR [edx]
	mulss	xmm2, DWORD PTR _det0$10[ebp]
	addss	xmm2, xmm1
	addss	xmm2, xmm0
	movss	DWORD PTR _det$7[ebp], xmm2

; 1888 : 	GEN_ASSERT( !IsZero(det), "Singular matrix" );

	push	ecx
	movss	xmm0, DWORD PTR _kfEpsilon
	movss	DWORD PTR [esp], xmm0
	push	ecx
	movss	xmm0, DWORD PTR _det$7[ebp]
	movss	DWORD PTR [esp], xmm0
	call	?IsZero@gen@@YA_NMM@Z			; gen::IsZero
	add	esp, 8
	mov	BYTE PTR tv275[ebp], al
	movzx	eax, BYTE PTR tv275[ebp]
	test	eax, eax
	je	SHORT $LN1@InverseAff
	mov	eax, DWORD PTR ?__LINE__Var@?1??InverseAffine@gen@@YA?AVCMatrix4x4@2@ABV32@@Z@4JA
	add	eax, 10					; 0000000aH
	push	eax
	push	OFFSET ??_C@_0EI@POGHFJCD@c?3?2users?2simon?2documents?2github?2@
	push	OFFSET ??_C@_0BA@EJDDFENM@Singular?5matrix?$AA@
	lea	ecx, DWORD PTR $T2[ebp]
	call	??0CFatalException@gen@@QAE@PBD0H@Z	; gen::CFatalException::CFatalException
	push	OFFSET __TI1?AVCFatalException@gen@@
	lea	ecx, DWORD PTR $T2[ebp]
	push	ecx
	call	__CxxThrowException@8
$LN1@InverseAff:

; 1889 : 
; 1890 : 	// Calculate inverse of upper left 3x3
; 1891 : 	TFloat32 invDet = 1.0f / det;

	movss	xmm0, DWORD PTR __real@3f800000
	divss	xmm0, DWORD PTR _det$7[ebp]
	movss	DWORD PTR _invDet$6[ebp], xmm0

; 1892 : 	mOut.e00 = invDet * det0;

	movss	xmm0, DWORD PTR _invDet$6[ebp]
	mulss	xmm0, DWORD PTR _det0$10[ebp]
	movss	DWORD PTR _mOut$11[ebp], xmm0

; 1893 : 	mOut.e10 = invDet * det1;

	movss	xmm0, DWORD PTR _invDet$6[ebp]
	mulss	xmm0, DWORD PTR _det1$9[ebp]
	movss	DWORD PTR _mOut$11[ebp+16], xmm0

; 1894 : 	mOut.e20 = invDet * det2;

	movss	xmm0, DWORD PTR _invDet$6[ebp]
	mulss	xmm0, DWORD PTR _det2$8[ebp]
	movss	DWORD PTR _mOut$11[ebp+32], xmm0

; 1895 : 		  
; 1896 : 	mOut.e01 = invDet * (m.e21*m.e02 - m.e22*m.e01);

	mov	eax, DWORD PTR _m$[ebp]
	mov	ecx, DWORD PTR _m$[ebp]
	movss	xmm0, DWORD PTR [eax+40]
	mulss	xmm0, DWORD PTR [ecx+4]
	mov	edx, DWORD PTR _m$[ebp]
	mov	eax, DWORD PTR _m$[ebp]
	movss	xmm1, DWORD PTR [edx+36]
	mulss	xmm1, DWORD PTR [eax+8]
	subss	xmm1, xmm0
	mulss	xmm1, DWORD PTR _invDet$6[ebp]
	movss	DWORD PTR _mOut$11[ebp+4], xmm1

; 1897 : 	mOut.e11 = invDet * (m.e22*m.e00 - m.e20*m.e02);

	mov	eax, DWORD PTR _m$[ebp]
	mov	ecx, DWORD PTR _m$[ebp]
	movss	xmm0, DWORD PTR [eax+32]
	mulss	xmm0, DWORD PTR [ecx+8]
	mov	edx, DWORD PTR _m$[ebp]
	mov	eax, DWORD PTR _m$[ebp]
	movss	xmm1, DWORD PTR [edx+40]
	mulss	xmm1, DWORD PTR [eax]
	subss	xmm1, xmm0
	mulss	xmm1, DWORD PTR _invDet$6[ebp]
	movss	DWORD PTR _mOut$11[ebp+20], xmm1

; 1898 : 	mOut.e21 = invDet * (m.e20*m.e01 - m.e21*m.e00);

	mov	eax, DWORD PTR _m$[ebp]
	mov	ecx, DWORD PTR _m$[ebp]
	movss	xmm0, DWORD PTR [eax+36]
	mulss	xmm0, DWORD PTR [ecx]
	mov	edx, DWORD PTR _m$[ebp]
	mov	eax, DWORD PTR _m$[ebp]
	movss	xmm1, DWORD PTR [edx+32]
	mulss	xmm1, DWORD PTR [eax+4]
	subss	xmm1, xmm0
	mulss	xmm1, DWORD PTR _invDet$6[ebp]
	movss	DWORD PTR _mOut$11[ebp+36], xmm1

; 1899 : 		  
; 1900 : 	mOut.e02 = invDet * (m.e01*m.e12 - m.e02*m.e11);

	mov	eax, DWORD PTR _m$[ebp]
	mov	ecx, DWORD PTR _m$[ebp]
	movss	xmm0, DWORD PTR [eax+8]
	mulss	xmm0, DWORD PTR [ecx+20]
	mov	edx, DWORD PTR _m$[ebp]
	mov	eax, DWORD PTR _m$[ebp]
	movss	xmm1, DWORD PTR [edx+4]
	mulss	xmm1, DWORD PTR [eax+24]
	subss	xmm1, xmm0
	mulss	xmm1, DWORD PTR _invDet$6[ebp]
	movss	DWORD PTR _mOut$11[ebp+8], xmm1

; 1901 : 	mOut.e12 = invDet * (m.e02*m.e10 - m.e00*m.e12);

	mov	eax, DWORD PTR _m$[ebp]
	mov	ecx, DWORD PTR _m$[ebp]
	movss	xmm0, DWORD PTR [eax]
	mulss	xmm0, DWORD PTR [ecx+24]
	mov	edx, DWORD PTR _m$[ebp]
	mov	eax, DWORD PTR _m$[ebp]
	movss	xmm1, DWORD PTR [edx+8]
	mulss	xmm1, DWORD PTR [eax+16]
	subss	xmm1, xmm0
	mulss	xmm1, DWORD PTR _invDet$6[ebp]
	movss	DWORD PTR _mOut$11[ebp+24], xmm1

; 1902 : 	mOut.e22 = invDet * (m.e00*m.e11 - m.e01*m.e10);

	mov	eax, DWORD PTR _m$[ebp]
	mov	ecx, DWORD PTR _m$[ebp]
	movss	xmm0, DWORD PTR [eax+4]
	mulss	xmm0, DWORD PTR [ecx+16]
	mov	edx, DWORD PTR _m$[ebp]
	mov	eax, DWORD PTR _m$[ebp]
	movss	xmm1, DWORD PTR [edx]
	mulss	xmm1, DWORD PTR [eax+20]
	subss	xmm1, xmm0
	mulss	xmm1, DWORD PTR _invDet$6[ebp]
	movss	DWORD PTR _mOut$11[ebp+40], xmm1

; 1903 : 
; 1904 : 	// Transform negative translation by inverted 3x3 to get inverse
; 1905 : 	mOut.e30 = -m.e30*mOut.e00 - m.e31*mOut.e10 - m.e32*mOut.e20;

	mov	eax, DWORD PTR _m$[ebp]
	movss	xmm0, DWORD PTR [eax+56]
	mulss	xmm0, DWORD PTR _mOut$11[ebp+32]
	mov	ecx, DWORD PTR _m$[ebp]
	movss	xmm1, DWORD PTR [ecx+52]
	mulss	xmm1, DWORD PTR _mOut$11[ebp+16]
	mov	edx, DWORD PTR _m$[ebp]
	movss	xmm2, DWORD PTR [edx+48]
	xorps	xmm2, DWORD PTR __xmm@80000000800000008000000080000000
	mulss	xmm2, DWORD PTR _mOut$11[ebp]
	subss	xmm2, xmm1
	subss	xmm2, xmm0
	movss	DWORD PTR _mOut$11[ebp+48], xmm2

; 1906 : 	mOut.e31 = -m.e30*mOut.e01 - m.e31*mOut.e11 - m.e32*mOut.e21;

	mov	eax, DWORD PTR _m$[ebp]
	movss	xmm0, DWORD PTR [eax+56]
	mulss	xmm0, DWORD PTR _mOut$11[ebp+36]
	mov	ecx, DWORD PTR _m$[ebp]
	movss	xmm1, DWORD PTR [ecx+52]
	mulss	xmm1, DWORD PTR _mOut$11[ebp+20]
	mov	edx, DWORD PTR _m$[ebp]
	movss	xmm2, DWORD PTR [edx+48]
	xorps	xmm2, DWORD PTR __xmm@80000000800000008000000080000000
	mulss	xmm2, DWORD PTR _mOut$11[ebp+4]
	subss	xmm2, xmm1
	subss	xmm2, xmm0
	movss	DWORD PTR _mOut$11[ebp+52], xmm2

; 1907 : 	mOut.e32 = -m.e30*mOut.e02 - m.e31*mOut.e12 - m.e32*mOut.e22;

	mov	eax, DWORD PTR _m$[ebp]
	movss	xmm0, DWORD PTR [eax+56]
	mulss	xmm0, DWORD PTR _mOut$11[ebp+40]
	mov	ecx, DWORD PTR _m$[ebp]
	movss	xmm1, DWORD PTR [ecx+52]
	mulss	xmm1, DWORD PTR _mOut$11[ebp+24]
	mov	edx, DWORD PTR _m$[ebp]
	movss	xmm2, DWORD PTR [edx+48]
	xorps	xmm2, DWORD PTR __xmm@80000000800000008000000080000000
	mulss	xmm2, DWORD PTR _mOut$11[ebp+8]
	subss	xmm2, xmm1
	subss	xmm2, xmm0
	movss	DWORD PTR _mOut$11[ebp+56], xmm2

; 1908 : 
; 1909 : 	// Fill in right column for affine matrix
; 1910 : 	mOut.e03 = 0.0f;

	movss	xmm0, DWORD PTR __real@00000000
	movss	DWORD PTR _mOut$11[ebp+12], xmm0

; 1911 : 	mOut.e13 = 0.0f;

	movss	xmm0, DWORD PTR __real@00000000
	movss	DWORD PTR _mOut$11[ebp+28], xmm0

; 1912 : 	mOut.e23 = 0.0f;

	movss	xmm0, DWORD PTR __real@00000000
	movss	DWORD PTR _mOut$11[ebp+44], xmm0

; 1913 : 	mOut.e33 = 1.0f;

	movss	xmm0, DWORD PTR __real@3f800000
	movss	DWORD PTR _mOut$11[ebp+60], xmm0

; 1914 : 
; 1915 : 	return mOut;

	lea	eax, DWORD PTR _mOut$11[ebp]
	push	eax
	mov	ecx, DWORD PTR ___$ReturnUdt$[ebp]
	call	??0CMatrix4x4@gen@@QAE@ABV01@@Z		; gen::CMatrix4x4::CMatrix4x4
	mov	eax, DWORD PTR ___$ReturnUdt$[ebp]
	jmp	$LN8@InverseAff
__catch$?InverseAffine@gen@@YA?AVCMatrix4x4@1@ABV21@@Z$0:

; 1916 : 
; 1917 : 	GEN_ENDGUARD;

	push	0
	call	?ObjectName@gen@@YAPBDXZ		; gen::ObjectName
	push	eax
	push	OFFSET ??_C@_0BD@PPGPBHLN@gen?3?3InverseAffine?$AA@
	mov	ecx, DWORD PTR _e$5[ebp]
	call	?AppendToCallStack@CFatalException@gen@@QAEXPBD0_N@Z ; gen::CFatalException::AppendToCallStack
	mov	eax, DWORD PTR _e$5[ebp]
	push	eax
	lea	ecx, DWORD PTR $T3[ebp]
	call	??0CFatalException@gen@@QAE@ABV01@@Z
	push	OFFSET __TI1?AVCFatalException@gen@@
	lea	ecx, DWORD PTR $T3[ebp]
	push	ecx
	call	__CxxThrowException@8
	mov	eax, $LN9@InverseAff
	ret	0
__catch$?InverseAffine@gen@@YA?AVCMatrix4x4@1@ABV21@@Z$1:
	call	?ObjectName@gen@@YAPBDXZ		; gen::ObjectName
	push	eax
	push	OFFSET ??_C@_0BD@PPGPBHLN@gen?3?3InverseAffine?$AA@
	push	OFFSET ??_C@_0EI@POGHFJCD@c?3?2users?2simon?2documents?2github?2@
	lea	ecx, DWORD PTR $T4[ebp]
	call	??0CFatalException@gen@@QAE@PBD00@Z	; gen::CFatalException::CFatalException
	push	OFFSET __TI1?AVCFatalException@gen@@
	lea	eax, DWORD PTR $T4[ebp]
	push	eax
	call	__CxxThrowException@8
	mov	eax, $LN11@InverseAff
	ret	0
	mov	DWORD PTR __$EHRec$[ebp+12], -1
	jmp	SHORT $LN10@InverseAff
$LN11@InverseAff:
	mov	DWORD PTR __$EHRec$[ebp+12], -1
	jmp	SHORT $LN8@InverseAff
$LN10@InverseAff:
	jmp	SHORT $LN8@InverseAff
$LN9@InverseAff:
	mov	DWORD PTR __$EHRec$[ebp+12], -1
$LN8@InverseAff:

; 1918 : }

	push	edx
	mov	ecx, ebp
	push	eax
	lea	edx, DWORD PTR $LN16@InverseAff
	call	@_RTC_CheckStackVars@8
	pop	eax
	pop	edx
	mov	ecx, DWORD PTR __$EHRec$[ebp+4]
	mov	DWORD PTR fs:0, ecx
	pop	ecx
	pop	edi
	pop	esi
	pop	ebx
	mov	ecx, DWORD PTR __$ArrayPad$[ebp]
	xor	ecx, ebp
	call	@__security_check_cookie@4
	add	esp, 648				; 00000288H
	cmp	ebp, esp
	call	__RTC_CheckEsp
	mov	esp, ebp
	pop	ebp
	ret	0
	npad	3
$LN16@InverseAff:
	DD	2
	DD	$LN15@InverseAff
$LN15@InverseAff:
	DD	-88					; ffffffa8H
	DD	64					; 00000040H
	DD	$LN12@InverseAff
	DD	-160					; ffffff60H
	DD	4
	DD	$LN13@InverseAff
$LN13@InverseAff:
	DB	101					; 00000065H
	DB	0
$LN12@InverseAff:
	DB	109					; 0000006dH
	DB	79					; 0000004fH
	DB	117					; 00000075H
	DB	116					; 00000074H
	DB	0
_TEXT	ENDS
;	COMDAT text$x
text$x	SEGMENT
__ehhandler$?InverseAffine@gen@@YA?AVCMatrix4x4@1@ABV21@@Z:
	mov	edx, DWORD PTR [esp+8]
	lea	eax, DWORD PTR [edx+12]
	mov	ecx, DWORD PTR [edx-652]
	xor	ecx, eax
	call	@__security_check_cookie@4
	mov	ecx, DWORD PTR [edx-8]
	xor	ecx, eax
	call	@__security_check_cookie@4
	mov	eax, OFFSET __ehfuncinfo$?InverseAffine@gen@@YA?AVCMatrix4x4@1@ABV21@@Z
	jmp	___CxxFrameHandler3
text$x	ENDS
?InverseAffine@gen@@YA?AVCMatrix4x4@1@ABV21@@Z ENDP	; gen::InverseAffine
; Function compile flags: /Odtp /RTCsu /ZI
; File c:\users\simon\documents\github\uclan-sparta\import\math\cmatrix4x4.cpp
;	COMDAT ?InverseRotTransScale@gen@@YA?AVCMatrix4x4@1@ABV21@@Z
_TEXT	SEGMENT
tv254 = -657						; size = 1
tv253 = -657						; size = 1
tv252 = -657						; size = 1
$T2 = -652						; size = 88
$T3 = -556						; size = 88
$T4 = -460						; size = 88
_e$5 = -172						; size = 4
_invScaleZ$6 = -160					; size = 4
_invScaleY$7 = -148					; size = 4
_invScaleX$8 = -136					; size = 4
_scaleSqZ$9 = -124					; size = 4
_scaleSqY$10 = -112					; size = 4
_scaleSqX$11 = -100					; size = 4
_mOut$12 = -88						; size = 64
__$ArrayPad$ = -20					; size = 4
__$EHRec$ = -16						; size = 16
___$ReturnUdt$ = 8					; size = 4
_m$ = 12						; size = 4
?InverseRotTransScale@gen@@YA?AVCMatrix4x4@1@ABV21@@Z PROC ; gen::InverseRotTransScale, COMDAT

; 1826 : {

	push	ebp
	mov	ebp, esp
	push	-1
	push	__ehhandler$?InverseRotTransScale@gen@@YA?AVCMatrix4x4@1@ABV21@@Z
	mov	eax, DWORD PTR fs:0
	push	eax
	push	ecx
	sub	esp, 644				; 00000284H
	push	ebx
	push	esi
	push	edi
	lea	edi, DWORD PTR [ebp-660]
	mov	ecx, 161				; 000000a1H
	mov	eax, -858993460				; ccccccccH
	rep stosd
	mov	eax, DWORD PTR ___security_cookie
	xor	eax, ebp
	mov	DWORD PTR __$ArrayPad$[ebp], eax
	push	eax
	lea	eax, DWORD PTR __$EHRec$[ebp+4]
	mov	DWORD PTR fs:0, eax
	mov	DWORD PTR __$EHRec$[ebp], esp

; 1827 : 	GEN_GUARD;

	mov	DWORD PTR __$EHRec$[ebp+12], 0

; 1828 : 
; 1829 : 	CMatrix4x4 mOut;

	lea	ecx, DWORD PTR _mOut$12[ebp]
	call	??0CMatrix4x4@gen@@QAE@XZ		; gen::CMatrix4x4::CMatrix4x4

; 1830 : 
; 1831 : 	// Get X, Y & Z scaling (squared)
; 1832 : 	TFloat32 scaleSqX = m.e00*m.e00 + m.e01*m.e01 + m.e02*m.e02;

	mov	eax, DWORD PTR _m$[ebp]
	mov	ecx, DWORD PTR _m$[ebp]
	movss	xmm0, DWORD PTR [eax+8]
	mulss	xmm0, DWORD PTR [ecx+8]
	mov	edx, DWORD PTR _m$[ebp]
	mov	eax, DWORD PTR _m$[ebp]
	movss	xmm1, DWORD PTR [edx+4]
	mulss	xmm1, DWORD PTR [eax+4]
	mov	ecx, DWORD PTR _m$[ebp]
	mov	edx, DWORD PTR _m$[ebp]
	movss	xmm2, DWORD PTR [ecx]
	mulss	xmm2, DWORD PTR [edx]
	addss	xmm2, xmm1
	addss	xmm2, xmm0
	movss	DWORD PTR _scaleSqX$11[ebp], xmm2

; 1833 : 	TFloat32 scaleSqY = m.e10*m.e10 + m.e11*m.e11 + m.e12*m.e12;

	mov	eax, DWORD PTR _m$[ebp]
	mov	ecx, DWORD PTR _m$[ebp]
	movss	xmm0, DWORD PTR [eax+24]
	mulss	xmm0, DWORD PTR [ecx+24]
	mov	edx, DWORD PTR _m$[ebp]
	mov	eax, DWORD PTR _m$[ebp]
	movss	xmm1, DWORD PTR [edx+20]
	mulss	xmm1, DWORD PTR [eax+20]
	mov	ecx, DWORD PTR _m$[ebp]
	mov	edx, DWORD PTR _m$[ebp]
	movss	xmm2, DWORD PTR [ecx+16]
	mulss	xmm2, DWORD PTR [edx+16]
	addss	xmm2, xmm1
	addss	xmm2, xmm0
	movss	DWORD PTR _scaleSqY$10[ebp], xmm2

; 1834 : 	TFloat32 scaleSqZ = m.e20*m.e20 + m.e21*m.e21 + m.e22*m.e22;

	mov	eax, DWORD PTR _m$[ebp]
	mov	ecx, DWORD PTR _m$[ebp]
	movss	xmm0, DWORD PTR [eax+40]
	mulss	xmm0, DWORD PTR [ecx+40]
	mov	edx, DWORD PTR _m$[ebp]
	mov	eax, DWORD PTR _m$[ebp]
	movss	xmm1, DWORD PTR [edx+36]
	mulss	xmm1, DWORD PTR [eax+36]
	mov	ecx, DWORD PTR _m$[ebp]
	mov	edx, DWORD PTR _m$[ebp]
	movss	xmm2, DWORD PTR [ecx+32]
	mulss	xmm2, DWORD PTR [edx+32]
	addss	xmm2, xmm1
	addss	xmm2, xmm0
	movss	DWORD PTR _scaleSqZ$9[ebp], xmm2

; 1835 : 	
; 1836 : 	// Calculate scaling inverse
; 1837 : 	GEN_ASSERT( !IsZero(scaleSqX) && !IsZero(scaleSqY) && !IsZero(scaleSqZ), "Singular matrix" );

	push	ecx
	movss	xmm0, DWORD PTR _kfEpsilon
	movss	DWORD PTR [esp], xmm0
	push	ecx
	movss	xmm0, DWORD PTR _scaleSqX$11[ebp]
	movss	DWORD PTR [esp], xmm0
	call	?IsZero@gen@@YA_NMM@Z			; gen::IsZero
	add	esp, 8
	mov	BYTE PTR tv252[ebp], al
	movzx	eax, BYTE PTR tv252[ebp]
	test	eax, eax
	jne	SHORT $LN1@InverseRot
	push	ecx
	movss	xmm0, DWORD PTR _kfEpsilon
	movss	DWORD PTR [esp], xmm0
	push	ecx
	movss	xmm0, DWORD PTR _scaleSqY$10[ebp]
	movss	DWORD PTR [esp], xmm0
	call	?IsZero@gen@@YA_NMM@Z			; gen::IsZero
	add	esp, 8
	mov	BYTE PTR tv253[ebp], al
	movzx	eax, BYTE PTR tv253[ebp]
	test	eax, eax
	jne	SHORT $LN1@InverseRot
	push	ecx
	movss	xmm0, DWORD PTR _kfEpsilon
	movss	DWORD PTR [esp], xmm0
	push	ecx
	movss	xmm0, DWORD PTR _scaleSqZ$9[ebp]
	movss	DWORD PTR [esp], xmm0
	call	?IsZero@gen@@YA_NMM@Z			; gen::IsZero
	add	esp, 8
	mov	BYTE PTR tv254[ebp], al
	movzx	eax, BYTE PTR tv254[ebp]
	test	eax, eax
	je	SHORT $LN2@InverseRot
$LN1@InverseRot:
	mov	eax, DWORD PTR ?__LINE__Var@?1??InverseRotTransScale@gen@@YA?AVCMatrix4x4@2@ABV32@@Z@4JA
	add	eax, 11					; 0000000bH
	push	eax
	push	OFFSET ??_C@_0EI@POGHFJCD@c?3?2users?2simon?2documents?2github?2@
	push	OFFSET ??_C@_0BA@EJDDFENM@Singular?5matrix?$AA@
	lea	ecx, DWORD PTR $T2[ebp]
	call	??0CFatalException@gen@@QAE@PBD0H@Z	; gen::CFatalException::CFatalException
	push	OFFSET __TI1?AVCFatalException@gen@@
	lea	ecx, DWORD PTR $T2[ebp]
	push	ecx
	call	__CxxThrowException@8
$LN2@InverseRot:

; 1838 : 	TFloat32 invScaleX = 1.0f / scaleSqX;

	movss	xmm0, DWORD PTR __real@3f800000
	divss	xmm0, DWORD PTR _scaleSqX$11[ebp]
	movss	DWORD PTR _invScaleX$8[ebp], xmm0

; 1839 : 	TFloat32 invScaleY = 1.0f / scaleSqY;

	movss	xmm0, DWORD PTR __real@3f800000
	divss	xmm0, DWORD PTR _scaleSqY$10[ebp]
	movss	DWORD PTR _invScaleY$7[ebp], xmm0

; 1840 : 	TFloat32 invScaleZ = 1.0f / scaleSqZ;

	movss	xmm0, DWORD PTR __real@3f800000
	divss	xmm0, DWORD PTR _scaleSqZ$9[ebp]
	movss	DWORD PTR _invScaleZ$6[ebp], xmm0

; 1841 : 
; 1842 : 	// Inverse of upper left 3x3 is just the transpose with scaling inverse factored in
; 1843 : 	mOut.e00 = m.e00 * invScaleX;

	mov	eax, DWORD PTR _m$[ebp]
	movss	xmm0, DWORD PTR [eax]
	mulss	xmm0, DWORD PTR _invScaleX$8[ebp]
	movss	DWORD PTR _mOut$12[ebp], xmm0

; 1844 : 	mOut.e01 = m.e10 * invScaleY;

	mov	eax, DWORD PTR _m$[ebp]
	movss	xmm0, DWORD PTR [eax+16]
	mulss	xmm0, DWORD PTR _invScaleY$7[ebp]
	movss	DWORD PTR _mOut$12[ebp+4], xmm0

; 1845 : 	mOut.e02 = m.e20 * invScaleZ;

	mov	eax, DWORD PTR _m$[ebp]
	movss	xmm0, DWORD PTR [eax+32]
	mulss	xmm0, DWORD PTR _invScaleZ$6[ebp]
	movss	DWORD PTR _mOut$12[ebp+8], xmm0

; 1846 : 	mOut.e03 = 0.0f;

	movss	xmm0, DWORD PTR __real@00000000
	movss	DWORD PTR _mOut$12[ebp+12], xmm0

; 1847 : 
; 1848 : 	mOut.e10 = m.e01 * invScaleX;

	mov	eax, DWORD PTR _m$[ebp]
	movss	xmm0, DWORD PTR [eax+4]
	mulss	xmm0, DWORD PTR _invScaleX$8[ebp]
	movss	DWORD PTR _mOut$12[ebp+16], xmm0

; 1849 : 	mOut.e11 = m.e11 * invScaleY;

	mov	eax, DWORD PTR _m$[ebp]
	movss	xmm0, DWORD PTR [eax+20]
	mulss	xmm0, DWORD PTR _invScaleY$7[ebp]
	movss	DWORD PTR _mOut$12[ebp+20], xmm0

; 1850 : 	mOut.e12 = m.e21 * invScaleZ;

	mov	eax, DWORD PTR _m$[ebp]
	movss	xmm0, DWORD PTR [eax+36]
	mulss	xmm0, DWORD PTR _invScaleZ$6[ebp]
	movss	DWORD PTR _mOut$12[ebp+24], xmm0

; 1851 : 	mOut.e13 = 0.0f;

	movss	xmm0, DWORD PTR __real@00000000
	movss	DWORD PTR _mOut$12[ebp+28], xmm0

; 1852 : 
; 1853 : 	mOut.e20 = m.e02 * invScaleX;

	mov	eax, DWORD PTR _m$[ebp]
	movss	xmm0, DWORD PTR [eax+8]
	mulss	xmm0, DWORD PTR _invScaleX$8[ebp]
	movss	DWORD PTR _mOut$12[ebp+32], xmm0

; 1854 : 	mOut.e21 = m.e12 * invScaleY;

	mov	eax, DWORD PTR _m$[ebp]
	movss	xmm0, DWORD PTR [eax+24]
	mulss	xmm0, DWORD PTR _invScaleY$7[ebp]
	movss	DWORD PTR _mOut$12[ebp+36], xmm0

; 1855 : 	mOut.e22 = m.e22 * invScaleZ;

	mov	eax, DWORD PTR _m$[ebp]
	movss	xmm0, DWORD PTR [eax+40]
	mulss	xmm0, DWORD PTR _invScaleZ$6[ebp]
	movss	DWORD PTR _mOut$12[ebp+40], xmm0

; 1856 : 	mOut.e23 = 0.0f;

	movss	xmm0, DWORD PTR __real@00000000
	movss	DWORD PTR _mOut$12[ebp+44], xmm0

; 1857 : 
; 1858 : 	// Transform negative translation by inverted 3x3 to get inverse
; 1859 : 	mOut.e30 = -m.e30*mOut.e00 - m.e31*mOut.e10 - m.e32*mOut.e20;

	mov	eax, DWORD PTR _m$[ebp]
	movss	xmm0, DWORD PTR [eax+56]
	mulss	xmm0, DWORD PTR _mOut$12[ebp+32]
	mov	ecx, DWORD PTR _m$[ebp]
	movss	xmm1, DWORD PTR [ecx+52]
	mulss	xmm1, DWORD PTR _mOut$12[ebp+16]
	mov	edx, DWORD PTR _m$[ebp]
	movss	xmm2, DWORD PTR [edx+48]
	xorps	xmm2, DWORD PTR __xmm@80000000800000008000000080000000
	mulss	xmm2, DWORD PTR _mOut$12[ebp]
	subss	xmm2, xmm1
	subss	xmm2, xmm0
	movss	DWORD PTR _mOut$12[ebp+48], xmm2

; 1860 : 	mOut.e31 = -m.e30*mOut.e01 - m.e31*mOut.e11 - m.e32*mOut.e21;

	mov	eax, DWORD PTR _m$[ebp]
	movss	xmm0, DWORD PTR [eax+56]
	mulss	xmm0, DWORD PTR _mOut$12[ebp+36]
	mov	ecx, DWORD PTR _m$[ebp]
	movss	xmm1, DWORD PTR [ecx+52]
	mulss	xmm1, DWORD PTR _mOut$12[ebp+20]
	mov	edx, DWORD PTR _m$[ebp]
	movss	xmm2, DWORD PTR [edx+48]
	xorps	xmm2, DWORD PTR __xmm@80000000800000008000000080000000
	mulss	xmm2, DWORD PTR _mOut$12[ebp+4]
	subss	xmm2, xmm1
	subss	xmm2, xmm0
	movss	DWORD PTR _mOut$12[ebp+52], xmm2

; 1861 : 	mOut.e32 = -m.e30*mOut.e02 - m.e31*mOut.e12 - m.e32*mOut.e22;

	mov	eax, DWORD PTR _m$[ebp]
	movss	xmm0, DWORD PTR [eax+56]
	mulss	xmm0, DWORD PTR _mOut$12[ebp+40]
	mov	ecx, DWORD PTR _m$[ebp]
	movss	xmm1, DWORD PTR [ecx+52]
	mulss	xmm1, DWORD PTR _mOut$12[ebp+24]
	mov	edx, DWORD PTR _m$[ebp]
	movss	xmm2, DWORD PTR [edx+48]
	xorps	xmm2, DWORD PTR __xmm@80000000800000008000000080000000
	mulss	xmm2, DWORD PTR _mOut$12[ebp+8]
	subss	xmm2, xmm1
	subss	xmm2, xmm0
	movss	DWORD PTR _mOut$12[ebp+56], xmm2

; 1862 : 	mOut.e33 = 1.0f;

	movss	xmm0, DWORD PTR __real@3f800000
	movss	DWORD PTR _mOut$12[ebp+60], xmm0

; 1863 : 
; 1864 : 	return mOut;

	lea	eax, DWORD PTR _mOut$12[ebp]
	push	eax
	mov	ecx, DWORD PTR ___$ReturnUdt$[ebp]
	call	??0CMatrix4x4@gen@@QAE@ABV01@@Z		; gen::CMatrix4x4::CMatrix4x4
	mov	eax, DWORD PTR ___$ReturnUdt$[ebp]
	jmp	$LN9@InverseRot
__catch$?InverseRotTransScale@gen@@YA?AVCMatrix4x4@1@ABV21@@Z$0:

; 1865 : 
; 1866 : 	GEN_ENDGUARD;

	push	0
	call	?ObjectName@gen@@YAPBDXZ		; gen::ObjectName
	push	eax
	push	OFFSET ??_C@_0BK@PCEHJOFI@gen?3?3InverseRotTransScale?$AA@
	mov	ecx, DWORD PTR _e$5[ebp]
	call	?AppendToCallStack@CFatalException@gen@@QAEXPBD0_N@Z ; gen::CFatalException::AppendToCallStack
	mov	eax, DWORD PTR _e$5[ebp]
	push	eax
	lea	ecx, DWORD PTR $T3[ebp]
	call	??0CFatalException@gen@@QAE@ABV01@@Z
	push	OFFSET __TI1?AVCFatalException@gen@@
	lea	ecx, DWORD PTR $T3[ebp]
	push	ecx
	call	__CxxThrowException@8
	mov	eax, $LN10@InverseRot
	ret	0
__catch$?InverseRotTransScale@gen@@YA?AVCMatrix4x4@1@ABV21@@Z$1:
	call	?ObjectName@gen@@YAPBDXZ		; gen::ObjectName
	push	eax
	push	OFFSET ??_C@_0BK@PCEHJOFI@gen?3?3InverseRotTransScale?$AA@
	push	OFFSET ??_C@_0EI@POGHFJCD@c?3?2users?2simon?2documents?2github?2@
	lea	ecx, DWORD PTR $T4[ebp]
	call	??0CFatalException@gen@@QAE@PBD00@Z	; gen::CFatalException::CFatalException
	push	OFFSET __TI1?AVCFatalException@gen@@
	lea	eax, DWORD PTR $T4[ebp]
	push	eax
	call	__CxxThrowException@8
	mov	eax, $LN12@InverseRot
	ret	0
	mov	DWORD PTR __$EHRec$[ebp+12], -1
	jmp	SHORT $LN11@InverseRot
$LN12@InverseRot:
	mov	DWORD PTR __$EHRec$[ebp+12], -1
	jmp	SHORT $LN9@InverseRot
$LN11@InverseRot:
	jmp	SHORT $LN9@InverseRot
$LN10@InverseRot:
	mov	DWORD PTR __$EHRec$[ebp+12], -1
$LN9@InverseRot:

; 1867 : }

	push	edx
	mov	ecx, ebp
	push	eax
	lea	edx, DWORD PTR $LN17@InverseRot
	call	@_RTC_CheckStackVars@8
	pop	eax
	pop	edx
	mov	ecx, DWORD PTR __$EHRec$[ebp+4]
	mov	DWORD PTR fs:0, ecx
	pop	ecx
	pop	edi
	pop	esi
	pop	ebx
	mov	ecx, DWORD PTR __$ArrayPad$[ebp]
	xor	ecx, ebp
	call	@__security_check_cookie@4
	add	esp, 660				; 00000294H
	cmp	ebp, esp
	call	__RTC_CheckEsp
	mov	esp, ebp
	pop	ebp
	ret	0
	npad	3
$LN17@InverseRot:
	DD	2
	DD	$LN16@InverseRot
$LN16@InverseRot:
	DD	-88					; ffffffa8H
	DD	64					; 00000040H
	DD	$LN13@InverseRot
	DD	-172					; ffffff54H
	DD	4
	DD	$LN14@InverseRot
$LN14@InverseRot:
	DB	101					; 00000065H
	DB	0
$LN13@InverseRot:
	DB	109					; 0000006dH
	DB	79					; 0000004fH
	DB	117					; 00000075H
	DB	116					; 00000074H
	DB	0
_TEXT	ENDS
;	COMDAT text$x
text$x	SEGMENT
__ehhandler$?InverseRotTransScale@gen@@YA?AVCMatrix4x4@1@ABV21@@Z:
	mov	edx, DWORD PTR [esp+8]
	lea	eax, DWORD PTR [edx+12]
	mov	ecx, DWORD PTR [edx-664]
	xor	ecx, eax
	call	@__security_check_cookie@4
	mov	ecx, DWORD PTR [edx-8]
	xor	ecx, eax
	call	@__security_check_cookie@4
	mov	eax, OFFSET __ehfuncinfo$?InverseRotTransScale@gen@@YA?AVCMatrix4x4@1@ABV21@@Z
	jmp	___CxxFrameHandler3
text$x	ENDS
?InverseRotTransScale@gen@@YA?AVCMatrix4x4@1@ABV21@@Z ENDP ; gen::InverseRotTransScale
; Function compile flags: /Odtp /RTCsu /ZI
; File c:\users\simon\documents\github\uclan-sparta\import\math\cmatrix4x4.cpp
;	COMDAT ?InverseRotTrans@gen@@YA?AVCMatrix4x4@1@ABV21@@Z
_TEXT	SEGMENT
_mOut$ = -68						; size = 64
___$ReturnUdt$ = 8					; size = 4
_m$ = 12						; size = 4
?InverseRotTrans@gen@@YA?AVCMatrix4x4@1@ABV21@@Z PROC	; gen::InverseRotTrans, COMDAT

; 1747 : {

	push	ebp
	mov	ebp, esp
	sub	esp, 264				; 00000108H
	push	ebx
	push	esi
	push	edi
	lea	edi, DWORD PTR [ebp-264]
	mov	ecx, 66					; 00000042H
	mov	eax, -858993460				; ccccccccH
	rep stosd

; 1748 : 	CMatrix4x4 mOut;

	lea	ecx, DWORD PTR _mOut$[ebp]
	call	??0CMatrix4x4@gen@@QAE@XZ		; gen::CMatrix4x4::CMatrix4x4

; 1749 : 
; 1750 : 	// Inverse of upper left 3x3 is just the transpose
; 1751 : 	mOut.e00 = m.e00;

	mov	eax, DWORD PTR _m$[ebp]
	movss	xmm0, DWORD PTR [eax]
	movss	DWORD PTR _mOut$[ebp], xmm0

; 1752 : 	mOut.e01 = m.e10;

	mov	eax, DWORD PTR _m$[ebp]
	movss	xmm0, DWORD PTR [eax+16]
	movss	DWORD PTR _mOut$[ebp+4], xmm0

; 1753 : 	mOut.e02 = m.e20;

	mov	eax, DWORD PTR _m$[ebp]
	movss	xmm0, DWORD PTR [eax+32]
	movss	DWORD PTR _mOut$[ebp+8], xmm0

; 1754 : 	mOut.e03 = 0.0f;

	movss	xmm0, DWORD PTR __real@00000000
	movss	DWORD PTR _mOut$[ebp+12], xmm0

; 1755 : 
; 1756 : 	mOut.e10 = m.e01;

	mov	eax, DWORD PTR _m$[ebp]
	movss	xmm0, DWORD PTR [eax+4]
	movss	DWORD PTR _mOut$[ebp+16], xmm0

; 1757 : 	mOut.e11 = m.e11;

	mov	eax, DWORD PTR _m$[ebp]
	movss	xmm0, DWORD PTR [eax+20]
	movss	DWORD PTR _mOut$[ebp+20], xmm0

; 1758 : 	mOut.e12 = m.e21;

	mov	eax, DWORD PTR _m$[ebp]
	movss	xmm0, DWORD PTR [eax+36]
	movss	DWORD PTR _mOut$[ebp+24], xmm0

; 1759 : 	mOut.e13 = 0.0f;

	movss	xmm0, DWORD PTR __real@00000000
	movss	DWORD PTR _mOut$[ebp+28], xmm0

; 1760 : 
; 1761 : 	mOut.e20 = m.e02;

	mov	eax, DWORD PTR _m$[ebp]
	movss	xmm0, DWORD PTR [eax+8]
	movss	DWORD PTR _mOut$[ebp+32], xmm0

; 1762 : 	mOut.e21 = m.e12;

	mov	eax, DWORD PTR _m$[ebp]
	movss	xmm0, DWORD PTR [eax+24]
	movss	DWORD PTR _mOut$[ebp+36], xmm0

; 1763 : 	mOut.e22 = m.e22;

	mov	eax, DWORD PTR _m$[ebp]
	movss	xmm0, DWORD PTR [eax+40]
	movss	DWORD PTR _mOut$[ebp+40], xmm0

; 1764 : 	mOut.e23 = 0.0f;

	movss	xmm0, DWORD PTR __real@00000000
	movss	DWORD PTR _mOut$[ebp+44], xmm0

; 1765 : 
; 1766 : 	// Transform negative translation by inverted 3x3 to get inverse
; 1767 : 	mOut.e30 = -m.e30*mOut.e00 - m.e31*mOut.e10 - m.e32*mOut.e20;

	mov	eax, DWORD PTR _m$[ebp]
	movss	xmm0, DWORD PTR [eax+48]
	xorps	xmm0, DWORD PTR __xmm@80000000800000008000000080000000
	mulss	xmm0, DWORD PTR _mOut$[ebp]
	mov	ecx, DWORD PTR _m$[ebp]
	movss	xmm1, DWORD PTR [ecx+52]
	mulss	xmm1, DWORD PTR _mOut$[ebp+16]
	subss	xmm0, xmm1
	mov	edx, DWORD PTR _m$[ebp]
	movss	xmm1, DWORD PTR [edx+56]
	mulss	xmm1, DWORD PTR _mOut$[ebp+32]
	subss	xmm0, xmm1
	movss	DWORD PTR _mOut$[ebp+48], xmm0

; 1768 : 	mOut.e31 = -m.e30*mOut.e01 - m.e31*mOut.e11 - m.e32*mOut.e21;

	mov	eax, DWORD PTR _m$[ebp]
	movss	xmm0, DWORD PTR [eax+48]
	xorps	xmm0, DWORD PTR __xmm@80000000800000008000000080000000
	mulss	xmm0, DWORD PTR _mOut$[ebp+4]
	mov	ecx, DWORD PTR _m$[ebp]
	movss	xmm1, DWORD PTR [ecx+52]
	mulss	xmm1, DWORD PTR _mOut$[ebp+20]
	subss	xmm0, xmm1
	mov	edx, DWORD PTR _m$[ebp]
	movss	xmm1, DWORD PTR [edx+56]
	mulss	xmm1, DWORD PTR _mOut$[ebp+36]
	subss	xmm0, xmm1
	movss	DWORD PTR _mOut$[ebp+52], xmm0

; 1769 : 	mOut.e32 = -m.e30*mOut.e02 - m.e31*mOut.e12 - m.e32*mOut.e22;

	mov	eax, DWORD PTR _m$[ebp]
	movss	xmm0, DWORD PTR [eax+48]
	xorps	xmm0, DWORD PTR __xmm@80000000800000008000000080000000
	mulss	xmm0, DWORD PTR _mOut$[ebp+8]
	mov	ecx, DWORD PTR _m$[ebp]
	movss	xmm1, DWORD PTR [ecx+52]
	mulss	xmm1, DWORD PTR _mOut$[ebp+24]
	subss	xmm0, xmm1
	mov	edx, DWORD PTR _m$[ebp]
	movss	xmm1, DWORD PTR [edx+56]
	mulss	xmm1, DWORD PTR _mOut$[ebp+40]
	subss	xmm0, xmm1
	movss	DWORD PTR _mOut$[ebp+56], xmm0

; 1770 : 	mOut.e33 = 1.0f;

	movss	xmm0, DWORD PTR __real@3f800000
	movss	DWORD PTR _mOut$[ebp+60], xmm0

; 1771 : 
; 1772 : 	return mOut;

	lea	eax, DWORD PTR _mOut$[ebp]
	push	eax
	mov	ecx, DWORD PTR ___$ReturnUdt$[ebp]
	call	??0CMatrix4x4@gen@@QAE@ABV01@@Z		; gen::CMatrix4x4::CMatrix4x4
	mov	eax, DWORD PTR ___$ReturnUdt$[ebp]

; 1773 : }

	push	edx
	mov	ecx, ebp
	push	eax
	lea	edx, DWORD PTR $LN5@InverseRot
	call	@_RTC_CheckStackVars@8
	pop	eax
	pop	edx
	pop	edi
	pop	esi
	pop	ebx
	add	esp, 264				; 00000108H
	cmp	ebp, esp
	call	__RTC_CheckEsp
	mov	esp, ebp
	pop	ebp
	ret	0
	npad	1
$LN5@InverseRot:
	DD	1
	DD	$LN4@InverseRot
$LN4@InverseRot:
	DD	-68					; ffffffbcH
	DD	64					; 00000040H
	DD	$LN3@InverseRot
$LN3@InverseRot:
	DB	109					; 0000006dH
	DB	79					; 0000004fH
	DB	117					; 00000075H
	DB	116					; 00000074H
	DB	0
?InverseRotTrans@gen@@YA?AVCMatrix4x4@1@ABV21@@Z ENDP	; gen::InverseRotTrans
_TEXT	ENDS
; Function compile flags: /Odtp /RTCsu /ZI
; File c:\users\simon\documents\github\uclan-sparta\import\math\cmatrix4x4.cpp
;	COMDAT ?Transpose@gen@@YA?AVCMatrix4x4@1@ABV21@@Z
_TEXT	SEGMENT
_transMat$ = -68					; size = 64
___$ReturnUdt$ = 8					; size = 4
_m$ = 12						; size = 4
?Transpose@gen@@YA?AVCMatrix4x4@1@ABV21@@Z PROC		; gen::Transpose, COMDAT

; 1689 : {

	push	ebp
	mov	ebp, esp
	sub	esp, 264				; 00000108H
	push	ebx
	push	esi
	push	edi
	lea	edi, DWORD PTR [ebp-264]
	mov	ecx, 66					; 00000042H
	mov	eax, -858993460				; ccccccccH
	rep stosd

; 1690 : 	CMatrix4x4 transMat;

	lea	ecx, DWORD PTR _transMat$[ebp]
	call	??0CMatrix4x4@gen@@QAE@XZ		; gen::CMatrix4x4::CMatrix4x4

; 1691 : 
; 1692 : 	transMat.e00 = m.e00;

	mov	eax, DWORD PTR _m$[ebp]
	movss	xmm0, DWORD PTR [eax]
	movss	DWORD PTR _transMat$[ebp], xmm0

; 1693 : 	transMat.e01 = m.e10;

	mov	eax, DWORD PTR _m$[ebp]
	movss	xmm0, DWORD PTR [eax+16]
	movss	DWORD PTR _transMat$[ebp+4], xmm0

; 1694 : 	transMat.e02 = m.e20;

	mov	eax, DWORD PTR _m$[ebp]
	movss	xmm0, DWORD PTR [eax+32]
	movss	DWORD PTR _transMat$[ebp+8], xmm0

; 1695 : 	transMat.e03 = m.e30;

	mov	eax, DWORD PTR _m$[ebp]
	movss	xmm0, DWORD PTR [eax+48]
	movss	DWORD PTR _transMat$[ebp+12], xmm0

; 1696 : 
; 1697 : 	transMat.e10 = m.e01;

	mov	eax, DWORD PTR _m$[ebp]
	movss	xmm0, DWORD PTR [eax+4]
	movss	DWORD PTR _transMat$[ebp+16], xmm0

; 1698 : 	transMat.e11 = m.e11;

	mov	eax, DWORD PTR _m$[ebp]
	movss	xmm0, DWORD PTR [eax+20]
	movss	DWORD PTR _transMat$[ebp+20], xmm0

; 1699 : 	transMat.e12 = m.e21;

	mov	eax, DWORD PTR _m$[ebp]
	movss	xmm0, DWORD PTR [eax+36]
	movss	DWORD PTR _transMat$[ebp+24], xmm0

; 1700 : 	transMat.e13 = m.e31;

	mov	eax, DWORD PTR _m$[ebp]
	movss	xmm0, DWORD PTR [eax+52]
	movss	DWORD PTR _transMat$[ebp+28], xmm0

; 1701 : 
; 1702 : 	transMat.e20 = m.e02;

	mov	eax, DWORD PTR _m$[ebp]
	movss	xmm0, DWORD PTR [eax+8]
	movss	DWORD PTR _transMat$[ebp+32], xmm0

; 1703 : 	transMat.e21 = m.e12;

	mov	eax, DWORD PTR _m$[ebp]
	movss	xmm0, DWORD PTR [eax+24]
	movss	DWORD PTR _transMat$[ebp+36], xmm0

; 1704 : 	transMat.e22 = m.e22;

	mov	eax, DWORD PTR _m$[ebp]
	movss	xmm0, DWORD PTR [eax+40]
	movss	DWORD PTR _transMat$[ebp+40], xmm0

; 1705 : 	transMat.e23 = m.e32;

	mov	eax, DWORD PTR _m$[ebp]
	movss	xmm0, DWORD PTR [eax+56]
	movss	DWORD PTR _transMat$[ebp+44], xmm0

; 1706 : 
; 1707 : 	transMat.e30 = m.e03;

	mov	eax, DWORD PTR _m$[ebp]
	movss	xmm0, DWORD PTR [eax+12]
	movss	DWORD PTR _transMat$[ebp+48], xmm0

; 1708 : 	transMat.e31 = m.e13;

	mov	eax, DWORD PTR _m$[ebp]
	movss	xmm0, DWORD PTR [eax+28]
	movss	DWORD PTR _transMat$[ebp+52], xmm0

; 1709 : 	transMat.e32 = m.e23;

	mov	eax, DWORD PTR _m$[ebp]
	movss	xmm0, DWORD PTR [eax+44]
	movss	DWORD PTR _transMat$[ebp+56], xmm0

; 1710 : 	transMat.e33 = m.e33;

	mov	eax, DWORD PTR _m$[ebp]
	movss	xmm0, DWORD PTR [eax+60]
	movss	DWORD PTR _transMat$[ebp+60], xmm0

; 1711 : 
; 1712 : 	return transMat;

	lea	eax, DWORD PTR _transMat$[ebp]
	push	eax
	mov	ecx, DWORD PTR ___$ReturnUdt$[ebp]
	call	??0CMatrix4x4@gen@@QAE@ABV01@@Z		; gen::CMatrix4x4::CMatrix4x4
	mov	eax, DWORD PTR ___$ReturnUdt$[ebp]

; 1713 : }

	push	edx
	mov	ecx, ebp
	push	eax
	lea	edx, DWORD PTR $LN5@Transpose
	call	@_RTC_CheckStackVars@8
	pop	eax
	pop	edx
	pop	edi
	pop	esi
	pop	ebx
	add	esp, 264				; 00000108H
	cmp	ebp, esp
	call	__RTC_CheckEsp
	mov	esp, ebp
	pop	ebp
	ret	0
	npad	3
$LN5@Transpose:
	DD	1
	DD	$LN4@Transpose
$LN4@Transpose:
	DD	-68					; ffffffbcH
	DD	64					; 00000040H
	DD	$LN3@Transpose
$LN3@Transpose:
	DB	116					; 00000074H
	DB	114					; 00000072H
	DB	97					; 00000061H
	DB	110					; 0000006eH
	DB	115					; 00000073H
	DB	77					; 0000004dH
	DB	97					; 00000061H
	DB	116					; 00000074H
	DB	0
?Transpose@gen@@YA?AVCMatrix4x4@1@ABV21@@Z ENDP		; gen::Transpose
_TEXT	ENDS
; Function compile flags: /Odtp /RTCsu /ZI
; File c:\users\simon\documents\github\uclan-sparta\import\math\cmatrix4x4.cpp
;	COMDAT ?Orthogonalise3x3@gen@@YA?AVCMatrix4x4@1@ABV21@ABVCVector3@1@@Z
_TEXT	SEGMENT
tv256 = -744						; size = 4
tv254 = -744						; size = 4
tv255 = -741						; size = 1
tv253 = -741						; size = 1
$T2 = -736						; size = 88
$T3 = -640						; size = 88
$T4 = -544						; size = 88
$T5 = -448						; size = 88
_e$6 = -160						; size = 4
_invOrigScaleY$7 = -148					; size = 4
_origScaleY$8 = -136					; size = 4
_proj10$9 = -124					; size = 4
_invOrigScaleX$10 = -112				; size = 4
_origScaleX$11 = -100					; size = 4
_mOut$12 = -88						; size = 64
__$ArrayPad$ = -20					; size = 4
__$EHRec$ = -16						; size = 16
___$ReturnUdt$ = 8					; size = 4
_m$ = 12						; size = 4
_scale$ = 16						; size = 4
?Orthogonalise3x3@gen@@YA?AVCMatrix4x4@1@ABV21@ABVCVector3@1@@Z PROC ; gen::Orthogonalise3x3, COMDAT

; 1591 : {

	push	ebp
	mov	ebp, esp
	push	-1
	push	__ehhandler$?Orthogonalise3x3@gen@@YA?AVCMatrix4x4@1@ABV21@ABVCVector3@1@@Z
	mov	eax, DWORD PTR fs:0
	push	eax
	push	ecx
	sub	esp, 728				; 000002d8H
	push	ebx
	push	esi
	push	edi
	lea	edi, DWORD PTR [ebp-744]
	mov	ecx, 182				; 000000b6H
	mov	eax, -858993460				; ccccccccH
	rep stosd
	mov	eax, DWORD PTR ___security_cookie
	xor	eax, ebp
	mov	DWORD PTR __$ArrayPad$[ebp], eax
	push	eax
	lea	eax, DWORD PTR __$EHRec$[ebp+4]
	mov	DWORD PTR fs:0, eax
	mov	DWORD PTR __$EHRec$[ebp], esp

; 1592 : 	GEN_GUARD;

	mov	DWORD PTR __$EHRec$[ebp+12], 0

; 1593 : 
; 1594 : 	CMatrix4x4 mOut;

	lea	ecx, DWORD PTR _mOut$12[ebp]
	call	??0CMatrix4x4@gen@@QAE@XZ		; gen::CMatrix4x4::CMatrix4x4

; 1595 : 
; 1596 : 	// Normalise first vector (x-axis)
; 1597 : 	TFloat32 origScaleX = m.e00*m.e00 + m.e01*m.e01 + m.e02*m.e02;

	mov	eax, DWORD PTR _m$[ebp]
	mov	ecx, DWORD PTR _m$[ebp]
	movss	xmm0, DWORD PTR [eax+8]
	mulss	xmm0, DWORD PTR [ecx+8]
	mov	edx, DWORD PTR _m$[ebp]
	mov	eax, DWORD PTR _m$[ebp]
	movss	xmm1, DWORD PTR [edx+4]
	mulss	xmm1, DWORD PTR [eax+4]
	mov	ecx, DWORD PTR _m$[ebp]
	mov	edx, DWORD PTR _m$[ebp]
	movss	xmm2, DWORD PTR [ecx]
	mulss	xmm2, DWORD PTR [edx]
	addss	xmm2, xmm1
	addss	xmm2, xmm0
	movss	DWORD PTR _origScaleX$11[ebp], xmm2

; 1598 : 	GEN_ASSERT( !IsZero(origScaleX), "Singular matrix" );

	push	ecx
	movss	xmm0, DWORD PTR _kfEpsilon
	movss	DWORD PTR [esp], xmm0
	push	ecx
	movss	xmm0, DWORD PTR _origScaleX$11[ebp]
	movss	DWORD PTR [esp], xmm0
	call	?IsZero@gen@@YA_NMM@Z			; gen::IsZero
	add	esp, 8
	mov	BYTE PTR tv253[ebp], al
	movzx	eax, BYTE PTR tv253[ebp]
	test	eax, eax
	je	SHORT $LN2@Orthogonal
	mov	eax, DWORD PTR ?__LINE__Var@?1??Orthogonalise3x3@gen@@YA?AVCMatrix4x4@2@ABV32@ABVCVector3@2@@Z@4JA
	add	eax, 7
	push	eax
	push	OFFSET ??_C@_0EI@POGHFJCD@c?3?2users?2simon?2documents?2github?2@
	push	OFFSET ??_C@_0BA@EJDDFENM@Singular?5matrix?$AA@
	lea	ecx, DWORD PTR $T2[ebp]
	call	??0CFatalException@gen@@QAE@PBD0H@Z	; gen::CFatalException::CFatalException
	push	OFFSET __TI1?AVCFatalException@gen@@
	lea	ecx, DWORD PTR $T2[ebp]
	push	ecx
	call	__CxxThrowException@8
$LN2@Orthogonal:

; 1599 : 	TFloat32 invOrigScaleX = InvSqrt( origScaleX );

	push	ecx
	movss	xmm0, DWORD PTR _origScaleX$11[ebp]
	movss	DWORD PTR [esp], xmm0
	call	?InvSqrt@gen@@YAMM@Z			; gen::InvSqrt
	add	esp, 4
	fstp	DWORD PTR tv254[ebp]
	movss	xmm0, DWORD PTR tv254[ebp]
	movss	DWORD PTR _invOrigScaleX$10[ebp], xmm0

; 1600 : 	mOut.e00 = m.e00 * invOrigScaleX;

	mov	eax, DWORD PTR _m$[ebp]
	movss	xmm0, DWORD PTR [eax]
	mulss	xmm0, DWORD PTR _invOrigScaleX$10[ebp]
	movss	DWORD PTR _mOut$12[ebp], xmm0

; 1601 : 	mOut.e01 = m.e01 * invOrigScaleX;

	mov	eax, DWORD PTR _m$[ebp]
	movss	xmm0, DWORD PTR [eax+4]
	mulss	xmm0, DWORD PTR _invOrigScaleX$10[ebp]
	movss	DWORD PTR _mOut$12[ebp+4], xmm0

; 1602 : 	mOut.e02 = m.e02 * invOrigScaleX;

	mov	eax, DWORD PTR _m$[ebp]
	movss	xmm0, DWORD PTR [eax+8]
	mulss	xmm0, DWORD PTR _invOrigScaleX$10[ebp]
	movss	DWORD PTR _mOut$12[ebp+8], xmm0

; 1603 : 	mOut.e03 = m.e03;

	mov	eax, DWORD PTR _m$[ebp]
	movss	xmm0, DWORD PTR [eax+12]
	movss	DWORD PTR _mOut$12[ebp+12], xmm0

; 1604 : 
; 1605 : 	// Orthogonalise second vector (y-axis) with first
; 1606 : 	TFloat32 proj10 = m.e10*mOut.e00 + m.e11*mOut.e01 + m.e12*mOut.e02;

	mov	eax, DWORD PTR _m$[ebp]
	movss	xmm0, DWORD PTR [eax+24]
	mulss	xmm0, DWORD PTR _mOut$12[ebp+8]
	mov	ecx, DWORD PTR _m$[ebp]
	movss	xmm1, DWORD PTR [ecx+20]
	mulss	xmm1, DWORD PTR _mOut$12[ebp+4]
	mov	edx, DWORD PTR _m$[ebp]
	movss	xmm2, DWORD PTR [edx+16]
	mulss	xmm2, DWORD PTR _mOut$12[ebp]
	addss	xmm2, xmm1
	addss	xmm2, xmm0
	movss	DWORD PTR _proj10$9[ebp], xmm2

; 1607 : 	mOut.e10 = m.e10 - proj10 * mOut.e00;

	movss	xmm0, DWORD PTR _proj10$9[ebp]
	mulss	xmm0, DWORD PTR _mOut$12[ebp]
	mov	eax, DWORD PTR _m$[ebp]
	movss	xmm1, DWORD PTR [eax+16]
	subss	xmm1, xmm0
	movss	DWORD PTR _mOut$12[ebp+16], xmm1

; 1608 : 	mOut.e11 = m.e11 - proj10 * mOut.e01;

	movss	xmm0, DWORD PTR _proj10$9[ebp]
	mulss	xmm0, DWORD PTR _mOut$12[ebp+4]
	mov	eax, DWORD PTR _m$[ebp]
	movss	xmm1, DWORD PTR [eax+20]
	subss	xmm1, xmm0
	movss	DWORD PTR _mOut$12[ebp+20], xmm1

; 1609 : 	mOut.e12 = m.e12 - proj10 * mOut.e02;

	movss	xmm0, DWORD PTR _proj10$9[ebp]
	mulss	xmm0, DWORD PTR _mOut$12[ebp+8]
	mov	eax, DWORD PTR _m$[ebp]
	movss	xmm1, DWORD PTR [eax+24]
	subss	xmm1, xmm0
	movss	DWORD PTR _mOut$12[ebp+24], xmm1

; 1610 : 	mOut.e13 = m.e13;

	mov	eax, DWORD PTR _m$[ebp]
	movss	xmm0, DWORD PTR [eax+28]
	movss	DWORD PTR _mOut$12[ebp+28], xmm0

; 1611 : 
; 1612 : 	// Normalise second vector
; 1613 : 	TFloat32 origScaleY = mOut.e10*mOut.e10 + mOut.e11*mOut.e11 + mOut.e12*mOut.e12;

	movss	xmm0, DWORD PTR _mOut$12[ebp+24]
	mulss	xmm0, DWORD PTR _mOut$12[ebp+24]
	movss	xmm1, DWORD PTR _mOut$12[ebp+20]
	mulss	xmm1, DWORD PTR _mOut$12[ebp+20]
	movss	xmm2, DWORD PTR _mOut$12[ebp+16]
	mulss	xmm2, DWORD PTR _mOut$12[ebp+16]
	addss	xmm2, xmm1
	addss	xmm2, xmm0
	movss	DWORD PTR _origScaleY$8[ebp], xmm2

; 1614 : 	GEN_ASSERT( !IsZero(origScaleY), "Singular matrix" );

	push	ecx
	movss	xmm0, DWORD PTR _kfEpsilon
	movss	DWORD PTR [esp], xmm0
	push	ecx
	movss	xmm0, DWORD PTR _origScaleY$8[ebp]
	movss	DWORD PTR [esp], xmm0
	call	?IsZero@gen@@YA_NMM@Z			; gen::IsZero
	add	esp, 8
	mov	BYTE PTR tv255[ebp], al
	movzx	eax, BYTE PTR tv255[ebp]
	test	eax, eax
	je	SHORT $LN1@Orthogonal
	mov	eax, DWORD PTR ?__LINE__Var@?1??Orthogonalise3x3@gen@@YA?AVCMatrix4x4@2@ABV32@ABVCVector3@2@@Z@4JA
	add	eax, 23					; 00000017H
	push	eax
	push	OFFSET ??_C@_0EI@POGHFJCD@c?3?2users?2simon?2documents?2github?2@
	push	OFFSET ??_C@_0BA@EJDDFENM@Singular?5matrix?$AA@
	lea	ecx, DWORD PTR $T3[ebp]
	call	??0CFatalException@gen@@QAE@PBD0H@Z	; gen::CFatalException::CFatalException
	push	OFFSET __TI1?AVCFatalException@gen@@
	lea	ecx, DWORD PTR $T3[ebp]
	push	ecx
	call	__CxxThrowException@8
$LN1@Orthogonal:

; 1615 : 	TFloat32 invOrigScaleY = InvSqrt( origScaleY );

	push	ecx
	movss	xmm0, DWORD PTR _origScaleY$8[ebp]
	movss	DWORD PTR [esp], xmm0
	call	?InvSqrt@gen@@YAMM@Z			; gen::InvSqrt
	add	esp, 4
	fstp	DWORD PTR tv256[ebp]
	movss	xmm0, DWORD PTR tv256[ebp]
	movss	DWORD PTR _invOrigScaleY$7[ebp], xmm0

; 1616 : 	mOut.e10 *= invOrigScaleY;

	movss	xmm0, DWORD PTR _mOut$12[ebp+16]
	mulss	xmm0, DWORD PTR _invOrigScaleY$7[ebp]
	movss	DWORD PTR _mOut$12[ebp+16], xmm0

; 1617 : 	mOut.e11 *= invOrigScaleY;

	movss	xmm0, DWORD PTR _mOut$12[ebp+20]
	mulss	xmm0, DWORD PTR _invOrigScaleY$7[ebp]
	movss	DWORD PTR _mOut$12[ebp+20], xmm0

; 1618 : 	mOut.e12 *= invOrigScaleY;

	movss	xmm0, DWORD PTR _mOut$12[ebp+24]
	mulss	xmm0, DWORD PTR _invOrigScaleY$7[ebp]
	movss	DWORD PTR _mOut$12[ebp+24], xmm0

; 1619 : 
; 1620 : 	// Get third vector from cross product of first two (result is already normalised)
; 1621 : 	mOut.e20 = mOut.e01*mOut.e12 - mOut.e02*mOut.e11;

	movss	xmm0, DWORD PTR _mOut$12[ebp+8]
	mulss	xmm0, DWORD PTR _mOut$12[ebp+20]
	movss	xmm1, DWORD PTR _mOut$12[ebp+4]
	mulss	xmm1, DWORD PTR _mOut$12[ebp+24]
	subss	xmm1, xmm0
	movss	DWORD PTR _mOut$12[ebp+32], xmm1

; 1622 : 	mOut.e21 = mOut.e02*mOut.e10 - mOut.e00*mOut.e12;

	movss	xmm0, DWORD PTR _mOut$12[ebp]
	mulss	xmm0, DWORD PTR _mOut$12[ebp+24]
	movss	xmm1, DWORD PTR _mOut$12[ebp+8]
	mulss	xmm1, DWORD PTR _mOut$12[ebp+16]
	subss	xmm1, xmm0
	movss	DWORD PTR _mOut$12[ebp+36], xmm1

; 1623 : 	mOut.e22 = mOut.e00*mOut.e11 - mOut.e01*mOut.e10;

	movss	xmm0, DWORD PTR _mOut$12[ebp+4]
	mulss	xmm0, DWORD PTR _mOut$12[ebp+16]
	movss	xmm1, DWORD PTR _mOut$12[ebp]
	mulss	xmm1, DWORD PTR _mOut$12[ebp+20]
	subss	xmm1, xmm0
	movss	DWORD PTR _mOut$12[ebp+40], xmm1

; 1624 : 	mOut.e23 = m.e23;

	mov	eax, DWORD PTR _m$[ebp]
	movss	xmm0, DWORD PTR [eax+44]
	movss	DWORD PTR _mOut$12[ebp+44], xmm0

; 1625 : 	
; 1626 : 	// Rescale each vector
; 1627 : 	mOut.e00 *= scale.x;

	mov	eax, DWORD PTR _scale$[ebp]
	movss	xmm0, DWORD PTR _mOut$12[ebp]
	mulss	xmm0, DWORD PTR [eax]
	movss	DWORD PTR _mOut$12[ebp], xmm0

; 1628 : 	mOut.e01 *= scale.x;

	mov	eax, DWORD PTR _scale$[ebp]
	movss	xmm0, DWORD PTR _mOut$12[ebp+4]
	mulss	xmm0, DWORD PTR [eax]
	movss	DWORD PTR _mOut$12[ebp+4], xmm0

; 1629 : 	mOut.e02 *= scale.x;

	mov	eax, DWORD PTR _scale$[ebp]
	movss	xmm0, DWORD PTR _mOut$12[ebp+8]
	mulss	xmm0, DWORD PTR [eax]
	movss	DWORD PTR _mOut$12[ebp+8], xmm0

; 1630 : 
; 1631 : 	mOut.e10 *= scale.y;

	mov	eax, DWORD PTR _scale$[ebp]
	movss	xmm0, DWORD PTR _mOut$12[ebp+16]
	mulss	xmm0, DWORD PTR [eax+4]
	movss	DWORD PTR _mOut$12[ebp+16], xmm0

; 1632 : 	mOut.e11 *= scale.y;

	mov	eax, DWORD PTR _scale$[ebp]
	movss	xmm0, DWORD PTR _mOut$12[ebp+20]
	mulss	xmm0, DWORD PTR [eax+4]
	movss	DWORD PTR _mOut$12[ebp+20], xmm0

; 1633 : 	mOut.e12 *= scale.y;

	mov	eax, DWORD PTR _scale$[ebp]
	movss	xmm0, DWORD PTR _mOut$12[ebp+24]
	mulss	xmm0, DWORD PTR [eax+4]
	movss	DWORD PTR _mOut$12[ebp+24], xmm0

; 1634 : 
; 1635 : 	mOut.e20 *= scale.z;

	mov	eax, DWORD PTR _scale$[ebp]
	movss	xmm0, DWORD PTR _mOut$12[ebp+32]
	mulss	xmm0, DWORD PTR [eax+8]
	movss	DWORD PTR _mOut$12[ebp+32], xmm0

; 1636 : 	mOut.e21 *= scale.z;

	mov	eax, DWORD PTR _scale$[ebp]
	movss	xmm0, DWORD PTR _mOut$12[ebp+36]
	mulss	xmm0, DWORD PTR [eax+8]
	movss	DWORD PTR _mOut$12[ebp+36], xmm0

; 1637 : 	mOut.e22 *= scale.z;

	mov	eax, DWORD PTR _scale$[ebp]
	movss	xmm0, DWORD PTR _mOut$12[ebp+40]
	mulss	xmm0, DWORD PTR [eax+8]
	movss	DWORD PTR _mOut$12[ebp+40], xmm0

; 1638 : 
; 1639 : 	// Copy fourth row
; 1640 : 	mOut.e30 = m.e30;

	mov	eax, DWORD PTR _m$[ebp]
	movss	xmm0, DWORD PTR [eax+48]
	movss	DWORD PTR _mOut$12[ebp+48], xmm0

; 1641 : 	mOut.e31 = m.e31;

	mov	eax, DWORD PTR _m$[ebp]
	movss	xmm0, DWORD PTR [eax+52]
	movss	DWORD PTR _mOut$12[ebp+52], xmm0

; 1642 : 	mOut.e32 = m.e32;

	mov	eax, DWORD PTR _m$[ebp]
	movss	xmm0, DWORD PTR [eax+56]
	movss	DWORD PTR _mOut$12[ebp+56], xmm0

; 1643 : 	mOut.e33 = m.e33;

	mov	eax, DWORD PTR _m$[ebp]
	movss	xmm0, DWORD PTR [eax+60]
	movss	DWORD PTR _mOut$12[ebp+60], xmm0

; 1644 : 
; 1645 : 	return mOut;

	lea	eax, DWORD PTR _mOut$12[ebp]
	push	eax
	mov	ecx, DWORD PTR ___$ReturnUdt$[ebp]
	call	??0CMatrix4x4@gen@@QAE@ABV01@@Z		; gen::CMatrix4x4::CMatrix4x4
	mov	eax, DWORD PTR ___$ReturnUdt$[ebp]
	jmp	$LN9@Orthogonal
__catch$?Orthogonalise3x3@gen@@YA?AVCMatrix4x4@1@ABV21@ABVCVector3@1@@Z$0:

; 1646 : 
; 1647 : 	GEN_ENDGUARD;

	push	0
	call	?ObjectName@gen@@YAPBDXZ		; gen::ObjectName
	push	eax
	push	OFFSET ??_C@_0BG@EKHHHFFK@gen?3?3Orthogonalise3x3?$AA@
	mov	ecx, DWORD PTR _e$6[ebp]
	call	?AppendToCallStack@CFatalException@gen@@QAEXPBD0_N@Z ; gen::CFatalException::AppendToCallStack
	mov	eax, DWORD PTR _e$6[ebp]
	push	eax
	lea	ecx, DWORD PTR $T4[ebp]
	call	??0CFatalException@gen@@QAE@ABV01@@Z
	push	OFFSET __TI1?AVCFatalException@gen@@
	lea	ecx, DWORD PTR $T4[ebp]
	push	ecx
	call	__CxxThrowException@8
	mov	eax, $LN10@Orthogonal
	ret	0
__catch$?Orthogonalise3x3@gen@@YA?AVCMatrix4x4@1@ABV21@ABVCVector3@1@@Z$1:
	call	?ObjectName@gen@@YAPBDXZ		; gen::ObjectName
	push	eax
	push	OFFSET ??_C@_0BG@EKHHHFFK@gen?3?3Orthogonalise3x3?$AA@
	push	OFFSET ??_C@_0EI@POGHFJCD@c?3?2users?2simon?2documents?2github?2@
	lea	ecx, DWORD PTR $T5[ebp]
	call	??0CFatalException@gen@@QAE@PBD00@Z	; gen::CFatalException::CFatalException
	push	OFFSET __TI1?AVCFatalException@gen@@
	lea	eax, DWORD PTR $T5[ebp]
	push	eax
	call	__CxxThrowException@8
	mov	eax, $LN12@Orthogonal
	ret	0
	mov	DWORD PTR __$EHRec$[ebp+12], -1
	jmp	SHORT $LN11@Orthogonal
$LN12@Orthogonal:
	mov	DWORD PTR __$EHRec$[ebp+12], -1
	jmp	SHORT $LN9@Orthogonal
$LN11@Orthogonal:
	jmp	SHORT $LN9@Orthogonal
$LN10@Orthogonal:
	mov	DWORD PTR __$EHRec$[ebp+12], -1
$LN9@Orthogonal:

; 1648 : }

	push	edx
	mov	ecx, ebp
	push	eax
	lea	edx, DWORD PTR $LN17@Orthogonal
	call	@_RTC_CheckStackVars@8
	pop	eax
	pop	edx
	mov	ecx, DWORD PTR __$EHRec$[ebp+4]
	mov	DWORD PTR fs:0, ecx
	pop	ecx
	pop	edi
	pop	esi
	pop	ebx
	mov	ecx, DWORD PTR __$ArrayPad$[ebp]
	xor	ecx, ebp
	call	@__security_check_cookie@4
	add	esp, 744				; 000002e8H
	cmp	ebp, esp
	call	__RTC_CheckEsp
	mov	esp, ebp
	pop	ebp
	ret	0
$LN17@Orthogonal:
	DD	2
	DD	$LN16@Orthogonal
$LN16@Orthogonal:
	DD	-88					; ffffffa8H
	DD	64					; 00000040H
	DD	$LN13@Orthogonal
	DD	-160					; ffffff60H
	DD	4
	DD	$LN14@Orthogonal
$LN14@Orthogonal:
	DB	101					; 00000065H
	DB	0
$LN13@Orthogonal:
	DB	109					; 0000006dH
	DB	79					; 0000004fH
	DB	117					; 00000075H
	DB	116					; 00000074H
	DB	0
_TEXT	ENDS
;	COMDAT text$x
text$x	SEGMENT
__ehhandler$?Orthogonalise3x3@gen@@YA?AVCMatrix4x4@1@ABV21@ABVCVector3@1@@Z:
	mov	edx, DWORD PTR [esp+8]
	lea	eax, DWORD PTR [edx+12]
	mov	ecx, DWORD PTR [edx-748]
	xor	ecx, eax
	call	@__security_check_cookie@4
	mov	ecx, DWORD PTR [edx-8]
	xor	ecx, eax
	call	@__security_check_cookie@4
	mov	eax, OFFSET __ehfuncinfo$?Orthogonalise3x3@gen@@YA?AVCMatrix4x4@1@ABV21@ABVCVector3@1@@Z
	jmp	___CxxFrameHandler3
text$x	ENDS
?Orthogonalise3x3@gen@@YA?AVCMatrix4x4@1@ABV21@ABVCVector3@1@@Z ENDP ; gen::Orthogonalise3x3
; Function compile flags: /Odtp /RTCsu /ZI
; File c:\users\simon\documents\github\uclan-sparta\import\math\cmatrix4x4.cpp
;	COMDAT ?MultiplyAffine@gen@@YA?AVCMatrix4x4@1@ABV21@0@Z
_TEXT	SEGMENT
_mOut$ = -68						; size = 64
___$ReturnUdt$ = 8					; size = 4
_m1$ = 12						; size = 4
_m2$ = 16						; size = 4
?MultiplyAffine@gen@@YA?AVCMatrix4x4@1@ABV21@0@Z PROC	; gen::MultiplyAffine, COMDAT

; 3312 : {

	push	ebp
	mov	ebp, esp
	sub	esp, 264				; 00000108H
	push	ebx
	push	esi
	push	edi
	lea	edi, DWORD PTR [ebp-264]
	mov	ecx, 66					; 00000042H
	mov	eax, -858993460				; ccccccccH
	rep stosd

; 3313 : 	CMatrix4x4 mOut;

	lea	ecx, DWORD PTR _mOut$[ebp]
	call	??0CMatrix4x4@gen@@QAE@XZ		; gen::CMatrix4x4::CMatrix4x4

; 3314 : 
; 3315 : 	mOut.e00 = m1.e00*m2.e00 + m1.e01*m2.e10 + m1.e02*m2.e20;

	mov	eax, DWORD PTR _m1$[ebp]
	mov	ecx, DWORD PTR _m2$[ebp]
	movss	xmm0, DWORD PTR [eax]
	mulss	xmm0, DWORD PTR [ecx]
	mov	edx, DWORD PTR _m1$[ebp]
	mov	eax, DWORD PTR _m2$[ebp]
	movss	xmm1, DWORD PTR [edx+4]
	mulss	xmm1, DWORD PTR [eax+16]
	addss	xmm0, xmm1
	mov	ecx, DWORD PTR _m1$[ebp]
	mov	edx, DWORD PTR _m2$[ebp]
	movss	xmm1, DWORD PTR [ecx+8]
	mulss	xmm1, DWORD PTR [edx+32]
	addss	xmm0, xmm1
	movss	DWORD PTR _mOut$[ebp], xmm0

; 3316 : 	mOut.e01 = m1.e00*m2.e01 + m1.e01*m2.e11 + m1.e02*m2.e21;

	mov	eax, DWORD PTR _m1$[ebp]
	mov	ecx, DWORD PTR _m2$[ebp]
	movss	xmm0, DWORD PTR [eax]
	mulss	xmm0, DWORD PTR [ecx+4]
	mov	edx, DWORD PTR _m1$[ebp]
	mov	eax, DWORD PTR _m2$[ebp]
	movss	xmm1, DWORD PTR [edx+4]
	mulss	xmm1, DWORD PTR [eax+20]
	addss	xmm0, xmm1
	mov	ecx, DWORD PTR _m1$[ebp]
	mov	edx, DWORD PTR _m2$[ebp]
	movss	xmm1, DWORD PTR [ecx+8]
	mulss	xmm1, DWORD PTR [edx+36]
	addss	xmm0, xmm1
	movss	DWORD PTR _mOut$[ebp+4], xmm0

; 3317 : 	mOut.e02 = m1.e00*m2.e02 + m1.e01*m2.e12 + m1.e02*m2.e22;

	mov	eax, DWORD PTR _m1$[ebp]
	mov	ecx, DWORD PTR _m2$[ebp]
	movss	xmm0, DWORD PTR [eax]
	mulss	xmm0, DWORD PTR [ecx+8]
	mov	edx, DWORD PTR _m1$[ebp]
	mov	eax, DWORD PTR _m2$[ebp]
	movss	xmm1, DWORD PTR [edx+4]
	mulss	xmm1, DWORD PTR [eax+24]
	addss	xmm0, xmm1
	mov	ecx, DWORD PTR _m1$[ebp]
	mov	edx, DWORD PTR _m2$[ebp]
	movss	xmm1, DWORD PTR [ecx+8]
	mulss	xmm1, DWORD PTR [edx+40]
	addss	xmm0, xmm1
	movss	DWORD PTR _mOut$[ebp+8], xmm0

; 3318 : 	mOut.e03 = 0.0f;

	movss	xmm0, DWORD PTR __real@00000000
	movss	DWORD PTR _mOut$[ebp+12], xmm0

; 3319 : 
; 3320 : 	mOut.e10 = m1.e10*m2.e00 + m1.e11*m2.e10 + m1.e12*m2.e20;

	mov	eax, DWORD PTR _m1$[ebp]
	mov	ecx, DWORD PTR _m2$[ebp]
	movss	xmm0, DWORD PTR [eax+16]
	mulss	xmm0, DWORD PTR [ecx]
	mov	edx, DWORD PTR _m1$[ebp]
	mov	eax, DWORD PTR _m2$[ebp]
	movss	xmm1, DWORD PTR [edx+20]
	mulss	xmm1, DWORD PTR [eax+16]
	addss	xmm0, xmm1
	mov	ecx, DWORD PTR _m1$[ebp]
	mov	edx, DWORD PTR _m2$[ebp]
	movss	xmm1, DWORD PTR [ecx+24]
	mulss	xmm1, DWORD PTR [edx+32]
	addss	xmm0, xmm1
	movss	DWORD PTR _mOut$[ebp+16], xmm0

; 3321 : 	mOut.e11 = m1.e10*m2.e01 + m1.e11*m2.e11 + m1.e12*m2.e21;

	mov	eax, DWORD PTR _m1$[ebp]
	mov	ecx, DWORD PTR _m2$[ebp]
	movss	xmm0, DWORD PTR [eax+16]
	mulss	xmm0, DWORD PTR [ecx+4]
	mov	edx, DWORD PTR _m1$[ebp]
	mov	eax, DWORD PTR _m2$[ebp]
	movss	xmm1, DWORD PTR [edx+20]
	mulss	xmm1, DWORD PTR [eax+20]
	addss	xmm0, xmm1
	mov	ecx, DWORD PTR _m1$[ebp]
	mov	edx, DWORD PTR _m2$[ebp]
	movss	xmm1, DWORD PTR [ecx+24]
	mulss	xmm1, DWORD PTR [edx+36]
	addss	xmm0, xmm1
	movss	DWORD PTR _mOut$[ebp+20], xmm0

; 3322 : 	mOut.e12 = m1.e10*m2.e02 + m1.e11*m2.e12 + m1.e12*m2.e22;

	mov	eax, DWORD PTR _m1$[ebp]
	mov	ecx, DWORD PTR _m2$[ebp]
	movss	xmm0, DWORD PTR [eax+16]
	mulss	xmm0, DWORD PTR [ecx+8]
	mov	edx, DWORD PTR _m1$[ebp]
	mov	eax, DWORD PTR _m2$[ebp]
	movss	xmm1, DWORD PTR [edx+20]
	mulss	xmm1, DWORD PTR [eax+24]
	addss	xmm0, xmm1
	mov	ecx, DWORD PTR _m1$[ebp]
	mov	edx, DWORD PTR _m2$[ebp]
	movss	xmm1, DWORD PTR [ecx+24]
	mulss	xmm1, DWORD PTR [edx+40]
	addss	xmm0, xmm1
	movss	DWORD PTR _mOut$[ebp+24], xmm0

; 3323 : 	mOut.e13 = 0.0f;

	movss	xmm0, DWORD PTR __real@00000000
	movss	DWORD PTR _mOut$[ebp+28], xmm0

; 3324 : 
; 3325 : 	mOut.e20 = m1.e20*m2.e00 + m1.e21*m2.e10 + m1.e22*m2.e20;

	mov	eax, DWORD PTR _m1$[ebp]
	mov	ecx, DWORD PTR _m2$[ebp]
	movss	xmm0, DWORD PTR [eax+32]
	mulss	xmm0, DWORD PTR [ecx]
	mov	edx, DWORD PTR _m1$[ebp]
	mov	eax, DWORD PTR _m2$[ebp]
	movss	xmm1, DWORD PTR [edx+36]
	mulss	xmm1, DWORD PTR [eax+16]
	addss	xmm0, xmm1
	mov	ecx, DWORD PTR _m1$[ebp]
	mov	edx, DWORD PTR _m2$[ebp]
	movss	xmm1, DWORD PTR [ecx+40]
	mulss	xmm1, DWORD PTR [edx+32]
	addss	xmm0, xmm1
	movss	DWORD PTR _mOut$[ebp+32], xmm0

; 3326 : 	mOut.e21 = m1.e20*m2.e01 + m1.e21*m2.e11 + m1.e22*m2.e21;

	mov	eax, DWORD PTR _m1$[ebp]
	mov	ecx, DWORD PTR _m2$[ebp]
	movss	xmm0, DWORD PTR [eax+32]
	mulss	xmm0, DWORD PTR [ecx+4]
	mov	edx, DWORD PTR _m1$[ebp]
	mov	eax, DWORD PTR _m2$[ebp]
	movss	xmm1, DWORD PTR [edx+36]
	mulss	xmm1, DWORD PTR [eax+20]
	addss	xmm0, xmm1
	mov	ecx, DWORD PTR _m1$[ebp]
	mov	edx, DWORD PTR _m2$[ebp]
	movss	xmm1, DWORD PTR [ecx+40]
	mulss	xmm1, DWORD PTR [edx+36]
	addss	xmm0, xmm1
	movss	DWORD PTR _mOut$[ebp+36], xmm0

; 3327 : 	mOut.e22 = m1.e20*m2.e02 + m1.e21*m2.e12 + m1.e22*m2.e22;

	mov	eax, DWORD PTR _m1$[ebp]
	mov	ecx, DWORD PTR _m2$[ebp]
	movss	xmm0, DWORD PTR [eax+32]
	mulss	xmm0, DWORD PTR [ecx+8]
	mov	edx, DWORD PTR _m1$[ebp]
	mov	eax, DWORD PTR _m2$[ebp]
	movss	xmm1, DWORD PTR [edx+36]
	mulss	xmm1, DWORD PTR [eax+24]
	addss	xmm0, xmm1
	mov	ecx, DWORD PTR _m1$[ebp]
	mov	edx, DWORD PTR _m2$[ebp]
	movss	xmm1, DWORD PTR [ecx+40]
	mulss	xmm1, DWORD PTR [edx+40]
	addss	xmm0, xmm1
	movss	DWORD PTR _mOut$[ebp+40], xmm0

; 3328 : 	mOut.e23 = 0.0f;

	movss	xmm0, DWORD PTR __real@00000000
	movss	DWORD PTR _mOut$[ebp+44], xmm0

; 3329 : 
; 3330 : 	mOut.e30 = m1.e30*m2.e00 + m1.e31*m2.e10 + m1.e32*m2.e20 + m2.e30;

	mov	eax, DWORD PTR _m1$[ebp]
	mov	ecx, DWORD PTR _m2$[ebp]
	movss	xmm0, DWORD PTR [eax+48]
	mulss	xmm0, DWORD PTR [ecx]
	mov	edx, DWORD PTR _m1$[ebp]
	mov	eax, DWORD PTR _m2$[ebp]
	movss	xmm1, DWORD PTR [edx+52]
	mulss	xmm1, DWORD PTR [eax+16]
	addss	xmm0, xmm1
	mov	ecx, DWORD PTR _m1$[ebp]
	mov	edx, DWORD PTR _m2$[ebp]
	movss	xmm1, DWORD PTR [ecx+56]
	mulss	xmm1, DWORD PTR [edx+32]
	addss	xmm0, xmm1
	mov	eax, DWORD PTR _m2$[ebp]
	addss	xmm0, DWORD PTR [eax+48]
	movss	DWORD PTR _mOut$[ebp+48], xmm0

; 3331 : 	mOut.e31 = m1.e30*m2.e01 + m1.e31*m2.e11 + m1.e32*m2.e21 + m2.e31;

	mov	eax, DWORD PTR _m1$[ebp]
	mov	ecx, DWORD PTR _m2$[ebp]
	movss	xmm0, DWORD PTR [eax+48]
	mulss	xmm0, DWORD PTR [ecx+4]
	mov	edx, DWORD PTR _m1$[ebp]
	mov	eax, DWORD PTR _m2$[ebp]
	movss	xmm1, DWORD PTR [edx+52]
	mulss	xmm1, DWORD PTR [eax+20]
	addss	xmm0, xmm1
	mov	ecx, DWORD PTR _m1$[ebp]
	mov	edx, DWORD PTR _m2$[ebp]
	movss	xmm1, DWORD PTR [ecx+56]
	mulss	xmm1, DWORD PTR [edx+36]
	addss	xmm0, xmm1
	mov	eax, DWORD PTR _m2$[ebp]
	addss	xmm0, DWORD PTR [eax+52]
	movss	DWORD PTR _mOut$[ebp+52], xmm0

; 3332 : 	mOut.e32 = m1.e30*m2.e02 + m1.e31*m2.e12 + m1.e32*m2.e22 + m2.e32;

	mov	eax, DWORD PTR _m1$[ebp]
	mov	ecx, DWORD PTR _m2$[ebp]
	movss	xmm0, DWORD PTR [eax+48]
	mulss	xmm0, DWORD PTR [ecx+8]
	mov	edx, DWORD PTR _m1$[ebp]
	mov	eax, DWORD PTR _m2$[ebp]
	movss	xmm1, DWORD PTR [edx+52]
	mulss	xmm1, DWORD PTR [eax+24]
	addss	xmm0, xmm1
	mov	ecx, DWORD PTR _m1$[ebp]
	mov	edx, DWORD PTR _m2$[ebp]
	movss	xmm1, DWORD PTR [ecx+56]
	mulss	xmm1, DWORD PTR [edx+40]
	addss	xmm0, xmm1
	mov	eax, DWORD PTR _m2$[ebp]
	addss	xmm0, DWORD PTR [eax+56]
	movss	DWORD PTR _mOut$[ebp+56], xmm0

; 3333 : 	mOut.e33 = 1.0f;

	movss	xmm0, DWORD PTR __real@3f800000
	movss	DWORD PTR _mOut$[ebp+60], xmm0

; 3334 : 
; 3335 : 	return mOut;

	lea	eax, DWORD PTR _mOut$[ebp]
	push	eax
	mov	ecx, DWORD PTR ___$ReturnUdt$[ebp]
	call	??0CMatrix4x4@gen@@QAE@ABV01@@Z		; gen::CMatrix4x4::CMatrix4x4
	mov	eax, DWORD PTR ___$ReturnUdt$[ebp]

; 3336 : }

	push	edx
	mov	ecx, ebp
	push	eax
	lea	edx, DWORD PTR $LN5@MultiplyAf
	call	@_RTC_CheckStackVars@8
	pop	eax
	pop	edx
	pop	edi
	pop	esi
	pop	ebx
	add	esp, 264				; 00000108H
	cmp	ebp, esp
	call	__RTC_CheckEsp
	mov	esp, ebp
	pop	ebp
	ret	0
	npad	1
$LN5@MultiplyAf:
	DD	1
	DD	$LN4@MultiplyAf
$LN4@MultiplyAf:
	DD	-68					; ffffffbcH
	DD	64					; 00000040H
	DD	$LN3@MultiplyAf
$LN3@MultiplyAf:
	DB	109					; 0000006dH
	DB	79					; 0000004fH
	DB	117					; 00000075H
	DB	116					; 00000074H
	DB	0
?MultiplyAffine@gen@@YA?AVCMatrix4x4@1@ABV21@0@Z ENDP	; gen::MultiplyAffine
_TEXT	ENDS
; Function compile flags: /Odtp /RTCsu /ZI
; File c:\users\simon\documents\github\uclan-sparta\import\math\cmatrix4x4.cpp
;	COMDAT ??Dgen@@YA?AVCMatrix4x4@0@ABV10@0@Z
_TEXT	SEGMENT
_mOut$ = -68						; size = 64
___$ReturnUdt$ = 8					; size = 4
_m1$ = 12						; size = 4
_m2$ = 16						; size = 4
??Dgen@@YA?AVCMatrix4x4@0@ABV10@0@Z PROC		; gen::operator*, COMDAT

; 3239 : {

	push	ebp
	mov	ebp, esp
	sub	esp, 264				; 00000108H
	push	ebx
	push	esi
	push	edi
	lea	edi, DWORD PTR [ebp-264]
	mov	ecx, 66					; 00000042H
	mov	eax, -858993460				; ccccccccH
	rep stosd

; 3240 : 	CMatrix4x4 mOut;

	lea	ecx, DWORD PTR _mOut$[ebp]
	call	??0CMatrix4x4@gen@@QAE@XZ		; gen::CMatrix4x4::CMatrix4x4

; 3241 : 
; 3242 : 	mOut.e00 = m1.e00*m2.e00 + m1.e01*m2.e10 + m1.e02*m2.e20 + m1.e03*m2.e30;

	mov	eax, DWORD PTR _m1$[ebp]
	mov	ecx, DWORD PTR _m2$[ebp]
	movss	xmm0, DWORD PTR [eax]
	mulss	xmm0, DWORD PTR [ecx]
	mov	edx, DWORD PTR _m1$[ebp]
	mov	eax, DWORD PTR _m2$[ebp]
	movss	xmm1, DWORD PTR [edx+4]
	mulss	xmm1, DWORD PTR [eax+16]
	addss	xmm0, xmm1
	mov	ecx, DWORD PTR _m1$[ebp]
	mov	edx, DWORD PTR _m2$[ebp]
	movss	xmm1, DWORD PTR [ecx+8]
	mulss	xmm1, DWORD PTR [edx+32]
	addss	xmm0, xmm1
	mov	eax, DWORD PTR _m1$[ebp]
	mov	ecx, DWORD PTR _m2$[ebp]
	movss	xmm1, DWORD PTR [eax+12]
	mulss	xmm1, DWORD PTR [ecx+48]
	addss	xmm0, xmm1
	movss	DWORD PTR _mOut$[ebp], xmm0

; 3243 : 	mOut.e01 = m1.e00*m2.e01 + m1.e01*m2.e11 + m1.e02*m2.e21 + m1.e03*m2.e31;

	mov	eax, DWORD PTR _m1$[ebp]
	mov	ecx, DWORD PTR _m2$[ebp]
	movss	xmm0, DWORD PTR [eax]
	mulss	xmm0, DWORD PTR [ecx+4]
	mov	edx, DWORD PTR _m1$[ebp]
	mov	eax, DWORD PTR _m2$[ebp]
	movss	xmm1, DWORD PTR [edx+4]
	mulss	xmm1, DWORD PTR [eax+20]
	addss	xmm0, xmm1
	mov	ecx, DWORD PTR _m1$[ebp]
	mov	edx, DWORD PTR _m2$[ebp]
	movss	xmm1, DWORD PTR [ecx+8]
	mulss	xmm1, DWORD PTR [edx+36]
	addss	xmm0, xmm1
	mov	eax, DWORD PTR _m1$[ebp]
	mov	ecx, DWORD PTR _m2$[ebp]
	movss	xmm1, DWORD PTR [eax+12]
	mulss	xmm1, DWORD PTR [ecx+52]
	addss	xmm0, xmm1
	movss	DWORD PTR _mOut$[ebp+4], xmm0

; 3244 : 	mOut.e02 = m1.e00*m2.e02 + m1.e01*m2.e12 + m1.e02*m2.e22 + m1.e03*m2.e32;

	mov	eax, DWORD PTR _m1$[ebp]
	mov	ecx, DWORD PTR _m2$[ebp]
	movss	xmm0, DWORD PTR [eax]
	mulss	xmm0, DWORD PTR [ecx+8]
	mov	edx, DWORD PTR _m1$[ebp]
	mov	eax, DWORD PTR _m2$[ebp]
	movss	xmm1, DWORD PTR [edx+4]
	mulss	xmm1, DWORD PTR [eax+24]
	addss	xmm0, xmm1
	mov	ecx, DWORD PTR _m1$[ebp]
	mov	edx, DWORD PTR _m2$[ebp]
	movss	xmm1, DWORD PTR [ecx+8]
	mulss	xmm1, DWORD PTR [edx+40]
	addss	xmm0, xmm1
	mov	eax, DWORD PTR _m1$[ebp]
	mov	ecx, DWORD PTR _m2$[ebp]
	movss	xmm1, DWORD PTR [eax+12]
	mulss	xmm1, DWORD PTR [ecx+56]
	addss	xmm0, xmm1
	movss	DWORD PTR _mOut$[ebp+8], xmm0

; 3245 : 	mOut.e03 = m1.e00*m2.e03 + m1.e01*m2.e13 + m1.e02*m2.e23 + m1.e03*m2.e33;

	mov	eax, DWORD PTR _m1$[ebp]
	mov	ecx, DWORD PTR _m2$[ebp]
	movss	xmm0, DWORD PTR [eax]
	mulss	xmm0, DWORD PTR [ecx+12]
	mov	edx, DWORD PTR _m1$[ebp]
	mov	eax, DWORD PTR _m2$[ebp]
	movss	xmm1, DWORD PTR [edx+4]
	mulss	xmm1, DWORD PTR [eax+28]
	addss	xmm0, xmm1
	mov	ecx, DWORD PTR _m1$[ebp]
	mov	edx, DWORD PTR _m2$[ebp]
	movss	xmm1, DWORD PTR [ecx+8]
	mulss	xmm1, DWORD PTR [edx+44]
	addss	xmm0, xmm1
	mov	eax, DWORD PTR _m1$[ebp]
	mov	ecx, DWORD PTR _m2$[ebp]
	movss	xmm1, DWORD PTR [eax+12]
	mulss	xmm1, DWORD PTR [ecx+60]
	addss	xmm0, xmm1
	movss	DWORD PTR _mOut$[ebp+12], xmm0

; 3246 : 
; 3247 : 	mOut.e10 = m1.e10*m2.e00 + m1.e11*m2.e10 + m1.e12*m2.e20 + m1.e13*m2.e30;

	mov	eax, DWORD PTR _m1$[ebp]
	mov	ecx, DWORD PTR _m2$[ebp]
	movss	xmm0, DWORD PTR [eax+16]
	mulss	xmm0, DWORD PTR [ecx]
	mov	edx, DWORD PTR _m1$[ebp]
	mov	eax, DWORD PTR _m2$[ebp]
	movss	xmm1, DWORD PTR [edx+20]
	mulss	xmm1, DWORD PTR [eax+16]
	addss	xmm0, xmm1
	mov	ecx, DWORD PTR _m1$[ebp]
	mov	edx, DWORD PTR _m2$[ebp]
	movss	xmm1, DWORD PTR [ecx+24]
	mulss	xmm1, DWORD PTR [edx+32]
	addss	xmm0, xmm1
	mov	eax, DWORD PTR _m1$[ebp]
	mov	ecx, DWORD PTR _m2$[ebp]
	movss	xmm1, DWORD PTR [eax+28]
	mulss	xmm1, DWORD PTR [ecx+48]
	addss	xmm0, xmm1
	movss	DWORD PTR _mOut$[ebp+16], xmm0

; 3248 : 	mOut.e11 = m1.e10*m2.e01 + m1.e11*m2.e11 + m1.e12*m2.e21 + m1.e13*m2.e31;

	mov	eax, DWORD PTR _m1$[ebp]
	mov	ecx, DWORD PTR _m2$[ebp]
	movss	xmm0, DWORD PTR [eax+16]
	mulss	xmm0, DWORD PTR [ecx+4]
	mov	edx, DWORD PTR _m1$[ebp]
	mov	eax, DWORD PTR _m2$[ebp]
	movss	xmm1, DWORD PTR [edx+20]
	mulss	xmm1, DWORD PTR [eax+20]
	addss	xmm0, xmm1
	mov	ecx, DWORD PTR _m1$[ebp]
	mov	edx, DWORD PTR _m2$[ebp]
	movss	xmm1, DWORD PTR [ecx+24]
	mulss	xmm1, DWORD PTR [edx+36]
	addss	xmm0, xmm1
	mov	eax, DWORD PTR _m1$[ebp]
	mov	ecx, DWORD PTR _m2$[ebp]
	movss	xmm1, DWORD PTR [eax+28]
	mulss	xmm1, DWORD PTR [ecx+52]
	addss	xmm0, xmm1
	movss	DWORD PTR _mOut$[ebp+20], xmm0

; 3249 : 	mOut.e12 = m1.e10*m2.e02 + m1.e11*m2.e12 + m1.e12*m2.e22 + m1.e13*m2.e32;

	mov	eax, DWORD PTR _m1$[ebp]
	mov	ecx, DWORD PTR _m2$[ebp]
	movss	xmm0, DWORD PTR [eax+16]
	mulss	xmm0, DWORD PTR [ecx+8]
	mov	edx, DWORD PTR _m1$[ebp]
	mov	eax, DWORD PTR _m2$[ebp]
	movss	xmm1, DWORD PTR [edx+20]
	mulss	xmm1, DWORD PTR [eax+24]
	addss	xmm0, xmm1
	mov	ecx, DWORD PTR _m1$[ebp]
	mov	edx, DWORD PTR _m2$[ebp]
	movss	xmm1, DWORD PTR [ecx+24]
	mulss	xmm1, DWORD PTR [edx+40]
	addss	xmm0, xmm1
	mov	eax, DWORD PTR _m1$[ebp]
	mov	ecx, DWORD PTR _m2$[ebp]
	movss	xmm1, DWORD PTR [eax+28]
	mulss	xmm1, DWORD PTR [ecx+56]
	addss	xmm0, xmm1
	movss	DWORD PTR _mOut$[ebp+24], xmm0

; 3250 : 	mOut.e13 = m1.e10*m2.e03 + m1.e11*m2.e13 + m1.e12*m2.e23 + m1.e13*m2.e33;

	mov	eax, DWORD PTR _m1$[ebp]
	mov	ecx, DWORD PTR _m2$[ebp]
	movss	xmm0, DWORD PTR [eax+16]
	mulss	xmm0, DWORD PTR [ecx+12]
	mov	edx, DWORD PTR _m1$[ebp]
	mov	eax, DWORD PTR _m2$[ebp]
	movss	xmm1, DWORD PTR [edx+20]
	mulss	xmm1, DWORD PTR [eax+28]
	addss	xmm0, xmm1
	mov	ecx, DWORD PTR _m1$[ebp]
	mov	edx, DWORD PTR _m2$[ebp]
	movss	xmm1, DWORD PTR [ecx+24]
	mulss	xmm1, DWORD PTR [edx+44]
	addss	xmm0, xmm1
	mov	eax, DWORD PTR _m1$[ebp]
	mov	ecx, DWORD PTR _m2$[ebp]
	movss	xmm1, DWORD PTR [eax+28]
	mulss	xmm1, DWORD PTR [ecx+60]
	addss	xmm0, xmm1
	movss	DWORD PTR _mOut$[ebp+28], xmm0

; 3251 : 
; 3252 : 	mOut.e20 = m1.e20*m2.e00 + m1.e21*m2.e10 + m1.e22*m2.e20 + m1.e23*m2.e30;

	mov	eax, DWORD PTR _m1$[ebp]
	mov	ecx, DWORD PTR _m2$[ebp]
	movss	xmm0, DWORD PTR [eax+32]
	mulss	xmm0, DWORD PTR [ecx]
	mov	edx, DWORD PTR _m1$[ebp]
	mov	eax, DWORD PTR _m2$[ebp]
	movss	xmm1, DWORD PTR [edx+36]
	mulss	xmm1, DWORD PTR [eax+16]
	addss	xmm0, xmm1
	mov	ecx, DWORD PTR _m1$[ebp]
	mov	edx, DWORD PTR _m2$[ebp]
	movss	xmm1, DWORD PTR [ecx+40]
	mulss	xmm1, DWORD PTR [edx+32]
	addss	xmm0, xmm1
	mov	eax, DWORD PTR _m1$[ebp]
	mov	ecx, DWORD PTR _m2$[ebp]
	movss	xmm1, DWORD PTR [eax+44]
	mulss	xmm1, DWORD PTR [ecx+48]
	addss	xmm0, xmm1
	movss	DWORD PTR _mOut$[ebp+32], xmm0

; 3253 : 	mOut.e21 = m1.e20*m2.e01 + m1.e21*m2.e11 + m1.e22*m2.e21 + m1.e23*m2.e31;

	mov	eax, DWORD PTR _m1$[ebp]
	mov	ecx, DWORD PTR _m2$[ebp]
	movss	xmm0, DWORD PTR [eax+32]
	mulss	xmm0, DWORD PTR [ecx+4]
	mov	edx, DWORD PTR _m1$[ebp]
	mov	eax, DWORD PTR _m2$[ebp]
	movss	xmm1, DWORD PTR [edx+36]
	mulss	xmm1, DWORD PTR [eax+20]
	addss	xmm0, xmm1
	mov	ecx, DWORD PTR _m1$[ebp]
	mov	edx, DWORD PTR _m2$[ebp]
	movss	xmm1, DWORD PTR [ecx+40]
	mulss	xmm1, DWORD PTR [edx+36]
	addss	xmm0, xmm1
	mov	eax, DWORD PTR _m1$[ebp]
	mov	ecx, DWORD PTR _m2$[ebp]
	movss	xmm1, DWORD PTR [eax+44]
	mulss	xmm1, DWORD PTR [ecx+52]
	addss	xmm0, xmm1
	movss	DWORD PTR _mOut$[ebp+36], xmm0

; 3254 : 	mOut.e22 = m1.e20*m2.e02 + m1.e21*m2.e12 + m1.e22*m2.e22 + m1.e23*m2.e32;

	mov	eax, DWORD PTR _m1$[ebp]
	mov	ecx, DWORD PTR _m2$[ebp]
	movss	xmm0, DWORD PTR [eax+32]
	mulss	xmm0, DWORD PTR [ecx+8]
	mov	edx, DWORD PTR _m1$[ebp]
	mov	eax, DWORD PTR _m2$[ebp]
	movss	xmm1, DWORD PTR [edx+36]
	mulss	xmm1, DWORD PTR [eax+24]
	addss	xmm0, xmm1
	mov	ecx, DWORD PTR _m1$[ebp]
	mov	edx, DWORD PTR _m2$[ebp]
	movss	xmm1, DWORD PTR [ecx+40]
	mulss	xmm1, DWORD PTR [edx+40]
	addss	xmm0, xmm1
	mov	eax, DWORD PTR _m1$[ebp]
	mov	ecx, DWORD PTR _m2$[ebp]
	movss	xmm1, DWORD PTR [eax+44]
	mulss	xmm1, DWORD PTR [ecx+56]
	addss	xmm0, xmm1
	movss	DWORD PTR _mOut$[ebp+40], xmm0

; 3255 : 	mOut.e23 = m1.e20*m2.e03 + m1.e21*m2.e13 + m1.e22*m2.e23 + m1.e23*m2.e33;

	mov	eax, DWORD PTR _m1$[ebp]
	mov	ecx, DWORD PTR _m2$[ebp]
	movss	xmm0, DWORD PTR [eax+32]
	mulss	xmm0, DWORD PTR [ecx+12]
	mov	edx, DWORD PTR _m1$[ebp]
	mov	eax, DWORD PTR _m2$[ebp]
	movss	xmm1, DWORD PTR [edx+36]
	mulss	xmm1, DWORD PTR [eax+28]
	addss	xmm0, xmm1
	mov	ecx, DWORD PTR _m1$[ebp]
	mov	edx, DWORD PTR _m2$[ebp]
	movss	xmm1, DWORD PTR [ecx+40]
	mulss	xmm1, DWORD PTR [edx+44]
	addss	xmm0, xmm1
	mov	eax, DWORD PTR _m1$[ebp]
	mov	ecx, DWORD PTR _m2$[ebp]
	movss	xmm1, DWORD PTR [eax+44]
	mulss	xmm1, DWORD PTR [ecx+60]
	addss	xmm0, xmm1
	movss	DWORD PTR _mOut$[ebp+44], xmm0

; 3256 : 
; 3257 : 	mOut.e30 = m1.e30*m2.e00 + m1.e31*m2.e10 + m1.e32*m2.e20 + m1.e33*m2.e30;

	mov	eax, DWORD PTR _m1$[ebp]
	mov	ecx, DWORD PTR _m2$[ebp]
	movss	xmm0, DWORD PTR [eax+48]
	mulss	xmm0, DWORD PTR [ecx]
	mov	edx, DWORD PTR _m1$[ebp]
	mov	eax, DWORD PTR _m2$[ebp]
	movss	xmm1, DWORD PTR [edx+52]
	mulss	xmm1, DWORD PTR [eax+16]
	addss	xmm0, xmm1
	mov	ecx, DWORD PTR _m1$[ebp]
	mov	edx, DWORD PTR _m2$[ebp]
	movss	xmm1, DWORD PTR [ecx+56]
	mulss	xmm1, DWORD PTR [edx+32]
	addss	xmm0, xmm1
	mov	eax, DWORD PTR _m1$[ebp]
	mov	ecx, DWORD PTR _m2$[ebp]
	movss	xmm1, DWORD PTR [eax+60]
	mulss	xmm1, DWORD PTR [ecx+48]
	addss	xmm0, xmm1
	movss	DWORD PTR _mOut$[ebp+48], xmm0

; 3258 : 	mOut.e31 = m1.e30*m2.e01 + m1.e31*m2.e11 + m1.e32*m2.e21 + m1.e33*m2.e31;

	mov	eax, DWORD PTR _m1$[ebp]
	mov	ecx, DWORD PTR _m2$[ebp]
	movss	xmm0, DWORD PTR [eax+48]
	mulss	xmm0, DWORD PTR [ecx+4]
	mov	edx, DWORD PTR _m1$[ebp]
	mov	eax, DWORD PTR _m2$[ebp]
	movss	xmm1, DWORD PTR [edx+52]
	mulss	xmm1, DWORD PTR [eax+20]
	addss	xmm0, xmm1
	mov	ecx, DWORD PTR _m1$[ebp]
	mov	edx, DWORD PTR _m2$[ebp]
	movss	xmm1, DWORD PTR [ecx+56]
	mulss	xmm1, DWORD PTR [edx+36]
	addss	xmm0, xmm1
	mov	eax, DWORD PTR _m1$[ebp]
	mov	ecx, DWORD PTR _m2$[ebp]
	movss	xmm1, DWORD PTR [eax+60]
	mulss	xmm1, DWORD PTR [ecx+52]
	addss	xmm0, xmm1
	movss	DWORD PTR _mOut$[ebp+52], xmm0

; 3259 : 	mOut.e32 = m1.e30*m2.e02 + m1.e31*m2.e12 + m1.e32*m2.e22 + m1.e33*m2.e32;

	mov	eax, DWORD PTR _m1$[ebp]
	mov	ecx, DWORD PTR _m2$[ebp]
	movss	xmm0, DWORD PTR [eax+48]
	mulss	xmm0, DWORD PTR [ecx+8]
	mov	edx, DWORD PTR _m1$[ebp]
	mov	eax, DWORD PTR _m2$[ebp]
	movss	xmm1, DWORD PTR [edx+52]
	mulss	xmm1, DWORD PTR [eax+24]
	addss	xmm0, xmm1
	mov	ecx, DWORD PTR _m1$[ebp]
	mov	edx, DWORD PTR _m2$[ebp]
	movss	xmm1, DWORD PTR [ecx+56]
	mulss	xmm1, DWORD PTR [edx+40]
	addss	xmm0, xmm1
	mov	eax, DWORD PTR _m1$[ebp]
	mov	ecx, DWORD PTR _m2$[ebp]
	movss	xmm1, DWORD PTR [eax+60]
	mulss	xmm1, DWORD PTR [ecx+56]
	addss	xmm0, xmm1
	movss	DWORD PTR _mOut$[ebp+56], xmm0

; 3260 : 	mOut.e33 = m1.e30*m2.e03 + m1.e31*m2.e13 + m1.e32*m2.e23 + m1.e33*m2.e33;

	mov	eax, DWORD PTR _m1$[ebp]
	mov	ecx, DWORD PTR _m2$[ebp]
	movss	xmm0, DWORD PTR [eax+48]
	mulss	xmm0, DWORD PTR [ecx+12]
	mov	edx, DWORD PTR _m1$[ebp]
	mov	eax, DWORD PTR _m2$[ebp]
	movss	xmm1, DWORD PTR [edx+52]
	mulss	xmm1, DWORD PTR [eax+28]
	addss	xmm0, xmm1
	mov	ecx, DWORD PTR _m1$[ebp]
	mov	edx, DWORD PTR _m2$[ebp]
	movss	xmm1, DWORD PTR [ecx+56]
	mulss	xmm1, DWORD PTR [edx+44]
	addss	xmm0, xmm1
	mov	eax, DWORD PTR _m1$[ebp]
	mov	ecx, DWORD PTR _m2$[ebp]
	movss	xmm1, DWORD PTR [eax+60]
	mulss	xmm1, DWORD PTR [ecx+60]
	addss	xmm0, xmm1
	movss	DWORD PTR _mOut$[ebp+60], xmm0

; 3261 : 
; 3262 : 	return mOut;

	lea	eax, DWORD PTR _mOut$[ebp]
	push	eax
	mov	ecx, DWORD PTR ___$ReturnUdt$[ebp]
	call	??0CMatrix4x4@gen@@QAE@ABV01@@Z		; gen::CMatrix4x4::CMatrix4x4
	mov	eax, DWORD PTR ___$ReturnUdt$[ebp]

; 3263 : }

	push	edx
	mov	ecx, ebp
	push	eax
	lea	edx, DWORD PTR $LN5@operator
	call	@_RTC_CheckStackVars@8
	pop	eax
	pop	edx
	pop	edi
	pop	esi
	pop	ebx
	add	esp, 264				; 00000108H
	cmp	ebp, esp
	call	__RTC_CheckEsp
	mov	esp, ebp
	pop	ebp
	ret	0
	npad	2
$LN5@operator:
	DD	1
	DD	$LN4@operator
$LN4@operator:
	DD	-68					; ffffffbcH
	DD	64					; 00000040H
	DD	$LN3@operator
$LN3@operator:
	DB	109					; 0000006dH
	DB	79					; 0000004fH
	DB	117					; 00000075H
	DB	116					; 00000074H
	DB	0
??Dgen@@YA?AVCMatrix4x4@0@ABV10@0@Z ENDP		; gen::operator*
_TEXT	ENDS
; Function compile flags: /Odtp /RTCsu /ZI
; File c:\users\simon\documents\github\uclan-sparta\import\math\cmatrix4x4.cpp
;	COMDAT ??Dgen@@YA?AVCVector4@0@ABVCMatrix4x4@0@ABV10@@Z
_TEXT	SEGMENT
_vOut$ = -20						; size = 16
___$ReturnUdt$ = 8					; size = 4
_m$ = 12						; size = 4
_v$ = 16						; size = 4
??Dgen@@YA?AVCVector4@0@ABVCMatrix4x4@0@ABV10@@Z PROC	; gen::operator*, COMDAT

; 3134 : {

	push	ebp
	mov	ebp, esp
	sub	esp, 216				; 000000d8H
	push	ebx
	push	esi
	push	edi
	lea	edi, DWORD PTR [ebp-216]
	mov	ecx, 54					; 00000036H
	mov	eax, -858993460				; ccccccccH
	rep stosd

; 3135 :     CVector4 vOut;

	lea	ecx, DWORD PTR _vOut$[ebp]
	call	??0CVector4@gen@@QAE@XZ			; gen::CVector4::CVector4

; 3136 :     vOut.x = m.e00*v.x + m.e01*v.y + m.e02*v.z + m.e03*v.w;

	mov	eax, DWORD PTR _m$[ebp]
	mov	ecx, DWORD PTR _v$[ebp]
	movss	xmm0, DWORD PTR [eax]
	mulss	xmm0, DWORD PTR [ecx]
	mov	edx, DWORD PTR _m$[ebp]
	mov	eax, DWORD PTR _v$[ebp]
	movss	xmm1, DWORD PTR [edx+4]
	mulss	xmm1, DWORD PTR [eax+4]
	addss	xmm0, xmm1
	mov	ecx, DWORD PTR _m$[ebp]
	mov	edx, DWORD PTR _v$[ebp]
	movss	xmm1, DWORD PTR [ecx+8]
	mulss	xmm1, DWORD PTR [edx+8]
	addss	xmm0, xmm1
	mov	eax, DWORD PTR _m$[ebp]
	mov	ecx, DWORD PTR _v$[ebp]
	movss	xmm1, DWORD PTR [eax+12]
	mulss	xmm1, DWORD PTR [ecx+12]
	addss	xmm0, xmm1
	movss	DWORD PTR _vOut$[ebp], xmm0

; 3137 :     vOut.y = m.e10*v.x + m.e11*v.y + m.e12*v.z + m.e13*v.w;

	mov	eax, DWORD PTR _m$[ebp]
	mov	ecx, DWORD PTR _v$[ebp]
	movss	xmm0, DWORD PTR [eax+16]
	mulss	xmm0, DWORD PTR [ecx]
	mov	edx, DWORD PTR _m$[ebp]
	mov	eax, DWORD PTR _v$[ebp]
	movss	xmm1, DWORD PTR [edx+20]
	mulss	xmm1, DWORD PTR [eax+4]
	addss	xmm0, xmm1
	mov	ecx, DWORD PTR _m$[ebp]
	mov	edx, DWORD PTR _v$[ebp]
	movss	xmm1, DWORD PTR [ecx+24]
	mulss	xmm1, DWORD PTR [edx+8]
	addss	xmm0, xmm1
	mov	eax, DWORD PTR _m$[ebp]
	mov	ecx, DWORD PTR _v$[ebp]
	movss	xmm1, DWORD PTR [eax+28]
	mulss	xmm1, DWORD PTR [ecx+12]
	addss	xmm0, xmm1
	movss	DWORD PTR _vOut$[ebp+4], xmm0

; 3138 :     vOut.z = m.e20*v.x + m.e21*v.y + m.e22*v.z + m.e23*v.w;

	mov	eax, DWORD PTR _m$[ebp]
	mov	ecx, DWORD PTR _v$[ebp]
	movss	xmm0, DWORD PTR [eax+32]
	mulss	xmm0, DWORD PTR [ecx]
	mov	edx, DWORD PTR _m$[ebp]
	mov	eax, DWORD PTR _v$[ebp]
	movss	xmm1, DWORD PTR [edx+36]
	mulss	xmm1, DWORD PTR [eax+4]
	addss	xmm0, xmm1
	mov	ecx, DWORD PTR _m$[ebp]
	mov	edx, DWORD PTR _v$[ebp]
	movss	xmm1, DWORD PTR [ecx+40]
	mulss	xmm1, DWORD PTR [edx+8]
	addss	xmm0, xmm1
	mov	eax, DWORD PTR _m$[ebp]
	mov	ecx, DWORD PTR _v$[ebp]
	movss	xmm1, DWORD PTR [eax+44]
	mulss	xmm1, DWORD PTR [ecx+12]
	addss	xmm0, xmm1
	movss	DWORD PTR _vOut$[ebp+8], xmm0

; 3139 :     vOut.w = m.e30*v.x + m.e31*v.y + m.e32*v.z + m.e33*v.w;

	mov	eax, DWORD PTR _m$[ebp]
	mov	ecx, DWORD PTR _v$[ebp]
	movss	xmm0, DWORD PTR [eax+48]
	mulss	xmm0, DWORD PTR [ecx]
	mov	edx, DWORD PTR _m$[ebp]
	mov	eax, DWORD PTR _v$[ebp]
	movss	xmm1, DWORD PTR [edx+52]
	mulss	xmm1, DWORD PTR [eax+4]
	addss	xmm0, xmm1
	mov	ecx, DWORD PTR _m$[ebp]
	mov	edx, DWORD PTR _v$[ebp]
	movss	xmm1, DWORD PTR [ecx+56]
	mulss	xmm1, DWORD PTR [edx+8]
	addss	xmm0, xmm1
	mov	eax, DWORD PTR _m$[ebp]
	mov	ecx, DWORD PTR _v$[ebp]
	movss	xmm1, DWORD PTR [eax+60]
	mulss	xmm1, DWORD PTR [ecx+12]
	addss	xmm0, xmm1
	movss	DWORD PTR _vOut$[ebp+12], xmm0

; 3140 : 
; 3141 :     return vOut;

	lea	eax, DWORD PTR _vOut$[ebp]
	push	eax
	mov	ecx, DWORD PTR ___$ReturnUdt$[ebp]
	call	??0CVector4@gen@@QAE@ABV01@@Z		; gen::CVector4::CVector4
	mov	eax, DWORD PTR ___$ReturnUdt$[ebp]

; 3142 : }

	push	edx
	mov	ecx, ebp
	push	eax
	lea	edx, DWORD PTR $LN5@operator
	call	@_RTC_CheckStackVars@8
	pop	eax
	pop	edx
	pop	edi
	pop	esi
	pop	ebx
	add	esp, 216				; 000000d8H
	cmp	ebp, esp
	call	__RTC_CheckEsp
	mov	esp, ebp
	pop	ebp
	ret	0
	npad	3
$LN5@operator:
	DD	1
	DD	$LN4@operator
$LN4@operator:
	DD	-20					; ffffffecH
	DD	16					; 00000010H
	DD	$LN3@operator
$LN3@operator:
	DB	118					; 00000076H
	DB	79					; 0000004fH
	DB	117					; 00000075H
	DB	116					; 00000074H
	DB	0
??Dgen@@YA?AVCVector4@0@ABVCMatrix4x4@0@ABV10@@Z ENDP	; gen::operator*
_TEXT	ENDS
; Function compile flags: /Odtp /RTCsu /ZI
; File c:\users\simon\documents\github\uclan-sparta\import\math\cmatrix4x4.cpp
;	COMDAT ??Dgen@@YA?AVCVector4@0@ABV10@ABVCMatrix4x4@0@@Z
_TEXT	SEGMENT
_vOut$ = -20						; size = 16
___$ReturnUdt$ = 8					; size = 4
_v$ = 12						; size = 4
_m$ = 16						; size = 4
??Dgen@@YA?AVCVector4@0@ABV10@ABVCMatrix4x4@0@@Z PROC	; gen::operator*, COMDAT

; 3117 : {

	push	ebp
	mov	ebp, esp
	sub	esp, 216				; 000000d8H
	push	ebx
	push	esi
	push	edi
	lea	edi, DWORD PTR [ebp-216]
	mov	ecx, 54					; 00000036H
	mov	eax, -858993460				; ccccccccH
	rep stosd

; 3118 :     CVector4 vOut;

	lea	ecx, DWORD PTR _vOut$[ebp]
	call	??0CVector4@gen@@QAE@XZ			; gen::CVector4::CVector4

; 3119 :     vOut.x = v.x*m.e00 + v.y*m.e10 + v.z*m.e20 + v.w*m.e30;

	mov	eax, DWORD PTR _v$[ebp]
	mov	ecx, DWORD PTR _m$[ebp]
	movss	xmm0, DWORD PTR [eax]
	mulss	xmm0, DWORD PTR [ecx]
	mov	edx, DWORD PTR _v$[ebp]
	mov	eax, DWORD PTR _m$[ebp]
	movss	xmm1, DWORD PTR [edx+4]
	mulss	xmm1, DWORD PTR [eax+16]
	addss	xmm0, xmm1
	mov	ecx, DWORD PTR _v$[ebp]
	mov	edx, DWORD PTR _m$[ebp]
	movss	xmm1, DWORD PTR [ecx+8]
	mulss	xmm1, DWORD PTR [edx+32]
	addss	xmm0, xmm1
	mov	eax, DWORD PTR _v$[ebp]
	mov	ecx, DWORD PTR _m$[ebp]
	movss	xmm1, DWORD PTR [eax+12]
	mulss	xmm1, DWORD PTR [ecx+48]
	addss	xmm0, xmm1
	movss	DWORD PTR _vOut$[ebp], xmm0

; 3120 :     vOut.y = v.x*m.e01 + v.y*m.e11 + v.z*m.e21 + v.w*m.e31;

	mov	eax, DWORD PTR _v$[ebp]
	mov	ecx, DWORD PTR _m$[ebp]
	movss	xmm0, DWORD PTR [eax]
	mulss	xmm0, DWORD PTR [ecx+4]
	mov	edx, DWORD PTR _v$[ebp]
	mov	eax, DWORD PTR _m$[ebp]
	movss	xmm1, DWORD PTR [edx+4]
	mulss	xmm1, DWORD PTR [eax+20]
	addss	xmm0, xmm1
	mov	ecx, DWORD PTR _v$[ebp]
	mov	edx, DWORD PTR _m$[ebp]
	movss	xmm1, DWORD PTR [ecx+8]
	mulss	xmm1, DWORD PTR [edx+36]
	addss	xmm0, xmm1
	mov	eax, DWORD PTR _v$[ebp]
	mov	ecx, DWORD PTR _m$[ebp]
	movss	xmm1, DWORD PTR [eax+12]
	mulss	xmm1, DWORD PTR [ecx+52]
	addss	xmm0, xmm1
	movss	DWORD PTR _vOut$[ebp+4], xmm0

; 3121 :     vOut.z = v.x*m.e02 + v.y*m.e12 + v.z*m.e22 + v.w*m.e32;

	mov	eax, DWORD PTR _v$[ebp]
	mov	ecx, DWORD PTR _m$[ebp]
	movss	xmm0, DWORD PTR [eax]
	mulss	xmm0, DWORD PTR [ecx+8]
	mov	edx, DWORD PTR _v$[ebp]
	mov	eax, DWORD PTR _m$[ebp]
	movss	xmm1, DWORD PTR [edx+4]
	mulss	xmm1, DWORD PTR [eax+24]
	addss	xmm0, xmm1
	mov	ecx, DWORD PTR _v$[ebp]
	mov	edx, DWORD PTR _m$[ebp]
	movss	xmm1, DWORD PTR [ecx+8]
	mulss	xmm1, DWORD PTR [edx+40]
	addss	xmm0, xmm1
	mov	eax, DWORD PTR _v$[ebp]
	mov	ecx, DWORD PTR _m$[ebp]
	movss	xmm1, DWORD PTR [eax+12]
	mulss	xmm1, DWORD PTR [ecx+56]
	addss	xmm0, xmm1
	movss	DWORD PTR _vOut$[ebp+8], xmm0

; 3122 :     vOut.w = v.x*m.e03 + v.y*m.e13 + v.z*m.e23 + v.w*m.e33;

	mov	eax, DWORD PTR _v$[ebp]
	mov	ecx, DWORD PTR _m$[ebp]
	movss	xmm0, DWORD PTR [eax]
	mulss	xmm0, DWORD PTR [ecx+12]
	mov	edx, DWORD PTR _v$[ebp]
	mov	eax, DWORD PTR _m$[ebp]
	movss	xmm1, DWORD PTR [edx+4]
	mulss	xmm1, DWORD PTR [eax+28]
	addss	xmm0, xmm1
	mov	ecx, DWORD PTR _v$[ebp]
	mov	edx, DWORD PTR _m$[ebp]
	movss	xmm1, DWORD PTR [ecx+8]
	mulss	xmm1, DWORD PTR [edx+44]
	addss	xmm0, xmm1
	mov	eax, DWORD PTR _v$[ebp]
	mov	ecx, DWORD PTR _m$[ebp]
	movss	xmm1, DWORD PTR [eax+12]
	mulss	xmm1, DWORD PTR [ecx+60]
	addss	xmm0, xmm1
	movss	DWORD PTR _vOut$[ebp+12], xmm0

; 3123 : 
; 3124 :     return vOut;

	lea	eax, DWORD PTR _vOut$[ebp]
	push	eax
	mov	ecx, DWORD PTR ___$ReturnUdt$[ebp]
	call	??0CVector4@gen@@QAE@ABV01@@Z		; gen::CVector4::CVector4
	mov	eax, DWORD PTR ___$ReturnUdt$[ebp]

; 3125 : }

	push	edx
	mov	ecx, ebp
	push	eax
	lea	edx, DWORD PTR $LN5@operator
	call	@_RTC_CheckStackVars@8
	pop	eax
	pop	edx
	pop	edi
	pop	esi
	pop	ebx
	add	esp, 216				; 000000d8H
	cmp	ebp, esp
	call	__RTC_CheckEsp
	mov	esp, ebp
	pop	ebp
	ret	0
	npad	3
$LN5@operator:
	DD	1
	DD	$LN4@operator
$LN4@operator:
	DD	-20					; ffffffecH
	DD	16					; 00000010H
	DD	$LN3@operator
$LN3@operator:
	DB	118					; 00000076H
	DB	79					; 0000004fH
	DB	117					; 00000075H
	DB	116					; 00000074H
	DB	0
??Dgen@@YA?AVCVector4@0@ABV10@ABVCMatrix4x4@0@@Z ENDP	; gen::operator*
_TEXT	ENDS
; Function compile flags: /Odtp /RTCsu /ZI
; File c:\users\simon\documents\github\uclan-sparta\import\math\cmatrix4x4.cpp
;	COMDAT ??Kgen@@YA?AVCMatrix4x4@0@ABV10@M@Z
_TEXT	SEGMENT
tv193 = -585						; size = 1
$T2 = -580						; size = 88
$T3 = -484						; size = 88
$T4 = -388						; size = 88
_e$5 = -100						; size = 4
_mOut$6 = -88						; size = 64
__$ArrayPad$ = -20					; size = 4
__$EHRec$ = -16						; size = 16
___$ReturnUdt$ = 8					; size = 4
_m$ = 12						; size = 4
_s$ = 16						; size = 4
??Kgen@@YA?AVCMatrix4x4@0@ABV10@M@Z PROC		; gen::operator/, COMDAT

; 3079 : {

	push	ebp
	mov	ebp, esp
	push	-1
	push	__ehhandler$??Kgen@@YA?AVCMatrix4x4@0@ABV10@M@Z
	mov	eax, DWORD PTR fs:0
	push	eax
	push	ecx
	sub	esp, 572				; 0000023cH
	push	ebx
	push	esi
	push	edi
	lea	edi, DWORD PTR [ebp-588]
	mov	ecx, 143				; 0000008fH
	mov	eax, -858993460				; ccccccccH
	rep stosd
	mov	eax, DWORD PTR ___security_cookie
	xor	eax, ebp
	mov	DWORD PTR __$ArrayPad$[ebp], eax
	push	eax
	lea	eax, DWORD PTR __$EHRec$[ebp+4]
	mov	DWORD PTR fs:0, eax
	mov	DWORD PTR __$EHRec$[ebp], esp

; 3080 : 	GEN_GUARD_OPT;

	mov	DWORD PTR __$EHRec$[ebp+12], 0

; 3081 : 	GEN_ASSERT_OPT( !IsZero(s), "Invalid parameter" );

	push	ecx
	movss	xmm0, DWORD PTR _kfEpsilon
	movss	DWORD PTR [esp], xmm0
	push	ecx
	movss	xmm0, DWORD PTR _s$[ebp]
	movss	DWORD PTR [esp], xmm0
	call	?IsZero@gen@@YA_NMM@Z			; gen::IsZero
	add	esp, 8
	mov	BYTE PTR tv193[ebp], al
	movzx	eax, BYTE PTR tv193[ebp]
	test	eax, eax
	je	SHORT $LN1@operator
	mov	eax, DWORD PTR ?__LINE__Var@?1???Kgen@@YA?AVCMatrix4x4@1@ABV21@M@Z@4JA
	add	eax, 2
	push	eax
	push	OFFSET ??_C@_0EI@POGHFJCD@c?3?2users?2simon?2documents?2github?2@
	push	OFFSET ??_C@_0BC@DBAKKFEN@Invalid?5parameter?$AA@
	lea	ecx, DWORD PTR $T2[ebp]
	call	??0CFatalException@gen@@QAE@PBD0H@Z	; gen::CFatalException::CFatalException
	push	OFFSET __TI1?AVCFatalException@gen@@
	lea	ecx, DWORD PTR $T2[ebp]
	push	ecx
	call	__CxxThrowException@8
$LN1@operator:

; 3082 : 
; 3083 : 	CMatrix4x4 mOut;

	lea	ecx, DWORD PTR _mOut$6[ebp]
	call	??0CMatrix4x4@gen@@QAE@XZ		; gen::CMatrix4x4::CMatrix4x4

; 3084 :     mOut.e00 = m.e00 / s;

	mov	eax, DWORD PTR _m$[ebp]
	movss	xmm0, DWORD PTR [eax]
	divss	xmm0, DWORD PTR _s$[ebp]
	movss	DWORD PTR _mOut$6[ebp], xmm0

; 3085 :     mOut.e01 = m.e01 / s;

	mov	eax, DWORD PTR _m$[ebp]
	movss	xmm0, DWORD PTR [eax+4]
	divss	xmm0, DWORD PTR _s$[ebp]
	movss	DWORD PTR _mOut$6[ebp+4], xmm0

; 3086 :     mOut.e02 = m.e02 / s;

	mov	eax, DWORD PTR _m$[ebp]
	movss	xmm0, DWORD PTR [eax+8]
	divss	xmm0, DWORD PTR _s$[ebp]
	movss	DWORD PTR _mOut$6[ebp+8], xmm0

; 3087 :     mOut.e03 = m.e03 / s;

	mov	eax, DWORD PTR _m$[ebp]
	movss	xmm0, DWORD PTR [eax+12]
	divss	xmm0, DWORD PTR _s$[ebp]
	movss	DWORD PTR _mOut$6[ebp+12], xmm0

; 3088 :     mOut.e10 = m.e10 / s;

	mov	eax, DWORD PTR _m$[ebp]
	movss	xmm0, DWORD PTR [eax+16]
	divss	xmm0, DWORD PTR _s$[ebp]
	movss	DWORD PTR _mOut$6[ebp+16], xmm0

; 3089 :     mOut.e11 = m.e11 / s;

	mov	eax, DWORD PTR _m$[ebp]
	movss	xmm0, DWORD PTR [eax+20]
	divss	xmm0, DWORD PTR _s$[ebp]
	movss	DWORD PTR _mOut$6[ebp+20], xmm0

; 3090 :     mOut.e12 = m.e12 / s;

	mov	eax, DWORD PTR _m$[ebp]
	movss	xmm0, DWORD PTR [eax+24]
	divss	xmm0, DWORD PTR _s$[ebp]
	movss	DWORD PTR _mOut$6[ebp+24], xmm0

; 3091 :     mOut.e13 = m.e13 / s;

	mov	eax, DWORD PTR _m$[ebp]
	movss	xmm0, DWORD PTR [eax+28]
	divss	xmm0, DWORD PTR _s$[ebp]
	movss	DWORD PTR _mOut$6[ebp+28], xmm0

; 3092 :     mOut.e20 = m.e20 / s;

	mov	eax, DWORD PTR _m$[ebp]
	movss	xmm0, DWORD PTR [eax+32]
	divss	xmm0, DWORD PTR _s$[ebp]
	movss	DWORD PTR _mOut$6[ebp+32], xmm0

; 3093 :     mOut.e21 = m.e21 / s;

	mov	eax, DWORD PTR _m$[ebp]
	movss	xmm0, DWORD PTR [eax+36]
	divss	xmm0, DWORD PTR _s$[ebp]
	movss	DWORD PTR _mOut$6[ebp+36], xmm0

; 3094 :     mOut.e22 = m.e22 / s;

	mov	eax, DWORD PTR _m$[ebp]
	movss	xmm0, DWORD PTR [eax+40]
	divss	xmm0, DWORD PTR _s$[ebp]
	movss	DWORD PTR _mOut$6[ebp+40], xmm0

; 3095 :     mOut.e23 = m.e23 / s;

	mov	eax, DWORD PTR _m$[ebp]
	movss	xmm0, DWORD PTR [eax+44]
	divss	xmm0, DWORD PTR _s$[ebp]
	movss	DWORD PTR _mOut$6[ebp+44], xmm0

; 3096 : 	mOut.e30 = m.e30 / s;

	mov	eax, DWORD PTR _m$[ebp]
	movss	xmm0, DWORD PTR [eax+48]
	divss	xmm0, DWORD PTR _s$[ebp]
	movss	DWORD PTR _mOut$6[ebp+48], xmm0

; 3097 :     mOut.e31 = m.e31 / s;

	mov	eax, DWORD PTR _m$[ebp]
	movss	xmm0, DWORD PTR [eax+52]
	divss	xmm0, DWORD PTR _s$[ebp]
	movss	DWORD PTR _mOut$6[ebp+52], xmm0

; 3098 :     mOut.e32 = m.e32 / s;

	mov	eax, DWORD PTR _m$[ebp]
	movss	xmm0, DWORD PTR [eax+56]
	divss	xmm0, DWORD PTR _s$[ebp]
	movss	DWORD PTR _mOut$6[ebp+56], xmm0

; 3099 :     mOut.e33 = m.e33 / s;

	mov	eax, DWORD PTR _m$[ebp]
	movss	xmm0, DWORD PTR [eax+60]
	divss	xmm0, DWORD PTR _s$[ebp]
	movss	DWORD PTR _mOut$6[ebp+60], xmm0

; 3100 : 
; 3101 : 	return mOut;

	lea	eax, DWORD PTR _mOut$6[ebp]
	push	eax
	mov	ecx, DWORD PTR ___$ReturnUdt$[ebp]
	call	??0CMatrix4x4@gen@@QAE@ABV01@@Z		; gen::CMatrix4x4::CMatrix4x4
	mov	eax, DWORD PTR ___$ReturnUdt$[ebp]
	jmp	$LN8@operator
__catch$??Kgen@@YA?AVCMatrix4x4@0@ABV10@M@Z$0:

; 3102 : 
; 3103 : 	GEN_ENDGUARD_OPT;

	push	0
	call	?ObjectName@gen@@YAPBDXZ		; gen::ObjectName
	push	eax
	push	OFFSET ??_C@_0BA@KCKIPOBF@gen?3?3operator?5?1?$AA@
	mov	ecx, DWORD PTR _e$5[ebp]
	call	?AppendToCallStack@CFatalException@gen@@QAEXPBD0_N@Z ; gen::CFatalException::AppendToCallStack
	mov	eax, DWORD PTR _e$5[ebp]
	push	eax
	lea	ecx, DWORD PTR $T3[ebp]
	call	??0CFatalException@gen@@QAE@ABV01@@Z
	push	OFFSET __TI1?AVCFatalException@gen@@
	lea	ecx, DWORD PTR $T3[ebp]
	push	ecx
	call	__CxxThrowException@8
	mov	eax, $LN9@operator
	ret	0
__catch$??Kgen@@YA?AVCMatrix4x4@0@ABV10@M@Z$1:
	call	?ObjectName@gen@@YAPBDXZ		; gen::ObjectName
	push	eax
	push	OFFSET ??_C@_0BA@KCKIPOBF@gen?3?3operator?5?1?$AA@
	push	OFFSET ??_C@_0EI@POGHFJCD@c?3?2users?2simon?2documents?2github?2@
	lea	ecx, DWORD PTR $T4[ebp]
	call	??0CFatalException@gen@@QAE@PBD00@Z	; gen::CFatalException::CFatalException
	push	OFFSET __TI1?AVCFatalException@gen@@
	lea	eax, DWORD PTR $T4[ebp]
	push	eax
	call	__CxxThrowException@8
	mov	eax, $LN11@operator
	ret	0
	mov	DWORD PTR __$EHRec$[ebp+12], -1
	jmp	SHORT $LN10@operator
$LN11@operator:
	mov	DWORD PTR __$EHRec$[ebp+12], -1
	jmp	SHORT $LN8@operator
$LN10@operator:
	jmp	SHORT $LN8@operator
$LN9@operator:
	mov	DWORD PTR __$EHRec$[ebp+12], -1
$LN8@operator:

; 3104 : }

	push	edx
	mov	ecx, ebp
	push	eax
	lea	edx, DWORD PTR $LN16@operator
	call	@_RTC_CheckStackVars@8
	pop	eax
	pop	edx
	mov	ecx, DWORD PTR __$EHRec$[ebp+4]
	mov	DWORD PTR fs:0, ecx
	pop	ecx
	pop	edi
	pop	esi
	pop	ebx
	mov	ecx, DWORD PTR __$ArrayPad$[ebp]
	xor	ecx, ebp
	call	@__security_check_cookie@4
	add	esp, 588				; 0000024cH
	cmp	ebp, esp
	call	__RTC_CheckEsp
	mov	esp, ebp
	pop	ebp
	ret	0
	npad	3
$LN16@operator:
	DD	2
	DD	$LN15@operator
$LN15@operator:
	DD	-88					; ffffffa8H
	DD	64					; 00000040H
	DD	$LN12@operator
	DD	-100					; ffffff9cH
	DD	4
	DD	$LN13@operator
$LN13@operator:
	DB	101					; 00000065H
	DB	0
$LN12@operator:
	DB	109					; 0000006dH
	DB	79					; 0000004fH
	DB	117					; 00000075H
	DB	116					; 00000074H
	DB	0
_TEXT	ENDS
;	COMDAT text$x
text$x	SEGMENT
__ehhandler$??Kgen@@YA?AVCMatrix4x4@0@ABV10@M@Z:
	mov	edx, DWORD PTR [esp+8]
	lea	eax, DWORD PTR [edx+12]
	mov	ecx, DWORD PTR [edx-592]
	xor	ecx, eax
	call	@__security_check_cookie@4
	mov	ecx, DWORD PTR [edx-8]
	xor	ecx, eax
	call	@__security_check_cookie@4
	mov	eax, OFFSET __ehfuncinfo$??Kgen@@YA?AVCMatrix4x4@0@ABV10@M@Z
	jmp	___CxxFrameHandler3
text$x	ENDS
??Kgen@@YA?AVCMatrix4x4@0@ABV10@M@Z ENDP		; gen::operator/
; Function compile flags: /Odtp /RTCsu /ZI
; File c:\users\simon\documents\github\uclan-sparta\import\math\cmatrix4x4.cpp
;	COMDAT ??Dgen@@YA?AVCMatrix4x4@0@ABV10@M@Z
_TEXT	SEGMENT
_mOut$ = -68						; size = 64
___$ReturnUdt$ = 8					; size = 4
_m$ = 12						; size = 4
_s$ = 16						; size = 4
??Dgen@@YA?AVCMatrix4x4@0@ABV10@M@Z PROC		; gen::operator*, COMDAT

; 2994 : {

	push	ebp
	mov	ebp, esp
	sub	esp, 264				; 00000108H
	push	ebx
	push	esi
	push	edi
	lea	edi, DWORD PTR [ebp-264]
	mov	ecx, 66					; 00000042H
	mov	eax, -858993460				; ccccccccH
	rep stosd

; 2995 : 	CMatrix4x4 mOut;

	lea	ecx, DWORD PTR _mOut$[ebp]
	call	??0CMatrix4x4@gen@@QAE@XZ		; gen::CMatrix4x4::CMatrix4x4

; 2996 :     mOut.e00 = m.e00 * s;

	mov	eax, DWORD PTR _m$[ebp]
	movss	xmm0, DWORD PTR [eax]
	mulss	xmm0, DWORD PTR _s$[ebp]
	movss	DWORD PTR _mOut$[ebp], xmm0

; 2997 :     mOut.e01 = m.e01 * s;

	mov	eax, DWORD PTR _m$[ebp]
	movss	xmm0, DWORD PTR [eax+4]
	mulss	xmm0, DWORD PTR _s$[ebp]
	movss	DWORD PTR _mOut$[ebp+4], xmm0

; 2998 :     mOut.e02 = m.e02 * s;

	mov	eax, DWORD PTR _m$[ebp]
	movss	xmm0, DWORD PTR [eax+8]
	mulss	xmm0, DWORD PTR _s$[ebp]
	movss	DWORD PTR _mOut$[ebp+8], xmm0

; 2999 :     mOut.e03 = m.e03 * s;

	mov	eax, DWORD PTR _m$[ebp]
	movss	xmm0, DWORD PTR [eax+12]
	mulss	xmm0, DWORD PTR _s$[ebp]
	movss	DWORD PTR _mOut$[ebp+12], xmm0

; 3000 :     mOut.e10 = m.e10 * s;

	mov	eax, DWORD PTR _m$[ebp]
	movss	xmm0, DWORD PTR [eax+16]
	mulss	xmm0, DWORD PTR _s$[ebp]
	movss	DWORD PTR _mOut$[ebp+16], xmm0

; 3001 :     mOut.e11 = m.e11 * s;

	mov	eax, DWORD PTR _m$[ebp]
	movss	xmm0, DWORD PTR [eax+20]
	mulss	xmm0, DWORD PTR _s$[ebp]
	movss	DWORD PTR _mOut$[ebp+20], xmm0

; 3002 :     mOut.e12 = m.e12 * s;

	mov	eax, DWORD PTR _m$[ebp]
	movss	xmm0, DWORD PTR [eax+24]
	mulss	xmm0, DWORD PTR _s$[ebp]
	movss	DWORD PTR _mOut$[ebp+24], xmm0

; 3003 :     mOut.e13 = m.e13 * s;

	mov	eax, DWORD PTR _m$[ebp]
	movss	xmm0, DWORD PTR [eax+28]
	mulss	xmm0, DWORD PTR _s$[ebp]
	movss	DWORD PTR _mOut$[ebp+28], xmm0

; 3004 :     mOut.e20 = m.e20 * s;

	mov	eax, DWORD PTR _m$[ebp]
	movss	xmm0, DWORD PTR [eax+32]
	mulss	xmm0, DWORD PTR _s$[ebp]
	movss	DWORD PTR _mOut$[ebp+32], xmm0

; 3005 :     mOut.e21 = m.e21 * s;

	mov	eax, DWORD PTR _m$[ebp]
	movss	xmm0, DWORD PTR [eax+36]
	mulss	xmm0, DWORD PTR _s$[ebp]
	movss	DWORD PTR _mOut$[ebp+36], xmm0

; 3006 :     mOut.e22 = m.e22 * s;

	mov	eax, DWORD PTR _m$[ebp]
	movss	xmm0, DWORD PTR [eax+40]
	mulss	xmm0, DWORD PTR _s$[ebp]
	movss	DWORD PTR _mOut$[ebp+40], xmm0

; 3007 :     mOut.e23 = m.e23 * s;

	mov	eax, DWORD PTR _m$[ebp]
	movss	xmm0, DWORD PTR [eax+44]
	mulss	xmm0, DWORD PTR _s$[ebp]
	movss	DWORD PTR _mOut$[ebp+44], xmm0

; 3008 :     mOut.e30 = m.e30 * s;

	mov	eax, DWORD PTR _m$[ebp]
	movss	xmm0, DWORD PTR [eax+48]
	mulss	xmm0, DWORD PTR _s$[ebp]
	movss	DWORD PTR _mOut$[ebp+48], xmm0

; 3009 :     mOut.e31 = m.e31 * s;

	mov	eax, DWORD PTR _m$[ebp]
	movss	xmm0, DWORD PTR [eax+52]
	mulss	xmm0, DWORD PTR _s$[ebp]
	movss	DWORD PTR _mOut$[ebp+52], xmm0

; 3010 :     mOut.e32 = m.e32 * s;

	mov	eax, DWORD PTR _m$[ebp]
	movss	xmm0, DWORD PTR [eax+56]
	mulss	xmm0, DWORD PTR _s$[ebp]
	movss	DWORD PTR _mOut$[ebp+56], xmm0

; 3011 :     mOut.e33 = m.e33 * s;

	mov	eax, DWORD PTR _m$[ebp]
	movss	xmm0, DWORD PTR [eax+60]
	mulss	xmm0, DWORD PTR _s$[ebp]
	movss	DWORD PTR _mOut$[ebp+60], xmm0

; 3012 : 
; 3013 : 	return mOut;

	lea	eax, DWORD PTR _mOut$[ebp]
	push	eax
	mov	ecx, DWORD PTR ___$ReturnUdt$[ebp]
	call	??0CMatrix4x4@gen@@QAE@ABV01@@Z		; gen::CMatrix4x4::CMatrix4x4
	mov	eax, DWORD PTR ___$ReturnUdt$[ebp]

; 3014 : }

	push	edx
	mov	ecx, ebp
	push	eax
	lea	edx, DWORD PTR $LN5@operator
	call	@_RTC_CheckStackVars@8
	pop	eax
	pop	edx
	pop	edi
	pop	esi
	pop	ebx
	add	esp, 264				; 00000108H
	cmp	ebp, esp
	call	__RTC_CheckEsp
	mov	esp, ebp
	pop	ebp
	ret	0
	npad	3
$LN5@operator:
	DD	1
	DD	$LN4@operator
$LN4@operator:
	DD	-68					; ffffffbcH
	DD	64					; 00000040H
	DD	$LN3@operator
$LN3@operator:
	DB	109					; 0000006dH
	DB	79					; 0000004fH
	DB	117					; 00000075H
	DB	116					; 00000074H
	DB	0
??Dgen@@YA?AVCMatrix4x4@0@ABV10@M@Z ENDP		; gen::operator*
_TEXT	ENDS
; Function compile flags: /Odtp /RTCsu /ZI
; File c:\users\simon\documents\github\uclan-sparta\import\math\cmatrix4x4.cpp
;	COMDAT ??Dgen@@YA?AVCMatrix4x4@0@MABV10@@Z
_TEXT	SEGMENT
_mOut$ = -68						; size = 64
___$ReturnUdt$ = 8					; size = 4
_s$ = 12						; size = 4
_m$ = 16						; size = 4
??Dgen@@YA?AVCMatrix4x4@0@MABV10@@Z PROC		; gen::operator*, COMDAT

; 3022 : {

	push	ebp
	mov	ebp, esp
	sub	esp, 264				; 00000108H
	push	ebx
	push	esi
	push	edi
	lea	edi, DWORD PTR [ebp-264]
	mov	ecx, 66					; 00000042H
	mov	eax, -858993460				; ccccccccH
	rep stosd

; 3023 : 	CMatrix4x4 mOut;

	lea	ecx, DWORD PTR _mOut$[ebp]
	call	??0CMatrix4x4@gen@@QAE@XZ		; gen::CMatrix4x4::CMatrix4x4

; 3024 :     mOut.e00 = m.e00 * s;

	mov	eax, DWORD PTR _m$[ebp]
	movss	xmm0, DWORD PTR [eax]
	mulss	xmm0, DWORD PTR _s$[ebp]
	movss	DWORD PTR _mOut$[ebp], xmm0

; 3025 :     mOut.e01 = m.e01 * s;

	mov	eax, DWORD PTR _m$[ebp]
	movss	xmm0, DWORD PTR [eax+4]
	mulss	xmm0, DWORD PTR _s$[ebp]
	movss	DWORD PTR _mOut$[ebp+4], xmm0

; 3026 :     mOut.e02 = m.e02 * s;

	mov	eax, DWORD PTR _m$[ebp]
	movss	xmm0, DWORD PTR [eax+8]
	mulss	xmm0, DWORD PTR _s$[ebp]
	movss	DWORD PTR _mOut$[ebp+8], xmm0

; 3027 :     mOut.e03 = m.e03 * s;

	mov	eax, DWORD PTR _m$[ebp]
	movss	xmm0, DWORD PTR [eax+12]
	mulss	xmm0, DWORD PTR _s$[ebp]
	movss	DWORD PTR _mOut$[ebp+12], xmm0

; 3028 :     mOut.e10 = m.e10 * s;

	mov	eax, DWORD PTR _m$[ebp]
	movss	xmm0, DWORD PTR [eax+16]
	mulss	xmm0, DWORD PTR _s$[ebp]
	movss	DWORD PTR _mOut$[ebp+16], xmm0

; 3029 :     mOut.e11 = m.e11 * s;

	mov	eax, DWORD PTR _m$[ebp]
	movss	xmm0, DWORD PTR [eax+20]
	mulss	xmm0, DWORD PTR _s$[ebp]
	movss	DWORD PTR _mOut$[ebp+20], xmm0

; 3030 :     mOut.e12 = m.e12 * s;

	mov	eax, DWORD PTR _m$[ebp]
	movss	xmm0, DWORD PTR [eax+24]
	mulss	xmm0, DWORD PTR _s$[ebp]
	movss	DWORD PTR _mOut$[ebp+24], xmm0

; 3031 :     mOut.e13 = m.e13 * s;

	mov	eax, DWORD PTR _m$[ebp]
	movss	xmm0, DWORD PTR [eax+28]
	mulss	xmm0, DWORD PTR _s$[ebp]
	movss	DWORD PTR _mOut$[ebp+28], xmm0

; 3032 :     mOut.e20 = m.e20 * s;

	mov	eax, DWORD PTR _m$[ebp]
	movss	xmm0, DWORD PTR [eax+32]
	mulss	xmm0, DWORD PTR _s$[ebp]
	movss	DWORD PTR _mOut$[ebp+32], xmm0

; 3033 :     mOut.e21 = m.e21 * s;

	mov	eax, DWORD PTR _m$[ebp]
	movss	xmm0, DWORD PTR [eax+36]
	mulss	xmm0, DWORD PTR _s$[ebp]
	movss	DWORD PTR _mOut$[ebp+36], xmm0

; 3034 :     mOut.e22 = m.e22 * s;

	mov	eax, DWORD PTR _m$[ebp]
	movss	xmm0, DWORD PTR [eax+40]
	mulss	xmm0, DWORD PTR _s$[ebp]
	movss	DWORD PTR _mOut$[ebp+40], xmm0

; 3035 :     mOut.e23 = m.e23 * s;

	mov	eax, DWORD PTR _m$[ebp]
	movss	xmm0, DWORD PTR [eax+44]
	mulss	xmm0, DWORD PTR _s$[ebp]
	movss	DWORD PTR _mOut$[ebp+44], xmm0

; 3036 :     mOut.e30 = m.e30 * s;

	mov	eax, DWORD PTR _m$[ebp]
	movss	xmm0, DWORD PTR [eax+48]
	mulss	xmm0, DWORD PTR _s$[ebp]
	movss	DWORD PTR _mOut$[ebp+48], xmm0

; 3037 :     mOut.e31 = m.e31 * s;

	mov	eax, DWORD PTR _m$[ebp]
	movss	xmm0, DWORD PTR [eax+52]
	mulss	xmm0, DWORD PTR _s$[ebp]
	movss	DWORD PTR _mOut$[ebp+52], xmm0

; 3038 :     mOut.e32 = m.e32 * s;

	mov	eax, DWORD PTR _m$[ebp]
	movss	xmm0, DWORD PTR [eax+56]
	mulss	xmm0, DWORD PTR _s$[ebp]
	movss	DWORD PTR _mOut$[ebp+56], xmm0

; 3039 :     mOut.e33 = m.e33 * s;

	mov	eax, DWORD PTR _m$[ebp]
	movss	xmm0, DWORD PTR [eax+60]
	mulss	xmm0, DWORD PTR _s$[ebp]
	movss	DWORD PTR _mOut$[ebp+60], xmm0

; 3040 : 
; 3041 : 	return mOut;

	lea	eax, DWORD PTR _mOut$[ebp]
	push	eax
	mov	ecx, DWORD PTR ___$ReturnUdt$[ebp]
	call	??0CMatrix4x4@gen@@QAE@ABV01@@Z		; gen::CMatrix4x4::CMatrix4x4
	mov	eax, DWORD PTR ___$ReturnUdt$[ebp]

; 3042 : }

	push	edx
	mov	ecx, ebp
	push	eax
	lea	edx, DWORD PTR $LN5@operator
	call	@_RTC_CheckStackVars@8
	pop	eax
	pop	edx
	pop	edi
	pop	esi
	pop	ebx
	add	esp, 264				; 00000108H
	cmp	ebp, esp
	call	__RTC_CheckEsp
	mov	esp, ebp
	pop	ebp
	ret	0
	npad	3
$LN5@operator:
	DD	1
	DD	$LN4@operator
$LN4@operator:
	DD	-68					; ffffffbcH
	DD	64					; 00000040H
	DD	$LN3@operator
$LN3@operator:
	DB	109					; 0000006dH
	DB	79					; 0000004fH
	DB	117					; 00000075H
	DB	116					; 00000074H
	DB	0
??Dgen@@YA?AVCMatrix4x4@0@MABV10@@Z ENDP		; gen::operator*
_TEXT	ENDS
; Function compile flags: /Odtp /RTCsu /ZI
; File c:\users\simon\documents\github\uclan-sparta\import\math\cmatrix4x4.cpp
;	COMDAT ??9gen@@YA_NABVCMatrix4x4@0@0@Z
_TEXT	SEGMENT
tv224 = -196						; size = 4
_m1$ = 8						; size = 4
_m2$ = 12						; size = 4
??9gen@@YA_NABVCMatrix4x4@0@0@Z PROC			; gen::operator!=, COMDAT

; 2950 : {

	push	ebp
	mov	ebp, esp
	sub	esp, 196				; 000000c4H
	push	ebx
	push	esi
	push	edi
	lea	edi, DWORD PTR [ebp-196]
	mov	ecx, 49					; 00000031H
	mov	eax, -858993460				; ccccccccH
	rep stosd

; 2951 : 	return !AreEqual( m1.e00, m2.e00 ) || !AreEqual( m1.e01, m2.e01 ) || 
; 2952 : 	       !AreEqual( m1.e02, m2.e02 ) || !AreEqual( m1.e03, m2.e03 ) || 
; 2953 : 		   !AreEqual( m1.e10, m2.e10 ) || !AreEqual( m1.e11, m2.e11 ) || 
; 2954 : 	       !AreEqual( m1.e12, m2.e12 ) || !AreEqual( m1.e13, m2.e13 ) || 
; 2955 : 	       !AreEqual( m1.e20, m2.e20 ) || !AreEqual( m1.e21, m2.e21 ) || 
; 2956 : 	       !AreEqual( m1.e22, m2.e22 ) || !AreEqual( m1.e23, m2.e23 ) || 
; 2957 : 	       !AreEqual( m1.e30, m2.e30 ) || !AreEqual( m1.e31, m2.e31 ) || 
; 2958 : 	       !AreEqual( m1.e32, m2.e32 ) || !AreEqual( m1.e33, m2.e33 );

	push	4
	mov	eax, DWORD PTR _m2$[ebp]
	push	ecx
	movss	xmm0, DWORD PTR [eax]
	movss	DWORD PTR [esp], xmm0
	mov	ecx, DWORD PTR _m1$[ebp]
	push	ecx
	movss	xmm0, DWORD PTR [ecx]
	movss	DWORD PTR [esp], xmm0
	call	?AreEqual@gen@@YA_NMMI@Z		; gen::AreEqual
	add	esp, 12					; 0000000cH
	movzx	edx, al
	test	edx, edx
	je	$LN3@operator
	push	4
	mov	eax, DWORD PTR _m2$[ebp]
	push	ecx
	movss	xmm0, DWORD PTR [eax+4]
	movss	DWORD PTR [esp], xmm0
	mov	ecx, DWORD PTR _m1$[ebp]
	push	ecx
	movss	xmm0, DWORD PTR [ecx+4]
	movss	DWORD PTR [esp], xmm0
	call	?AreEqual@gen@@YA_NMMI@Z		; gen::AreEqual
	add	esp, 12					; 0000000cH
	movzx	edx, al
	test	edx, edx
	je	$LN3@operator
	push	4
	mov	eax, DWORD PTR _m2$[ebp]
	push	ecx
	movss	xmm0, DWORD PTR [eax+8]
	movss	DWORD PTR [esp], xmm0
	mov	ecx, DWORD PTR _m1$[ebp]
	push	ecx
	movss	xmm0, DWORD PTR [ecx+8]
	movss	DWORD PTR [esp], xmm0
	call	?AreEqual@gen@@YA_NMMI@Z		; gen::AreEqual
	add	esp, 12					; 0000000cH
	movzx	edx, al
	test	edx, edx
	je	$LN3@operator
	push	4
	mov	eax, DWORD PTR _m2$[ebp]
	push	ecx
	movss	xmm0, DWORD PTR [eax+12]
	movss	DWORD PTR [esp], xmm0
	mov	ecx, DWORD PTR _m1$[ebp]
	push	ecx
	movss	xmm0, DWORD PTR [ecx+12]
	movss	DWORD PTR [esp], xmm0
	call	?AreEqual@gen@@YA_NMMI@Z		; gen::AreEqual
	add	esp, 12					; 0000000cH
	movzx	edx, al
	test	edx, edx
	je	$LN3@operator
	push	4
	mov	eax, DWORD PTR _m2$[ebp]
	push	ecx
	movss	xmm0, DWORD PTR [eax+16]
	movss	DWORD PTR [esp], xmm0
	mov	ecx, DWORD PTR _m1$[ebp]
	push	ecx
	movss	xmm0, DWORD PTR [ecx+16]
	movss	DWORD PTR [esp], xmm0
	call	?AreEqual@gen@@YA_NMMI@Z		; gen::AreEqual
	add	esp, 12					; 0000000cH
	movzx	edx, al
	test	edx, edx
	je	$LN3@operator
	push	4
	mov	eax, DWORD PTR _m2$[ebp]
	push	ecx
	movss	xmm0, DWORD PTR [eax+20]
	movss	DWORD PTR [esp], xmm0
	mov	ecx, DWORD PTR _m1$[ebp]
	push	ecx
	movss	xmm0, DWORD PTR [ecx+20]
	movss	DWORD PTR [esp], xmm0
	call	?AreEqual@gen@@YA_NMMI@Z		; gen::AreEqual
	add	esp, 12					; 0000000cH
	movzx	edx, al
	test	edx, edx
	je	$LN3@operator
	push	4
	mov	eax, DWORD PTR _m2$[ebp]
	push	ecx
	movss	xmm0, DWORD PTR [eax+24]
	movss	DWORD PTR [esp], xmm0
	mov	ecx, DWORD PTR _m1$[ebp]
	push	ecx
	movss	xmm0, DWORD PTR [ecx+24]
	movss	DWORD PTR [esp], xmm0
	call	?AreEqual@gen@@YA_NMMI@Z		; gen::AreEqual
	add	esp, 12					; 0000000cH
	movzx	edx, al
	test	edx, edx
	je	$LN3@operator
	push	4
	mov	eax, DWORD PTR _m2$[ebp]
	push	ecx
	movss	xmm0, DWORD PTR [eax+28]
	movss	DWORD PTR [esp], xmm0
	mov	ecx, DWORD PTR _m1$[ebp]
	push	ecx
	movss	xmm0, DWORD PTR [ecx+28]
	movss	DWORD PTR [esp], xmm0
	call	?AreEqual@gen@@YA_NMMI@Z		; gen::AreEqual
	add	esp, 12					; 0000000cH
	movzx	edx, al
	test	edx, edx
	je	$LN3@operator
	push	4
	mov	eax, DWORD PTR _m2$[ebp]
	push	ecx
	movss	xmm0, DWORD PTR [eax+32]
	movss	DWORD PTR [esp], xmm0
	mov	ecx, DWORD PTR _m1$[ebp]
	push	ecx
	movss	xmm0, DWORD PTR [ecx+32]
	movss	DWORD PTR [esp], xmm0
	call	?AreEqual@gen@@YA_NMMI@Z		; gen::AreEqual
	add	esp, 12					; 0000000cH
	movzx	edx, al
	test	edx, edx
	je	$LN3@operator
	push	4
	mov	eax, DWORD PTR _m2$[ebp]
	push	ecx
	movss	xmm0, DWORD PTR [eax+36]
	movss	DWORD PTR [esp], xmm0
	mov	ecx, DWORD PTR _m1$[ebp]
	push	ecx
	movss	xmm0, DWORD PTR [ecx+36]
	movss	DWORD PTR [esp], xmm0
	call	?AreEqual@gen@@YA_NMMI@Z		; gen::AreEqual
	add	esp, 12					; 0000000cH
	movzx	edx, al
	test	edx, edx
	je	$LN3@operator
	push	4
	mov	eax, DWORD PTR _m2$[ebp]
	push	ecx
	movss	xmm0, DWORD PTR [eax+40]
	movss	DWORD PTR [esp], xmm0
	mov	ecx, DWORD PTR _m1$[ebp]
	push	ecx
	movss	xmm0, DWORD PTR [ecx+40]
	movss	DWORD PTR [esp], xmm0
	call	?AreEqual@gen@@YA_NMMI@Z		; gen::AreEqual
	add	esp, 12					; 0000000cH
	movzx	edx, al
	test	edx, edx
	je	$LN3@operator
	push	4
	mov	eax, DWORD PTR _m2$[ebp]
	push	ecx
	movss	xmm0, DWORD PTR [eax+44]
	movss	DWORD PTR [esp], xmm0
	mov	ecx, DWORD PTR _m1$[ebp]
	push	ecx
	movss	xmm0, DWORD PTR [ecx+44]
	movss	DWORD PTR [esp], xmm0
	call	?AreEqual@gen@@YA_NMMI@Z		; gen::AreEqual
	add	esp, 12					; 0000000cH
	movzx	edx, al
	test	edx, edx
	je	$LN3@operator
	push	4
	mov	eax, DWORD PTR _m2$[ebp]
	push	ecx
	movss	xmm0, DWORD PTR [eax+48]
	movss	DWORD PTR [esp], xmm0
	mov	ecx, DWORD PTR _m1$[ebp]
	push	ecx
	movss	xmm0, DWORD PTR [ecx+48]
	movss	DWORD PTR [esp], xmm0
	call	?AreEqual@gen@@YA_NMMI@Z		; gen::AreEqual
	add	esp, 12					; 0000000cH
	movzx	edx, al
	test	edx, edx
	je	$LN3@operator
	push	4
	mov	eax, DWORD PTR _m2$[ebp]
	push	ecx
	movss	xmm0, DWORD PTR [eax+52]
	movss	DWORD PTR [esp], xmm0
	mov	ecx, DWORD PTR _m1$[ebp]
	push	ecx
	movss	xmm0, DWORD PTR [ecx+52]
	movss	DWORD PTR [esp], xmm0
	call	?AreEqual@gen@@YA_NMMI@Z		; gen::AreEqual
	add	esp, 12					; 0000000cH
	movzx	edx, al
	test	edx, edx
	je	SHORT $LN3@operator
	push	4
	mov	eax, DWORD PTR _m2$[ebp]
	push	ecx
	movss	xmm0, DWORD PTR [eax+56]
	movss	DWORD PTR [esp], xmm0
	mov	ecx, DWORD PTR _m1$[ebp]
	push	ecx
	movss	xmm0, DWORD PTR [ecx+56]
	movss	DWORD PTR [esp], xmm0
	call	?AreEqual@gen@@YA_NMMI@Z		; gen::AreEqual
	add	esp, 12					; 0000000cH
	movzx	edx, al
	test	edx, edx
	je	SHORT $LN3@operator
	push	4
	mov	eax, DWORD PTR _m2$[ebp]
	push	ecx
	movss	xmm0, DWORD PTR [eax+60]
	movss	DWORD PTR [esp], xmm0
	mov	ecx, DWORD PTR _m1$[ebp]
	push	ecx
	movss	xmm0, DWORD PTR [ecx+60]
	movss	DWORD PTR [esp], xmm0
	call	?AreEqual@gen@@YA_NMMI@Z		; gen::AreEqual
	add	esp, 12					; 0000000cH
	movzx	edx, al
	test	edx, edx
	je	SHORT $LN3@operator
	mov	DWORD PTR tv224[ebp], 0
	jmp	SHORT $LN4@operator
$LN3@operator:
	mov	DWORD PTR tv224[ebp], 1
$LN4@operator:
	mov	al, BYTE PTR tv224[ebp]

; 2959 : }

	pop	edi
	pop	esi
	pop	ebx
	add	esp, 196				; 000000c4H
	cmp	ebp, esp
	call	__RTC_CheckEsp
	mov	esp, ebp
	pop	ebp
	ret	0
??9gen@@YA_NABVCMatrix4x4@0@0@Z ENDP			; gen::operator!=
_TEXT	ENDS
; Function compile flags: /Odtp /RTCsu /ZI
; File c:\users\simon\documents\github\uclan-sparta\import\math\cmatrix4x4.cpp
;	COMDAT ??8gen@@YA_NABVCMatrix4x4@0@0@Z
_TEXT	SEGMENT
tv224 = -196						; size = 4
_m1$ = 8						; size = 4
_m2$ = 12						; size = 4
??8gen@@YA_NABVCMatrix4x4@0@0@Z PROC			; gen::operator==, COMDAT

; 2932 : {

	push	ebp
	mov	ebp, esp
	sub	esp, 196				; 000000c4H
	push	ebx
	push	esi
	push	edi
	lea	edi, DWORD PTR [ebp-196]
	mov	ecx, 49					; 00000031H
	mov	eax, -858993460				; ccccccccH
	rep stosd

; 2933 : 	return AreEqual( m1.e00, m2.e00 ) && AreEqual( m1.e01, m2.e01 ) && 
; 2934 : 	       AreEqual( m1.e02, m2.e02 ) && AreEqual( m1.e03, m2.e03 ) && 
; 2935 : 		   AreEqual( m1.e10, m2.e10 ) && AreEqual( m1.e11, m2.e11 ) && 
; 2936 : 	       AreEqual( m1.e12, m2.e12 ) && AreEqual( m1.e13, m2.e13 ) && 
; 2937 : 	       AreEqual( m1.e20, m2.e20 ) && AreEqual( m1.e21, m2.e21 ) && 
; 2938 : 	       AreEqual( m1.e22, m2.e22 ) && AreEqual( m1.e23, m2.e23 ) && 
; 2939 : 	       AreEqual( m1.e30, m2.e30 ) && AreEqual( m1.e31, m2.e31 ) && 
; 2940 : 	       AreEqual( m1.e32, m2.e32 ) && AreEqual( m1.e33, m2.e33 );

	push	4
	mov	eax, DWORD PTR _m2$[ebp]
	push	ecx
	movss	xmm0, DWORD PTR [eax]
	movss	DWORD PTR [esp], xmm0
	mov	ecx, DWORD PTR _m1$[ebp]
	push	ecx
	movss	xmm0, DWORD PTR [ecx]
	movss	DWORD PTR [esp], xmm0
	call	?AreEqual@gen@@YA_NMMI@Z		; gen::AreEqual
	add	esp, 12					; 0000000cH
	movzx	edx, al
	test	edx, edx
	je	$LN3@operator
	push	4
	mov	eax, DWORD PTR _m2$[ebp]
	push	ecx
	movss	xmm0, DWORD PTR [eax+4]
	movss	DWORD PTR [esp], xmm0
	mov	ecx, DWORD PTR _m1$[ebp]
	push	ecx
	movss	xmm0, DWORD PTR [ecx+4]
	movss	DWORD PTR [esp], xmm0
	call	?AreEqual@gen@@YA_NMMI@Z		; gen::AreEqual
	add	esp, 12					; 0000000cH
	movzx	edx, al
	test	edx, edx
	je	$LN3@operator
	push	4
	mov	eax, DWORD PTR _m2$[ebp]
	push	ecx
	movss	xmm0, DWORD PTR [eax+8]
	movss	DWORD PTR [esp], xmm0
	mov	ecx, DWORD PTR _m1$[ebp]
	push	ecx
	movss	xmm0, DWORD PTR [ecx+8]
	movss	DWORD PTR [esp], xmm0
	call	?AreEqual@gen@@YA_NMMI@Z		; gen::AreEqual
	add	esp, 12					; 0000000cH
	movzx	edx, al
	test	edx, edx
	je	$LN3@operator
	push	4
	mov	eax, DWORD PTR _m2$[ebp]
	push	ecx
	movss	xmm0, DWORD PTR [eax+12]
	movss	DWORD PTR [esp], xmm0
	mov	ecx, DWORD PTR _m1$[ebp]
	push	ecx
	movss	xmm0, DWORD PTR [ecx+12]
	movss	DWORD PTR [esp], xmm0
	call	?AreEqual@gen@@YA_NMMI@Z		; gen::AreEqual
	add	esp, 12					; 0000000cH
	movzx	edx, al
	test	edx, edx
	je	$LN3@operator
	push	4
	mov	eax, DWORD PTR _m2$[ebp]
	push	ecx
	movss	xmm0, DWORD PTR [eax+16]
	movss	DWORD PTR [esp], xmm0
	mov	ecx, DWORD PTR _m1$[ebp]
	push	ecx
	movss	xmm0, DWORD PTR [ecx+16]
	movss	DWORD PTR [esp], xmm0
	call	?AreEqual@gen@@YA_NMMI@Z		; gen::AreEqual
	add	esp, 12					; 0000000cH
	movzx	edx, al
	test	edx, edx
	je	$LN3@operator
	push	4
	mov	eax, DWORD PTR _m2$[ebp]
	push	ecx
	movss	xmm0, DWORD PTR [eax+20]
	movss	DWORD PTR [esp], xmm0
	mov	ecx, DWORD PTR _m1$[ebp]
	push	ecx
	movss	xmm0, DWORD PTR [ecx+20]
	movss	DWORD PTR [esp], xmm0
	call	?AreEqual@gen@@YA_NMMI@Z		; gen::AreEqual
	add	esp, 12					; 0000000cH
	movzx	edx, al
	test	edx, edx
	je	$LN3@operator
	push	4
	mov	eax, DWORD PTR _m2$[ebp]
	push	ecx
	movss	xmm0, DWORD PTR [eax+24]
	movss	DWORD PTR [esp], xmm0
	mov	ecx, DWORD PTR _m1$[ebp]
	push	ecx
	movss	xmm0, DWORD PTR [ecx+24]
	movss	DWORD PTR [esp], xmm0
	call	?AreEqual@gen@@YA_NMMI@Z		; gen::AreEqual
	add	esp, 12					; 0000000cH
	movzx	edx, al
	test	edx, edx
	je	$LN3@operator
	push	4
	mov	eax, DWORD PTR _m2$[ebp]
	push	ecx
	movss	xmm0, DWORD PTR [eax+28]
	movss	DWORD PTR [esp], xmm0
	mov	ecx, DWORD PTR _m1$[ebp]
	push	ecx
	movss	xmm0, DWORD PTR [ecx+28]
	movss	DWORD PTR [esp], xmm0
	call	?AreEqual@gen@@YA_NMMI@Z		; gen::AreEqual
	add	esp, 12					; 0000000cH
	movzx	edx, al
	test	edx, edx
	je	$LN3@operator
	push	4
	mov	eax, DWORD PTR _m2$[ebp]
	push	ecx
	movss	xmm0, DWORD PTR [eax+32]
	movss	DWORD PTR [esp], xmm0
	mov	ecx, DWORD PTR _m1$[ebp]
	push	ecx
	movss	xmm0, DWORD PTR [ecx+32]
	movss	DWORD PTR [esp], xmm0
	call	?AreEqual@gen@@YA_NMMI@Z		; gen::AreEqual
	add	esp, 12					; 0000000cH
	movzx	edx, al
	test	edx, edx
	je	$LN3@operator
	push	4
	mov	eax, DWORD PTR _m2$[ebp]
	push	ecx
	movss	xmm0, DWORD PTR [eax+36]
	movss	DWORD PTR [esp], xmm0
	mov	ecx, DWORD PTR _m1$[ebp]
	push	ecx
	movss	xmm0, DWORD PTR [ecx+36]
	movss	DWORD PTR [esp], xmm0
	call	?AreEqual@gen@@YA_NMMI@Z		; gen::AreEqual
	add	esp, 12					; 0000000cH
	movzx	edx, al
	test	edx, edx
	je	$LN3@operator
	push	4
	mov	eax, DWORD PTR _m2$[ebp]
	push	ecx
	movss	xmm0, DWORD PTR [eax+40]
	movss	DWORD PTR [esp], xmm0
	mov	ecx, DWORD PTR _m1$[ebp]
	push	ecx
	movss	xmm0, DWORD PTR [ecx+40]
	movss	DWORD PTR [esp], xmm0
	call	?AreEqual@gen@@YA_NMMI@Z		; gen::AreEqual
	add	esp, 12					; 0000000cH
	movzx	edx, al
	test	edx, edx
	je	$LN3@operator
	push	4
	mov	eax, DWORD PTR _m2$[ebp]
	push	ecx
	movss	xmm0, DWORD PTR [eax+44]
	movss	DWORD PTR [esp], xmm0
	mov	ecx, DWORD PTR _m1$[ebp]
	push	ecx
	movss	xmm0, DWORD PTR [ecx+44]
	movss	DWORD PTR [esp], xmm0
	call	?AreEqual@gen@@YA_NMMI@Z		; gen::AreEqual
	add	esp, 12					; 0000000cH
	movzx	edx, al
	test	edx, edx
	je	$LN3@operator
	push	4
	mov	eax, DWORD PTR _m2$[ebp]
	push	ecx
	movss	xmm0, DWORD PTR [eax+48]
	movss	DWORD PTR [esp], xmm0
	mov	ecx, DWORD PTR _m1$[ebp]
	push	ecx
	movss	xmm0, DWORD PTR [ecx+48]
	movss	DWORD PTR [esp], xmm0
	call	?AreEqual@gen@@YA_NMMI@Z		; gen::AreEqual
	add	esp, 12					; 0000000cH
	movzx	edx, al
	test	edx, edx
	je	$LN3@operator
	push	4
	mov	eax, DWORD PTR _m2$[ebp]
	push	ecx
	movss	xmm0, DWORD PTR [eax+52]
	movss	DWORD PTR [esp], xmm0
	mov	ecx, DWORD PTR _m1$[ebp]
	push	ecx
	movss	xmm0, DWORD PTR [ecx+52]
	movss	DWORD PTR [esp], xmm0
	call	?AreEqual@gen@@YA_NMMI@Z		; gen::AreEqual
	add	esp, 12					; 0000000cH
	movzx	edx, al
	test	edx, edx
	je	SHORT $LN3@operator
	push	4
	mov	eax, DWORD PTR _m2$[ebp]
	push	ecx
	movss	xmm0, DWORD PTR [eax+56]
	movss	DWORD PTR [esp], xmm0
	mov	ecx, DWORD PTR _m1$[ebp]
	push	ecx
	movss	xmm0, DWORD PTR [ecx+56]
	movss	DWORD PTR [esp], xmm0
	call	?AreEqual@gen@@YA_NMMI@Z		; gen::AreEqual
	add	esp, 12					; 0000000cH
	movzx	edx, al
	test	edx, edx
	je	SHORT $LN3@operator
	push	4
	mov	eax, DWORD PTR _m2$[ebp]
	push	ecx
	movss	xmm0, DWORD PTR [eax+60]
	movss	DWORD PTR [esp], xmm0
	mov	ecx, DWORD PTR _m1$[ebp]
	push	ecx
	movss	xmm0, DWORD PTR [ecx+60]
	movss	DWORD PTR [esp], xmm0
	call	?AreEqual@gen@@YA_NMMI@Z		; gen::AreEqual
	add	esp, 12					; 0000000cH
	movzx	edx, al
	test	edx, edx
	je	SHORT $LN3@operator
	mov	DWORD PTR tv224[ebp], 1
	jmp	SHORT $LN4@operator
$LN3@operator:
	mov	DWORD PTR tv224[ebp], 0
$LN4@operator:
	mov	al, BYTE PTR tv224[ebp]

; 2941 : }

	pop	edi
	pop	esi
	pop	ebx
	add	esp, 196				; 000000c4H
	cmp	ebp, esp
	call	__RTC_CheckEsp
	mov	esp, ebp
	pop	ebp
	ret	0
??8gen@@YA_NABVCMatrix4x4@0@0@Z ENDP			; gen::operator==
_TEXT	ENDS
; Function compile flags: /Odtp /RTCsu /ZI
; File c:\users\simon\documents\github\uclan-sparta\import\math\cmatrix4x4.cpp
;	COMDAT ?MultiplyAffine@CMatrix4x4@gen@@QAEAAV12@ABV12@@Z
_TEXT	SEGMENT
$T1 = -296						; size = 64
_t1$2 = -32						; size = 4
_t0$3 = -20						; size = 4
_this$ = -8						; size = 4
_m$ = 8							; size = 4
?MultiplyAffine@CMatrix4x4@gen@@QAEAAV12@ABV12@@Z PROC	; gen::CMatrix4x4::MultiplyAffine, COMDAT
; _this$ = ecx

; 3268 : {

	push	ebp
	mov	ebp, esp
	sub	esp, 300				; 0000012cH
	push	ebx
	push	esi
	push	edi
	push	ecx
	lea	edi, DWORD PTR [ebp-300]
	mov	ecx, 75					; 0000004bH
	mov	eax, -858993460				; ccccccccH
	rep stosd
	pop	ecx
	mov	DWORD PTR _this$[ebp], ecx

; 3269 : 	if ( this == &m )

	mov	eax, DWORD PTR _this$[ebp]
	cmp	eax, DWORD PTR _m$[ebp]
	jne	SHORT $LN2@MultiplyAf

; 3270 : 	{
; 3271 : 		// Special case of multiplying by self - no copy optimisations so use binary version
; 3272 : 		*this = gen::MultiplyAffine( m, m );

	mov	eax, DWORD PTR _m$[ebp]
	push	eax
	mov	ecx, DWORD PTR _m$[ebp]
	push	ecx
	lea	edx, DWORD PTR $T1[ebp]
	push	edx
	call	?MultiplyAffine@gen@@YA?AVCMatrix4x4@1@ABV21@0@Z ; gen::MultiplyAffine
	add	esp, 12					; 0000000cH
	push	eax
	mov	ecx, DWORD PTR _this$[ebp]
	call	??4CMatrix4x4@gen@@QAEAAV01@ABV01@@Z	; gen::CMatrix4x4::operator=

; 3273 : 	}
; 3274 : 	else

	jmp	$LN1@MultiplyAf
$LN2@MultiplyAf:

; 3275 : 	{
; 3276 : 		TFloat32 t0, t1;
; 3277 : 
; 3278 : 		t0  = e00*m.e00 + e01*m.e10 + e02*m.e20;

	mov	eax, DWORD PTR _this$[ebp]
	mov	ecx, DWORD PTR _m$[ebp]
	movss	xmm0, DWORD PTR [eax]
	mulss	xmm0, DWORD PTR [ecx]
	mov	edx, DWORD PTR _this$[ebp]
	mov	eax, DWORD PTR _m$[ebp]
	movss	xmm1, DWORD PTR [edx+4]
	mulss	xmm1, DWORD PTR [eax+16]
	addss	xmm0, xmm1
	mov	ecx, DWORD PTR _this$[ebp]
	mov	edx, DWORD PTR _m$[ebp]
	movss	xmm1, DWORD PTR [ecx+8]
	mulss	xmm1, DWORD PTR [edx+32]
	addss	xmm0, xmm1
	movss	DWORD PTR _t0$3[ebp], xmm0

; 3279 : 		t1  = e00*m.e01 + e01*m.e11 + e02*m.e21;

	mov	eax, DWORD PTR _this$[ebp]
	mov	ecx, DWORD PTR _m$[ebp]
	movss	xmm0, DWORD PTR [eax]
	mulss	xmm0, DWORD PTR [ecx+4]
	mov	edx, DWORD PTR _this$[ebp]
	mov	eax, DWORD PTR _m$[ebp]
	movss	xmm1, DWORD PTR [edx+4]
	mulss	xmm1, DWORD PTR [eax+20]
	addss	xmm0, xmm1
	mov	ecx, DWORD PTR _this$[ebp]
	mov	edx, DWORD PTR _m$[ebp]
	movss	xmm1, DWORD PTR [ecx+8]
	mulss	xmm1, DWORD PTR [edx+36]
	addss	xmm0, xmm1
	movss	DWORD PTR _t1$2[ebp], xmm0

; 3280 : 		e02 = e00*m.e02 + e01*m.e12 + e02*m.e22;

	mov	eax, DWORD PTR _this$[ebp]
	mov	ecx, DWORD PTR _m$[ebp]
	movss	xmm0, DWORD PTR [eax]
	mulss	xmm0, DWORD PTR [ecx+8]
	mov	edx, DWORD PTR _this$[ebp]
	mov	eax, DWORD PTR _m$[ebp]
	movss	xmm1, DWORD PTR [edx+4]
	mulss	xmm1, DWORD PTR [eax+24]
	addss	xmm0, xmm1
	mov	ecx, DWORD PTR _this$[ebp]
	mov	edx, DWORD PTR _m$[ebp]
	movss	xmm1, DWORD PTR [ecx+8]
	mulss	xmm1, DWORD PTR [edx+40]
	addss	xmm0, xmm1
	mov	eax, DWORD PTR _this$[ebp]
	movss	DWORD PTR [eax+8], xmm0

; 3281 : 		e00 = t0;

	mov	eax, DWORD PTR _this$[ebp]
	movss	xmm0, DWORD PTR _t0$3[ebp]
	movss	DWORD PTR [eax], xmm0

; 3282 : 		e01 = t1;

	mov	eax, DWORD PTR _this$[ebp]
	movss	xmm0, DWORD PTR _t1$2[ebp]
	movss	DWORD PTR [eax+4], xmm0

; 3283 : 
; 3284 : 		t0  = e10*m.e00 + e11*m.e10 + e12*m.e20;

	mov	eax, DWORD PTR _this$[ebp]
	mov	ecx, DWORD PTR _m$[ebp]
	movss	xmm0, DWORD PTR [eax+16]
	mulss	xmm0, DWORD PTR [ecx]
	mov	edx, DWORD PTR _this$[ebp]
	mov	eax, DWORD PTR _m$[ebp]
	movss	xmm1, DWORD PTR [edx+20]
	mulss	xmm1, DWORD PTR [eax+16]
	addss	xmm0, xmm1
	mov	ecx, DWORD PTR _this$[ebp]
	mov	edx, DWORD PTR _m$[ebp]
	movss	xmm1, DWORD PTR [ecx+24]
	mulss	xmm1, DWORD PTR [edx+32]
	addss	xmm0, xmm1
	movss	DWORD PTR _t0$3[ebp], xmm0

; 3285 : 		t1  = e10*m.e01 + e11*m.e11 + e12*m.e21;

	mov	eax, DWORD PTR _this$[ebp]
	mov	ecx, DWORD PTR _m$[ebp]
	movss	xmm0, DWORD PTR [eax+16]
	mulss	xmm0, DWORD PTR [ecx+4]
	mov	edx, DWORD PTR _this$[ebp]
	mov	eax, DWORD PTR _m$[ebp]
	movss	xmm1, DWORD PTR [edx+20]
	mulss	xmm1, DWORD PTR [eax+20]
	addss	xmm0, xmm1
	mov	ecx, DWORD PTR _this$[ebp]
	mov	edx, DWORD PTR _m$[ebp]
	movss	xmm1, DWORD PTR [ecx+24]
	mulss	xmm1, DWORD PTR [edx+36]
	addss	xmm0, xmm1
	movss	DWORD PTR _t1$2[ebp], xmm0

; 3286 : 		e12 = e10*m.e02 + e11*m.e12 + e12*m.e22;

	mov	eax, DWORD PTR _this$[ebp]
	mov	ecx, DWORD PTR _m$[ebp]
	movss	xmm0, DWORD PTR [eax+16]
	mulss	xmm0, DWORD PTR [ecx+8]
	mov	edx, DWORD PTR _this$[ebp]
	mov	eax, DWORD PTR _m$[ebp]
	movss	xmm1, DWORD PTR [edx+20]
	mulss	xmm1, DWORD PTR [eax+24]
	addss	xmm0, xmm1
	mov	ecx, DWORD PTR _this$[ebp]
	mov	edx, DWORD PTR _m$[ebp]
	movss	xmm1, DWORD PTR [ecx+24]
	mulss	xmm1, DWORD PTR [edx+40]
	addss	xmm0, xmm1
	mov	eax, DWORD PTR _this$[ebp]
	movss	DWORD PTR [eax+24], xmm0

; 3287 : 		e10 = t0;

	mov	eax, DWORD PTR _this$[ebp]
	movss	xmm0, DWORD PTR _t0$3[ebp]
	movss	DWORD PTR [eax+16], xmm0

; 3288 : 		e11 = t1;

	mov	eax, DWORD PTR _this$[ebp]
	movss	xmm0, DWORD PTR _t1$2[ebp]
	movss	DWORD PTR [eax+20], xmm0

; 3289 : 
; 3290 : 		t0  = e20*m.e00 + e21*m.e10 + e22*m.e20;

	mov	eax, DWORD PTR _this$[ebp]
	mov	ecx, DWORD PTR _m$[ebp]
	movss	xmm0, DWORD PTR [eax+32]
	mulss	xmm0, DWORD PTR [ecx]
	mov	edx, DWORD PTR _this$[ebp]
	mov	eax, DWORD PTR _m$[ebp]
	movss	xmm1, DWORD PTR [edx+36]
	mulss	xmm1, DWORD PTR [eax+16]
	addss	xmm0, xmm1
	mov	ecx, DWORD PTR _this$[ebp]
	mov	edx, DWORD PTR _m$[ebp]
	movss	xmm1, DWORD PTR [ecx+40]
	mulss	xmm1, DWORD PTR [edx+32]
	addss	xmm0, xmm1
	movss	DWORD PTR _t0$3[ebp], xmm0

; 3291 : 		t1  = e20*m.e01 + e21*m.e11 + e22*m.e21;

	mov	eax, DWORD PTR _this$[ebp]
	mov	ecx, DWORD PTR _m$[ebp]
	movss	xmm0, DWORD PTR [eax+32]
	mulss	xmm0, DWORD PTR [ecx+4]
	mov	edx, DWORD PTR _this$[ebp]
	mov	eax, DWORD PTR _m$[ebp]
	movss	xmm1, DWORD PTR [edx+36]
	mulss	xmm1, DWORD PTR [eax+20]
	addss	xmm0, xmm1
	mov	ecx, DWORD PTR _this$[ebp]
	mov	edx, DWORD PTR _m$[ebp]
	movss	xmm1, DWORD PTR [ecx+40]
	mulss	xmm1, DWORD PTR [edx+36]
	addss	xmm0, xmm1
	movss	DWORD PTR _t1$2[ebp], xmm0

; 3292 : 		e22 = e20*m.e02 + e21*m.e12 + e22*m.e22;

	mov	eax, DWORD PTR _this$[ebp]
	mov	ecx, DWORD PTR _m$[ebp]
	movss	xmm0, DWORD PTR [eax+32]
	mulss	xmm0, DWORD PTR [ecx+8]
	mov	edx, DWORD PTR _this$[ebp]
	mov	eax, DWORD PTR _m$[ebp]
	movss	xmm1, DWORD PTR [edx+36]
	mulss	xmm1, DWORD PTR [eax+24]
	addss	xmm0, xmm1
	mov	ecx, DWORD PTR _this$[ebp]
	mov	edx, DWORD PTR _m$[ebp]
	movss	xmm1, DWORD PTR [ecx+40]
	mulss	xmm1, DWORD PTR [edx+40]
	addss	xmm0, xmm1
	mov	eax, DWORD PTR _this$[ebp]
	movss	DWORD PTR [eax+40], xmm0

; 3293 : 		e20 = t0;

	mov	eax, DWORD PTR _this$[ebp]
	movss	xmm0, DWORD PTR _t0$3[ebp]
	movss	DWORD PTR [eax+32], xmm0

; 3294 : 		e21 = t1;

	mov	eax, DWORD PTR _this$[ebp]
	movss	xmm0, DWORD PTR _t1$2[ebp]
	movss	DWORD PTR [eax+36], xmm0

; 3295 : 
; 3296 : 		t0  = e30*m.e00 + e31*m.e10 + e32*m.e20 + m.e30;

	mov	eax, DWORD PTR _this$[ebp]
	mov	ecx, DWORD PTR _m$[ebp]
	movss	xmm0, DWORD PTR [eax+48]
	mulss	xmm0, DWORD PTR [ecx]
	mov	edx, DWORD PTR _this$[ebp]
	mov	eax, DWORD PTR _m$[ebp]
	movss	xmm1, DWORD PTR [edx+52]
	mulss	xmm1, DWORD PTR [eax+16]
	addss	xmm0, xmm1
	mov	ecx, DWORD PTR _this$[ebp]
	mov	edx, DWORD PTR _m$[ebp]
	movss	xmm1, DWORD PTR [ecx+56]
	mulss	xmm1, DWORD PTR [edx+32]
	addss	xmm0, xmm1
	mov	eax, DWORD PTR _m$[ebp]
	addss	xmm0, DWORD PTR [eax+48]
	movss	DWORD PTR _t0$3[ebp], xmm0

; 3297 : 		t1  = e30*m.e01 + e31*m.e11 + e32*m.e21 + m.e31;

	mov	eax, DWORD PTR _this$[ebp]
	mov	ecx, DWORD PTR _m$[ebp]
	movss	xmm0, DWORD PTR [eax+48]
	mulss	xmm0, DWORD PTR [ecx+4]
	mov	edx, DWORD PTR _this$[ebp]
	mov	eax, DWORD PTR _m$[ebp]
	movss	xmm1, DWORD PTR [edx+52]
	mulss	xmm1, DWORD PTR [eax+20]
	addss	xmm0, xmm1
	mov	ecx, DWORD PTR _this$[ebp]
	mov	edx, DWORD PTR _m$[ebp]
	movss	xmm1, DWORD PTR [ecx+56]
	mulss	xmm1, DWORD PTR [edx+36]
	addss	xmm0, xmm1
	mov	eax, DWORD PTR _m$[ebp]
	addss	xmm0, DWORD PTR [eax+52]
	movss	DWORD PTR _t1$2[ebp], xmm0

; 3298 : 		e32 = e30*m.e02 + e31*m.e12 + e32*m.e22 + m.e32;

	mov	eax, DWORD PTR _this$[ebp]
	mov	ecx, DWORD PTR _m$[ebp]
	movss	xmm0, DWORD PTR [eax+48]
	mulss	xmm0, DWORD PTR [ecx+8]
	mov	edx, DWORD PTR _this$[ebp]
	mov	eax, DWORD PTR _m$[ebp]
	movss	xmm1, DWORD PTR [edx+52]
	mulss	xmm1, DWORD PTR [eax+24]
	addss	xmm0, xmm1
	mov	ecx, DWORD PTR _this$[ebp]
	mov	edx, DWORD PTR _m$[ebp]
	movss	xmm1, DWORD PTR [ecx+56]
	mulss	xmm1, DWORD PTR [edx+40]
	addss	xmm0, xmm1
	mov	eax, DWORD PTR _m$[ebp]
	addss	xmm0, DWORD PTR [eax+56]
	mov	ecx, DWORD PTR _this$[ebp]
	movss	DWORD PTR [ecx+56], xmm0

; 3299 : 		e30 = t0;

	mov	eax, DWORD PTR _this$[ebp]
	movss	xmm0, DWORD PTR _t0$3[ebp]
	movss	DWORD PTR [eax+48], xmm0

; 3300 : 		e31 = t1;

	mov	eax, DWORD PTR _this$[ebp]
	movss	xmm0, DWORD PTR _t1$2[ebp]
	movss	DWORD PTR [eax+52], xmm0
$LN1@MultiplyAf:

; 3301 : 	}
; 3302 : 
; 3303 : 	return *this;

	mov	eax, DWORD PTR _this$[ebp]

; 3304 : }

	pop	edi
	pop	esi
	pop	ebx
	add	esp, 300				; 0000012cH
	cmp	ebp, esp
	call	__RTC_CheckEsp
	mov	esp, ebp
	pop	ebp
	ret	4
?MultiplyAffine@CMatrix4x4@gen@@QAEAAV12@ABV12@@Z ENDP	; gen::CMatrix4x4::MultiplyAffine
_TEXT	ENDS
; Function compile flags: /Odtp /RTCsu /ZI
; File c:\users\simon\documents\github\uclan-sparta\import\math\cmatrix4x4.cpp
;	COMDAT ??XCMatrix4x4@gen@@QAEAAV01@ABV01@@Z
_TEXT	SEGMENT
$T1 = -308						; size = 64
_t2$2 = -44						; size = 4
_t1$3 = -32						; size = 4
_t0$4 = -20						; size = 4
_this$ = -8						; size = 4
_m$ = 8							; size = 4
??XCMatrix4x4@gen@@QAEAAV01@ABV01@@Z PROC		; gen::CMatrix4x4::operator*=, COMDAT
; _this$ = ecx

; 3187 : {

	push	ebp
	mov	ebp, esp
	sub	esp, 312				; 00000138H
	push	ebx
	push	esi
	push	edi
	push	ecx
	lea	edi, DWORD PTR [ebp-312]
	mov	ecx, 78					; 0000004eH
	mov	eax, -858993460				; ccccccccH
	rep stosd
	pop	ecx
	mov	DWORD PTR _this$[ebp], ecx

; 3188 : 	if ( this == &m )

	mov	eax, DWORD PTR _this$[ebp]
	cmp	eax, DWORD PTR _m$[ebp]
	jne	SHORT $LN2@operator

; 3189 : 	{
; 3190 : 		// Special case of multiplying by self - no copy optimisations so use binary version
; 3191 : 		*this = m * m;

	mov	eax, DWORD PTR _m$[ebp]
	push	eax
	mov	ecx, DWORD PTR _m$[ebp]
	push	ecx
	lea	edx, DWORD PTR $T1[ebp]
	push	edx
	call	??Dgen@@YA?AVCMatrix4x4@0@ABV10@0@Z	; gen::operator*
	add	esp, 12					; 0000000cH
	push	eax
	mov	ecx, DWORD PTR _this$[ebp]
	call	??4CMatrix4x4@gen@@QAEAAV01@ABV01@@Z	; gen::CMatrix4x4::operator=

; 3192 : 	}
; 3193 : 	else

	jmp	$LN1@operator
$LN2@operator:

; 3194 : 	{
; 3195 : 		TFloat32 t0, t1, t2;
; 3196 : 
; 3197 : 		t0  = e00*m.e00 + e01*m.e10 + e02*m.e20 + e03*m.e30;

	mov	eax, DWORD PTR _this$[ebp]
	mov	ecx, DWORD PTR _m$[ebp]
	movss	xmm0, DWORD PTR [eax]
	mulss	xmm0, DWORD PTR [ecx]
	mov	edx, DWORD PTR _this$[ebp]
	mov	eax, DWORD PTR _m$[ebp]
	movss	xmm1, DWORD PTR [edx+4]
	mulss	xmm1, DWORD PTR [eax+16]
	addss	xmm0, xmm1
	mov	ecx, DWORD PTR _this$[ebp]
	mov	edx, DWORD PTR _m$[ebp]
	movss	xmm1, DWORD PTR [ecx+8]
	mulss	xmm1, DWORD PTR [edx+32]
	addss	xmm0, xmm1
	mov	eax, DWORD PTR _this$[ebp]
	mov	ecx, DWORD PTR _m$[ebp]
	movss	xmm1, DWORD PTR [eax+12]
	mulss	xmm1, DWORD PTR [ecx+48]
	addss	xmm0, xmm1
	movss	DWORD PTR _t0$4[ebp], xmm0

; 3198 : 		t1  = e00*m.e01 + e01*m.e11 + e02*m.e21 + e03*m.e31;

	mov	eax, DWORD PTR _this$[ebp]
	mov	ecx, DWORD PTR _m$[ebp]
	movss	xmm0, DWORD PTR [eax]
	mulss	xmm0, DWORD PTR [ecx+4]
	mov	edx, DWORD PTR _this$[ebp]
	mov	eax, DWORD PTR _m$[ebp]
	movss	xmm1, DWORD PTR [edx+4]
	mulss	xmm1, DWORD PTR [eax+20]
	addss	xmm0, xmm1
	mov	ecx, DWORD PTR _this$[ebp]
	mov	edx, DWORD PTR _m$[ebp]
	movss	xmm1, DWORD PTR [ecx+8]
	mulss	xmm1, DWORD PTR [edx+36]
	addss	xmm0, xmm1
	mov	eax, DWORD PTR _this$[ebp]
	mov	ecx, DWORD PTR _m$[ebp]
	movss	xmm1, DWORD PTR [eax+12]
	mulss	xmm1, DWORD PTR [ecx+52]
	addss	xmm0, xmm1
	movss	DWORD PTR _t1$3[ebp], xmm0

; 3199 : 		t2  = e00*m.e02 + e01*m.e12 + e02*m.e22 + e03*m.e32;

	mov	eax, DWORD PTR _this$[ebp]
	mov	ecx, DWORD PTR _m$[ebp]
	movss	xmm0, DWORD PTR [eax]
	mulss	xmm0, DWORD PTR [ecx+8]
	mov	edx, DWORD PTR _this$[ebp]
	mov	eax, DWORD PTR _m$[ebp]
	movss	xmm1, DWORD PTR [edx+4]
	mulss	xmm1, DWORD PTR [eax+24]
	addss	xmm0, xmm1
	mov	ecx, DWORD PTR _this$[ebp]
	mov	edx, DWORD PTR _m$[ebp]
	movss	xmm1, DWORD PTR [ecx+8]
	mulss	xmm1, DWORD PTR [edx+40]
	addss	xmm0, xmm1
	mov	eax, DWORD PTR _this$[ebp]
	mov	ecx, DWORD PTR _m$[ebp]
	movss	xmm1, DWORD PTR [eax+12]
	mulss	xmm1, DWORD PTR [ecx+56]
	addss	xmm0, xmm1
	movss	DWORD PTR _t2$2[ebp], xmm0

; 3200 : 		e03 = e00*m.e03 + e01*m.e13 + e02*m.e23 + e03*m.e33;

	mov	eax, DWORD PTR _this$[ebp]
	mov	ecx, DWORD PTR _m$[ebp]
	movss	xmm0, DWORD PTR [eax]
	mulss	xmm0, DWORD PTR [ecx+12]
	mov	edx, DWORD PTR _this$[ebp]
	mov	eax, DWORD PTR _m$[ebp]
	movss	xmm1, DWORD PTR [edx+4]
	mulss	xmm1, DWORD PTR [eax+28]
	addss	xmm0, xmm1
	mov	ecx, DWORD PTR _this$[ebp]
	mov	edx, DWORD PTR _m$[ebp]
	movss	xmm1, DWORD PTR [ecx+8]
	mulss	xmm1, DWORD PTR [edx+44]
	addss	xmm0, xmm1
	mov	eax, DWORD PTR _this$[ebp]
	mov	ecx, DWORD PTR _m$[ebp]
	movss	xmm1, DWORD PTR [eax+12]
	mulss	xmm1, DWORD PTR [ecx+60]
	addss	xmm0, xmm1
	mov	edx, DWORD PTR _this$[ebp]
	movss	DWORD PTR [edx+12], xmm0

; 3201 : 		e00 = t0;

	mov	eax, DWORD PTR _this$[ebp]
	movss	xmm0, DWORD PTR _t0$4[ebp]
	movss	DWORD PTR [eax], xmm0

; 3202 : 		e01 = t1;

	mov	eax, DWORD PTR _this$[ebp]
	movss	xmm0, DWORD PTR _t1$3[ebp]
	movss	DWORD PTR [eax+4], xmm0

; 3203 : 		e02 = t2;

	mov	eax, DWORD PTR _this$[ebp]
	movss	xmm0, DWORD PTR _t2$2[ebp]
	movss	DWORD PTR [eax+8], xmm0

; 3204 : 
; 3205 : 		t0  = e10*m.e00 + e11*m.e10 + e12*m.e20 + e13*m.e30;

	mov	eax, DWORD PTR _this$[ebp]
	mov	ecx, DWORD PTR _m$[ebp]
	movss	xmm0, DWORD PTR [eax+16]
	mulss	xmm0, DWORD PTR [ecx]
	mov	edx, DWORD PTR _this$[ebp]
	mov	eax, DWORD PTR _m$[ebp]
	movss	xmm1, DWORD PTR [edx+20]
	mulss	xmm1, DWORD PTR [eax+16]
	addss	xmm0, xmm1
	mov	ecx, DWORD PTR _this$[ebp]
	mov	edx, DWORD PTR _m$[ebp]
	movss	xmm1, DWORD PTR [ecx+24]
	mulss	xmm1, DWORD PTR [edx+32]
	addss	xmm0, xmm1
	mov	eax, DWORD PTR _this$[ebp]
	mov	ecx, DWORD PTR _m$[ebp]
	movss	xmm1, DWORD PTR [eax+28]
	mulss	xmm1, DWORD PTR [ecx+48]
	addss	xmm0, xmm1
	movss	DWORD PTR _t0$4[ebp], xmm0

; 3206 : 		t1  = e10*m.e01 + e11*m.e11 + e12*m.e21 + e13*m.e31;

	mov	eax, DWORD PTR _this$[ebp]
	mov	ecx, DWORD PTR _m$[ebp]
	movss	xmm0, DWORD PTR [eax+16]
	mulss	xmm0, DWORD PTR [ecx+4]
	mov	edx, DWORD PTR _this$[ebp]
	mov	eax, DWORD PTR _m$[ebp]
	movss	xmm1, DWORD PTR [edx+20]
	mulss	xmm1, DWORD PTR [eax+20]
	addss	xmm0, xmm1
	mov	ecx, DWORD PTR _this$[ebp]
	mov	edx, DWORD PTR _m$[ebp]
	movss	xmm1, DWORD PTR [ecx+24]
	mulss	xmm1, DWORD PTR [edx+36]
	addss	xmm0, xmm1
	mov	eax, DWORD PTR _this$[ebp]
	mov	ecx, DWORD PTR _m$[ebp]
	movss	xmm1, DWORD PTR [eax+28]
	mulss	xmm1, DWORD PTR [ecx+52]
	addss	xmm0, xmm1
	movss	DWORD PTR _t1$3[ebp], xmm0

; 3207 : 		t2  = e10*m.e02 + e11*m.e12 + e12*m.e22 + e13*m.e32;

	mov	eax, DWORD PTR _this$[ebp]
	mov	ecx, DWORD PTR _m$[ebp]
	movss	xmm0, DWORD PTR [eax+16]
	mulss	xmm0, DWORD PTR [ecx+8]
	mov	edx, DWORD PTR _this$[ebp]
	mov	eax, DWORD PTR _m$[ebp]
	movss	xmm1, DWORD PTR [edx+20]
	mulss	xmm1, DWORD PTR [eax+24]
	addss	xmm0, xmm1
	mov	ecx, DWORD PTR _this$[ebp]
	mov	edx, DWORD PTR _m$[ebp]
	movss	xmm1, DWORD PTR [ecx+24]
	mulss	xmm1, DWORD PTR [edx+40]
	addss	xmm0, xmm1
	mov	eax, DWORD PTR _this$[ebp]
	mov	ecx, DWORD PTR _m$[ebp]
	movss	xmm1, DWORD PTR [eax+28]
	mulss	xmm1, DWORD PTR [ecx+56]
	addss	xmm0, xmm1
	movss	DWORD PTR _t2$2[ebp], xmm0

; 3208 : 		e13 = e10*m.e03 + e11*m.e13 + e12*m.e23 + e13*m.e33;

	mov	eax, DWORD PTR _this$[ebp]
	mov	ecx, DWORD PTR _m$[ebp]
	movss	xmm0, DWORD PTR [eax+16]
	mulss	xmm0, DWORD PTR [ecx+12]
	mov	edx, DWORD PTR _this$[ebp]
	mov	eax, DWORD PTR _m$[ebp]
	movss	xmm1, DWORD PTR [edx+20]
	mulss	xmm1, DWORD PTR [eax+28]
	addss	xmm0, xmm1
	mov	ecx, DWORD PTR _this$[ebp]
	mov	edx, DWORD PTR _m$[ebp]
	movss	xmm1, DWORD PTR [ecx+24]
	mulss	xmm1, DWORD PTR [edx+44]
	addss	xmm0, xmm1
	mov	eax, DWORD PTR _this$[ebp]
	mov	ecx, DWORD PTR _m$[ebp]
	movss	xmm1, DWORD PTR [eax+28]
	mulss	xmm1, DWORD PTR [ecx+60]
	addss	xmm0, xmm1
	mov	edx, DWORD PTR _this$[ebp]
	movss	DWORD PTR [edx+28], xmm0

; 3209 : 		e10 = t0;

	mov	eax, DWORD PTR _this$[ebp]
	movss	xmm0, DWORD PTR _t0$4[ebp]
	movss	DWORD PTR [eax+16], xmm0

; 3210 : 		e11 = t1;

	mov	eax, DWORD PTR _this$[ebp]
	movss	xmm0, DWORD PTR _t1$3[ebp]
	movss	DWORD PTR [eax+20], xmm0

; 3211 : 		e12 = t2;

	mov	eax, DWORD PTR _this$[ebp]
	movss	xmm0, DWORD PTR _t2$2[ebp]
	movss	DWORD PTR [eax+24], xmm0

; 3212 : 
; 3213 : 		t0  = e20*m.e00 + e21*m.e10 + e22*m.e20 + e23*m.e30;

	mov	eax, DWORD PTR _this$[ebp]
	mov	ecx, DWORD PTR _m$[ebp]
	movss	xmm0, DWORD PTR [eax+32]
	mulss	xmm0, DWORD PTR [ecx]
	mov	edx, DWORD PTR _this$[ebp]
	mov	eax, DWORD PTR _m$[ebp]
	movss	xmm1, DWORD PTR [edx+36]
	mulss	xmm1, DWORD PTR [eax+16]
	addss	xmm0, xmm1
	mov	ecx, DWORD PTR _this$[ebp]
	mov	edx, DWORD PTR _m$[ebp]
	movss	xmm1, DWORD PTR [ecx+40]
	mulss	xmm1, DWORD PTR [edx+32]
	addss	xmm0, xmm1
	mov	eax, DWORD PTR _this$[ebp]
	mov	ecx, DWORD PTR _m$[ebp]
	movss	xmm1, DWORD PTR [eax+44]
	mulss	xmm1, DWORD PTR [ecx+48]
	addss	xmm0, xmm1
	movss	DWORD PTR _t0$4[ebp], xmm0

; 3214 : 		t1  = e20*m.e01 + e21*m.e11 + e22*m.e21 + e23*m.e31;

	mov	eax, DWORD PTR _this$[ebp]
	mov	ecx, DWORD PTR _m$[ebp]
	movss	xmm0, DWORD PTR [eax+32]
	mulss	xmm0, DWORD PTR [ecx+4]
	mov	edx, DWORD PTR _this$[ebp]
	mov	eax, DWORD PTR _m$[ebp]
	movss	xmm1, DWORD PTR [edx+36]
	mulss	xmm1, DWORD PTR [eax+20]
	addss	xmm0, xmm1
	mov	ecx, DWORD PTR _this$[ebp]
	mov	edx, DWORD PTR _m$[ebp]
	movss	xmm1, DWORD PTR [ecx+40]
	mulss	xmm1, DWORD PTR [edx+36]
	addss	xmm0, xmm1
	mov	eax, DWORD PTR _this$[ebp]
	mov	ecx, DWORD PTR _m$[ebp]
	movss	xmm1, DWORD PTR [eax+44]
	mulss	xmm1, DWORD PTR [ecx+52]
	addss	xmm0, xmm1
	movss	DWORD PTR _t1$3[ebp], xmm0

; 3215 : 		t2  = e20*m.e02 + e21*m.e12 + e22*m.e22 + e23*m.e32;

	mov	eax, DWORD PTR _this$[ebp]
	mov	ecx, DWORD PTR _m$[ebp]
	movss	xmm0, DWORD PTR [eax+32]
	mulss	xmm0, DWORD PTR [ecx+8]
	mov	edx, DWORD PTR _this$[ebp]
	mov	eax, DWORD PTR _m$[ebp]
	movss	xmm1, DWORD PTR [edx+36]
	mulss	xmm1, DWORD PTR [eax+24]
	addss	xmm0, xmm1
	mov	ecx, DWORD PTR _this$[ebp]
	mov	edx, DWORD PTR _m$[ebp]
	movss	xmm1, DWORD PTR [ecx+40]
	mulss	xmm1, DWORD PTR [edx+40]
	addss	xmm0, xmm1
	mov	eax, DWORD PTR _this$[ebp]
	mov	ecx, DWORD PTR _m$[ebp]
	movss	xmm1, DWORD PTR [eax+44]
	mulss	xmm1, DWORD PTR [ecx+56]
	addss	xmm0, xmm1
	movss	DWORD PTR _t2$2[ebp], xmm0

; 3216 : 		e23 = e20*m.e03 + e21*m.e13 + e22*m.e23 + e23*m.e33;

	mov	eax, DWORD PTR _this$[ebp]
	mov	ecx, DWORD PTR _m$[ebp]
	movss	xmm0, DWORD PTR [eax+32]
	mulss	xmm0, DWORD PTR [ecx+12]
	mov	edx, DWORD PTR _this$[ebp]
	mov	eax, DWORD PTR _m$[ebp]
	movss	xmm1, DWORD PTR [edx+36]
	mulss	xmm1, DWORD PTR [eax+28]
	addss	xmm0, xmm1
	mov	ecx, DWORD PTR _this$[ebp]
	mov	edx, DWORD PTR _m$[ebp]
	movss	xmm1, DWORD PTR [ecx+40]
	mulss	xmm1, DWORD PTR [edx+44]
	addss	xmm0, xmm1
	mov	eax, DWORD PTR _this$[ebp]
	mov	ecx, DWORD PTR _m$[ebp]
	movss	xmm1, DWORD PTR [eax+44]
	mulss	xmm1, DWORD PTR [ecx+60]
	addss	xmm0, xmm1
	mov	edx, DWORD PTR _this$[ebp]
	movss	DWORD PTR [edx+44], xmm0

; 3217 : 		e20 = t0;

	mov	eax, DWORD PTR _this$[ebp]
	movss	xmm0, DWORD PTR _t0$4[ebp]
	movss	DWORD PTR [eax+32], xmm0

; 3218 : 		e21 = t1;

	mov	eax, DWORD PTR _this$[ebp]
	movss	xmm0, DWORD PTR _t1$3[ebp]
	movss	DWORD PTR [eax+36], xmm0

; 3219 : 		e22 = t2;

	mov	eax, DWORD PTR _this$[ebp]
	movss	xmm0, DWORD PTR _t2$2[ebp]
	movss	DWORD PTR [eax+40], xmm0

; 3220 : 
; 3221 : 		t0  = e30*m.e00 + e31*m.e10 + e32*m.e20 + e33*m.e30;

	mov	eax, DWORD PTR _this$[ebp]
	mov	ecx, DWORD PTR _m$[ebp]
	movss	xmm0, DWORD PTR [eax+48]
	mulss	xmm0, DWORD PTR [ecx]
	mov	edx, DWORD PTR _this$[ebp]
	mov	eax, DWORD PTR _m$[ebp]
	movss	xmm1, DWORD PTR [edx+52]
	mulss	xmm1, DWORD PTR [eax+16]
	addss	xmm0, xmm1
	mov	ecx, DWORD PTR _this$[ebp]
	mov	edx, DWORD PTR _m$[ebp]
	movss	xmm1, DWORD PTR [ecx+56]
	mulss	xmm1, DWORD PTR [edx+32]
	addss	xmm0, xmm1
	mov	eax, DWORD PTR _this$[ebp]
	mov	ecx, DWORD PTR _m$[ebp]
	movss	xmm1, DWORD PTR [eax+60]
	mulss	xmm1, DWORD PTR [ecx+48]
	addss	xmm0, xmm1
	movss	DWORD PTR _t0$4[ebp], xmm0

; 3222 : 		t1  = e30*m.e01 + e31*m.e11 + e32*m.e21 + e33*m.e31;

	mov	eax, DWORD PTR _this$[ebp]
	mov	ecx, DWORD PTR _m$[ebp]
	movss	xmm0, DWORD PTR [eax+48]
	mulss	xmm0, DWORD PTR [ecx+4]
	mov	edx, DWORD PTR _this$[ebp]
	mov	eax, DWORD PTR _m$[ebp]
	movss	xmm1, DWORD PTR [edx+52]
	mulss	xmm1, DWORD PTR [eax+20]
	addss	xmm0, xmm1
	mov	ecx, DWORD PTR _this$[ebp]
	mov	edx, DWORD PTR _m$[ebp]
	movss	xmm1, DWORD PTR [ecx+56]
	mulss	xmm1, DWORD PTR [edx+36]
	addss	xmm0, xmm1
	mov	eax, DWORD PTR _this$[ebp]
	mov	ecx, DWORD PTR _m$[ebp]
	movss	xmm1, DWORD PTR [eax+60]
	mulss	xmm1, DWORD PTR [ecx+52]
	addss	xmm0, xmm1
	movss	DWORD PTR _t1$3[ebp], xmm0

; 3223 : 		t2  = e30*m.e02 + e31*m.e12 + e32*m.e22 + e33*m.e32;

	mov	eax, DWORD PTR _this$[ebp]
	mov	ecx, DWORD PTR _m$[ebp]
	movss	xmm0, DWORD PTR [eax+48]
	mulss	xmm0, DWORD PTR [ecx+8]
	mov	edx, DWORD PTR _this$[ebp]
	mov	eax, DWORD PTR _m$[ebp]
	movss	xmm1, DWORD PTR [edx+52]
	mulss	xmm1, DWORD PTR [eax+24]
	addss	xmm0, xmm1
	mov	ecx, DWORD PTR _this$[ebp]
	mov	edx, DWORD PTR _m$[ebp]
	movss	xmm1, DWORD PTR [ecx+56]
	mulss	xmm1, DWORD PTR [edx+40]
	addss	xmm0, xmm1
	mov	eax, DWORD PTR _this$[ebp]
	mov	ecx, DWORD PTR _m$[ebp]
	movss	xmm1, DWORD PTR [eax+60]
	mulss	xmm1, DWORD PTR [ecx+56]
	addss	xmm0, xmm1
	movss	DWORD PTR _t2$2[ebp], xmm0

; 3224 : 		e33 = e30*m.e03 + e31*m.e13 + e32*m.e23 + e33*m.e33;

	mov	eax, DWORD PTR _this$[ebp]
	mov	ecx, DWORD PTR _m$[ebp]
	movss	xmm0, DWORD PTR [eax+48]
	mulss	xmm0, DWORD PTR [ecx+12]
	mov	edx, DWORD PTR _this$[ebp]
	mov	eax, DWORD PTR _m$[ebp]
	movss	xmm1, DWORD PTR [edx+52]
	mulss	xmm1, DWORD PTR [eax+28]
	addss	xmm0, xmm1
	mov	ecx, DWORD PTR _this$[ebp]
	mov	edx, DWORD PTR _m$[ebp]
	movss	xmm1, DWORD PTR [ecx+56]
	mulss	xmm1, DWORD PTR [edx+44]
	addss	xmm0, xmm1
	mov	eax, DWORD PTR _this$[ebp]
	mov	ecx, DWORD PTR _m$[ebp]
	movss	xmm1, DWORD PTR [eax+60]
	mulss	xmm1, DWORD PTR [ecx+60]
	addss	xmm0, xmm1
	mov	edx, DWORD PTR _this$[ebp]
	movss	DWORD PTR [edx+60], xmm0

; 3225 : 		e30 = t0;

	mov	eax, DWORD PTR _this$[ebp]
	movss	xmm0, DWORD PTR _t0$4[ebp]
	movss	DWORD PTR [eax+48], xmm0

; 3226 : 		e31 = t1;

	mov	eax, DWORD PTR _this$[ebp]
	movss	xmm0, DWORD PTR _t1$3[ebp]
	movss	DWORD PTR [eax+52], xmm0

; 3227 : 		e32 = t2;

	mov	eax, DWORD PTR _this$[ebp]
	movss	xmm0, DWORD PTR _t2$2[ebp]
	movss	DWORD PTR [eax+56], xmm0
$LN1@operator:

; 3228 : 	}
; 3229 : 	return *this;

	mov	eax, DWORD PTR _this$[ebp]

; 3230 : }

	pop	edi
	pop	esi
	pop	ebx
	add	esp, 312				; 00000138H
	cmp	ebp, esp
	call	__RTC_CheckEsp
	mov	esp, ebp
	pop	ebp
	ret	4
??XCMatrix4x4@gen@@QAEAAV01@ABV01@@Z ENDP		; gen::CMatrix4x4::operator*=
_TEXT	ENDS
; Function compile flags: /Odtp /RTCsu /ZI
; File c:\users\simon\documents\github\uclan-sparta\import\math\cmatrix4x4.cpp
;	COMDAT ?TransformPoint@CMatrix4x4@gen@@QBE?AVCVector3@2@ABV32@@Z
_TEXT	SEGMENT
_pOut$ = -28						; size = 12
_this$ = -8						; size = 4
___$ReturnUdt$ = 8					; size = 4
_p$ = 12						; size = 4
?TransformPoint@CMatrix4x4@gen@@QBE?AVCVector3@2@ABV32@@Z PROC ; gen::CMatrix4x4::TransformPoint, COMDAT
; _this$ = ecx

; 3172 : {

	push	ebp
	mov	ebp, esp
	sub	esp, 224				; 000000e0H
	push	ebx
	push	esi
	push	edi
	push	ecx
	lea	edi, DWORD PTR [ebp-224]
	mov	ecx, 56					; 00000038H
	mov	eax, -858993460				; ccccccccH
	rep stosd
	pop	ecx
	mov	DWORD PTR _this$[ebp], ecx

; 3173 : 	CVector3 pOut;

	lea	ecx, DWORD PTR _pOut$[ebp]
	call	??0CVector3@gen@@QAE@XZ			; gen::CVector3::CVector3

; 3174 : 	pOut.x = p.x*e00 + p.y*e10 + p.z*e20 + e30;

	mov	eax, DWORD PTR _p$[ebp]
	mov	ecx, DWORD PTR _this$[ebp]
	movss	xmm0, DWORD PTR [eax]
	mulss	xmm0, DWORD PTR [ecx]
	mov	edx, DWORD PTR _p$[ebp]
	mov	eax, DWORD PTR _this$[ebp]
	movss	xmm1, DWORD PTR [edx+4]
	mulss	xmm1, DWORD PTR [eax+16]
	addss	xmm0, xmm1
	mov	ecx, DWORD PTR _p$[ebp]
	mov	edx, DWORD PTR _this$[ebp]
	movss	xmm1, DWORD PTR [ecx+8]
	mulss	xmm1, DWORD PTR [edx+32]
	addss	xmm0, xmm1
	mov	eax, DWORD PTR _this$[ebp]
	addss	xmm0, DWORD PTR [eax+48]
	movss	DWORD PTR _pOut$[ebp], xmm0

; 3175 : 	pOut.y = p.x*e01 + p.y*e11 + p.z*e21 + e31;

	mov	eax, DWORD PTR _p$[ebp]
	mov	ecx, DWORD PTR _this$[ebp]
	movss	xmm0, DWORD PTR [eax]
	mulss	xmm0, DWORD PTR [ecx+4]
	mov	edx, DWORD PTR _p$[ebp]
	mov	eax, DWORD PTR _this$[ebp]
	movss	xmm1, DWORD PTR [edx+4]
	mulss	xmm1, DWORD PTR [eax+20]
	addss	xmm0, xmm1
	mov	ecx, DWORD PTR _p$[ebp]
	mov	edx, DWORD PTR _this$[ebp]
	movss	xmm1, DWORD PTR [ecx+8]
	mulss	xmm1, DWORD PTR [edx+36]
	addss	xmm0, xmm1
	mov	eax, DWORD PTR _this$[ebp]
	addss	xmm0, DWORD PTR [eax+52]
	movss	DWORD PTR _pOut$[ebp+4], xmm0

; 3176 : 	pOut.z = p.x*e02 + p.y*e12 + p.z*e22 + e32;

	mov	eax, DWORD PTR _p$[ebp]
	mov	ecx, DWORD PTR _this$[ebp]
	movss	xmm0, DWORD PTR [eax]
	mulss	xmm0, DWORD PTR [ecx+8]
	mov	edx, DWORD PTR _p$[ebp]
	mov	eax, DWORD PTR _this$[ebp]
	movss	xmm1, DWORD PTR [edx+4]
	mulss	xmm1, DWORD PTR [eax+24]
	addss	xmm0, xmm1
	mov	ecx, DWORD PTR _p$[ebp]
	mov	edx, DWORD PTR _this$[ebp]
	movss	xmm1, DWORD PTR [ecx+8]
	mulss	xmm1, DWORD PTR [edx+40]
	addss	xmm0, xmm1
	mov	eax, DWORD PTR _this$[ebp]
	addss	xmm0, DWORD PTR [eax+56]
	movss	DWORD PTR _pOut$[ebp+8], xmm0

; 3177 : 
; 3178 : 	return pOut;

	lea	eax, DWORD PTR _pOut$[ebp]
	push	eax
	mov	ecx, DWORD PTR ___$ReturnUdt$[ebp]
	call	??0CVector3@gen@@QAE@ABV01@@Z		; gen::CVector3::CVector3
	mov	eax, DWORD PTR ___$ReturnUdt$[ebp]

; 3179 : }

	push	edx
	mov	ecx, ebp
	push	eax
	lea	edx, DWORD PTR $LN5@TransformP
	call	@_RTC_CheckStackVars@8
	pop	eax
	pop	edx
	pop	edi
	pop	esi
	pop	ebx
	add	esp, 224				; 000000e0H
	cmp	ebp, esp
	call	__RTC_CheckEsp
	mov	esp, ebp
	pop	ebp
	ret	8
$LN5@TransformP:
	DD	1
	DD	$LN4@TransformP
$LN4@TransformP:
	DD	-28					; ffffffe4H
	DD	12					; 0000000cH
	DD	$LN3@TransformP
$LN3@TransformP:
	DB	112					; 00000070H
	DB	79					; 0000004fH
	DB	117					; 00000075H
	DB	116					; 00000074H
	DB	0
?TransformPoint@CMatrix4x4@gen@@QBE?AVCVector3@2@ABV32@@Z ENDP ; gen::CMatrix4x4::TransformPoint
_TEXT	ENDS
; Function compile flags: /Odtp /RTCsu /ZI
; File c:\users\simon\documents\github\uclan-sparta\import\math\cmatrix4x4.cpp
;	COMDAT ?TransformVector@CMatrix4x4@gen@@QBE?AVCVector3@2@ABV32@@Z
_TEXT	SEGMENT
_vOut$ = -28						; size = 12
_this$ = -8						; size = 4
___$ReturnUdt$ = 8					; size = 4
_v$ = 12						; size = 4
?TransformVector@CMatrix4x4@gen@@QBE?AVCVector3@2@ABV32@@Z PROC ; gen::CMatrix4x4::TransformVector, COMDAT
; _this$ = ecx

; 3160 : {

	push	ebp
	mov	ebp, esp
	sub	esp, 224				; 000000e0H
	push	ebx
	push	esi
	push	edi
	push	ecx
	lea	edi, DWORD PTR [ebp-224]
	mov	ecx, 56					; 00000038H
	mov	eax, -858993460				; ccccccccH
	rep stosd
	pop	ecx
	mov	DWORD PTR _this$[ebp], ecx

; 3161 : 	CVector3 vOut;

	lea	ecx, DWORD PTR _vOut$[ebp]
	call	??0CVector3@gen@@QAE@XZ			; gen::CVector3::CVector3

; 3162 : 	vOut.x = v.x*e00 + v.y*e10 + v.z*e20;

	mov	eax, DWORD PTR _v$[ebp]
	mov	ecx, DWORD PTR _this$[ebp]
	movss	xmm0, DWORD PTR [eax]
	mulss	xmm0, DWORD PTR [ecx]
	mov	edx, DWORD PTR _v$[ebp]
	mov	eax, DWORD PTR _this$[ebp]
	movss	xmm1, DWORD PTR [edx+4]
	mulss	xmm1, DWORD PTR [eax+16]
	addss	xmm0, xmm1
	mov	ecx, DWORD PTR _v$[ebp]
	mov	edx, DWORD PTR _this$[ebp]
	movss	xmm1, DWORD PTR [ecx+8]
	mulss	xmm1, DWORD PTR [edx+32]
	addss	xmm0, xmm1
	movss	DWORD PTR _vOut$[ebp], xmm0

; 3163 : 	vOut.y = v.x*e01 + v.y*e11 + v.z*e21;

	mov	eax, DWORD PTR _v$[ebp]
	mov	ecx, DWORD PTR _this$[ebp]
	movss	xmm0, DWORD PTR [eax]
	mulss	xmm0, DWORD PTR [ecx+4]
	mov	edx, DWORD PTR _v$[ebp]
	mov	eax, DWORD PTR _this$[ebp]
	movss	xmm1, DWORD PTR [edx+4]
	mulss	xmm1, DWORD PTR [eax+20]
	addss	xmm0, xmm1
	mov	ecx, DWORD PTR _v$[ebp]
	mov	edx, DWORD PTR _this$[ebp]
	movss	xmm1, DWORD PTR [ecx+8]
	mulss	xmm1, DWORD PTR [edx+36]
	addss	xmm0, xmm1
	movss	DWORD PTR _vOut$[ebp+4], xmm0

; 3164 : 	vOut.z = v.x*e02 + v.y*e12 + v.z*e22;

	mov	eax, DWORD PTR _v$[ebp]
	mov	ecx, DWORD PTR _this$[ebp]
	movss	xmm0, DWORD PTR [eax]
	mulss	xmm0, DWORD PTR [ecx+8]
	mov	edx, DWORD PTR _v$[ebp]
	mov	eax, DWORD PTR _this$[ebp]
	movss	xmm1, DWORD PTR [edx+4]
	mulss	xmm1, DWORD PTR [eax+24]
	addss	xmm0, xmm1
	mov	ecx, DWORD PTR _v$[ebp]
	mov	edx, DWORD PTR _this$[ebp]
	movss	xmm1, DWORD PTR [ecx+8]
	mulss	xmm1, DWORD PTR [edx+40]
	addss	xmm0, xmm1
	movss	DWORD PTR _vOut$[ebp+8], xmm0

; 3165 : 
; 3166 : 	return vOut;

	lea	eax, DWORD PTR _vOut$[ebp]
	push	eax
	mov	ecx, DWORD PTR ___$ReturnUdt$[ebp]
	call	??0CVector3@gen@@QAE@ABV01@@Z		; gen::CVector3::CVector3
	mov	eax, DWORD PTR ___$ReturnUdt$[ebp]

; 3167 : }

	push	edx
	mov	ecx, ebp
	push	eax
	lea	edx, DWORD PTR $LN5@TransformV
	call	@_RTC_CheckStackVars@8
	pop	eax
	pop	edx
	pop	edi
	pop	esi
	pop	ebx
	add	esp, 224				; 000000e0H
	cmp	ebp, esp
	call	__RTC_CheckEsp
	mov	esp, ebp
	pop	ebp
	ret	8
$LN5@TransformV:
	DD	1
	DD	$LN4@TransformV
$LN4@TransformV:
	DD	-28					; ffffffe4H
	DD	12					; 0000000cH
	DD	$LN3@TransformV
$LN3@TransformV:
	DB	118					; 00000076H
	DB	79					; 0000004fH
	DB	117					; 00000075H
	DB	116					; 00000074H
	DB	0
?TransformVector@CMatrix4x4@gen@@QBE?AVCVector3@2@ABV32@@Z ENDP ; gen::CMatrix4x4::TransformVector
_TEXT	ENDS
; Function compile flags: /Odtp /RTCsu /ZI
; File c:\users\simon\documents\github\uclan-sparta\import\math\cmatrix4x4.cpp
;	COMDAT ?Transform@CMatrix4x4@gen@@QBE?AVCVector4@2@ABV32@@Z
_TEXT	SEGMENT
_vOut$ = -32						; size = 16
_this$ = -8						; size = 4
___$ReturnUdt$ = 8					; size = 4
_v$ = 12						; size = 4
?Transform@CMatrix4x4@gen@@QBE?AVCVector4@2@ABV32@@Z PROC ; gen::CMatrix4x4::Transform, COMDAT
; _this$ = ecx

; 3147 : {

	push	ebp
	mov	ebp, esp
	sub	esp, 228				; 000000e4H
	push	ebx
	push	esi
	push	edi
	push	ecx
	lea	edi, DWORD PTR [ebp-228]
	mov	ecx, 57					; 00000039H
	mov	eax, -858993460				; ccccccccH
	rep stosd
	pop	ecx
	mov	DWORD PTR _this$[ebp], ecx

; 3148 : 	CVector4 vOut;

	lea	ecx, DWORD PTR _vOut$[ebp]
	call	??0CVector4@gen@@QAE@XZ			; gen::CVector4::CVector4

; 3149 : 	vOut.x = v.x*e00 + v.y*e10 + v.z*e20 + v.w*e30;

	mov	eax, DWORD PTR _v$[ebp]
	mov	ecx, DWORD PTR _this$[ebp]
	movss	xmm0, DWORD PTR [eax]
	mulss	xmm0, DWORD PTR [ecx]
	mov	edx, DWORD PTR _v$[ebp]
	mov	eax, DWORD PTR _this$[ebp]
	movss	xmm1, DWORD PTR [edx+4]
	mulss	xmm1, DWORD PTR [eax+16]
	addss	xmm0, xmm1
	mov	ecx, DWORD PTR _v$[ebp]
	mov	edx, DWORD PTR _this$[ebp]
	movss	xmm1, DWORD PTR [ecx+8]
	mulss	xmm1, DWORD PTR [edx+32]
	addss	xmm0, xmm1
	mov	eax, DWORD PTR _v$[ebp]
	mov	ecx, DWORD PTR _this$[ebp]
	movss	xmm1, DWORD PTR [eax+12]
	mulss	xmm1, DWORD PTR [ecx+48]
	addss	xmm0, xmm1
	movss	DWORD PTR _vOut$[ebp], xmm0

; 3150 : 	vOut.y = v.x*e01 + v.y*e11 + v.z*e21 + v.w*e31;

	mov	eax, DWORD PTR _v$[ebp]
	mov	ecx, DWORD PTR _this$[ebp]
	movss	xmm0, DWORD PTR [eax]
	mulss	xmm0, DWORD PTR [ecx+4]
	mov	edx, DWORD PTR _v$[ebp]
	mov	eax, DWORD PTR _this$[ebp]
	movss	xmm1, DWORD PTR [edx+4]
	mulss	xmm1, DWORD PTR [eax+20]
	addss	xmm0, xmm1
	mov	ecx, DWORD PTR _v$[ebp]
	mov	edx, DWORD PTR _this$[ebp]
	movss	xmm1, DWORD PTR [ecx+8]
	mulss	xmm1, DWORD PTR [edx+36]
	addss	xmm0, xmm1
	mov	eax, DWORD PTR _v$[ebp]
	mov	ecx, DWORD PTR _this$[ebp]
	movss	xmm1, DWORD PTR [eax+12]
	mulss	xmm1, DWORD PTR [ecx+52]
	addss	xmm0, xmm1
	movss	DWORD PTR _vOut$[ebp+4], xmm0

; 3151 : 	vOut.z = v.x*e02 + v.y*e12 + v.z*e22 + v.w*e32;

	mov	eax, DWORD PTR _v$[ebp]
	mov	ecx, DWORD PTR _this$[ebp]
	movss	xmm0, DWORD PTR [eax]
	mulss	xmm0, DWORD PTR [ecx+8]
	mov	edx, DWORD PTR _v$[ebp]
	mov	eax, DWORD PTR _this$[ebp]
	movss	xmm1, DWORD PTR [edx+4]
	mulss	xmm1, DWORD PTR [eax+24]
	addss	xmm0, xmm1
	mov	ecx, DWORD PTR _v$[ebp]
	mov	edx, DWORD PTR _this$[ebp]
	movss	xmm1, DWORD PTR [ecx+8]
	mulss	xmm1, DWORD PTR [edx+40]
	addss	xmm0, xmm1
	mov	eax, DWORD PTR _v$[ebp]
	mov	ecx, DWORD PTR _this$[ebp]
	movss	xmm1, DWORD PTR [eax+12]
	mulss	xmm1, DWORD PTR [ecx+56]
	addss	xmm0, xmm1
	movss	DWORD PTR _vOut$[ebp+8], xmm0

; 3152 : 	vOut.w = v.x*e03 + v.y*e13 + v.z*e23 + v.w*e33;

	mov	eax, DWORD PTR _v$[ebp]
	mov	ecx, DWORD PTR _this$[ebp]
	movss	xmm0, DWORD PTR [eax]
	mulss	xmm0, DWORD PTR [ecx+12]
	mov	edx, DWORD PTR _v$[ebp]
	mov	eax, DWORD PTR _this$[ebp]
	movss	xmm1, DWORD PTR [edx+4]
	mulss	xmm1, DWORD PTR [eax+28]
	addss	xmm0, xmm1
	mov	ecx, DWORD PTR _v$[ebp]
	mov	edx, DWORD PTR _this$[ebp]
	movss	xmm1, DWORD PTR [ecx+8]
	mulss	xmm1, DWORD PTR [edx+44]
	addss	xmm0, xmm1
	mov	eax, DWORD PTR _v$[ebp]
	mov	ecx, DWORD PTR _this$[ebp]
	movss	xmm1, DWORD PTR [eax+12]
	mulss	xmm1, DWORD PTR [ecx+60]
	addss	xmm0, xmm1
	movss	DWORD PTR _vOut$[ebp+12], xmm0

; 3153 : 
; 3154 : 	return vOut;

	lea	eax, DWORD PTR _vOut$[ebp]
	push	eax
	mov	ecx, DWORD PTR ___$ReturnUdt$[ebp]
	call	??0CVector4@gen@@QAE@ABV01@@Z		; gen::CVector4::CVector4
	mov	eax, DWORD PTR ___$ReturnUdt$[ebp]

; 3155 : }

	push	edx
	mov	ecx, ebp
	push	eax
	lea	edx, DWORD PTR $LN5@Transform
	call	@_RTC_CheckStackVars@8
	pop	eax
	pop	edx
	pop	edi
	pop	esi
	pop	ebx
	add	esp, 228				; 000000e4H
	cmp	ebp, esp
	call	__RTC_CheckEsp
	mov	esp, ebp
	pop	ebp
	ret	8
$LN5@Transform:
	DD	1
	DD	$LN4@Transform
$LN4@Transform:
	DD	-32					; ffffffe0H
	DD	16					; 00000010H
	DD	$LN3@Transform
$LN3@Transform:
	DB	118					; 00000076H
	DB	79					; 0000004fH
	DB	117					; 00000075H
	DB	116					; 00000074H
	DB	0
?Transform@CMatrix4x4@gen@@QBE?AVCVector4@2@ABV32@@Z ENDP ; gen::CMatrix4x4::Transform
_TEXT	ENDS
; Function compile flags: /Odtp /RTCsu /ZI
; File c:\users\simon\documents\github\uclan-sparta\import\math\cmatrix4x4.cpp
;	COMDAT ??_0CMatrix4x4@gen@@QAEAAV01@M@Z
_TEXT	SEGMENT
tv174 = -525						; size = 1
$T2 = -520						; size = 88
$T3 = -424						; size = 88
$T4 = -328						; size = 88
_e$5 = -40						; size = 4
_this$ = -28						; size = 4
__$ArrayPad$ = -20					; size = 4
__$EHRec$ = -16						; size = 16
_s$ = 8							; size = 4
??_0CMatrix4x4@gen@@QAEAAV01@M@Z PROC			; gen::CMatrix4x4::operator/=, COMDAT
; _this$ = ecx

; 3047 : {

	push	ebp
	mov	ebp, esp
	push	-1
	push	__ehhandler$??_0CMatrix4x4@gen@@QAEAAV01@M@Z
	mov	eax, DWORD PTR fs:0
	push	eax
	push	ecx
	sub	esp, 512				; 00000200H
	push	ebx
	push	esi
	push	edi
	push	ecx
	lea	edi, DWORD PTR [ebp-528]
	mov	ecx, 128				; 00000080H
	mov	eax, -858993460				; ccccccccH
	rep stosd
	pop	ecx
	mov	eax, DWORD PTR ___security_cookie
	xor	eax, ebp
	mov	DWORD PTR __$ArrayPad$[ebp], eax
	push	eax
	lea	eax, DWORD PTR __$EHRec$[ebp+4]
	mov	DWORD PTR fs:0, eax
	mov	DWORD PTR __$EHRec$[ebp], esp
	mov	DWORD PTR _this$[ebp], ecx

; 3048 : 	GEN_GUARD_OPT;

	mov	DWORD PTR __$EHRec$[ebp+12], 0

; 3049 : 	GEN_ASSERT_OPT( !IsZero(s), "Invalid parameter" );

	push	ecx
	movss	xmm0, DWORD PTR _kfEpsilon
	movss	DWORD PTR [esp], xmm0
	push	ecx
	movss	xmm0, DWORD PTR _s$[ebp]
	movss	DWORD PTR [esp], xmm0
	call	?IsZero@gen@@YA_NMM@Z			; gen::IsZero
	add	esp, 8
	mov	BYTE PTR tv174[ebp], al
	movzx	eax, BYTE PTR tv174[ebp]
	test	eax, eax
	je	SHORT $LN1@operator
	mov	eax, DWORD PTR ?__LINE__Var@?1???_0CMatrix4x4@gen@@QAEAAV12@M@Z@4JA
	add	eax, 2
	push	eax
	push	OFFSET ??_C@_0EI@POGHFJCD@c?3?2users?2simon?2documents?2github?2@
	push	OFFSET ??_C@_0BC@DBAKKFEN@Invalid?5parameter?$AA@
	lea	ecx, DWORD PTR $T2[ebp]
	call	??0CFatalException@gen@@QAE@PBD0H@Z	; gen::CFatalException::CFatalException
	push	OFFSET __TI1?AVCFatalException@gen@@
	lea	ecx, DWORD PTR $T2[ebp]
	push	ecx
	call	__CxxThrowException@8
$LN1@operator:

; 3050 : 
; 3051 : 	e00 /= s;

	mov	eax, DWORD PTR _this$[ebp]
	movss	xmm0, DWORD PTR [eax]
	divss	xmm0, DWORD PTR _s$[ebp]
	mov	ecx, DWORD PTR _this$[ebp]
	movss	DWORD PTR [ecx], xmm0

; 3052 : 	e01 /= s;

	mov	eax, DWORD PTR _this$[ebp]
	movss	xmm0, DWORD PTR [eax+4]
	divss	xmm0, DWORD PTR _s$[ebp]
	mov	ecx, DWORD PTR _this$[ebp]
	movss	DWORD PTR [ecx+4], xmm0

; 3053 : 	e02 /= s;

	mov	eax, DWORD PTR _this$[ebp]
	movss	xmm0, DWORD PTR [eax+8]
	divss	xmm0, DWORD PTR _s$[ebp]
	mov	ecx, DWORD PTR _this$[ebp]
	movss	DWORD PTR [ecx+8], xmm0

; 3054 : 	e03 /= s;

	mov	eax, DWORD PTR _this$[ebp]
	movss	xmm0, DWORD PTR [eax+12]
	divss	xmm0, DWORD PTR _s$[ebp]
	mov	ecx, DWORD PTR _this$[ebp]
	movss	DWORD PTR [ecx+12], xmm0

; 3055 : 	e10 /= s;

	mov	eax, DWORD PTR _this$[ebp]
	movss	xmm0, DWORD PTR [eax+16]
	divss	xmm0, DWORD PTR _s$[ebp]
	mov	ecx, DWORD PTR _this$[ebp]
	movss	DWORD PTR [ecx+16], xmm0

; 3056 : 	e11 /= s;

	mov	eax, DWORD PTR _this$[ebp]
	movss	xmm0, DWORD PTR [eax+20]
	divss	xmm0, DWORD PTR _s$[ebp]
	mov	ecx, DWORD PTR _this$[ebp]
	movss	DWORD PTR [ecx+20], xmm0

; 3057 : 	e12 /= s;

	mov	eax, DWORD PTR _this$[ebp]
	movss	xmm0, DWORD PTR [eax+24]
	divss	xmm0, DWORD PTR _s$[ebp]
	mov	ecx, DWORD PTR _this$[ebp]
	movss	DWORD PTR [ecx+24], xmm0

; 3058 : 	e13 /= s;

	mov	eax, DWORD PTR _this$[ebp]
	movss	xmm0, DWORD PTR [eax+28]
	divss	xmm0, DWORD PTR _s$[ebp]
	mov	ecx, DWORD PTR _this$[ebp]
	movss	DWORD PTR [ecx+28], xmm0

; 3059 : 	e20 /= s;

	mov	eax, DWORD PTR _this$[ebp]
	movss	xmm0, DWORD PTR [eax+32]
	divss	xmm0, DWORD PTR _s$[ebp]
	mov	ecx, DWORD PTR _this$[ebp]
	movss	DWORD PTR [ecx+32], xmm0

; 3060 : 	e21 /= s;

	mov	eax, DWORD PTR _this$[ebp]
	movss	xmm0, DWORD PTR [eax+36]
	divss	xmm0, DWORD PTR _s$[ebp]
	mov	ecx, DWORD PTR _this$[ebp]
	movss	DWORD PTR [ecx+36], xmm0

; 3061 : 	e22 /= s;

	mov	eax, DWORD PTR _this$[ebp]
	movss	xmm0, DWORD PTR [eax+40]
	divss	xmm0, DWORD PTR _s$[ebp]
	mov	ecx, DWORD PTR _this$[ebp]
	movss	DWORD PTR [ecx+40], xmm0

; 3062 : 	e23 /= s;

	mov	eax, DWORD PTR _this$[ebp]
	movss	xmm0, DWORD PTR [eax+44]
	divss	xmm0, DWORD PTR _s$[ebp]
	mov	ecx, DWORD PTR _this$[ebp]
	movss	DWORD PTR [ecx+44], xmm0

; 3063 : 	e30 /= s;

	mov	eax, DWORD PTR _this$[ebp]
	movss	xmm0, DWORD PTR [eax+48]
	divss	xmm0, DWORD PTR _s$[ebp]
	mov	ecx, DWORD PTR _this$[ebp]
	movss	DWORD PTR [ecx+48], xmm0

; 3064 : 	e31 /= s;

	mov	eax, DWORD PTR _this$[ebp]
	movss	xmm0, DWORD PTR [eax+52]
	divss	xmm0, DWORD PTR _s$[ebp]
	mov	ecx, DWORD PTR _this$[ebp]
	movss	DWORD PTR [ecx+52], xmm0

; 3065 : 	e32 /= s;

	mov	eax, DWORD PTR _this$[ebp]
	movss	xmm0, DWORD PTR [eax+56]
	divss	xmm0, DWORD PTR _s$[ebp]
	mov	ecx, DWORD PTR _this$[ebp]
	movss	DWORD PTR [ecx+56], xmm0

; 3066 : 	e33 /= s;

	mov	eax, DWORD PTR _this$[ebp]
	movss	xmm0, DWORD PTR [eax+60]
	divss	xmm0, DWORD PTR _s$[ebp]
	mov	ecx, DWORD PTR _this$[ebp]
	movss	DWORD PTR [ecx+60], xmm0

; 3067 : 
; 3068 : 	return *this;

	mov	eax, DWORD PTR _this$[ebp]
	jmp	$LN8@operator
__catch$??_0CMatrix4x4@gen@@QAEAAV01@M@Z$0:

; 3069 : 
; 3070 : 	GEN_ENDGUARD_OPT;

	push	0
	call	?ObjectName@gen@@YAPBDXZ		; gen::ObjectName
	push	eax
	push	OFFSET ??_C@_0BN@GEEHGKKB@gen?3?3CMatrix4x4?3?3operator?5?1?$DN?$AA@
	mov	ecx, DWORD PTR _e$5[ebp]
	call	?AppendToCallStack@CFatalException@gen@@QAEXPBD0_N@Z ; gen::CFatalException::AppendToCallStack
	mov	eax, DWORD PTR _e$5[ebp]
	push	eax
	lea	ecx, DWORD PTR $T3[ebp]
	call	??0CFatalException@gen@@QAE@ABV01@@Z
	push	OFFSET __TI1?AVCFatalException@gen@@
	lea	ecx, DWORD PTR $T3[ebp]
	push	ecx
	call	__CxxThrowException@8
	mov	eax, $LN9@operator
	ret	0
__catch$??_0CMatrix4x4@gen@@QAEAAV01@M@Z$1:
	call	?ObjectName@gen@@YAPBDXZ		; gen::ObjectName
	push	eax
	push	OFFSET ??_C@_0BN@GEEHGKKB@gen?3?3CMatrix4x4?3?3operator?5?1?$DN?$AA@
	push	OFFSET ??_C@_0EI@POGHFJCD@c?3?2users?2simon?2documents?2github?2@
	lea	ecx, DWORD PTR $T4[ebp]
	call	??0CFatalException@gen@@QAE@PBD00@Z	; gen::CFatalException::CFatalException
	push	OFFSET __TI1?AVCFatalException@gen@@
	lea	eax, DWORD PTR $T4[ebp]
	push	eax
	call	__CxxThrowException@8
	mov	eax, $LN11@operator
	ret	0
	mov	DWORD PTR __$EHRec$[ebp+12], -1
	jmp	SHORT $LN10@operator
$LN11@operator:
	mov	DWORD PTR __$EHRec$[ebp+12], -1
	jmp	SHORT $LN8@operator
$LN10@operator:
	jmp	SHORT $LN8@operator
$LN9@operator:
	mov	DWORD PTR __$EHRec$[ebp+12], -1
$LN8@operator:

; 3071 : }

	push	edx
	mov	ecx, ebp
	push	eax
	lea	edx, DWORD PTR $LN15@operator
	call	@_RTC_CheckStackVars@8
	pop	eax
	pop	edx
	mov	ecx, DWORD PTR __$EHRec$[ebp+4]
	mov	DWORD PTR fs:0, ecx
	pop	ecx
	pop	edi
	pop	esi
	pop	ebx
	mov	ecx, DWORD PTR __$ArrayPad$[ebp]
	xor	ecx, ebp
	call	@__security_check_cookie@4
	add	esp, 528				; 00000210H
	cmp	ebp, esp
	call	__RTC_CheckEsp
	mov	esp, ebp
	pop	ebp
	ret	4
	npad	1
$LN15@operator:
	DD	1
	DD	$LN14@operator
$LN14@operator:
	DD	-40					; ffffffd8H
	DD	4
	DD	$LN12@operator
$LN12@operator:
	DB	101					; 00000065H
	DB	0
_TEXT	ENDS
;	COMDAT text$x
text$x	SEGMENT
__ehhandler$??_0CMatrix4x4@gen@@QAEAAV01@M@Z:
	mov	edx, DWORD PTR [esp+8]
	lea	eax, DWORD PTR [edx+12]
	mov	ecx, DWORD PTR [edx-532]
	xor	ecx, eax
	call	@__security_check_cookie@4
	mov	ecx, DWORD PTR [edx-8]
	xor	ecx, eax
	call	@__security_check_cookie@4
	mov	eax, OFFSET __ehfuncinfo$??_0CMatrix4x4@gen@@QAEAAV01@M@Z
	jmp	___CxxFrameHandler3
text$x	ENDS
??_0CMatrix4x4@gen@@QAEAAV01@M@Z ENDP			; gen::CMatrix4x4::operator/=
; Function compile flags: /Odtp /RTCsu /ZI
; File c:\users\simon\documents\github\uclan-sparta\import\math\cmatrix4x4.cpp
;	COMDAT ??XCMatrix4x4@gen@@QAEAAV01@M@Z
_TEXT	SEGMENT
_this$ = -8						; size = 4
_s$ = 8							; size = 4
??XCMatrix4x4@gen@@QAEAAV01@M@Z PROC			; gen::CMatrix4x4::operator*=, COMDAT
; _this$ = ecx

; 2967 : {

	push	ebp
	mov	ebp, esp
	sub	esp, 204				; 000000ccH
	push	ebx
	push	esi
	push	edi
	push	ecx
	lea	edi, DWORD PTR [ebp-204]
	mov	ecx, 51					; 00000033H
	mov	eax, -858993460				; ccccccccH
	rep stosd
	pop	ecx
	mov	DWORD PTR _this$[ebp], ecx

; 2968 : 	e00 *= s;

	mov	eax, DWORD PTR _this$[ebp]
	movss	xmm0, DWORD PTR [eax]
	mulss	xmm0, DWORD PTR _s$[ebp]
	mov	ecx, DWORD PTR _this$[ebp]
	movss	DWORD PTR [ecx], xmm0

; 2969 : 	e01 *= s;

	mov	eax, DWORD PTR _this$[ebp]
	movss	xmm0, DWORD PTR [eax+4]
	mulss	xmm0, DWORD PTR _s$[ebp]
	mov	ecx, DWORD PTR _this$[ebp]
	movss	DWORD PTR [ecx+4], xmm0

; 2970 : 	e02 *= s;

	mov	eax, DWORD PTR _this$[ebp]
	movss	xmm0, DWORD PTR [eax+8]
	mulss	xmm0, DWORD PTR _s$[ebp]
	mov	ecx, DWORD PTR _this$[ebp]
	movss	DWORD PTR [ecx+8], xmm0

; 2971 : 	e03 *= s;

	mov	eax, DWORD PTR _this$[ebp]
	movss	xmm0, DWORD PTR [eax+12]
	mulss	xmm0, DWORD PTR _s$[ebp]
	mov	ecx, DWORD PTR _this$[ebp]
	movss	DWORD PTR [ecx+12], xmm0

; 2972 : 	e10 *= s;

	mov	eax, DWORD PTR _this$[ebp]
	movss	xmm0, DWORD PTR [eax+16]
	mulss	xmm0, DWORD PTR _s$[ebp]
	mov	ecx, DWORD PTR _this$[ebp]
	movss	DWORD PTR [ecx+16], xmm0

; 2973 : 	e11 *= s;

	mov	eax, DWORD PTR _this$[ebp]
	movss	xmm0, DWORD PTR [eax+20]
	mulss	xmm0, DWORD PTR _s$[ebp]
	mov	ecx, DWORD PTR _this$[ebp]
	movss	DWORD PTR [ecx+20], xmm0

; 2974 : 	e12 *= s;

	mov	eax, DWORD PTR _this$[ebp]
	movss	xmm0, DWORD PTR [eax+24]
	mulss	xmm0, DWORD PTR _s$[ebp]
	mov	ecx, DWORD PTR _this$[ebp]
	movss	DWORD PTR [ecx+24], xmm0

; 2975 : 	e13 *= s;

	mov	eax, DWORD PTR _this$[ebp]
	movss	xmm0, DWORD PTR [eax+28]
	mulss	xmm0, DWORD PTR _s$[ebp]
	mov	ecx, DWORD PTR _this$[ebp]
	movss	DWORD PTR [ecx+28], xmm0

; 2976 : 	e20 *= s;

	mov	eax, DWORD PTR _this$[ebp]
	movss	xmm0, DWORD PTR [eax+32]
	mulss	xmm0, DWORD PTR _s$[ebp]
	mov	ecx, DWORD PTR _this$[ebp]
	movss	DWORD PTR [ecx+32], xmm0

; 2977 : 	e21 *= s;

	mov	eax, DWORD PTR _this$[ebp]
	movss	xmm0, DWORD PTR [eax+36]
	mulss	xmm0, DWORD PTR _s$[ebp]
	mov	ecx, DWORD PTR _this$[ebp]
	movss	DWORD PTR [ecx+36], xmm0

; 2978 : 	e22 *= s;

	mov	eax, DWORD PTR _this$[ebp]
	movss	xmm0, DWORD PTR [eax+40]
	mulss	xmm0, DWORD PTR _s$[ebp]
	mov	ecx, DWORD PTR _this$[ebp]
	movss	DWORD PTR [ecx+40], xmm0

; 2979 : 	e23 *= s;

	mov	eax, DWORD PTR _this$[ebp]
	movss	xmm0, DWORD PTR [eax+44]
	mulss	xmm0, DWORD PTR _s$[ebp]
	mov	ecx, DWORD PTR _this$[ebp]
	movss	DWORD PTR [ecx+44], xmm0

; 2980 : 	e30 *= s;

	mov	eax, DWORD PTR _this$[ebp]
	movss	xmm0, DWORD PTR [eax+48]
	mulss	xmm0, DWORD PTR _s$[ebp]
	mov	ecx, DWORD PTR _this$[ebp]
	movss	DWORD PTR [ecx+48], xmm0

; 2981 : 	e31 *= s;

	mov	eax, DWORD PTR _this$[ebp]
	movss	xmm0, DWORD PTR [eax+52]
	mulss	xmm0, DWORD PTR _s$[ebp]
	mov	ecx, DWORD PTR _this$[ebp]
	movss	DWORD PTR [ecx+52], xmm0

; 2982 : 	e32 *= s;

	mov	eax, DWORD PTR _this$[ebp]
	movss	xmm0, DWORD PTR [eax+56]
	mulss	xmm0, DWORD PTR _s$[ebp]
	mov	ecx, DWORD PTR _this$[ebp]
	movss	DWORD PTR [ecx+56], xmm0

; 2983 : 	e33 *= s;

	mov	eax, DWORD PTR _this$[ebp]
	movss	xmm0, DWORD PTR [eax+60]
	mulss	xmm0, DWORD PTR _s$[ebp]
	mov	ecx, DWORD PTR _this$[ebp]
	movss	DWORD PTR [ecx+60], xmm0

; 2984 : 
; 2985 : 	return *this;

	mov	eax, DWORD PTR _this$[ebp]

; 2986 : }

	pop	edi
	pop	esi
	pop	ebx
	mov	esp, ebp
	pop	ebp
	ret	4
??XCMatrix4x4@gen@@QAEAAV01@M@Z ENDP			; gen::CMatrix4x4::operator*=
_TEXT	ENDS
; Function compile flags: /Odtp /RTCsu /ZI
; File c:\users\simon\documents\github\uclan-sparta\import\math\cmatrix4x4.cpp
;	COMDAT ?FaceDirection@CMatrix4x4@gen@@QAEXABVCVector3@2@0_N@Z
_TEXT	SEGMENT
$T1 = -520						; size = 12
$T2 = -500						; size = 12
$T3 = -480						; size = 12
$T4 = -460						; size = 12
$T5 = -440						; size = 12
$T6 = -420						; size = 12
$T7 = -400						; size = 12
$T8 = -380						; size = 12
$T9 = -360						; size = 12
$T10 = -340						; size = 12
$T11 = -320						; size = 12
$T12 = -300						; size = 12
_scale$ = -88						; size = 12
_axisZ$ = -68						; size = 12
_axisY$ = -48						; size = 12
_axisX$ = -28						; size = 12
_this$ = -8						; size = 4
_direction$ = 8						; size = 4
_up$ = 12						; size = 4
_bLH$ = 16						; size = 1
?FaceDirection@CMatrix4x4@gen@@QAEXABVCVector3@2@0_N@Z PROC ; gen::CMatrix4x4::FaceDirection, COMDAT
; _this$ = ecx

; 2856 : {

	push	ebp
	mov	ebp, esp
	sub	esp, 524				; 0000020cH
	push	ebx
	push	esi
	push	edi
	push	ecx
	lea	edi, DWORD PTR [ebp-524]
	mov	ecx, 131				; 00000083H
	mov	eax, -858993460				; ccccccccH
	rep stosd
	pop	ecx
	mov	DWORD PTR _this$[ebp], ecx

; 2857 : 	// Use cross product of target direction and up vector to give third axis, then orthogonalise
; 2858 : 	CVector3 axisX, axisY, axisZ;

	lea	ecx, DWORD PTR _axisX$[ebp]
	call	??0CVector3@gen@@QAE@XZ			; gen::CVector3::CVector3
	lea	ecx, DWORD PTR _axisY$[ebp]
	call	??0CVector3@gen@@QAE@XZ			; gen::CVector3::CVector3
	lea	ecx, DWORD PTR _axisZ$[ebp]
	call	??0CVector3@gen@@QAE@XZ			; gen::CVector3::CVector3

; 2859 : 	if (bLH)

	movzx	eax, BYTE PTR _bLH$[ebp]
	test	eax, eax
	je	$LN6@FaceDirect

; 2860 : 	{
; 2861 : 		axisZ = Normalise( direction );

	mov	eax, DWORD PTR _direction$[ebp]
	push	eax
	lea	ecx, DWORD PTR $T1[ebp]
	push	ecx
	call	?Normalise@gen@@YA?AVCVector3@1@ABV21@@Z ; gen::Normalise
	add	esp, 8
	push	eax
	lea	ecx, DWORD PTR _axisZ$[ebp]
	call	??4CVector3@gen@@QAEAAV01@ABV01@@Z	; gen::CVector3::operator=

; 2862 : 		if (axisZ.IsZero()) return;

	lea	ecx, DWORD PTR _axisZ$[ebp]
	call	?IsZero@CVector3@gen@@QBE_NXZ		; gen::CVector3::IsZero
	movzx	eax, al
	test	eax, eax
	je	SHORT $LN5@FaceDirect
	jmp	$LN7@FaceDirect
$LN5@FaceDirect:

; 2863 : 		axisX = Normalise( Cross( up, axisZ ) );

	lea	eax, DWORD PTR _axisZ$[ebp]
	push	eax
	mov	ecx, DWORD PTR _up$[ebp]
	push	ecx
	lea	edx, DWORD PTR $T2[ebp]
	push	edx
	call	?Cross@gen@@YA?AVCVector3@1@ABV21@0@Z	; gen::Cross
	add	esp, 12					; 0000000cH
	push	eax
	lea	eax, DWORD PTR $T3[ebp]
	push	eax
	call	?Normalise@gen@@YA?AVCVector3@1@ABV21@@Z ; gen::Normalise
	add	esp, 8
	push	eax
	lea	ecx, DWORD PTR _axisX$[ebp]
	call	??4CVector3@gen@@QAEAAV01@ABV01@@Z	; gen::CVector3::operator=

; 2864 : 		if (axisX.IsZero()) return;

	lea	ecx, DWORD PTR _axisX$[ebp]
	call	?IsZero@CVector3@gen@@QBE_NXZ		; gen::CVector3::IsZero
	movzx	eax, al
	test	eax, eax
	je	SHORT $LN4@FaceDirect
	jmp	$LN7@FaceDirect
$LN4@FaceDirect:

; 2865 : 		axisY = Cross( axisZ, axisX ); // Will already be normalised

	lea	eax, DWORD PTR _axisX$[ebp]
	push	eax
	lea	ecx, DWORD PTR _axisZ$[ebp]
	push	ecx
	lea	edx, DWORD PTR $T4[ebp]
	push	edx
	call	?Cross@gen@@YA?AVCVector3@1@ABV21@0@Z	; gen::Cross
	add	esp, 12					; 0000000cH
	push	eax
	lea	ecx, DWORD PTR _axisY$[ebp]
	call	??4CVector3@gen@@QAEAAV01@ABV01@@Z	; gen::CVector3::operator=

; 2866 : 	}
; 2867 : 	else

	jmp	$LN3@FaceDirect
$LN6@FaceDirect:

; 2868 : 	{
; 2869 : 		axisZ = Normalise( -direction );

	mov	eax, DWORD PTR _direction$[ebp]
	push	eax
	lea	ecx, DWORD PTR $T5[ebp]
	push	ecx
	call	??Ggen@@YA?AVCVector3@0@ABV10@@Z	; gen::operator-
	add	esp, 8
	push	eax
	lea	edx, DWORD PTR $T6[ebp]
	push	edx
	call	?Normalise@gen@@YA?AVCVector3@1@ABV21@@Z ; gen::Normalise
	add	esp, 8
	push	eax
	lea	ecx, DWORD PTR _axisZ$[ebp]
	call	??4CVector3@gen@@QAEAAV01@ABV01@@Z	; gen::CVector3::operator=

; 2870 : 		if (axisZ.IsZero()) return;

	lea	ecx, DWORD PTR _axisZ$[ebp]
	call	?IsZero@CVector3@gen@@QBE_NXZ		; gen::CVector3::IsZero
	movzx	eax, al
	test	eax, eax
	je	SHORT $LN2@FaceDirect
	jmp	$LN7@FaceDirect
$LN2@FaceDirect:

; 2871 : 		axisX = Normalise( Cross( axisZ, up ) );

	mov	eax, DWORD PTR _up$[ebp]
	push	eax
	lea	ecx, DWORD PTR _axisZ$[ebp]
	push	ecx
	lea	edx, DWORD PTR $T7[ebp]
	push	edx
	call	?Cross@gen@@YA?AVCVector3@1@ABV21@0@Z	; gen::Cross
	add	esp, 12					; 0000000cH
	push	eax
	lea	eax, DWORD PTR $T8[ebp]
	push	eax
	call	?Normalise@gen@@YA?AVCVector3@1@ABV21@@Z ; gen::Normalise
	add	esp, 8
	push	eax
	lea	ecx, DWORD PTR _axisX$[ebp]
	call	??4CVector3@gen@@QAEAAV01@ABV01@@Z	; gen::CVector3::operator=

; 2872 : 		if (axisX.IsZero()) return;

	lea	ecx, DWORD PTR _axisX$[ebp]
	call	?IsZero@CVector3@gen@@QBE_NXZ		; gen::CVector3::IsZero
	movzx	eax, al
	test	eax, eax
	je	SHORT $LN1@FaceDirect
	jmp	$LN7@FaceDirect
$LN1@FaceDirect:

; 2873 : 		axisY = Cross( axisX, axisZ ); // Will already be normalised

	lea	eax, DWORD PTR _axisZ$[ebp]
	push	eax
	lea	ecx, DWORD PTR _axisX$[ebp]
	push	ecx
	lea	edx, DWORD PTR $T9[ebp]
	push	edx
	call	?Cross@gen@@YA?AVCVector3@1@ABV21@0@Z	; gen::Cross
	add	esp, 12					; 0000000cH
	push	eax
	lea	ecx, DWORD PTR _axisY$[ebp]
	call	??4CVector3@gen@@QAEAAV01@ABV01@@Z	; gen::CVector3::operator=
$LN3@FaceDirect:

; 2874 : 	}
; 2875 : 
; 2876 : 	// Set rows of matrix, restoring existing scale. Position will be unchanged, 4th column
; 2877 : 	// taken from unit matrix
; 2878 : 	CVector3 scale = GetScale();

	lea	eax, DWORD PTR _scale$[ebp]
	push	eax
	mov	ecx, DWORD PTR _this$[ebp]
	call	?GetScale@CMatrix4x4@gen@@QBE?AVCVector3@2@XZ ; gen::CMatrix4x4::GetScale

; 2879 : 	SetRow( 0, axisX * scale.x );

	push	ecx
	movss	xmm0, DWORD PTR _scale$[ebp]
	movss	DWORD PTR [esp], xmm0
	lea	eax, DWORD PTR _axisX$[ebp]
	push	eax
	lea	ecx, DWORD PTR $T10[ebp]
	push	ecx
	call	??Dgen@@YA?AVCVector3@0@ABV10@M@Z	; gen::operator*
	add	esp, 12					; 0000000cH
	push	eax
	push	0
	mov	ecx, DWORD PTR _this$[ebp]
	call	?SetRow@CMatrix4x4@gen@@QAEXIABVCVector3@2@@Z ; gen::CMatrix4x4::SetRow

; 2880 : 	SetRow( 1, axisY * scale.y );

	push	ecx
	movss	xmm0, DWORD PTR _scale$[ebp+4]
	movss	DWORD PTR [esp], xmm0
	lea	eax, DWORD PTR _axisY$[ebp]
	push	eax
	lea	ecx, DWORD PTR $T11[ebp]
	push	ecx
	call	??Dgen@@YA?AVCVector3@0@ABV10@M@Z	; gen::operator*
	add	esp, 12					; 0000000cH
	push	eax
	push	1
	mov	ecx, DWORD PTR _this$[ebp]
	call	?SetRow@CMatrix4x4@gen@@QAEXIABVCVector3@2@@Z ; gen::CMatrix4x4::SetRow

; 2881 : 	SetRow( 2, axisZ * scale.z );

	push	ecx
	movss	xmm0, DWORD PTR _scale$[ebp+8]
	movss	DWORD PTR [esp], xmm0
	lea	eax, DWORD PTR _axisZ$[ebp]
	push	eax
	lea	ecx, DWORD PTR $T12[ebp]
	push	ecx
	call	??Dgen@@YA?AVCVector3@0@ABV10@M@Z	; gen::operator*
	add	esp, 12					; 0000000cH
	push	eax
	push	2
	mov	ecx, DWORD PTR _this$[ebp]
	call	?SetRow@CMatrix4x4@gen@@QAEXIABVCVector3@2@@Z ; gen::CMatrix4x4::SetRow
$LN7@FaceDirect:

; 2882 : }

	push	edx
	mov	ecx, ebp
	push	eax
	lea	edx, DWORD PTR $LN14@FaceDirect
	call	@_RTC_CheckStackVars@8
	pop	eax
	pop	edx
	pop	edi
	pop	esi
	pop	ebx
	add	esp, 524				; 0000020cH
	cmp	ebp, esp
	call	__RTC_CheckEsp
	mov	esp, ebp
	pop	ebp
	ret	12					; 0000000cH
	npad	2
$LN14@FaceDirect:
	DD	4
	DD	$LN13@FaceDirect
$LN13@FaceDirect:
	DD	-28					; ffffffe4H
	DD	12					; 0000000cH
	DD	$LN9@FaceDirect
	DD	-48					; ffffffd0H
	DD	12					; 0000000cH
	DD	$LN10@FaceDirect
	DD	-68					; ffffffbcH
	DD	12					; 0000000cH
	DD	$LN11@FaceDirect
	DD	-88					; ffffffa8H
	DD	12					; 0000000cH
	DD	$LN12@FaceDirect
$LN12@FaceDirect:
	DB	115					; 00000073H
	DB	99					; 00000063H
	DB	97					; 00000061H
	DB	108					; 0000006cH
	DB	101					; 00000065H
	DB	0
$LN11@FaceDirect:
	DB	97					; 00000061H
	DB	120					; 00000078H
	DB	105					; 00000069H
	DB	115					; 00000073H
	DB	90					; 0000005aH
	DB	0
$LN10@FaceDirect:
	DB	97					; 00000061H
	DB	120					; 00000078H
	DB	105					; 00000069H
	DB	115					; 00000073H
	DB	89					; 00000059H
	DB	0
$LN9@FaceDirect:
	DB	97					; 00000061H
	DB	120					; 00000078H
	DB	105					; 00000069H
	DB	115					; 00000073H
	DB	88					; 00000058H
	DB	0
?FaceDirection@CMatrix4x4@gen@@QAEXABVCVector3@2@0_N@Z ENDP ; gen::CMatrix4x4::FaceDirection
_TEXT	ENDS
; Function compile flags: /Odtp /RTCsu /ZI
; File c:\users\simon\documents\github\uclan-sparta\import\math\cmatrix4x4.cpp
;	COMDAT ?FaceTarget@CMatrix4x4@gen@@QAEXABVCVector3@2@0_N@Z
_TEXT	SEGMENT
$T1 = -580						; size = 12
$T2 = -560						; size = 12
$T3 = -540						; size = 12
$T4 = -520						; size = 12
$T5 = -500						; size = 12
$T6 = -480						; size = 12
$T7 = -460						; size = 12
$T8 = -440						; size = 12
$T9 = -420						; size = 12
$T10 = -400						; size = 12
$T11 = -380						; size = 12
$T12 = -360						; size = 12
$T13 = -340						; size = 12
$T14 = -320						; size = 12
$T15 = -300						; size = 12
_scale$ = -88						; size = 12
_axisZ$ = -68						; size = 12
_axisY$ = -48						; size = 12
_axisX$ = -28						; size = 12
_this$ = -8						; size = 4
_target$ = 8						; size = 4
_up$ = 12						; size = 4
_bLH$ = 16						; size = 1
?FaceTarget@CMatrix4x4@gen@@QAEXABVCVector3@2@0_N@Z PROC ; gen::CMatrix4x4::FaceTarget, COMDAT
; _this$ = ecx

; 2784 : {

	push	ebp
	mov	ebp, esp
	sub	esp, 584				; 00000248H
	push	ebx
	push	esi
	push	edi
	push	ecx
	lea	edi, DWORD PTR [ebp-584]
	mov	ecx, 146				; 00000092H
	mov	eax, -858993460				; ccccccccH
	rep stosd
	pop	ecx
	mov	DWORD PTR _this$[ebp], ecx

; 2785 : 	// Use cross product of target direction and up vector to give third axis, then orthogonalise
; 2786 : 	CVector3 axisX, axisY, axisZ;

	lea	ecx, DWORD PTR _axisX$[ebp]
	call	??0CVector3@gen@@QAE@XZ			; gen::CVector3::CVector3
	lea	ecx, DWORD PTR _axisY$[ebp]
	call	??0CVector3@gen@@QAE@XZ			; gen::CVector3::CVector3
	lea	ecx, DWORD PTR _axisZ$[ebp]
	call	??0CVector3@gen@@QAE@XZ			; gen::CVector3::CVector3

; 2787 : 	if (bLH)

	movzx	eax, BYTE PTR _bLH$[ebp]
	test	eax, eax
	je	$LN6@FaceTarget

; 2788 : 	{
; 2789 : 		axisZ = Normalise( target - GetPosition() );

	lea	eax, DWORD PTR $T1[ebp]
	push	eax
	mov	ecx, DWORD PTR _this$[ebp]
	call	?GetPosition@CMatrix4x4@gen@@QBE?AVCVector3@2@XZ ; gen::CMatrix4x4::GetPosition
	push	eax
	mov	ecx, DWORD PTR _target$[ebp]
	push	ecx
	lea	edx, DWORD PTR $T2[ebp]
	push	edx
	call	??Ggen@@YA?AVCVector3@0@ABV10@0@Z	; gen::operator-
	add	esp, 12					; 0000000cH
	push	eax
	lea	eax, DWORD PTR $T3[ebp]
	push	eax
	call	?Normalise@gen@@YA?AVCVector3@1@ABV21@@Z ; gen::Normalise
	add	esp, 8
	push	eax
	lea	ecx, DWORD PTR _axisZ$[ebp]
	call	??4CVector3@gen@@QAEAAV01@ABV01@@Z	; gen::CVector3::operator=

; 2790 : 		if (axisZ.IsZero()) return;

	lea	ecx, DWORD PTR _axisZ$[ebp]
	call	?IsZero@CVector3@gen@@QBE_NXZ		; gen::CVector3::IsZero
	movzx	eax, al
	test	eax, eax
	je	SHORT $LN5@FaceTarget
	jmp	$LN7@FaceTarget
$LN5@FaceTarget:

; 2791 : 		axisX = Normalise( Cross( up, axisZ ) );

	lea	eax, DWORD PTR _axisZ$[ebp]
	push	eax
	mov	ecx, DWORD PTR _up$[ebp]
	push	ecx
	lea	edx, DWORD PTR $T4[ebp]
	push	edx
	call	?Cross@gen@@YA?AVCVector3@1@ABV21@0@Z	; gen::Cross
	add	esp, 12					; 0000000cH
	push	eax
	lea	eax, DWORD PTR $T5[ebp]
	push	eax
	call	?Normalise@gen@@YA?AVCVector3@1@ABV21@@Z ; gen::Normalise
	add	esp, 8
	push	eax
	lea	ecx, DWORD PTR _axisX$[ebp]
	call	??4CVector3@gen@@QAEAAV01@ABV01@@Z	; gen::CVector3::operator=

; 2792 : 		if (axisX.IsZero()) return;

	lea	ecx, DWORD PTR _axisX$[ebp]
	call	?IsZero@CVector3@gen@@QBE_NXZ		; gen::CVector3::IsZero
	movzx	eax, al
	test	eax, eax
	je	SHORT $LN4@FaceTarget
	jmp	$LN7@FaceTarget
$LN4@FaceTarget:

; 2793 : 		axisY = Cross( axisZ, axisX ); // Will already be normalised

	lea	eax, DWORD PTR _axisX$[ebp]
	push	eax
	lea	ecx, DWORD PTR _axisZ$[ebp]
	push	ecx
	lea	edx, DWORD PTR $T6[ebp]
	push	edx
	call	?Cross@gen@@YA?AVCVector3@1@ABV21@0@Z	; gen::Cross
	add	esp, 12					; 0000000cH
	push	eax
	lea	ecx, DWORD PTR _axisY$[ebp]
	call	??4CVector3@gen@@QAEAAV01@ABV01@@Z	; gen::CVector3::operator=

; 2794 : 	}
; 2795 : 	else

	jmp	$LN3@FaceTarget
$LN6@FaceTarget:

; 2796 : 	{
; 2797 : 		axisZ = Normalise( GetPosition() - target );

	mov	eax, DWORD PTR _target$[ebp]
	push	eax
	lea	ecx, DWORD PTR $T7[ebp]
	push	ecx
	mov	ecx, DWORD PTR _this$[ebp]
	call	?GetPosition@CMatrix4x4@gen@@QBE?AVCVector3@2@XZ ; gen::CMatrix4x4::GetPosition
	push	eax
	lea	edx, DWORD PTR $T8[ebp]
	push	edx
	call	??Ggen@@YA?AVCVector3@0@ABV10@0@Z	; gen::operator-
	add	esp, 12					; 0000000cH
	push	eax
	lea	eax, DWORD PTR $T9[ebp]
	push	eax
	call	?Normalise@gen@@YA?AVCVector3@1@ABV21@@Z ; gen::Normalise
	add	esp, 8
	push	eax
	lea	ecx, DWORD PTR _axisZ$[ebp]
	call	??4CVector3@gen@@QAEAAV01@ABV01@@Z	; gen::CVector3::operator=

; 2798 : 		if (axisZ.IsZero()) return;

	lea	ecx, DWORD PTR _axisZ$[ebp]
	call	?IsZero@CVector3@gen@@QBE_NXZ		; gen::CVector3::IsZero
	movzx	eax, al
	test	eax, eax
	je	SHORT $LN2@FaceTarget
	jmp	$LN7@FaceTarget
$LN2@FaceTarget:

; 2799 : 		axisX = Normalise( Cross( axisZ, up ) );

	mov	eax, DWORD PTR _up$[ebp]
	push	eax
	lea	ecx, DWORD PTR _axisZ$[ebp]
	push	ecx
	lea	edx, DWORD PTR $T10[ebp]
	push	edx
	call	?Cross@gen@@YA?AVCVector3@1@ABV21@0@Z	; gen::Cross
	add	esp, 12					; 0000000cH
	push	eax
	lea	eax, DWORD PTR $T11[ebp]
	push	eax
	call	?Normalise@gen@@YA?AVCVector3@1@ABV21@@Z ; gen::Normalise
	add	esp, 8
	push	eax
	lea	ecx, DWORD PTR _axisX$[ebp]
	call	??4CVector3@gen@@QAEAAV01@ABV01@@Z	; gen::CVector3::operator=

; 2800 : 		if (axisX.IsZero()) return;

	lea	ecx, DWORD PTR _axisX$[ebp]
	call	?IsZero@CVector3@gen@@QBE_NXZ		; gen::CVector3::IsZero
	movzx	eax, al
	test	eax, eax
	je	SHORT $LN1@FaceTarget
	jmp	$LN7@FaceTarget
$LN1@FaceTarget:

; 2801 : 		axisY = Cross( axisX, axisZ ); // Will already be normalised

	lea	eax, DWORD PTR _axisZ$[ebp]
	push	eax
	lea	ecx, DWORD PTR _axisX$[ebp]
	push	ecx
	lea	edx, DWORD PTR $T12[ebp]
	push	edx
	call	?Cross@gen@@YA?AVCVector3@1@ABV21@0@Z	; gen::Cross
	add	esp, 12					; 0000000cH
	push	eax
	lea	ecx, DWORD PTR _axisY$[ebp]
	call	??4CVector3@gen@@QAEAAV01@ABV01@@Z	; gen::CVector3::operator=
$LN3@FaceTarget:

; 2802 : 	}
; 2803 : 
; 2804 : 	// Set rows of matrix, restoring existing scale. Position will be unchanged, 4th column
; 2805 : 	// taken from unit matrix
; 2806 : 	CVector3 scale = GetScale();

	lea	eax, DWORD PTR _scale$[ebp]
	push	eax
	mov	ecx, DWORD PTR _this$[ebp]
	call	?GetScale@CMatrix4x4@gen@@QBE?AVCVector3@2@XZ ; gen::CMatrix4x4::GetScale

; 2807 : 	SetRow( 0, axisX * scale.x );

	push	ecx
	movss	xmm0, DWORD PTR _scale$[ebp]
	movss	DWORD PTR [esp], xmm0
	lea	eax, DWORD PTR _axisX$[ebp]
	push	eax
	lea	ecx, DWORD PTR $T13[ebp]
	push	ecx
	call	??Dgen@@YA?AVCVector3@0@ABV10@M@Z	; gen::operator*
	add	esp, 12					; 0000000cH
	push	eax
	push	0
	mov	ecx, DWORD PTR _this$[ebp]
	call	?SetRow@CMatrix4x4@gen@@QAEXIABVCVector3@2@@Z ; gen::CMatrix4x4::SetRow

; 2808 : 	SetRow( 1, axisY * scale.y );

	push	ecx
	movss	xmm0, DWORD PTR _scale$[ebp+4]
	movss	DWORD PTR [esp], xmm0
	lea	eax, DWORD PTR _axisY$[ebp]
	push	eax
	lea	ecx, DWORD PTR $T14[ebp]
	push	ecx
	call	??Dgen@@YA?AVCVector3@0@ABV10@M@Z	; gen::operator*
	add	esp, 12					; 0000000cH
	push	eax
	push	1
	mov	ecx, DWORD PTR _this$[ebp]
	call	?SetRow@CMatrix4x4@gen@@QAEXIABVCVector3@2@@Z ; gen::CMatrix4x4::SetRow

; 2809 : 	SetRow( 2, axisZ * scale.z );

	push	ecx
	movss	xmm0, DWORD PTR _scale$[ebp+8]
	movss	DWORD PTR [esp], xmm0
	lea	eax, DWORD PTR _axisZ$[ebp]
	push	eax
	lea	ecx, DWORD PTR $T15[ebp]
	push	ecx
	call	??Dgen@@YA?AVCVector3@0@ABV10@M@Z	; gen::operator*
	add	esp, 12					; 0000000cH
	push	eax
	push	2
	mov	ecx, DWORD PTR _this$[ebp]
	call	?SetRow@CMatrix4x4@gen@@QAEXIABVCVector3@2@@Z ; gen::CMatrix4x4::SetRow
$LN7@FaceTarget:

; 2810 : }

	push	edx
	mov	ecx, ebp
	push	eax
	lea	edx, DWORD PTR $LN14@FaceTarget
	call	@_RTC_CheckStackVars@8
	pop	eax
	pop	edx
	pop	edi
	pop	esi
	pop	ebx
	add	esp, 584				; 00000248H
	cmp	ebp, esp
	call	__RTC_CheckEsp
	mov	esp, ebp
	pop	ebp
	ret	12					; 0000000cH
	npad	2
$LN14@FaceTarget:
	DD	4
	DD	$LN13@FaceTarget
$LN13@FaceTarget:
	DD	-28					; ffffffe4H
	DD	12					; 0000000cH
	DD	$LN9@FaceTarget
	DD	-48					; ffffffd0H
	DD	12					; 0000000cH
	DD	$LN10@FaceTarget
	DD	-68					; ffffffbcH
	DD	12					; 0000000cH
	DD	$LN11@FaceTarget
	DD	-88					; ffffffa8H
	DD	12					; 0000000cH
	DD	$LN12@FaceTarget
$LN12@FaceTarget:
	DB	115					; 00000073H
	DB	99					; 00000063H
	DB	97					; 00000061H
	DB	108					; 0000006cH
	DB	101					; 00000065H
	DB	0
$LN11@FaceTarget:
	DB	97					; 00000061H
	DB	120					; 00000078H
	DB	105					; 00000069H
	DB	115					; 00000073H
	DB	90					; 0000005aH
	DB	0
$LN10@FaceTarget:
	DB	97					; 00000061H
	DB	120					; 00000078H
	DB	105					; 00000069H
	DB	115					; 00000073H
	DB	89					; 00000059H
	DB	0
$LN9@FaceTarget:
	DB	97					; 00000061H
	DB	120					; 00000078H
	DB	105					; 00000069H
	DB	115					; 00000073H
	DB	88					; 00000058H
	DB	0
?FaceTarget@CMatrix4x4@gen@@QAEXABVCVector3@2@0_N@Z ENDP ; gen::CMatrix4x4::FaceTarget
_TEXT	ENDS
; Function compile flags: /Odtp /RTCsu /ZI
; File c:\users\simon\documents\github\uclan-sparta\import\math\cmatrix4x4.cpp
;	COMDAT ?MakeScaling@CMatrix4x4@gen@@QAEXM@Z
_TEXT	SEGMENT
_this$ = -8						; size = 4
_fScale$ = 8						; size = 4
?MakeScaling@CMatrix4x4@gen@@QAEXM@Z PROC		; gen::CMatrix4x4::MakeScaling, COMDAT
; _this$ = ecx

; 2340 : {

	push	ebp
	mov	ebp, esp
	sub	esp, 204				; 000000ccH
	push	ebx
	push	esi
	push	edi
	push	ecx
	lea	edi, DWORD PTR [ebp-204]
	mov	ecx, 51					; 00000033H
	mov	eax, -858993460				; ccccccccH
	rep stosd
	pop	ecx
	mov	DWORD PTR _this$[ebp], ecx

; 2341 : 	e00 = fScale;

	mov	eax, DWORD PTR _this$[ebp]
	movss	xmm0, DWORD PTR _fScale$[ebp]
	movss	DWORD PTR [eax], xmm0

; 2342 : 	e01 = 0.0f;

	mov	eax, DWORD PTR _this$[ebp]
	movss	xmm0, DWORD PTR __real@00000000
	movss	DWORD PTR [eax+4], xmm0

; 2343 : 	e02 = 0.0f;

	mov	eax, DWORD PTR _this$[ebp]
	movss	xmm0, DWORD PTR __real@00000000
	movss	DWORD PTR [eax+8], xmm0

; 2344 : 	e03 = 0.0f;

	mov	eax, DWORD PTR _this$[ebp]
	movss	xmm0, DWORD PTR __real@00000000
	movss	DWORD PTR [eax+12], xmm0

; 2345 : 
; 2346 : 	e10 = 0.0f;

	mov	eax, DWORD PTR _this$[ebp]
	movss	xmm0, DWORD PTR __real@00000000
	movss	DWORD PTR [eax+16], xmm0

; 2347 : 	e11 = fScale;

	mov	eax, DWORD PTR _this$[ebp]
	movss	xmm0, DWORD PTR _fScale$[ebp]
	movss	DWORD PTR [eax+20], xmm0

; 2348 : 	e12 = 0.0f;

	mov	eax, DWORD PTR _this$[ebp]
	movss	xmm0, DWORD PTR __real@00000000
	movss	DWORD PTR [eax+24], xmm0

; 2349 : 	e13 = 0.0f;

	mov	eax, DWORD PTR _this$[ebp]
	movss	xmm0, DWORD PTR __real@00000000
	movss	DWORD PTR [eax+28], xmm0

; 2350 : 
; 2351 : 	e20 = 0.0f;

	mov	eax, DWORD PTR _this$[ebp]
	movss	xmm0, DWORD PTR __real@00000000
	movss	DWORD PTR [eax+32], xmm0

; 2352 : 	e21 = 0.0f;

	mov	eax, DWORD PTR _this$[ebp]
	movss	xmm0, DWORD PTR __real@00000000
	movss	DWORD PTR [eax+36], xmm0

; 2353 : 	e22 = fScale;

	mov	eax, DWORD PTR _this$[ebp]
	movss	xmm0, DWORD PTR _fScale$[ebp]
	movss	DWORD PTR [eax+40], xmm0

; 2354 : 	e23 = 0.0f;

	mov	eax, DWORD PTR _this$[ebp]
	movss	xmm0, DWORD PTR __real@00000000
	movss	DWORD PTR [eax+44], xmm0

; 2355 : 
; 2356 : 	e30 = 0.0f;

	mov	eax, DWORD PTR _this$[ebp]
	movss	xmm0, DWORD PTR __real@00000000
	movss	DWORD PTR [eax+48], xmm0

; 2357 : 	e31 = 0.0f;

	mov	eax, DWORD PTR _this$[ebp]
	movss	xmm0, DWORD PTR __real@00000000
	movss	DWORD PTR [eax+52], xmm0

; 2358 : 	e32 = 0.0f;

	mov	eax, DWORD PTR _this$[ebp]
	movss	xmm0, DWORD PTR __real@00000000
	movss	DWORD PTR [eax+56], xmm0

; 2359 : 	e33 = 1.0f;

	mov	eax, DWORD PTR _this$[ebp]
	movss	xmm0, DWORD PTR __real@3f800000
	movss	DWORD PTR [eax+60], xmm0

; 2360 : }

	pop	edi
	pop	esi
	pop	ebx
	mov	esp, ebp
	pop	ebp
	ret	4
?MakeScaling@CMatrix4x4@gen@@QAEXM@Z ENDP		; gen::CMatrix4x4::MakeScaling
_TEXT	ENDS
; Function compile flags: /Odtp /RTCsu /ZI
; File c:\users\simon\documents\github\uclan-sparta\import\math\cmatrix4x4.cpp
;	COMDAT ?MakeScaling@CMatrix4x4@gen@@QAEXABVCVector3@2@@Z
_TEXT	SEGMENT
_this$ = -8						; size = 4
_scale$ = 8						; size = 4
?MakeScaling@CMatrix4x4@gen@@QAEXABVCVector3@2@@Z PROC	; gen::CMatrix4x4::MakeScaling, COMDAT
; _this$ = ecx

; 2316 : {

	push	ebp
	mov	ebp, esp
	sub	esp, 204				; 000000ccH
	push	ebx
	push	esi
	push	edi
	push	ecx
	lea	edi, DWORD PTR [ebp-204]
	mov	ecx, 51					; 00000033H
	mov	eax, -858993460				; ccccccccH
	rep stosd
	pop	ecx
	mov	DWORD PTR _this$[ebp], ecx

; 2317 : 	e00 = scale.x;

	mov	eax, DWORD PTR _this$[ebp]
	mov	ecx, DWORD PTR _scale$[ebp]
	mov	edx, DWORD PTR [ecx]
	mov	DWORD PTR [eax], edx

; 2318 : 	e01 = 0.0f;

	mov	eax, DWORD PTR _this$[ebp]
	movss	xmm0, DWORD PTR __real@00000000
	movss	DWORD PTR [eax+4], xmm0

; 2319 : 	e02 = 0.0f;

	mov	eax, DWORD PTR _this$[ebp]
	movss	xmm0, DWORD PTR __real@00000000
	movss	DWORD PTR [eax+8], xmm0

; 2320 : 	e03 = 0.0f;

	mov	eax, DWORD PTR _this$[ebp]
	movss	xmm0, DWORD PTR __real@00000000
	movss	DWORD PTR [eax+12], xmm0

; 2321 : 
; 2322 : 	e10 = 0.0f;

	mov	eax, DWORD PTR _this$[ebp]
	movss	xmm0, DWORD PTR __real@00000000
	movss	DWORD PTR [eax+16], xmm0

; 2323 : 	e11 = scale.y;

	mov	eax, DWORD PTR _this$[ebp]
	mov	ecx, DWORD PTR _scale$[ebp]
	mov	edx, DWORD PTR [ecx+4]
	mov	DWORD PTR [eax+20], edx

; 2324 : 	e12 = 0.0f;

	mov	eax, DWORD PTR _this$[ebp]
	movss	xmm0, DWORD PTR __real@00000000
	movss	DWORD PTR [eax+24], xmm0

; 2325 : 	e13 = 0.0f;

	mov	eax, DWORD PTR _this$[ebp]
	movss	xmm0, DWORD PTR __real@00000000
	movss	DWORD PTR [eax+28], xmm0

; 2326 : 
; 2327 : 	e20 = 0.0f;

	mov	eax, DWORD PTR _this$[ebp]
	movss	xmm0, DWORD PTR __real@00000000
	movss	DWORD PTR [eax+32], xmm0

; 2328 : 	e21 = 0.0f;

	mov	eax, DWORD PTR _this$[ebp]
	movss	xmm0, DWORD PTR __real@00000000
	movss	DWORD PTR [eax+36], xmm0

; 2329 : 	e22 = scale.z;

	mov	eax, DWORD PTR _this$[ebp]
	mov	ecx, DWORD PTR _scale$[ebp]
	mov	edx, DWORD PTR [ecx+8]
	mov	DWORD PTR [eax+40], edx

; 2330 : 	e23 = 0.0f;

	mov	eax, DWORD PTR _this$[ebp]
	movss	xmm0, DWORD PTR __real@00000000
	movss	DWORD PTR [eax+44], xmm0

; 2331 : 
; 2332 : 	e30 = 0.0f;

	mov	eax, DWORD PTR _this$[ebp]
	movss	xmm0, DWORD PTR __real@00000000
	movss	DWORD PTR [eax+48], xmm0

; 2333 : 	e31 = 0.0f;

	mov	eax, DWORD PTR _this$[ebp]
	movss	xmm0, DWORD PTR __real@00000000
	movss	DWORD PTR [eax+52], xmm0

; 2334 : 	e32 = 0.0f;

	mov	eax, DWORD PTR _this$[ebp]
	movss	xmm0, DWORD PTR __real@00000000
	movss	DWORD PTR [eax+56], xmm0

; 2335 : 	e33 = 1.0f;

	mov	eax, DWORD PTR _this$[ebp]
	movss	xmm0, DWORD PTR __real@3f800000
	movss	DWORD PTR [eax+60], xmm0

; 2336 : }

	pop	edi
	pop	esi
	pop	ebx
	mov	esp, ebp
	pop	ebp
	ret	4
?MakeScaling@CMatrix4x4@gen@@QAEXABVCVector3@2@@Z ENDP	; gen::CMatrix4x4::MakeScaling
_TEXT	ENDS
; Function compile flags: /Odtp /RTCsu /ZI
; File c:\users\simon\documents\github\uclan-sparta\import\math\cmatrix4x4.cpp
;	COMDAT ?MakeRotation@CMatrix4x4@gen@@QAEXABVCVector3@2@M@Z
_TEXT	SEGMENT
tv168 = -689						; size = 1
$T2 = -684						; size = 88
$T3 = -588						; size = 88
$T4 = -492						; size = 88
_e$5 = -204						; size = 4
_tzx$6 = -192						; size = 4
_tyz$7 = -180						; size = 4
_txy$8 = -168						; size = 4
_tz$9 = -156						; size = 4
_ty$10 = -144						; size = 4
_tx$11 = -132						; size = 4
_sz$12 = -120						; size = 4
_sy$13 = -108						; size = 4
_sx$14 = -96						; size = 4
_axisNorm$15 = -84					; size = 12
_t$16 = -64						; size = 4
_c$17 = -52						; size = 4
_s$18 = -40						; size = 4
_this$ = -28						; size = 4
__$ArrayPad$ = -20					; size = 4
__$EHRec$ = -16						; size = 16
_axis$ = 8						; size = 4
_fAngle$ = 12						; size = 4
?MakeRotation@CMatrix4x4@gen@@QAEXABVCVector3@2@M@Z PROC ; gen::CMatrix4x4::MakeRotation, COMDAT
; _this$ = ecx

; 2271 : {

	push	ebp
	mov	ebp, esp
	push	-1
	push	__ehhandler$?MakeRotation@CMatrix4x4@gen@@QAEXABVCVector3@2@M@Z
	mov	eax, DWORD PTR fs:0
	push	eax
	push	ecx
	sub	esp, 676				; 000002a4H
	push	ebx
	push	esi
	push	edi
	push	ecx
	lea	edi, DWORD PTR [ebp-692]
	mov	ecx, 169				; 000000a9H
	mov	eax, -858993460				; ccccccccH
	rep stosd
	pop	ecx
	mov	eax, DWORD PTR ___security_cookie
	xor	eax, ebp
	mov	DWORD PTR __$ArrayPad$[ebp], eax
	push	eax
	lea	eax, DWORD PTR __$EHRec$[ebp+4]
	mov	DWORD PTR fs:0, eax
	mov	DWORD PTR __$EHRec$[ebp], esp
	mov	DWORD PTR _this$[ebp], ecx

; 2272 : 	GEN_GUARD;

	mov	DWORD PTR __$EHRec$[ebp+12], 0

; 2273 : 
; 2274 : 	TFloat32 s, c;
; 2275 : 	SinCos( fAngle, &s, &c );

	lea	eax, DWORD PTR _c$17[ebp]
	push	eax
	lea	ecx, DWORD PTR _s$18[ebp]
	push	ecx
	push	ecx
	movss	xmm0, DWORD PTR _fAngle$[ebp]
	movss	DWORD PTR [esp], xmm0
	call	?SinCos@gen@@YAXMPAM0@Z			; gen::SinCos
	add	esp, 12					; 0000000cH

; 2276 : 	TFloat32 t = 1.0f - c;

	movss	xmm0, DWORD PTR __real@3f800000
	subss	xmm0, DWORD PTR _c$17[ebp]
	movss	DWORD PTR _t$16[ebp], xmm0

; 2277 : 
; 2278 : 	CVector3 axisNorm = Normalise( axis );

	mov	eax, DWORD PTR _axis$[ebp]
	push	eax
	lea	ecx, DWORD PTR _axisNorm$15[ebp]
	push	ecx
	call	?Normalise@gen@@YA?AVCVector3@1@ABV21@@Z ; gen::Normalise
	add	esp, 8

; 2279 : 	GEN_ASSERT( !axisNorm.IsZero(), "Zero length axis" );

	lea	ecx, DWORD PTR _axisNorm$15[ebp]
	call	?IsZero@CVector3@gen@@QBE_NXZ		; gen::CVector3::IsZero
	mov	BYTE PTR tv168[ebp], al
	movzx	eax, BYTE PTR tv168[ebp]
	test	eax, eax
	je	SHORT $LN1@MakeRotati
	mov	eax, DWORD PTR ?__LINE__Var@?1??MakeRotation@CMatrix4x4@gen@@QAEXABVCVector3@3@M@Z@4JA
	add	eax, 8
	push	eax
	push	OFFSET ??_C@_0EI@POGHFJCD@c?3?2users?2simon?2documents?2github?2@
	push	OFFSET ??_C@_0BB@OPALDBID@Zero?5length?5axis?$AA@
	lea	ecx, DWORD PTR $T2[ebp]
	call	??0CFatalException@gen@@QAE@PBD0H@Z	; gen::CFatalException::CFatalException
	push	OFFSET __TI1?AVCFatalException@gen@@
	lea	ecx, DWORD PTR $T2[ebp]
	push	ecx
	call	__CxxThrowException@8
$LN1@MakeRotati:

; 2280 : 
; 2281 : 	TFloat32 sx = s * axisNorm.x;

	movss	xmm0, DWORD PTR _s$18[ebp]
	mulss	xmm0, DWORD PTR _axisNorm$15[ebp]
	movss	DWORD PTR _sx$14[ebp], xmm0

; 2282 : 	TFloat32 sy = s * axisNorm.y;

	movss	xmm0, DWORD PTR _s$18[ebp]
	mulss	xmm0, DWORD PTR _axisNorm$15[ebp+4]
	movss	DWORD PTR _sy$13[ebp], xmm0

; 2283 : 	TFloat32 sz = s * axisNorm.z;

	movss	xmm0, DWORD PTR _s$18[ebp]
	mulss	xmm0, DWORD PTR _axisNorm$15[ebp+8]
	movss	DWORD PTR _sz$12[ebp], xmm0

; 2284 : 	TFloat32 tx = t * axisNorm.x;  

	movss	xmm0, DWORD PTR _t$16[ebp]
	mulss	xmm0, DWORD PTR _axisNorm$15[ebp]
	movss	DWORD PTR _tx$11[ebp], xmm0

; 2285 : 	TFloat32 ty = t * axisNorm.y;

	movss	xmm0, DWORD PTR _t$16[ebp]
	mulss	xmm0, DWORD PTR _axisNorm$15[ebp+4]
	movss	DWORD PTR _ty$10[ebp], xmm0

; 2286 : 	TFloat32 tz = t * axisNorm.z;

	movss	xmm0, DWORD PTR _t$16[ebp]
	mulss	xmm0, DWORD PTR _axisNorm$15[ebp+8]
	movss	DWORD PTR _tz$9[ebp], xmm0

; 2287 : 	TFloat32 txy = ty * axisNorm.x;

	movss	xmm0, DWORD PTR _ty$10[ebp]
	mulss	xmm0, DWORD PTR _axisNorm$15[ebp]
	movss	DWORD PTR _txy$8[ebp], xmm0

; 2288 : 	TFloat32 tyz = tz * axisNorm.y;

	movss	xmm0, DWORD PTR _tz$9[ebp]
	mulss	xmm0, DWORD PTR _axisNorm$15[ebp+4]
	movss	DWORD PTR _tyz$7[ebp], xmm0

; 2289 : 	TFloat32 tzx = tx * axisNorm.z;

	movss	xmm0, DWORD PTR _tx$11[ebp]
	mulss	xmm0, DWORD PTR _axisNorm$15[ebp+8]
	movss	DWORD PTR _tzx$6[ebp], xmm0

; 2290 : 
; 2291 : 	e00 = tx * axisNorm.x + c;

	movss	xmm0, DWORD PTR _tx$11[ebp]
	mulss	xmm0, DWORD PTR _axisNorm$15[ebp]
	addss	xmm0, DWORD PTR _c$17[ebp]
	mov	eax, DWORD PTR _this$[ebp]
	movss	DWORD PTR [eax], xmm0

; 2292 : 	e01 = txy + sz;

	movss	xmm0, DWORD PTR _txy$8[ebp]
	addss	xmm0, DWORD PTR _sz$12[ebp]
	mov	eax, DWORD PTR _this$[ebp]
	movss	DWORD PTR [eax+4], xmm0

; 2293 : 	e02 = tzx - sy;

	movss	xmm0, DWORD PTR _tzx$6[ebp]
	subss	xmm0, DWORD PTR _sy$13[ebp]
	mov	eax, DWORD PTR _this$[ebp]
	movss	DWORD PTR [eax+8], xmm0

; 2294 : 	e03 = 0.0f;

	mov	eax, DWORD PTR _this$[ebp]
	movss	xmm0, DWORD PTR __real@00000000
	movss	DWORD PTR [eax+12], xmm0

; 2295 : 
; 2296 : 	e10 = txy - sz; 

	movss	xmm0, DWORD PTR _txy$8[ebp]
	subss	xmm0, DWORD PTR _sz$12[ebp]
	mov	eax, DWORD PTR _this$[ebp]
	movss	DWORD PTR [eax+16], xmm0

; 2297 : 	e11 = ty * axisNorm.y + c;

	movss	xmm0, DWORD PTR _ty$10[ebp]
	mulss	xmm0, DWORD PTR _axisNorm$15[ebp+4]
	addss	xmm0, DWORD PTR _c$17[ebp]
	mov	eax, DWORD PTR _this$[ebp]
	movss	DWORD PTR [eax+20], xmm0

; 2298 : 	e12 = tyz + sx;

	movss	xmm0, DWORD PTR _tyz$7[ebp]
	addss	xmm0, DWORD PTR _sx$14[ebp]
	mov	eax, DWORD PTR _this$[ebp]
	movss	DWORD PTR [eax+24], xmm0

; 2299 : 	e13 = 0.0f;

	mov	eax, DWORD PTR _this$[ebp]
	movss	xmm0, DWORD PTR __real@00000000
	movss	DWORD PTR [eax+28], xmm0

; 2300 : 
; 2301 : 	e20 = tzx + sy;

	movss	xmm0, DWORD PTR _tzx$6[ebp]
	addss	xmm0, DWORD PTR _sy$13[ebp]
	mov	eax, DWORD PTR _this$[ebp]
	movss	DWORD PTR [eax+32], xmm0

; 2302 : 	e21 = tyz - sx;

	movss	xmm0, DWORD PTR _tyz$7[ebp]
	subss	xmm0, DWORD PTR _sx$14[ebp]
	mov	eax, DWORD PTR _this$[ebp]
	movss	DWORD PTR [eax+36], xmm0

; 2303 : 	e22 = tz * axisNorm.z + c;

	movss	xmm0, DWORD PTR _tz$9[ebp]
	mulss	xmm0, DWORD PTR _axisNorm$15[ebp+8]
	addss	xmm0, DWORD PTR _c$17[ebp]
	mov	eax, DWORD PTR _this$[ebp]
	movss	DWORD PTR [eax+40], xmm0

; 2304 : 	e23 = 0.0f;

	mov	eax, DWORD PTR _this$[ebp]
	movss	xmm0, DWORD PTR __real@00000000
	movss	DWORD PTR [eax+44], xmm0

; 2305 : 
; 2306 : 	e30 = 0.0f;

	mov	eax, DWORD PTR _this$[ebp]
	movss	xmm0, DWORD PTR __real@00000000
	movss	DWORD PTR [eax+48], xmm0

; 2307 : 	e31 = 0.0f;

	mov	eax, DWORD PTR _this$[ebp]
	movss	xmm0, DWORD PTR __real@00000000
	movss	DWORD PTR [eax+52], xmm0

; 2308 : 	e32 = 0.0f;

	mov	eax, DWORD PTR _this$[ebp]
	movss	xmm0, DWORD PTR __real@00000000
	movss	DWORD PTR [eax+56], xmm0

; 2309 : 	e33 = 1.0f;

	mov	eax, DWORD PTR _this$[ebp]
	movss	xmm0, DWORD PTR __real@3f800000
	movss	DWORD PTR [eax+60], xmm0
	jmp	SHORT $LN5@MakeRotati
__catch$?MakeRotation@CMatrix4x4@gen@@QAEXABVCVector3@2@M@Z$0:

; 2310 : 
; 2311 : 	GEN_ENDGUARD;

	push	0
	call	?ObjectName@gen@@YAPBDXZ		; gen::ObjectName
	push	eax
	push	OFFSET ??_C@_0BO@EDHCIBNI@gen?3?3CMatrix4x4?3?3MakeRotation?$AA@
	mov	ecx, DWORD PTR _e$5[ebp]
	call	?AppendToCallStack@CFatalException@gen@@QAEXPBD0_N@Z ; gen::CFatalException::AppendToCallStack
	mov	eax, DWORD PTR _e$5[ebp]
	push	eax
	lea	ecx, DWORD PTR $T3[ebp]
	call	??0CFatalException@gen@@QAE@ABV01@@Z
	push	OFFSET __TI1?AVCFatalException@gen@@
	lea	ecx, DWORD PTR $T3[ebp]
	push	ecx
	call	__CxxThrowException@8
	mov	eax, $LN9@MakeRotati
	ret	0
__catch$?MakeRotation@CMatrix4x4@gen@@QAEXABVCVector3@2@M@Z$1:
	call	?ObjectName@gen@@YAPBDXZ		; gen::ObjectName
	push	eax
	push	OFFSET ??_C@_0BO@EDHCIBNI@gen?3?3CMatrix4x4?3?3MakeRotation?$AA@
	push	OFFSET ??_C@_0EI@POGHFJCD@c?3?2users?2simon?2documents?2github?2@
	lea	ecx, DWORD PTR $T4[ebp]
	call	??0CFatalException@gen@@QAE@PBD00@Z	; gen::CFatalException::CFatalException
	push	OFFSET __TI1?AVCFatalException@gen@@
	lea	eax, DWORD PTR $T4[ebp]
	push	eax
	call	__CxxThrowException@8
	mov	eax, $LN11@MakeRotati
	ret	0
$LN5@MakeRotati:
	mov	DWORD PTR __$EHRec$[ebp+12], -1
	jmp	SHORT $LN10@MakeRotati
$LN11@MakeRotati:
	mov	DWORD PTR __$EHRec$[ebp+12], -1
	jmp	SHORT $LN8@MakeRotati
$LN10@MakeRotati:
	jmp	SHORT $LN8@MakeRotati
$LN9@MakeRotati:
	mov	DWORD PTR __$EHRec$[ebp+12], -1
$LN8@MakeRotati:
$LN3@MakeRotati:

; 2312 : }

	push	edx
	mov	ecx, ebp
	push	eax
	lea	edx, DWORD PTR $LN18@MakeRotati
	call	@_RTC_CheckStackVars@8
	pop	eax
	pop	edx
	mov	ecx, DWORD PTR __$EHRec$[ebp+4]
	mov	DWORD PTR fs:0, ecx
	pop	ecx
	pop	edi
	pop	esi
	pop	ebx
	mov	ecx, DWORD PTR __$ArrayPad$[ebp]
	xor	ecx, ebp
	call	@__security_check_cookie@4
	add	esp, 692				; 000002b4H
	cmp	ebp, esp
	call	__RTC_CheckEsp
	mov	esp, ebp
	pop	ebp
	ret	8
	npad	2
$LN18@MakeRotati:
	DD	4
	DD	$LN17@MakeRotati
$LN17@MakeRotati:
	DD	-40					; ffffffd8H
	DD	4
	DD	$LN12@MakeRotati
	DD	-52					; ffffffccH
	DD	4
	DD	$LN13@MakeRotati
	DD	-84					; ffffffacH
	DD	12					; 0000000cH
	DD	$LN14@MakeRotati
	DD	-204					; ffffff34H
	DD	4
	DD	$LN15@MakeRotati
$LN15@MakeRotati:
	DB	101					; 00000065H
	DB	0
$LN14@MakeRotati:
	DB	97					; 00000061H
	DB	120					; 00000078H
	DB	105					; 00000069H
	DB	115					; 00000073H
	DB	78					; 0000004eH
	DB	111					; 0000006fH
	DB	114					; 00000072H
	DB	109					; 0000006dH
	DB	0
$LN13@MakeRotati:
	DB	99					; 00000063H
	DB	0
$LN12@MakeRotati:
	DB	115					; 00000073H
	DB	0
_TEXT	ENDS
;	COMDAT text$x
text$x	SEGMENT
__ehhandler$?MakeRotation@CMatrix4x4@gen@@QAEXABVCVector3@2@M@Z:
	mov	edx, DWORD PTR [esp+8]
	lea	eax, DWORD PTR [edx+12]
	mov	ecx, DWORD PTR [edx-696]
	xor	ecx, eax
	call	@__security_check_cookie@4
	mov	ecx, DWORD PTR [edx-8]
	xor	ecx, eax
	call	@__security_check_cookie@4
	mov	eax, OFFSET __ehfuncinfo$?MakeRotation@CMatrix4x4@gen@@QAEXABVCVector3@2@M@Z
	jmp	___CxxFrameHandler3
text$x	ENDS
?MakeRotation@CMatrix4x4@gen@@QAEXABVCVector3@2@M@Z ENDP ; gen::CMatrix4x4::MakeRotation
; Function compile flags: /Odtp /RTCsu /ZI
; File c:\users\simon\documents\github\uclan-sparta\import\math\cmatrix4x4.cpp
;	COMDAT ?MakeRotation@CMatrix4x4@gen@@QAEXVCVector3@2@W4ERotationOrder@2@@Z
_TEXT	SEGMENT
tv73 = -600						; size = 4
$T2 = -592						; size = 88
$T3 = -496						; size = 88
$T4 = -400						; size = 88
_e$5 = -112						; size = 4
_cZ$6 = -100						; size = 4
_sZ$7 = -88						; size = 4
_cY$8 = -76						; size = 4
_sY$9 = -64						; size = 4
_cX$10 = -52						; size = 4
_sX$11 = -40						; size = 4
_this$ = -28						; size = 4
__$ArrayPad$ = -20					; size = 4
__$EHRec$ = -16						; size = 16
_angles$ = 8						; size = 12
_eRotOrder$ = 20					; size = 4
?MakeRotation@CMatrix4x4@gen@@QAEXVCVector3@2@W4ERotationOrder@2@@Z PROC ; gen::CMatrix4x4::MakeRotation, COMDAT
; _this$ = ecx

; 2139 : {

	push	ebp
	mov	ebp, esp
	push	-1
	push	__ehhandler$?MakeRotation@CMatrix4x4@gen@@QAEXVCVector3@2@W4ERotationOrder@2@@Z
	mov	eax, DWORD PTR fs:0
	push	eax
	push	ecx
	sub	esp, 584				; 00000248H
	push	ebx
	push	esi
	push	edi
	push	ecx
	lea	edi, DWORD PTR [ebp-600]
	mov	ecx, 146				; 00000092H
	mov	eax, -858993460				; ccccccccH
	rep stosd
	pop	ecx
	mov	eax, DWORD PTR ___security_cookie
	xor	eax, ebp
	mov	DWORD PTR __$ArrayPad$[ebp], eax
	push	eax
	lea	eax, DWORD PTR __$EHRec$[ebp+4]
	mov	DWORD PTR fs:0, eax
	mov	DWORD PTR __$EHRec$[ebp], esp
	mov	DWORD PTR _this$[ebp], ecx

; 2140 : 	GEN_GUARD;

	mov	DWORD PTR __$EHRec$[ebp+12], 0

; 2141 : 
; 2142 : 	TFloat32 sX, cX, sY, cY, sZ, cZ;
; 2143 : 	SinCos( angles.x, &sX, &cX );

	lea	eax, DWORD PTR _cX$10[ebp]
	push	eax
	lea	ecx, DWORD PTR _sX$11[ebp]
	push	ecx
	push	ecx
	movss	xmm0, DWORD PTR _angles$[ebp]
	movss	DWORD PTR [esp], xmm0
	call	?SinCos@gen@@YAXMPAM0@Z			; gen::SinCos
	add	esp, 12					; 0000000cH

; 2144 : 	SinCos( angles.y, &sY, &cY );

	lea	eax, DWORD PTR _cY$8[ebp]
	push	eax
	lea	ecx, DWORD PTR _sY$9[ebp]
	push	ecx
	push	ecx
	movss	xmm0, DWORD PTR _angles$[ebp+4]
	movss	DWORD PTR [esp], xmm0
	call	?SinCos@gen@@YAXMPAM0@Z			; gen::SinCos
	add	esp, 12					; 0000000cH

; 2145 : 	SinCos( angles.z, &sZ, &cZ );

	lea	eax, DWORD PTR _cZ$6[ebp]
	push	eax
	lea	ecx, DWORD PTR _sZ$7[ebp]
	push	ecx
	push	ecx
	movss	xmm0, DWORD PTR _angles$[ebp+8]
	movss	DWORD PTR [esp], xmm0
	call	?SinCos@gen@@YAXMPAM0@Z			; gen::SinCos
	add	esp, 12					; 0000000cH

; 2146 : 
; 2147 : 	switch (eRotOrder)

	mov	eax, DWORD PTR _eRotOrder$[ebp]
	mov	DWORD PTR tv73[ebp], eax
	cmp	DWORD PTR tv73[ebp], 5
	ja	$LN1@MakeRotati
	mov	ecx, DWORD PTR tv73[ebp]
	jmp	DWORD PTR $LN30@MakeRotati[ecx*4]
$LN7@MakeRotati:

; 2148 : 	{
; 2149 : 		case kZYX:
; 2150 : 		{
; 2151 : 			e00 = cZ * cY;

	movss	xmm0, DWORD PTR _cZ$6[ebp]
	mulss	xmm0, DWORD PTR _cY$8[ebp]
	mov	eax, DWORD PTR _this$[ebp]
	movss	DWORD PTR [eax], xmm0

; 2152 : 			e01 = sZ * cX + cZ * sY * sX;

	movss	xmm0, DWORD PTR _cZ$6[ebp]
	mulss	xmm0, DWORD PTR _sY$9[ebp]
	mulss	xmm0, DWORD PTR _sX$11[ebp]
	movss	xmm1, DWORD PTR _sZ$7[ebp]
	mulss	xmm1, DWORD PTR _cX$10[ebp]
	addss	xmm1, xmm0
	mov	eax, DWORD PTR _this$[ebp]
	movss	DWORD PTR [eax+4], xmm1

; 2153 : 			e02 = sZ * sX + -cZ * sY * cX;

	movss	xmm0, DWORD PTR _cZ$6[ebp]
	xorps	xmm0, DWORD PTR __xmm@80000000800000008000000080000000
	mulss	xmm0, DWORD PTR _sY$9[ebp]
	mulss	xmm0, DWORD PTR _cX$10[ebp]
	movss	xmm1, DWORD PTR _sZ$7[ebp]
	mulss	xmm1, DWORD PTR _sX$11[ebp]
	addss	xmm1, xmm0
	mov	eax, DWORD PTR _this$[ebp]
	movss	DWORD PTR [eax+8], xmm1

; 2154 : 			e03 = 0.0f;

	mov	eax, DWORD PTR _this$[ebp]
	movss	xmm0, DWORD PTR __real@00000000
	movss	DWORD PTR [eax+12], xmm0

; 2155 : 
; 2156 : 			e10 = -sZ * cY;

	movss	xmm0, DWORD PTR _sZ$7[ebp]
	xorps	xmm0, DWORD PTR __xmm@80000000800000008000000080000000
	mulss	xmm0, DWORD PTR _cY$8[ebp]
	mov	eax, DWORD PTR _this$[ebp]
	movss	DWORD PTR [eax+16], xmm0

; 2157 : 			e11 = cZ * cX + -sZ * sY * sX;

	movss	xmm0, DWORD PTR _sZ$7[ebp]
	xorps	xmm0, DWORD PTR __xmm@80000000800000008000000080000000
	mulss	xmm0, DWORD PTR _sY$9[ebp]
	mulss	xmm0, DWORD PTR _sX$11[ebp]
	movss	xmm1, DWORD PTR _cZ$6[ebp]
	mulss	xmm1, DWORD PTR _cX$10[ebp]
	addss	xmm1, xmm0
	mov	eax, DWORD PTR _this$[ebp]
	movss	DWORD PTR [eax+20], xmm1

; 2158 : 			e12 = cZ * sX + sZ * sY * cX;

	movss	xmm0, DWORD PTR _sZ$7[ebp]
	mulss	xmm0, DWORD PTR _sY$9[ebp]
	mulss	xmm0, DWORD PTR _cX$10[ebp]
	movss	xmm1, DWORD PTR _cZ$6[ebp]
	mulss	xmm1, DWORD PTR _sX$11[ebp]
	addss	xmm1, xmm0
	mov	eax, DWORD PTR _this$[ebp]
	movss	DWORD PTR [eax+24], xmm1

; 2159 : 			e13 = 0.0f;

	mov	eax, DWORD PTR _this$[ebp]
	movss	xmm0, DWORD PTR __real@00000000
	movss	DWORD PTR [eax+28], xmm0

; 2160 : 
; 2161 : 			e20 = sY;

	mov	eax, DWORD PTR _this$[ebp]
	movss	xmm0, DWORD PTR _sY$9[ebp]
	movss	DWORD PTR [eax+32], xmm0

; 2162 : 			e21 = -cY * sX;

	movss	xmm0, DWORD PTR _cY$8[ebp]
	xorps	xmm0, DWORD PTR __xmm@80000000800000008000000080000000
	mulss	xmm0, DWORD PTR _sX$11[ebp]
	mov	eax, DWORD PTR _this$[ebp]
	movss	DWORD PTR [eax+36], xmm0

; 2163 : 			e22 = cY * cX;

	movss	xmm0, DWORD PTR _cY$8[ebp]
	mulss	xmm0, DWORD PTR _cX$10[ebp]
	mov	eax, DWORD PTR _this$[ebp]
	movss	DWORD PTR [eax+40], xmm0

; 2164 : 			break;

	jmp	$LN8@MakeRotati
$LN6@MakeRotati:

; 2165 : 		}
; 2166 : 		case kYZX:
; 2167 : 		{
; 2168 : 			e00 = cY * cZ;

	movss	xmm0, DWORD PTR _cY$8[ebp]
	mulss	xmm0, DWORD PTR _cZ$6[ebp]
	mov	eax, DWORD PTR _this$[ebp]
	movss	DWORD PTR [eax], xmm0

; 2169 : 			e01 = cY * sZ * cX + sY * sX;

	movss	xmm0, DWORD PTR _sY$9[ebp]
	mulss	xmm0, DWORD PTR _sX$11[ebp]
	movss	xmm1, DWORD PTR _cY$8[ebp]
	mulss	xmm1, DWORD PTR _sZ$7[ebp]
	mulss	xmm1, DWORD PTR _cX$10[ebp]
	addss	xmm1, xmm0
	mov	eax, DWORD PTR _this$[ebp]
	movss	DWORD PTR [eax+4], xmm1

; 2170 : 			e02 = cY * sZ * sX + -sY * cX;

	movss	xmm0, DWORD PTR _sY$9[ebp]
	xorps	xmm0, DWORD PTR __xmm@80000000800000008000000080000000
	mulss	xmm0, DWORD PTR _cX$10[ebp]
	movss	xmm1, DWORD PTR _cY$8[ebp]
	mulss	xmm1, DWORD PTR _sZ$7[ebp]
	mulss	xmm1, DWORD PTR _sX$11[ebp]
	addss	xmm1, xmm0
	mov	eax, DWORD PTR _this$[ebp]
	movss	DWORD PTR [eax+8], xmm1

; 2171 : 			e03 = 0.0f;

	mov	eax, DWORD PTR _this$[ebp]
	movss	xmm0, DWORD PTR __real@00000000
	movss	DWORD PTR [eax+12], xmm0

; 2172 : 
; 2173 : 			e10 = -sZ;

	movss	xmm0, DWORD PTR _sZ$7[ebp]
	xorps	xmm0, DWORD PTR __xmm@80000000800000008000000080000000
	mov	eax, DWORD PTR _this$[ebp]
	movss	DWORD PTR [eax+16], xmm0

; 2174 : 			e11 = cZ * cX;

	movss	xmm0, DWORD PTR _cZ$6[ebp]
	mulss	xmm0, DWORD PTR _cX$10[ebp]
	mov	eax, DWORD PTR _this$[ebp]
	movss	DWORD PTR [eax+20], xmm0

; 2175 : 			e12 = cZ * sX;

	movss	xmm0, DWORD PTR _cZ$6[ebp]
	mulss	xmm0, DWORD PTR _sX$11[ebp]
	mov	eax, DWORD PTR _this$[ebp]
	movss	DWORD PTR [eax+24], xmm0

; 2176 : 			e13 = 0.0f;

	mov	eax, DWORD PTR _this$[ebp]
	movss	xmm0, DWORD PTR __real@00000000
	movss	DWORD PTR [eax+28], xmm0

; 2177 : 
; 2178 : 			e20 = sY * cZ;

	movss	xmm0, DWORD PTR _sY$9[ebp]
	mulss	xmm0, DWORD PTR _cZ$6[ebp]
	mov	eax, DWORD PTR _this$[ebp]
	movss	DWORD PTR [eax+32], xmm0

; 2179 : 			e21 = sY * sZ * cX + -cY * sX;

	movss	xmm0, DWORD PTR _cY$8[ebp]
	xorps	xmm0, DWORD PTR __xmm@80000000800000008000000080000000
	mulss	xmm0, DWORD PTR _sX$11[ebp]
	movss	xmm1, DWORD PTR _sY$9[ebp]
	mulss	xmm1, DWORD PTR _sZ$7[ebp]
	mulss	xmm1, DWORD PTR _cX$10[ebp]
	addss	xmm1, xmm0
	mov	eax, DWORD PTR _this$[ebp]
	movss	DWORD PTR [eax+36], xmm1

; 2180 : 			e22 = sY * sZ * sX + cY * cX;

	movss	xmm0, DWORD PTR _cY$8[ebp]
	mulss	xmm0, DWORD PTR _cX$10[ebp]
	movss	xmm1, DWORD PTR _sY$9[ebp]
	mulss	xmm1, DWORD PTR _sZ$7[ebp]
	mulss	xmm1, DWORD PTR _sX$11[ebp]
	addss	xmm1, xmm0
	mov	eax, DWORD PTR _this$[ebp]
	movss	DWORD PTR [eax+40], xmm1

; 2181 : 			break;

	jmp	$LN8@MakeRotati
$LN5@MakeRotati:

; 2182 : 		}
; 2183 : 		case kXZY:
; 2184 : 		{
; 2185 : 			e00 = cZ * cY;

	movss	xmm0, DWORD PTR _cZ$6[ebp]
	mulss	xmm0, DWORD PTR _cY$8[ebp]
	mov	eax, DWORD PTR _this$[ebp]
	movss	DWORD PTR [eax], xmm0

; 2186 : 			e01 = sZ;

	mov	eax, DWORD PTR _this$[ebp]
	movss	xmm0, DWORD PTR _sZ$7[ebp]
	movss	DWORD PTR [eax+4], xmm0

; 2187 : 			e02 = -cZ * sY;

	movss	xmm0, DWORD PTR _cZ$6[ebp]
	xorps	xmm0, DWORD PTR __xmm@80000000800000008000000080000000
	mulss	xmm0, DWORD PTR _sY$9[ebp]
	mov	eax, DWORD PTR _this$[ebp]
	movss	DWORD PTR [eax+8], xmm0

; 2188 : 			e03 = 0.0f;

	mov	eax, DWORD PTR _this$[ebp]
	movss	xmm0, DWORD PTR __real@00000000
	movss	DWORD PTR [eax+12], xmm0

; 2189 : 
; 2190 : 			e10 = -cX * sZ * cY + sX * sY;

	movss	xmm0, DWORD PTR _sX$11[ebp]
	mulss	xmm0, DWORD PTR _sY$9[ebp]
	movss	xmm1, DWORD PTR _cX$10[ebp]
	xorps	xmm1, DWORD PTR __xmm@80000000800000008000000080000000
	mulss	xmm1, DWORD PTR _sZ$7[ebp]
	mulss	xmm1, DWORD PTR _cY$8[ebp]
	addss	xmm1, xmm0
	mov	eax, DWORD PTR _this$[ebp]
	movss	DWORD PTR [eax+16], xmm1

; 2191 : 			e11 = cX * cZ;

	movss	xmm0, DWORD PTR _cX$10[ebp]
	mulss	xmm0, DWORD PTR _cZ$6[ebp]
	mov	eax, DWORD PTR _this$[ebp]
	movss	DWORD PTR [eax+20], xmm0

; 2192 : 			e12 = cX * sZ * sY + sX * cY;

	movss	xmm0, DWORD PTR _sX$11[ebp]
	mulss	xmm0, DWORD PTR _cY$8[ebp]
	movss	xmm1, DWORD PTR _cX$10[ebp]
	mulss	xmm1, DWORD PTR _sZ$7[ebp]
	mulss	xmm1, DWORD PTR _sY$9[ebp]
	addss	xmm1, xmm0
	mov	eax, DWORD PTR _this$[ebp]
	movss	DWORD PTR [eax+24], xmm1

; 2193 : 			e13 = 0.0f;

	mov	eax, DWORD PTR _this$[ebp]
	movss	xmm0, DWORD PTR __real@00000000
	movss	DWORD PTR [eax+28], xmm0

; 2194 : 
; 2195 : 			e20 = sX * sZ * cY + cX * sY;

	movss	xmm0, DWORD PTR _cX$10[ebp]
	mulss	xmm0, DWORD PTR _sY$9[ebp]
	movss	xmm1, DWORD PTR _sX$11[ebp]
	mulss	xmm1, DWORD PTR _sZ$7[ebp]
	mulss	xmm1, DWORD PTR _cY$8[ebp]
	addss	xmm1, xmm0
	mov	eax, DWORD PTR _this$[ebp]
	movss	DWORD PTR [eax+32], xmm1

; 2196 : 			e21 = -sX * cZ;

	movss	xmm0, DWORD PTR _sX$11[ebp]
	xorps	xmm0, DWORD PTR __xmm@80000000800000008000000080000000
	mulss	xmm0, DWORD PTR _cZ$6[ebp]
	mov	eax, DWORD PTR _this$[ebp]
	movss	DWORD PTR [eax+36], xmm0

; 2197 : 			e22 = -sX * sZ * sY + cX * cY;

	movss	xmm0, DWORD PTR _cX$10[ebp]
	mulss	xmm0, DWORD PTR _cY$8[ebp]
	movss	xmm1, DWORD PTR _sX$11[ebp]
	xorps	xmm1, DWORD PTR __xmm@80000000800000008000000080000000
	mulss	xmm1, DWORD PTR _sZ$7[ebp]
	mulss	xmm1, DWORD PTR _sY$9[ebp]
	addss	xmm1, xmm0
	mov	eax, DWORD PTR _this$[ebp]
	movss	DWORD PTR [eax+40], xmm1

; 2198 : 			break;

	jmp	$LN8@MakeRotati
$LN4@MakeRotati:

; 2199 : 		}
; 2200 : 		case kZXY:
; 2201 : 		{
; 2202 : 			e00 = cZ * cY + sZ * sX * sY;

	movss	xmm0, DWORD PTR _sZ$7[ebp]
	mulss	xmm0, DWORD PTR _sX$11[ebp]
	mulss	xmm0, DWORD PTR _sY$9[ebp]
	movss	xmm1, DWORD PTR _cZ$6[ebp]
	mulss	xmm1, DWORD PTR _cY$8[ebp]
	addss	xmm1, xmm0
	mov	eax, DWORD PTR _this$[ebp]
	movss	DWORD PTR [eax], xmm1

; 2203 : 			e01 = sZ * cX;

	movss	xmm0, DWORD PTR _sZ$7[ebp]
	mulss	xmm0, DWORD PTR _cX$10[ebp]
	mov	eax, DWORD PTR _this$[ebp]
	movss	DWORD PTR [eax+4], xmm0

; 2204 : 			e02 = -cZ * sY + sZ * sX * cY;

	movss	xmm0, DWORD PTR _sZ$7[ebp]
	mulss	xmm0, DWORD PTR _sX$11[ebp]
	mulss	xmm0, DWORD PTR _cY$8[ebp]
	movss	xmm1, DWORD PTR _cZ$6[ebp]
	xorps	xmm1, DWORD PTR __xmm@80000000800000008000000080000000
	mulss	xmm1, DWORD PTR _sY$9[ebp]
	addss	xmm1, xmm0
	mov	eax, DWORD PTR _this$[ebp]
	movss	DWORD PTR [eax+8], xmm1

; 2205 : 			e03 = 0.0f;

	mov	eax, DWORD PTR _this$[ebp]
	movss	xmm0, DWORD PTR __real@00000000
	movss	DWORD PTR [eax+12], xmm0

; 2206 : 
; 2207 : 			e10 = -sZ * cY + cZ * sX * sY;

	movss	xmm0, DWORD PTR _cZ$6[ebp]
	mulss	xmm0, DWORD PTR _sX$11[ebp]
	mulss	xmm0, DWORD PTR _sY$9[ebp]
	movss	xmm1, DWORD PTR _sZ$7[ebp]
	xorps	xmm1, DWORD PTR __xmm@80000000800000008000000080000000
	mulss	xmm1, DWORD PTR _cY$8[ebp]
	addss	xmm1, xmm0
	mov	eax, DWORD PTR _this$[ebp]
	movss	DWORD PTR [eax+16], xmm1

; 2208 : 			e11 = cZ * cX;

	movss	xmm0, DWORD PTR _cZ$6[ebp]
	mulss	xmm0, DWORD PTR _cX$10[ebp]
	mov	eax, DWORD PTR _this$[ebp]
	movss	DWORD PTR [eax+20], xmm0

; 2209 : 			e12 = sZ * sY + cZ * sX * cY;

	movss	xmm0, DWORD PTR _cZ$6[ebp]
	mulss	xmm0, DWORD PTR _sX$11[ebp]
	mulss	xmm0, DWORD PTR _cY$8[ebp]
	movss	xmm1, DWORD PTR _sZ$7[ebp]
	mulss	xmm1, DWORD PTR _sY$9[ebp]
	addss	xmm1, xmm0
	mov	eax, DWORD PTR _this$[ebp]
	movss	DWORD PTR [eax+24], xmm1

; 2210 : 			e13 = 0.0f;

	mov	eax, DWORD PTR _this$[ebp]
	movss	xmm0, DWORD PTR __real@00000000
	movss	DWORD PTR [eax+28], xmm0

; 2211 : 
; 2212 : 			e20 = cX * sY;

	movss	xmm0, DWORD PTR _cX$10[ebp]
	mulss	xmm0, DWORD PTR _sY$9[ebp]
	mov	eax, DWORD PTR _this$[ebp]
	movss	DWORD PTR [eax+32], xmm0

; 2213 : 			e21 = -sX;

	movss	xmm0, DWORD PTR _sX$11[ebp]
	xorps	xmm0, DWORD PTR __xmm@80000000800000008000000080000000
	mov	eax, DWORD PTR _this$[ebp]
	movss	DWORD PTR [eax+36], xmm0

; 2214 : 			e22 = cX * cY;

	movss	xmm0, DWORD PTR _cX$10[ebp]
	mulss	xmm0, DWORD PTR _cY$8[ebp]
	mov	eax, DWORD PTR _this$[ebp]
	movss	DWORD PTR [eax+40], xmm0

; 2215 : 			break;

	jmp	$LN8@MakeRotati
$LN3@MakeRotati:

; 2216 : 		}
; 2217 : 		case kYXZ:
; 2218 : 		{
; 2219 : 			e00 = cY * cZ + -sY * sX * sZ;

	movss	xmm0, DWORD PTR _sY$9[ebp]
	xorps	xmm0, DWORD PTR __xmm@80000000800000008000000080000000
	mulss	xmm0, DWORD PTR _sX$11[ebp]
	mulss	xmm0, DWORD PTR _sZ$7[ebp]
	movss	xmm1, DWORD PTR _cY$8[ebp]
	mulss	xmm1, DWORD PTR _cZ$6[ebp]
	addss	xmm1, xmm0
	mov	eax, DWORD PTR _this$[ebp]
	movss	DWORD PTR [eax], xmm1

; 2220 : 			e01 = cY * sZ + sY * sX * cZ;

	movss	xmm0, DWORD PTR _sY$9[ebp]
	mulss	xmm0, DWORD PTR _sX$11[ebp]
	mulss	xmm0, DWORD PTR _cZ$6[ebp]
	movss	xmm1, DWORD PTR _cY$8[ebp]
	mulss	xmm1, DWORD PTR _sZ$7[ebp]
	addss	xmm1, xmm0
	mov	eax, DWORD PTR _this$[ebp]
	movss	DWORD PTR [eax+4], xmm1

; 2221 : 			e02 = -sY * cX;

	movss	xmm0, DWORD PTR _sY$9[ebp]
	xorps	xmm0, DWORD PTR __xmm@80000000800000008000000080000000
	mulss	xmm0, DWORD PTR _cX$10[ebp]
	mov	eax, DWORD PTR _this$[ebp]
	movss	DWORD PTR [eax+8], xmm0

; 2222 : 			e03 = 0.0f;

	mov	eax, DWORD PTR _this$[ebp]
	movss	xmm0, DWORD PTR __real@00000000
	movss	DWORD PTR [eax+12], xmm0

; 2223 : 
; 2224 : 			e10 = -cX * sZ;

	movss	xmm0, DWORD PTR _cX$10[ebp]
	xorps	xmm0, DWORD PTR __xmm@80000000800000008000000080000000
	mulss	xmm0, DWORD PTR _sZ$7[ebp]
	mov	eax, DWORD PTR _this$[ebp]
	movss	DWORD PTR [eax+16], xmm0

; 2225 : 			e11 = cX * cZ;

	movss	xmm0, DWORD PTR _cX$10[ebp]
	mulss	xmm0, DWORD PTR _cZ$6[ebp]
	mov	eax, DWORD PTR _this$[ebp]
	movss	DWORD PTR [eax+20], xmm0

; 2226 : 			e12 = sX;

	mov	eax, DWORD PTR _this$[ebp]
	movss	xmm0, DWORD PTR _sX$11[ebp]
	movss	DWORD PTR [eax+24], xmm0

; 2227 : 			e13 = 0.0f;

	mov	eax, DWORD PTR _this$[ebp]
	movss	xmm0, DWORD PTR __real@00000000
	movss	DWORD PTR [eax+28], xmm0

; 2228 : 
; 2229 : 			e20 = sY * cZ + cY * sX * sZ;

	movss	xmm0, DWORD PTR _cY$8[ebp]
	mulss	xmm0, DWORD PTR _sX$11[ebp]
	mulss	xmm0, DWORD PTR _sZ$7[ebp]
	movss	xmm1, DWORD PTR _sY$9[ebp]
	mulss	xmm1, DWORD PTR _cZ$6[ebp]
	addss	xmm1, xmm0
	mov	eax, DWORD PTR _this$[ebp]
	movss	DWORD PTR [eax+32], xmm1

; 2230 : 			e21 = sY * sZ + -cY * sX * cZ;

	movss	xmm0, DWORD PTR _cY$8[ebp]
	xorps	xmm0, DWORD PTR __xmm@80000000800000008000000080000000
	mulss	xmm0, DWORD PTR _sX$11[ebp]
	mulss	xmm0, DWORD PTR _cZ$6[ebp]
	movss	xmm1, DWORD PTR _sY$9[ebp]
	mulss	xmm1, DWORD PTR _sZ$7[ebp]
	addss	xmm1, xmm0
	mov	eax, DWORD PTR _this$[ebp]
	movss	DWORD PTR [eax+36], xmm1

; 2231 : 			e22 = cY * cX;

	movss	xmm0, DWORD PTR _cY$8[ebp]
	mulss	xmm0, DWORD PTR _cX$10[ebp]
	mov	eax, DWORD PTR _this$[ebp]
	movss	DWORD PTR [eax+40], xmm0

; 2232 : 			break;

	jmp	$LN8@MakeRotati
$LN2@MakeRotati:

; 2233 : 		}
; 2234 : 		case kXYZ:
; 2235 : 		{
; 2236 : 			e00 = cY * cZ;

	movss	xmm0, DWORD PTR _cY$8[ebp]
	mulss	xmm0, DWORD PTR _cZ$6[ebp]
	mov	eax, DWORD PTR _this$[ebp]
	movss	DWORD PTR [eax], xmm0

; 2237 : 			e01 = cY * sZ;

	movss	xmm0, DWORD PTR _cY$8[ebp]
	mulss	xmm0, DWORD PTR _sZ$7[ebp]
	mov	eax, DWORD PTR _this$[ebp]
	movss	DWORD PTR [eax+4], xmm0

; 2238 : 			e02 = -sY;

	movss	xmm0, DWORD PTR _sY$9[ebp]
	xorps	xmm0, DWORD PTR __xmm@80000000800000008000000080000000
	mov	eax, DWORD PTR _this$[ebp]
	movss	DWORD PTR [eax+8], xmm0

; 2239 : 			e03 = 0.0f;

	mov	eax, DWORD PTR _this$[ebp]
	movss	xmm0, DWORD PTR __real@00000000
	movss	DWORD PTR [eax+12], xmm0

; 2240 : 
; 2241 : 			e10 = sX * sY * cZ + -cX * sZ;

	movss	xmm0, DWORD PTR _cX$10[ebp]
	xorps	xmm0, DWORD PTR __xmm@80000000800000008000000080000000
	mulss	xmm0, DWORD PTR _sZ$7[ebp]
	movss	xmm1, DWORD PTR _sX$11[ebp]
	mulss	xmm1, DWORD PTR _sY$9[ebp]
	mulss	xmm1, DWORD PTR _cZ$6[ebp]
	addss	xmm1, xmm0
	mov	eax, DWORD PTR _this$[ebp]
	movss	DWORD PTR [eax+16], xmm1

; 2242 : 			e11 = sX * sY * sZ + cX * cZ;

	movss	xmm0, DWORD PTR _cX$10[ebp]
	mulss	xmm0, DWORD PTR _cZ$6[ebp]
	movss	xmm1, DWORD PTR _sX$11[ebp]
	mulss	xmm1, DWORD PTR _sY$9[ebp]
	mulss	xmm1, DWORD PTR _sZ$7[ebp]
	addss	xmm1, xmm0
	mov	eax, DWORD PTR _this$[ebp]
	movss	DWORD PTR [eax+20], xmm1

; 2243 : 			e12 = sX * cY;

	movss	xmm0, DWORD PTR _sX$11[ebp]
	mulss	xmm0, DWORD PTR _cY$8[ebp]
	mov	eax, DWORD PTR _this$[ebp]
	movss	DWORD PTR [eax+24], xmm0

; 2244 : 			e13 = 0.0f;

	mov	eax, DWORD PTR _this$[ebp]
	movss	xmm0, DWORD PTR __real@00000000
	movss	DWORD PTR [eax+28], xmm0

; 2245 : 
; 2246 : 			e20 = cX * sY * cZ + sX * sZ;

	movss	xmm0, DWORD PTR _sX$11[ebp]
	mulss	xmm0, DWORD PTR _sZ$7[ebp]
	movss	xmm1, DWORD PTR _cX$10[ebp]
	mulss	xmm1, DWORD PTR _sY$9[ebp]
	mulss	xmm1, DWORD PTR _cZ$6[ebp]
	addss	xmm1, xmm0
	mov	eax, DWORD PTR _this$[ebp]
	movss	DWORD PTR [eax+32], xmm1

; 2247 : 			e21 = cX * sY * sZ + -sX * cZ;

	movss	xmm0, DWORD PTR _sX$11[ebp]
	xorps	xmm0, DWORD PTR __xmm@80000000800000008000000080000000
	mulss	xmm0, DWORD PTR _cZ$6[ebp]
	movss	xmm1, DWORD PTR _cX$10[ebp]
	mulss	xmm1, DWORD PTR _sY$9[ebp]
	mulss	xmm1, DWORD PTR _sZ$7[ebp]
	addss	xmm1, xmm0
	mov	eax, DWORD PTR _this$[ebp]
	movss	DWORD PTR [eax+36], xmm1

; 2248 : 			e22 = cX * cY;

	movss	xmm0, DWORD PTR _cX$10[ebp]
	mulss	xmm0, DWORD PTR _cY$8[ebp]
	mov	eax, DWORD PTR _this$[ebp]
	movss	DWORD PTR [eax+40], xmm0

; 2249 : 			break;

	jmp	SHORT $LN8@MakeRotati
$LN1@MakeRotati:

; 2250 : 		}
; 2251 : 
; 2252 : 		default:
; 2253 : 			GEN_ERROR( "Invalid parameter" );

	mov	eax, DWORD PTR ?__LINE__Var@?1??MakeRotation@CMatrix4x4@gen@@QAEXVCVector3@3@W4ERotationOrder@3@@Z@4JA
	add	eax, 114				; 00000072H
	push	eax
	push	OFFSET ??_C@_0EI@POGHFJCD@c?3?2users?2simon?2documents?2github?2@
	push	OFFSET ??_C@_0BC@DBAKKFEN@Invalid?5parameter?$AA@
	lea	ecx, DWORD PTR $T2[ebp]
	call	??0CFatalException@gen@@QAE@PBD0H@Z	; gen::CFatalException::CFatalException
	push	OFFSET __TI1?AVCFatalException@gen@@
	lea	ecx, DWORD PTR $T2[ebp]
	push	ecx
	call	__CxxThrowException@8
$LN8@MakeRotati:

; 2254 : 	}
; 2255 : 	e23 = 0.0f;

	mov	eax, DWORD PTR _this$[ebp]
	movss	xmm0, DWORD PTR __real@00000000
	movss	DWORD PTR [eax+44], xmm0

; 2256 : 
; 2257 : 	e30 = 0.0f;

	mov	eax, DWORD PTR _this$[ebp]
	movss	xmm0, DWORD PTR __real@00000000
	movss	DWORD PTR [eax+48], xmm0

; 2258 : 	e31 = 0.0f;

	mov	eax, DWORD PTR _this$[ebp]
	movss	xmm0, DWORD PTR __real@00000000
	movss	DWORD PTR [eax+52], xmm0

; 2259 : 	e32 = 0.0f;

	mov	eax, DWORD PTR _this$[ebp]
	movss	xmm0, DWORD PTR __real@00000000
	movss	DWORD PTR [eax+56], xmm0

; 2260 : 	e33 = 1.0f;

	mov	eax, DWORD PTR _this$[ebp]
	movss	xmm0, DWORD PTR __real@3f800000
	movss	DWORD PTR [eax+60], xmm0
	jmp	SHORT $LN13@MakeRotati
__catch$?MakeRotation@CMatrix4x4@gen@@QAEXVCVector3@2@W4ERotationOrder@2@@Z$0:

; 2261 : 
; 2262 : 	GEN_ENDGUARD;

	push	0
	call	?ObjectName@gen@@YAPBDXZ		; gen::ObjectName
	push	eax
	push	OFFSET ??_C@_0BO@EDHCIBNI@gen?3?3CMatrix4x4?3?3MakeRotation?$AA@
	mov	ecx, DWORD PTR _e$5[ebp]
	call	?AppendToCallStack@CFatalException@gen@@QAEXPBD0_N@Z ; gen::CFatalException::AppendToCallStack
	mov	eax, DWORD PTR _e$5[ebp]
	push	eax
	lea	ecx, DWORD PTR $T3[ebp]
	call	??0CFatalException@gen@@QAE@ABV01@@Z
	push	OFFSET __TI1?AVCFatalException@gen@@
	lea	ecx, DWORD PTR $T3[ebp]
	push	ecx
	call	__CxxThrowException@8
	mov	eax, $LN17@MakeRotati
	ret	0
__catch$?MakeRotation@CMatrix4x4@gen@@QAEXVCVector3@2@W4ERotationOrder@2@@Z$1:
	call	?ObjectName@gen@@YAPBDXZ		; gen::ObjectName
	push	eax
	push	OFFSET ??_C@_0BO@EDHCIBNI@gen?3?3CMatrix4x4?3?3MakeRotation?$AA@
	push	OFFSET ??_C@_0EI@POGHFJCD@c?3?2users?2simon?2documents?2github?2@
	lea	ecx, DWORD PTR $T4[ebp]
	call	??0CFatalException@gen@@QAE@PBD00@Z	; gen::CFatalException::CFatalException
	push	OFFSET __TI1?AVCFatalException@gen@@
	lea	eax, DWORD PTR $T4[ebp]
	push	eax
	call	__CxxThrowException@8
	mov	eax, $LN19@MakeRotati
	ret	0
$LN13@MakeRotati:
	mov	DWORD PTR __$EHRec$[ebp+12], -1
	jmp	SHORT $LN18@MakeRotati
$LN19@MakeRotati:
	mov	DWORD PTR __$EHRec$[ebp+12], -1
	jmp	SHORT $LN16@MakeRotati
$LN18@MakeRotati:
	jmp	SHORT $LN16@MakeRotati
$LN17@MakeRotati:
	mov	DWORD PTR __$EHRec$[ebp+12], -1
$LN16@MakeRotati:
$LN11@MakeRotati:

; 2263 : }

	push	edx
	mov	ecx, ebp
	push	eax
	lea	edx, DWORD PTR $LN29@MakeRotati
	call	@_RTC_CheckStackVars@8
	pop	eax
	pop	edx
	mov	ecx, DWORD PTR __$EHRec$[ebp+4]
	mov	DWORD PTR fs:0, ecx
	pop	ecx
	pop	edi
	pop	esi
	pop	ebx
	mov	ecx, DWORD PTR __$ArrayPad$[ebp]
	xor	ecx, ebp
	call	@__security_check_cookie@4
	add	esp, 600				; 00000258H
	cmp	ebp, esp
	call	__RTC_CheckEsp
	mov	esp, ebp
	pop	ebp
	ret	16					; 00000010H
	npad	1
$LN29@MakeRotati:
	DD	7
	DD	$LN28@MakeRotati
$LN28@MakeRotati:
	DD	-40					; ffffffd8H
	DD	4
	DD	$LN20@MakeRotati
	DD	-52					; ffffffccH
	DD	4
	DD	$LN21@MakeRotati
	DD	-64					; ffffffc0H
	DD	4
	DD	$LN22@MakeRotati
	DD	-76					; ffffffb4H
	DD	4
	DD	$LN23@MakeRotati
	DD	-88					; ffffffa8H
	DD	4
	DD	$LN24@MakeRotati
	DD	-100					; ffffff9cH
	DD	4
	DD	$LN25@MakeRotati
	DD	-112					; ffffff90H
	DD	4
	DD	$LN26@MakeRotati
$LN26@MakeRotati:
	DB	101					; 00000065H
	DB	0
$LN25@MakeRotati:
	DB	99					; 00000063H
	DB	90					; 0000005aH
	DB	0
$LN24@MakeRotati:
	DB	115					; 00000073H
	DB	90					; 0000005aH
	DB	0
$LN23@MakeRotati:
	DB	99					; 00000063H
	DB	89					; 00000059H
	DB	0
$LN22@MakeRotati:
	DB	115					; 00000073H
	DB	89					; 00000059H
	DB	0
$LN21@MakeRotati:
	DB	99					; 00000063H
	DB	88					; 00000058H
	DB	0
$LN20@MakeRotati:
	DB	115					; 00000073H
	DB	88					; 00000058H
	DB	0
$LN30@MakeRotati:
	DD	$LN2@MakeRotati
	DD	$LN5@MakeRotati
	DD	$LN6@MakeRotati
	DD	$LN3@MakeRotati
	DD	$LN4@MakeRotati
	DD	$LN7@MakeRotati
_TEXT	ENDS
;	COMDAT text$x
text$x	SEGMENT
__ehhandler$?MakeRotation@CMatrix4x4@gen@@QAEXVCVector3@2@W4ERotationOrder@2@@Z:
	mov	edx, DWORD PTR [esp+8]
	lea	eax, DWORD PTR [edx+12]
	mov	ecx, DWORD PTR [edx-604]
	xor	ecx, eax
	call	@__security_check_cookie@4
	mov	ecx, DWORD PTR [edx-8]
	xor	ecx, eax
	call	@__security_check_cookie@4
	mov	eax, OFFSET __ehfuncinfo$?MakeRotation@CMatrix4x4@gen@@QAEXVCVector3@2@W4ERotationOrder@2@@Z
	jmp	___CxxFrameHandler3
text$x	ENDS
?MakeRotation@CMatrix4x4@gen@@QAEXVCVector3@2@W4ERotationOrder@2@@Z ENDP ; gen::CMatrix4x4::MakeRotation
; Function compile flags: /Odtp /RTCsu /ZI
; File c:\users\simon\documents\github\uclan-sparta\import\math\cmatrix4x4.cpp
;	COMDAT ?MakeRotationZ@CMatrix4x4@gen@@QAEXM@Z
_TEXT	SEGMENT
_cZ$ = -32						; size = 4
_sZ$ = -20						; size = 4
_this$ = -8						; size = 4
_z$ = 8							; size = 4
?MakeRotationZ@CMatrix4x4@gen@@QAEXM@Z PROC		; gen::CMatrix4x4::MakeRotationZ, COMDAT
; _this$ = ecx

; 2107 : {

	push	ebp
	mov	ebp, esp
	sub	esp, 228				; 000000e4H
	push	ebx
	push	esi
	push	edi
	push	ecx
	lea	edi, DWORD PTR [ebp-228]
	mov	ecx, 57					; 00000039H
	mov	eax, -858993460				; ccccccccH
	rep stosd
	pop	ecx
	mov	DWORD PTR _this$[ebp], ecx

; 2108 : 	TFloat32 sZ, cZ;
; 2109 : 	SinCos( z, &sZ, &cZ );

	lea	eax, DWORD PTR _cZ$[ebp]
	push	eax
	lea	ecx, DWORD PTR _sZ$[ebp]
	push	ecx
	push	ecx
	movss	xmm0, DWORD PTR _z$[ebp]
	movss	DWORD PTR [esp], xmm0
	call	?SinCos@gen@@YAXMPAM0@Z			; gen::SinCos
	add	esp, 12					; 0000000cH

; 2110 : 
; 2111 : 	e00 = cZ;

	mov	eax, DWORD PTR _this$[ebp]
	movss	xmm0, DWORD PTR _cZ$[ebp]
	movss	DWORD PTR [eax], xmm0

; 2112 : 	e01 = sZ;

	mov	eax, DWORD PTR _this$[ebp]
	movss	xmm0, DWORD PTR _sZ$[ebp]
	movss	DWORD PTR [eax+4], xmm0

; 2113 : 	e02 = 0.0f;

	mov	eax, DWORD PTR _this$[ebp]
	movss	xmm0, DWORD PTR __real@00000000
	movss	DWORD PTR [eax+8], xmm0

; 2114 : 	e03 = 0.0f;

	mov	eax, DWORD PTR _this$[ebp]
	movss	xmm0, DWORD PTR __real@00000000
	movss	DWORD PTR [eax+12], xmm0

; 2115 : 
; 2116 : 	e10 = -sZ;

	movss	xmm0, DWORD PTR _sZ$[ebp]
	xorps	xmm0, DWORD PTR __xmm@80000000800000008000000080000000
	mov	eax, DWORD PTR _this$[ebp]
	movss	DWORD PTR [eax+16], xmm0

; 2117 : 	e11 = cZ;

	mov	eax, DWORD PTR _this$[ebp]
	movss	xmm0, DWORD PTR _cZ$[ebp]
	movss	DWORD PTR [eax+20], xmm0

; 2118 : 	e12 = 0.0f;

	mov	eax, DWORD PTR _this$[ebp]
	movss	xmm0, DWORD PTR __real@00000000
	movss	DWORD PTR [eax+24], xmm0

; 2119 : 	e13 = 0.0f;

	mov	eax, DWORD PTR _this$[ebp]
	movss	xmm0, DWORD PTR __real@00000000
	movss	DWORD PTR [eax+28], xmm0

; 2120 : 
; 2121 : 	e20 = 0.0f;

	mov	eax, DWORD PTR _this$[ebp]
	movss	xmm0, DWORD PTR __real@00000000
	movss	DWORD PTR [eax+32], xmm0

; 2122 : 	e21 = 0.0f;

	mov	eax, DWORD PTR _this$[ebp]
	movss	xmm0, DWORD PTR __real@00000000
	movss	DWORD PTR [eax+36], xmm0

; 2123 : 	e22 = 1.0f;

	mov	eax, DWORD PTR _this$[ebp]
	movss	xmm0, DWORD PTR __real@3f800000
	movss	DWORD PTR [eax+40], xmm0

; 2124 : 	e23 = 0.0f;

	mov	eax, DWORD PTR _this$[ebp]
	movss	xmm0, DWORD PTR __real@00000000
	movss	DWORD PTR [eax+44], xmm0

; 2125 : 
; 2126 : 	e30 = 0.0f;

	mov	eax, DWORD PTR _this$[ebp]
	movss	xmm0, DWORD PTR __real@00000000
	movss	DWORD PTR [eax+48], xmm0

; 2127 : 	e31 = 0.0f;

	mov	eax, DWORD PTR _this$[ebp]
	movss	xmm0, DWORD PTR __real@00000000
	movss	DWORD PTR [eax+52], xmm0

; 2128 : 	e32 = 0.0f;

	mov	eax, DWORD PTR _this$[ebp]
	movss	xmm0, DWORD PTR __real@00000000
	movss	DWORD PTR [eax+56], xmm0

; 2129 : 	e33 = 1.0f;

	mov	eax, DWORD PTR _this$[ebp]
	movss	xmm0, DWORD PTR __real@3f800000
	movss	DWORD PTR [eax+60], xmm0

; 2130 : }

	push	edx
	mov	ecx, ebp
	push	eax
	lea	edx, DWORD PTR $LN6@MakeRotati
	call	@_RTC_CheckStackVars@8
	pop	eax
	pop	edx
	pop	edi
	pop	esi
	pop	ebx
	add	esp, 228				; 000000e4H
	cmp	ebp, esp
	call	__RTC_CheckEsp
	mov	esp, ebp
	pop	ebp
	ret	4
	npad	1
$LN6@MakeRotati:
	DD	2
	DD	$LN5@MakeRotati
$LN5@MakeRotati:
	DD	-20					; ffffffecH
	DD	4
	DD	$LN3@MakeRotati
	DD	-32					; ffffffe0H
	DD	4
	DD	$LN4@MakeRotati
$LN4@MakeRotati:
	DB	99					; 00000063H
	DB	90					; 0000005aH
	DB	0
$LN3@MakeRotati:
	DB	115					; 00000073H
	DB	90					; 0000005aH
	DB	0
?MakeRotationZ@CMatrix4x4@gen@@QAEXM@Z ENDP		; gen::CMatrix4x4::MakeRotationZ
_TEXT	ENDS
; Function compile flags: /Odtp /RTCsu /ZI
; File c:\users\simon\documents\github\uclan-sparta\import\math\cmatrix4x4.cpp
;	COMDAT ?MakeRotationY@CMatrix4x4@gen@@QAEXM@Z
_TEXT	SEGMENT
_cY$ = -32						; size = 4
_sY$ = -20						; size = 4
_this$ = -8						; size = 4
_y$ = 8							; size = 4
?MakeRotationY@CMatrix4x4@gen@@QAEXM@Z PROC		; gen::CMatrix4x4::MakeRotationY, COMDAT
; _this$ = ecx

; 2080 : {

	push	ebp
	mov	ebp, esp
	sub	esp, 228				; 000000e4H
	push	ebx
	push	esi
	push	edi
	push	ecx
	lea	edi, DWORD PTR [ebp-228]
	mov	ecx, 57					; 00000039H
	mov	eax, -858993460				; ccccccccH
	rep stosd
	pop	ecx
	mov	DWORD PTR _this$[ebp], ecx

; 2081 : 	TFloat32 sY, cY;
; 2082 : 	SinCos( y, &sY, &cY );

	lea	eax, DWORD PTR _cY$[ebp]
	push	eax
	lea	ecx, DWORD PTR _sY$[ebp]
	push	ecx
	push	ecx
	movss	xmm0, DWORD PTR _y$[ebp]
	movss	DWORD PTR [esp], xmm0
	call	?SinCos@gen@@YAXMPAM0@Z			; gen::SinCos
	add	esp, 12					; 0000000cH

; 2083 : 
; 2084 : 	e00 = cY;

	mov	eax, DWORD PTR _this$[ebp]
	movss	xmm0, DWORD PTR _cY$[ebp]
	movss	DWORD PTR [eax], xmm0

; 2085 : 	e01 = 0.0f;

	mov	eax, DWORD PTR _this$[ebp]
	movss	xmm0, DWORD PTR __real@00000000
	movss	DWORD PTR [eax+4], xmm0

; 2086 : 	e02 = -sY;

	movss	xmm0, DWORD PTR _sY$[ebp]
	xorps	xmm0, DWORD PTR __xmm@80000000800000008000000080000000
	mov	eax, DWORD PTR _this$[ebp]
	movss	DWORD PTR [eax+8], xmm0

; 2087 : 	e03 = 0.0f;

	mov	eax, DWORD PTR _this$[ebp]
	movss	xmm0, DWORD PTR __real@00000000
	movss	DWORD PTR [eax+12], xmm0

; 2088 : 
; 2089 : 	e10 = 0.0f;

	mov	eax, DWORD PTR _this$[ebp]
	movss	xmm0, DWORD PTR __real@00000000
	movss	DWORD PTR [eax+16], xmm0

; 2090 : 	e11 = 1.0f;

	mov	eax, DWORD PTR _this$[ebp]
	movss	xmm0, DWORD PTR __real@3f800000
	movss	DWORD PTR [eax+20], xmm0

; 2091 : 	e12 = 0.0f;

	mov	eax, DWORD PTR _this$[ebp]
	movss	xmm0, DWORD PTR __real@00000000
	movss	DWORD PTR [eax+24], xmm0

; 2092 : 	e13 = 0.0f;

	mov	eax, DWORD PTR _this$[ebp]
	movss	xmm0, DWORD PTR __real@00000000
	movss	DWORD PTR [eax+28], xmm0

; 2093 : 
; 2094 : 	e20 = sY;

	mov	eax, DWORD PTR _this$[ebp]
	movss	xmm0, DWORD PTR _sY$[ebp]
	movss	DWORD PTR [eax+32], xmm0

; 2095 : 	e21 = 0.0f;

	mov	eax, DWORD PTR _this$[ebp]
	movss	xmm0, DWORD PTR __real@00000000
	movss	DWORD PTR [eax+36], xmm0

; 2096 : 	e22 = cY;

	mov	eax, DWORD PTR _this$[ebp]
	movss	xmm0, DWORD PTR _cY$[ebp]
	movss	DWORD PTR [eax+40], xmm0

; 2097 : 	e23 = 0.0f;

	mov	eax, DWORD PTR _this$[ebp]
	movss	xmm0, DWORD PTR __real@00000000
	movss	DWORD PTR [eax+44], xmm0

; 2098 : 
; 2099 : 	e30 = 0.0f;

	mov	eax, DWORD PTR _this$[ebp]
	movss	xmm0, DWORD PTR __real@00000000
	movss	DWORD PTR [eax+48], xmm0

; 2100 : 	e31 = 0.0f;

	mov	eax, DWORD PTR _this$[ebp]
	movss	xmm0, DWORD PTR __real@00000000
	movss	DWORD PTR [eax+52], xmm0

; 2101 : 	e32 = 0.0f;

	mov	eax, DWORD PTR _this$[ebp]
	movss	xmm0, DWORD PTR __real@00000000
	movss	DWORD PTR [eax+56], xmm0

; 2102 : 	e33 = 1.0f;    

	mov	eax, DWORD PTR _this$[ebp]
	movss	xmm0, DWORD PTR __real@3f800000
	movss	DWORD PTR [eax+60], xmm0

; 2103 : }

	push	edx
	mov	ecx, ebp
	push	eax
	lea	edx, DWORD PTR $LN6@MakeRotati
	call	@_RTC_CheckStackVars@8
	pop	eax
	pop	edx
	pop	edi
	pop	esi
	pop	ebx
	add	esp, 228				; 000000e4H
	cmp	ebp, esp
	call	__RTC_CheckEsp
	mov	esp, ebp
	pop	ebp
	ret	4
	npad	1
$LN6@MakeRotati:
	DD	2
	DD	$LN5@MakeRotati
$LN5@MakeRotati:
	DD	-20					; ffffffecH
	DD	4
	DD	$LN3@MakeRotati
	DD	-32					; ffffffe0H
	DD	4
	DD	$LN4@MakeRotati
$LN4@MakeRotati:
	DB	99					; 00000063H
	DB	89					; 00000059H
	DB	0
$LN3@MakeRotati:
	DB	115					; 00000073H
	DB	89					; 00000059H
	DB	0
?MakeRotationY@CMatrix4x4@gen@@QAEXM@Z ENDP		; gen::CMatrix4x4::MakeRotationY
_TEXT	ENDS
; Function compile flags: /Odtp /RTCsu /ZI
; File c:\users\simon\documents\github\uclan-sparta\import\math\cmatrix4x4.cpp
;	COMDAT ?MakeRotationX@CMatrix4x4@gen@@QAEXM@Z
_TEXT	SEGMENT
_cX$ = -32						; size = 4
_sX$ = -20						; size = 4
_this$ = -8						; size = 4
_x$ = 8							; size = 4
?MakeRotationX@CMatrix4x4@gen@@QAEXM@Z PROC		; gen::CMatrix4x4::MakeRotationX, COMDAT
; _this$ = ecx

; 2053 : {

	push	ebp
	mov	ebp, esp
	sub	esp, 228				; 000000e4H
	push	ebx
	push	esi
	push	edi
	push	ecx
	lea	edi, DWORD PTR [ebp-228]
	mov	ecx, 57					; 00000039H
	mov	eax, -858993460				; ccccccccH
	rep stosd
	pop	ecx
	mov	DWORD PTR _this$[ebp], ecx

; 2054 : 	TFloat32 sX, cX;
; 2055 : 	SinCos( x, &sX, &cX );

	lea	eax, DWORD PTR _cX$[ebp]
	push	eax
	lea	ecx, DWORD PTR _sX$[ebp]
	push	ecx
	push	ecx
	movss	xmm0, DWORD PTR _x$[ebp]
	movss	DWORD PTR [esp], xmm0
	call	?SinCos@gen@@YAXMPAM0@Z			; gen::SinCos
	add	esp, 12					; 0000000cH

; 2056 : 
; 2057 : 	e00 = 1.0f;

	mov	eax, DWORD PTR _this$[ebp]
	movss	xmm0, DWORD PTR __real@3f800000
	movss	DWORD PTR [eax], xmm0

; 2058 : 	e01 = 0.0f;

	mov	eax, DWORD PTR _this$[ebp]
	movss	xmm0, DWORD PTR __real@00000000
	movss	DWORD PTR [eax+4], xmm0

; 2059 : 	e02 = 0.0f;

	mov	eax, DWORD PTR _this$[ebp]
	movss	xmm0, DWORD PTR __real@00000000
	movss	DWORD PTR [eax+8], xmm0

; 2060 : 	e03 = 0.0f;

	mov	eax, DWORD PTR _this$[ebp]
	movss	xmm0, DWORD PTR __real@00000000
	movss	DWORD PTR [eax+12], xmm0

; 2061 : 
; 2062 : 	e10 = 0.0f;

	mov	eax, DWORD PTR _this$[ebp]
	movss	xmm0, DWORD PTR __real@00000000
	movss	DWORD PTR [eax+16], xmm0

; 2063 : 	e11 = cX;

	mov	eax, DWORD PTR _this$[ebp]
	movss	xmm0, DWORD PTR _cX$[ebp]
	movss	DWORD PTR [eax+20], xmm0

; 2064 : 	e12 = sX;

	mov	eax, DWORD PTR _this$[ebp]
	movss	xmm0, DWORD PTR _sX$[ebp]
	movss	DWORD PTR [eax+24], xmm0

; 2065 : 	e13 = 0.0f;

	mov	eax, DWORD PTR _this$[ebp]
	movss	xmm0, DWORD PTR __real@00000000
	movss	DWORD PTR [eax+28], xmm0

; 2066 : 
; 2067 : 	e20 = 0.0f;

	mov	eax, DWORD PTR _this$[ebp]
	movss	xmm0, DWORD PTR __real@00000000
	movss	DWORD PTR [eax+32], xmm0

; 2068 : 	e21 = -sX;

	movss	xmm0, DWORD PTR _sX$[ebp]
	xorps	xmm0, DWORD PTR __xmm@80000000800000008000000080000000
	mov	eax, DWORD PTR _this$[ebp]
	movss	DWORD PTR [eax+36], xmm0

; 2069 : 	e22 = cX;

	mov	eax, DWORD PTR _this$[ebp]
	movss	xmm0, DWORD PTR _cX$[ebp]
	movss	DWORD PTR [eax+40], xmm0

; 2070 : 	e23 = 0.0f;

	mov	eax, DWORD PTR _this$[ebp]
	movss	xmm0, DWORD PTR __real@00000000
	movss	DWORD PTR [eax+44], xmm0

; 2071 : 
; 2072 : 	e30 = 0.0f;

	mov	eax, DWORD PTR _this$[ebp]
	movss	xmm0, DWORD PTR __real@00000000
	movss	DWORD PTR [eax+48], xmm0

; 2073 : 	e31 = 0.0f;

	mov	eax, DWORD PTR _this$[ebp]
	movss	xmm0, DWORD PTR __real@00000000
	movss	DWORD PTR [eax+52], xmm0

; 2074 : 	e32 = 0.0f;

	mov	eax, DWORD PTR _this$[ebp]
	movss	xmm0, DWORD PTR __real@00000000
	movss	DWORD PTR [eax+56], xmm0

; 2075 : 	e33 = 1.0f;

	mov	eax, DWORD PTR _this$[ebp]
	movss	xmm0, DWORD PTR __real@3f800000
	movss	DWORD PTR [eax+60], xmm0

; 2076 : }

	push	edx
	mov	ecx, ebp
	push	eax
	lea	edx, DWORD PTR $LN6@MakeRotati
	call	@_RTC_CheckStackVars@8
	pop	eax
	pop	edx
	pop	edi
	pop	esi
	pop	ebx
	add	esp, 228				; 000000e4H
	cmp	ebp, esp
	call	__RTC_CheckEsp
	mov	esp, ebp
	pop	ebp
	ret	4
	npad	1
$LN6@MakeRotati:
	DD	2
	DD	$LN5@MakeRotati
$LN5@MakeRotati:
	DD	-20					; ffffffecH
	DD	4
	DD	$LN3@MakeRotati
	DD	-32					; ffffffe0H
	DD	4
	DD	$LN4@MakeRotati
$LN4@MakeRotati:
	DB	99					; 00000063H
	DB	88					; 00000058H
	DB	0
$LN3@MakeRotati:
	DB	115					; 00000073H
	DB	88					; 00000058H
	DB	0
?MakeRotationX@CMatrix4x4@gen@@QAEXM@Z ENDP		; gen::CMatrix4x4::MakeRotationX
_TEXT	ENDS
; Function compile flags: /Odtp /RTCsu /ZI
; File c:\users\simon\documents\github\uclan-sparta\import\math\cmatrix4x4.cpp
;	COMDAT ?MakeTranslation@CMatrix4x4@gen@@QAEXABVCVector3@2@@Z
_TEXT	SEGMENT
_this$ = -8						; size = 4
_translate$ = 8						; size = 4
?MakeTranslation@CMatrix4x4@gen@@QAEXABVCVector3@2@@Z PROC ; gen::CMatrix4x4::MakeTranslation, COMDAT
; _this$ = ecx

; 2029 : {

	push	ebp
	mov	ebp, esp
	sub	esp, 204				; 000000ccH
	push	ebx
	push	esi
	push	edi
	push	ecx
	lea	edi, DWORD PTR [ebp-204]
	mov	ecx, 51					; 00000033H
	mov	eax, -858993460				; ccccccccH
	rep stosd
	pop	ecx
	mov	DWORD PTR _this$[ebp], ecx

; 2030 : 	e00 = 1.0f;

	mov	eax, DWORD PTR _this$[ebp]
	movss	xmm0, DWORD PTR __real@3f800000
	movss	DWORD PTR [eax], xmm0

; 2031 : 	e01 = 0.0f;

	mov	eax, DWORD PTR _this$[ebp]
	movss	xmm0, DWORD PTR __real@00000000
	movss	DWORD PTR [eax+4], xmm0

; 2032 : 	e02 = 0.0f;

	mov	eax, DWORD PTR _this$[ebp]
	movss	xmm0, DWORD PTR __real@00000000
	movss	DWORD PTR [eax+8], xmm0

; 2033 : 	e03 = 0.0f;

	mov	eax, DWORD PTR _this$[ebp]
	movss	xmm0, DWORD PTR __real@00000000
	movss	DWORD PTR [eax+12], xmm0

; 2034 : 
; 2035 : 	e10 = 0.0f;

	mov	eax, DWORD PTR _this$[ebp]
	movss	xmm0, DWORD PTR __real@00000000
	movss	DWORD PTR [eax+16], xmm0

; 2036 : 	e11 = 1.0f;

	mov	eax, DWORD PTR _this$[ebp]
	movss	xmm0, DWORD PTR __real@3f800000
	movss	DWORD PTR [eax+20], xmm0

; 2037 : 	e12 = 0.0f;

	mov	eax, DWORD PTR _this$[ebp]
	movss	xmm0, DWORD PTR __real@00000000
	movss	DWORD PTR [eax+24], xmm0

; 2038 : 	e13 = 0.0f;

	mov	eax, DWORD PTR _this$[ebp]
	movss	xmm0, DWORD PTR __real@00000000
	movss	DWORD PTR [eax+28], xmm0

; 2039 : 
; 2040 : 	e20 = 0.0f;

	mov	eax, DWORD PTR _this$[ebp]
	movss	xmm0, DWORD PTR __real@00000000
	movss	DWORD PTR [eax+32], xmm0

; 2041 : 	e21 = 0.0f;

	mov	eax, DWORD PTR _this$[ebp]
	movss	xmm0, DWORD PTR __real@00000000
	movss	DWORD PTR [eax+36], xmm0

; 2042 : 	e22 = 1.0f;

	mov	eax, DWORD PTR _this$[ebp]
	movss	xmm0, DWORD PTR __real@3f800000
	movss	DWORD PTR [eax+40], xmm0

; 2043 : 	e23 = 0.0f;

	mov	eax, DWORD PTR _this$[ebp]
	movss	xmm0, DWORD PTR __real@00000000
	movss	DWORD PTR [eax+44], xmm0

; 2044 : 
; 2045 : 	e30 = translate.x;

	mov	eax, DWORD PTR _this$[ebp]
	mov	ecx, DWORD PTR _translate$[ebp]
	mov	edx, DWORD PTR [ecx]
	mov	DWORD PTR [eax+48], edx

; 2046 : 	e31 = translate.y;

	mov	eax, DWORD PTR _this$[ebp]
	mov	ecx, DWORD PTR _translate$[ebp]
	mov	edx, DWORD PTR [ecx+4]
	mov	DWORD PTR [eax+52], edx

; 2047 : 	e32 = translate.z;

	mov	eax, DWORD PTR _this$[ebp]
	mov	ecx, DWORD PTR _translate$[ebp]
	mov	edx, DWORD PTR [ecx+8]
	mov	DWORD PTR [eax+56], edx

; 2048 : 	e33 = 1.0f;

	mov	eax, DWORD PTR _this$[ebp]
	movss	xmm0, DWORD PTR __real@3f800000
	movss	DWORD PTR [eax+60], xmm0

; 2049 : }

	pop	edi
	pop	esi
	pop	ebx
	mov	esp, ebp
	pop	ebp
	ret	4
?MakeTranslation@CMatrix4x4@gen@@QAEXABVCVector3@2@@Z ENDP ; gen::CMatrix4x4::MakeTranslation
_TEXT	ENDS
; Function compile flags: /Odtp /RTCsu /ZI
; File c:\users\simon\documents\github\uclan-sparta\import\math\cmatrix4x4.cpp
;	COMDAT ?MakeIdentity@CMatrix4x4@gen@@QAEXXZ
_TEXT	SEGMENT
_this$ = -8						; size = 4
?MakeIdentity@CMatrix4x4@gen@@QAEXXZ PROC		; gen::CMatrix4x4::MakeIdentity, COMDAT
; _this$ = ecx

; 2005 : {

	push	ebp
	mov	ebp, esp
	sub	esp, 204				; 000000ccH
	push	ebx
	push	esi
	push	edi
	push	ecx
	lea	edi, DWORD PTR [ebp-204]
	mov	ecx, 51					; 00000033H
	mov	eax, -858993460				; ccccccccH
	rep stosd
	pop	ecx
	mov	DWORD PTR _this$[ebp], ecx

; 2006 : 	e00 = 1.0f;

	mov	eax, DWORD PTR _this$[ebp]
	movss	xmm0, DWORD PTR __real@3f800000
	movss	DWORD PTR [eax], xmm0

; 2007 : 	e01 = 0.0f;

	mov	eax, DWORD PTR _this$[ebp]
	movss	xmm0, DWORD PTR __real@00000000
	movss	DWORD PTR [eax+4], xmm0

; 2008 : 	e02 = 0.0f; 

	mov	eax, DWORD PTR _this$[ebp]
	movss	xmm0, DWORD PTR __real@00000000
	movss	DWORD PTR [eax+8], xmm0

; 2009 : 	e03 = 0.0f;

	mov	eax, DWORD PTR _this$[ebp]
	movss	xmm0, DWORD PTR __real@00000000
	movss	DWORD PTR [eax+12], xmm0

; 2010 : 
; 2011 : 	e10 = 0.0f;

	mov	eax, DWORD PTR _this$[ebp]
	movss	xmm0, DWORD PTR __real@00000000
	movss	DWORD PTR [eax+16], xmm0

; 2012 : 	e11 = 1.0f;

	mov	eax, DWORD PTR _this$[ebp]
	movss	xmm0, DWORD PTR __real@3f800000
	movss	DWORD PTR [eax+20], xmm0

; 2013 : 	e12 = 0.0f;

	mov	eax, DWORD PTR _this$[ebp]
	movss	xmm0, DWORD PTR __real@00000000
	movss	DWORD PTR [eax+24], xmm0

; 2014 : 	e13 = 0.0f;

	mov	eax, DWORD PTR _this$[ebp]
	movss	xmm0, DWORD PTR __real@00000000
	movss	DWORD PTR [eax+28], xmm0

; 2015 : 
; 2016 : 	e20 = 0.0f;

	mov	eax, DWORD PTR _this$[ebp]
	movss	xmm0, DWORD PTR __real@00000000
	movss	DWORD PTR [eax+32], xmm0

; 2017 : 	e21 = 0.0f;

	mov	eax, DWORD PTR _this$[ebp]
	movss	xmm0, DWORD PTR __real@00000000
	movss	DWORD PTR [eax+36], xmm0

; 2018 : 	e22 = 1.0f;

	mov	eax, DWORD PTR _this$[ebp]
	movss	xmm0, DWORD PTR __real@3f800000
	movss	DWORD PTR [eax+40], xmm0

; 2019 : 	e23 = 0.0f;

	mov	eax, DWORD PTR _this$[ebp]
	movss	xmm0, DWORD PTR __real@00000000
	movss	DWORD PTR [eax+44], xmm0

; 2020 : 
; 2021 : 	e30 = 0.0f;

	mov	eax, DWORD PTR _this$[ebp]
	movss	xmm0, DWORD PTR __real@00000000
	movss	DWORD PTR [eax+48], xmm0

; 2022 : 	e31 = 0.0f;

	mov	eax, DWORD PTR _this$[ebp]
	movss	xmm0, DWORD PTR __real@00000000
	movss	DWORD PTR [eax+52], xmm0

; 2023 : 	e32 = 0.0f;

	mov	eax, DWORD PTR _this$[ebp]
	movss	xmm0, DWORD PTR __real@00000000
	movss	DWORD PTR [eax+56], xmm0

; 2024 : 	e33 = 1.0f;

	mov	eax, DWORD PTR _this$[ebp]
	movss	xmm0, DWORD PTR __real@3f800000
	movss	DWORD PTR [eax+60], xmm0

; 2025 : }

	pop	edi
	pop	esi
	pop	ebx
	mov	esp, ebp
	pop	ebp
	ret	0
?MakeIdentity@CMatrix4x4@gen@@QAEXXZ ENDP		; gen::CMatrix4x4::MakeIdentity
_TEXT	ENDS
; Function compile flags: /Odtp /RTCsu /ZI
; File c:\users\simon\documents\github\uclan-sparta\import\math\cmatrix4x4.cpp
;	COMDAT ?Invert@CMatrix4x4@gen@@QAEXXZ
_TEXT	SEGMENT
$T1 = -272						; size = 64
_this$ = -8						; size = 4
?Invert@CMatrix4x4@gen@@QAEXXZ PROC			; gen::CMatrix4x4::Invert, COMDAT
; _this$ = ecx

; 1966 : {

	push	ebp
	mov	ebp, esp
	sub	esp, 276				; 00000114H
	push	ebx
	push	esi
	push	edi
	push	ecx
	lea	edi, DWORD PTR [ebp-276]
	mov	ecx, 69					; 00000045H
	mov	eax, -858993460				; ccccccccH
	rep stosd
	pop	ecx
	mov	DWORD PTR _this$[ebp], ecx

; 1967 : 	*this = Inverse( *this ); // TODO: Just use non-member version

	mov	eax, DWORD PTR _this$[ebp]
	push	eax
	lea	ecx, DWORD PTR $T1[ebp]
	push	ecx
	call	?Inverse@gen@@YA?AVCMatrix4x4@1@ABV21@@Z ; gen::Inverse
	add	esp, 8
	push	eax
	mov	ecx, DWORD PTR _this$[ebp]
	call	??4CMatrix4x4@gen@@QAEAAV01@ABV01@@Z	; gen::CMatrix4x4::operator=

; 1968 : }

	pop	edi
	pop	esi
	pop	ebx
	add	esp, 276				; 00000114H
	cmp	ebp, esp
	call	__RTC_CheckEsp
	mov	esp, ebp
	pop	ebp
	ret	0
?Invert@CMatrix4x4@gen@@QAEXXZ ENDP			; gen::CMatrix4x4::Invert
_TEXT	ENDS
; Function compile flags: /Odtp /RTCsu /ZI
; File c:\users\simon\documents\github\uclan-sparta\import\math\cmatrix4x4.cpp
;	COMDAT ?Cofactor@CMatrix4x4@gen@@QAEMII@Z
_TEXT	SEGMENT
_this$ = -8						; size = 4
_i$ = 8							; size = 4
_j$ = 12						; size = 4
?Cofactor@CMatrix4x4@gen@@QAEMII@Z PROC			; gen::CMatrix4x4::Cofactor, COMDAT
; _this$ = ecx

; 1924 : {

	push	ebp
	mov	ebp, esp
	sub	esp, 204				; 000000ccH
	push	ebx
	push	esi
	push	edi
	push	ecx
	lea	edi, DWORD PTR [ebp-204]
	mov	ecx, 51					; 00000033H
	mov	eax, -858993460				; ccccccccH
	rep stosd
	pop	ecx
	mov	DWORD PTR _this$[ebp], ecx

; 1925 : 	return gen::Cofactor( *this, i, j ); // TODO: Just use non-member version

	mov	eax, DWORD PTR _j$[ebp]
	push	eax
	mov	ecx, DWORD PTR _i$[ebp]
	push	ecx
	mov	edx, DWORD PTR _this$[ebp]
	push	edx
	call	?Cofactor@gen@@YAMABVCMatrix4x4@1@II@Z	; gen::Cofactor
	add	esp, 12					; 0000000cH

; 1926 : }

	pop	edi
	pop	esi
	pop	ebx
	add	esp, 204				; 000000ccH
	cmp	ebp, esp
	call	__RTC_CheckEsp
	mov	esp, ebp
	pop	ebp
	ret	8
?Cofactor@CMatrix4x4@gen@@QAEMII@Z ENDP			; gen::CMatrix4x4::Cofactor
_TEXT	ENDS
; Function compile flags: /Odtp /RTCsu /ZI
; File c:\users\simon\documents\github\uclan-sparta\import\math\cmatrix4x4.cpp
;	COMDAT ?InvertAffine@CMatrix4x4@gen@@QAEXXZ
_TEXT	SEGMENT
$T1 = -272						; size = 64
_this$ = -8						; size = 4
?InvertAffine@CMatrix4x4@gen@@QAEXXZ PROC		; gen::CMatrix4x4::InvertAffine, COMDAT
; _this$ = ecx

; 1872 : {

	push	ebp
	mov	ebp, esp
	sub	esp, 276				; 00000114H
	push	ebx
	push	esi
	push	edi
	push	ecx
	lea	edi, DWORD PTR [ebp-276]
	mov	ecx, 69					; 00000045H
	mov	eax, -858993460				; ccccccccH
	rep stosd
	pop	ecx
	mov	DWORD PTR _this$[ebp], ecx

; 1873 : 	*this = InverseAffine( *this ); // TODO: Just use non-member version

	mov	eax, DWORD PTR _this$[ebp]
	push	eax
	lea	ecx, DWORD PTR $T1[ebp]
	push	ecx
	call	?InverseAffine@gen@@YA?AVCMatrix4x4@1@ABV21@@Z ; gen::InverseAffine
	add	esp, 8
	push	eax
	mov	ecx, DWORD PTR _this$[ebp]
	call	??4CMatrix4x4@gen@@QAEAAV01@ABV01@@Z	; gen::CMatrix4x4::operator=

; 1874 : }

	pop	edi
	pop	esi
	pop	ebx
	add	esp, 276				; 00000114H
	cmp	ebp, esp
	call	__RTC_CheckEsp
	mov	esp, ebp
	pop	ebp
	ret	0
?InvertAffine@CMatrix4x4@gen@@QAEXXZ ENDP		; gen::CMatrix4x4::InvertAffine
_TEXT	ENDS
; Function compile flags: /Odtp /RTCsu /ZI
; File c:\users\simon\documents\github\uclan-sparta\import\math\cmatrix4x4.cpp
;	COMDAT ?InvertRotTransScale@CMatrix4x4@gen@@QAEXXZ
_TEXT	SEGMENT
tv240 = -621						; size = 1
tv239 = -621						; size = 1
tv238 = -621						; size = 1
$T2 = -616						; size = 88
$T3 = -520						; size = 88
$T4 = -424						; size = 88
_e$5 = -136						; size = 4
_t2$6 = -124						; size = 4
_t1$7 = -112						; size = 4
_invScaleZ$8 = -100					; size = 4
_invScaleY$9 = -88					; size = 4
_invScaleX$10 = -76					; size = 4
_scaleSqZ$11 = -64					; size = 4
_scaleSqY$12 = -52					; size = 4
_scaleSqX$13 = -40					; size = 4
_this$ = -28						; size = 4
__$ArrayPad$ = -20					; size = 4
__$EHRec$ = -16						; size = 16
?InvertRotTransScale@CMatrix4x4@gen@@QAEXXZ PROC	; gen::CMatrix4x4::InvertRotTransScale, COMDAT
; _this$ = ecx

; 1780 : {

	push	ebp
	mov	ebp, esp
	push	-1
	push	__ehhandler$?InvertRotTransScale@CMatrix4x4@gen@@QAEXXZ
	mov	eax, DWORD PTR fs:0
	push	eax
	push	ecx
	sub	esp, 608				; 00000260H
	push	ebx
	push	esi
	push	edi
	push	ecx
	lea	edi, DWORD PTR [ebp-624]
	mov	ecx, 152				; 00000098H
	mov	eax, -858993460				; ccccccccH
	rep stosd
	pop	ecx
	mov	eax, DWORD PTR ___security_cookie
	xor	eax, ebp
	mov	DWORD PTR __$ArrayPad$[ebp], eax
	push	eax
	lea	eax, DWORD PTR __$EHRec$[ebp+4]
	mov	DWORD PTR fs:0, eax
	mov	DWORD PTR __$EHRec$[ebp], esp
	mov	DWORD PTR _this$[ebp], ecx

; 1781 : 	GEN_GUARD;

	mov	DWORD PTR __$EHRec$[ebp+12], 0

; 1782 : 
; 1783 : 	// Get X, Y & Z scaling (squared)
; 1784 : 	TFloat32 scaleSqX = e00*e00 + e01*e01 + e02*e02;

	mov	eax, DWORD PTR _this$[ebp]
	mov	ecx, DWORD PTR _this$[ebp]
	movss	xmm0, DWORD PTR [eax+8]
	mulss	xmm0, DWORD PTR [ecx+8]
	mov	edx, DWORD PTR _this$[ebp]
	mov	eax, DWORD PTR _this$[ebp]
	movss	xmm1, DWORD PTR [edx+4]
	mulss	xmm1, DWORD PTR [eax+4]
	mov	ecx, DWORD PTR _this$[ebp]
	mov	edx, DWORD PTR _this$[ebp]
	movss	xmm2, DWORD PTR [ecx]
	mulss	xmm2, DWORD PTR [edx]
	addss	xmm2, xmm1
	addss	xmm2, xmm0
	movss	DWORD PTR _scaleSqX$13[ebp], xmm2

; 1785 : 	TFloat32 scaleSqY = e10*e10 + e11*e11 + e12*e12;

	mov	eax, DWORD PTR _this$[ebp]
	mov	ecx, DWORD PTR _this$[ebp]
	movss	xmm0, DWORD PTR [eax+24]
	mulss	xmm0, DWORD PTR [ecx+24]
	mov	edx, DWORD PTR _this$[ebp]
	mov	eax, DWORD PTR _this$[ebp]
	movss	xmm1, DWORD PTR [edx+20]
	mulss	xmm1, DWORD PTR [eax+20]
	mov	ecx, DWORD PTR _this$[ebp]
	mov	edx, DWORD PTR _this$[ebp]
	movss	xmm2, DWORD PTR [ecx+16]
	mulss	xmm2, DWORD PTR [edx+16]
	addss	xmm2, xmm1
	addss	xmm2, xmm0
	movss	DWORD PTR _scaleSqY$12[ebp], xmm2

; 1786 : 	TFloat32 scaleSqZ = e20*e20 + e21*e21 + e22*e22;

	mov	eax, DWORD PTR _this$[ebp]
	mov	ecx, DWORD PTR _this$[ebp]
	movss	xmm0, DWORD PTR [eax+40]
	mulss	xmm0, DWORD PTR [ecx+40]
	mov	edx, DWORD PTR _this$[ebp]
	mov	eax, DWORD PTR _this$[ebp]
	movss	xmm1, DWORD PTR [edx+36]
	mulss	xmm1, DWORD PTR [eax+36]
	mov	ecx, DWORD PTR _this$[ebp]
	mov	edx, DWORD PTR _this$[ebp]
	movss	xmm2, DWORD PTR [ecx+32]
	mulss	xmm2, DWORD PTR [edx+32]
	addss	xmm2, xmm1
	addss	xmm2, xmm0
	movss	DWORD PTR _scaleSqZ$11[ebp], xmm2

; 1787 : 	
; 1788 : 	// Calculate scaling inverse
; 1789 : 	GEN_ASSERT( !IsZero(scaleSqX) && !IsZero(scaleSqY) && !IsZero(scaleSqZ), "Singular matrix" );

	push	ecx
	movss	xmm0, DWORD PTR _kfEpsilon
	movss	DWORD PTR [esp], xmm0
	push	ecx
	movss	xmm0, DWORD PTR _scaleSqX$13[ebp]
	movss	DWORD PTR [esp], xmm0
	call	?IsZero@gen@@YA_NMM@Z			; gen::IsZero
	add	esp, 8
	mov	BYTE PTR tv238[ebp], al
	movzx	eax, BYTE PTR tv238[ebp]
	test	eax, eax
	jne	SHORT $LN1@InvertRotT
	push	ecx
	movss	xmm0, DWORD PTR _kfEpsilon
	movss	DWORD PTR [esp], xmm0
	push	ecx
	movss	xmm0, DWORD PTR _scaleSqY$12[ebp]
	movss	DWORD PTR [esp], xmm0
	call	?IsZero@gen@@YA_NMM@Z			; gen::IsZero
	add	esp, 8
	mov	BYTE PTR tv239[ebp], al
	movzx	eax, BYTE PTR tv239[ebp]
	test	eax, eax
	jne	SHORT $LN1@InvertRotT
	push	ecx
	movss	xmm0, DWORD PTR _kfEpsilon
	movss	DWORD PTR [esp], xmm0
	push	ecx
	movss	xmm0, DWORD PTR _scaleSqZ$11[ebp]
	movss	DWORD PTR [esp], xmm0
	call	?IsZero@gen@@YA_NMM@Z			; gen::IsZero
	add	esp, 8
	mov	BYTE PTR tv240[ebp], al
	movzx	eax, BYTE PTR tv240[ebp]
	test	eax, eax
	je	SHORT $LN2@InvertRotT
$LN1@InvertRotT:
	mov	eax, DWORD PTR ?__LINE__Var@?1??InvertRotTransScale@CMatrix4x4@gen@@QAEXXZ@4JA
	add	eax, 9
	push	eax
	push	OFFSET ??_C@_0EI@POGHFJCD@c?3?2users?2simon?2documents?2github?2@
	push	OFFSET ??_C@_0BA@EJDDFENM@Singular?5matrix?$AA@
	lea	ecx, DWORD PTR $T2[ebp]
	call	??0CFatalException@gen@@QAE@PBD0H@Z	; gen::CFatalException::CFatalException
	push	OFFSET __TI1?AVCFatalException@gen@@
	lea	ecx, DWORD PTR $T2[ebp]
	push	ecx
	call	__CxxThrowException@8
$LN2@InvertRotT:

; 1790 : 	TFloat32 invScaleX = 1.0f / scaleSqX;

	movss	xmm0, DWORD PTR __real@3f800000
	divss	xmm0, DWORD PTR _scaleSqX$13[ebp]
	movss	DWORD PTR _invScaleX$10[ebp], xmm0

; 1791 : 	TFloat32 invScaleY = 1.0f / scaleSqY;

	movss	xmm0, DWORD PTR __real@3f800000
	divss	xmm0, DWORD PTR _scaleSqY$12[ebp]
	movss	DWORD PTR _invScaleY$9[ebp], xmm0

; 1792 : 	TFloat32 invScaleZ = 1.0f / scaleSqZ;

	movss	xmm0, DWORD PTR __real@3f800000
	divss	xmm0, DWORD PTR _scaleSqZ$11[ebp]
	movss	DWORD PTR _invScaleZ$8[ebp], xmm0

; 1793 : 
; 1794 : 	// Inverse of upper left 3x3 is just the transpose with scaling inverse factored in
; 1795 : 	TFloat32 t1, t2;
; 1796 : 	e00 *= invScaleX;

	mov	eax, DWORD PTR _this$[ebp]
	movss	xmm0, DWORD PTR [eax]
	mulss	xmm0, DWORD PTR _invScaleX$10[ebp]
	mov	ecx, DWORD PTR _this$[ebp]
	movss	DWORD PTR [ecx], xmm0

; 1797 : 	e11 *= invScaleY;

	mov	eax, DWORD PTR _this$[ebp]
	movss	xmm0, DWORD PTR [eax+20]
	mulss	xmm0, DWORD PTR _invScaleY$9[ebp]
	mov	ecx, DWORD PTR _this$[ebp]
	movss	DWORD PTR [ecx+20], xmm0

; 1798 : 	e22 *= invScaleZ;

	mov	eax, DWORD PTR _this$[ebp]
	movss	xmm0, DWORD PTR [eax+40]
	mulss	xmm0, DWORD PTR _invScaleZ$8[ebp]
	mov	ecx, DWORD PTR _this$[ebp]
	movss	DWORD PTR [ecx+40], xmm0

; 1799 : 
; 1800 : 	t1  = e01;

	mov	eax, DWORD PTR _this$[ebp]
	movss	xmm0, DWORD PTR [eax+4]
	movss	DWORD PTR _t1$7[ebp], xmm0

; 1801 : 	e01 = e10 * invScaleY;

	mov	eax, DWORD PTR _this$[ebp]
	movss	xmm0, DWORD PTR [eax+16]
	mulss	xmm0, DWORD PTR _invScaleY$9[ebp]
	mov	ecx, DWORD PTR _this$[ebp]
	movss	DWORD PTR [ecx+4], xmm0

; 1802 : 	e10 = t1 * invScaleX;

	movss	xmm0, DWORD PTR _t1$7[ebp]
	mulss	xmm0, DWORD PTR _invScaleX$10[ebp]
	mov	eax, DWORD PTR _this$[ebp]
	movss	DWORD PTR [eax+16], xmm0

; 1803 : 
; 1804 : 	t1  = e02;

	mov	eax, DWORD PTR _this$[ebp]
	movss	xmm0, DWORD PTR [eax+8]
	movss	DWORD PTR _t1$7[ebp], xmm0

; 1805 : 	e02 = e20 * invScaleZ;

	mov	eax, DWORD PTR _this$[ebp]
	movss	xmm0, DWORD PTR [eax+32]
	mulss	xmm0, DWORD PTR _invScaleZ$8[ebp]
	mov	ecx, DWORD PTR _this$[ebp]
	movss	DWORD PTR [ecx+8], xmm0

; 1806 : 	e20 = t1 * invScaleX;

	movss	xmm0, DWORD PTR _t1$7[ebp]
	mulss	xmm0, DWORD PTR _invScaleX$10[ebp]
	mov	eax, DWORD PTR _this$[ebp]
	movss	DWORD PTR [eax+32], xmm0

; 1807 : 
; 1808 : 	t1  = e12;

	mov	eax, DWORD PTR _this$[ebp]
	movss	xmm0, DWORD PTR [eax+24]
	movss	DWORD PTR _t1$7[ebp], xmm0

; 1809 : 	e12 = e21 * invScaleZ;

	mov	eax, DWORD PTR _this$[ebp]
	movss	xmm0, DWORD PTR [eax+36]
	mulss	xmm0, DWORD PTR _invScaleZ$8[ebp]
	mov	ecx, DWORD PTR _this$[ebp]
	movss	DWORD PTR [ecx+24], xmm0

; 1810 : 	e21 = t1 * invScaleY;

	movss	xmm0, DWORD PTR _t1$7[ebp]
	mulss	xmm0, DWORD PTR _invScaleY$9[ebp]
	mov	eax, DWORD PTR _this$[ebp]
	movss	DWORD PTR [eax+36], xmm0

; 1811 : 
; 1812 : 	// Transform negative translation by inverted 3x3 to get inverse
; 1813 : 	t1  = -e30*e00 - e31*e10 - e32*e20;

	mov	eax, DWORD PTR _this$[ebp]
	mov	ecx, DWORD PTR _this$[ebp]
	movss	xmm0, DWORD PTR [eax+56]
	mulss	xmm0, DWORD PTR [ecx+32]
	mov	edx, DWORD PTR _this$[ebp]
	mov	eax, DWORD PTR _this$[ebp]
	movss	xmm1, DWORD PTR [edx+52]
	mulss	xmm1, DWORD PTR [eax+16]
	mov	ecx, DWORD PTR _this$[ebp]
	movss	xmm2, DWORD PTR [ecx+48]
	xorps	xmm2, DWORD PTR __xmm@80000000800000008000000080000000
	mov	edx, DWORD PTR _this$[ebp]
	mulss	xmm2, DWORD PTR [edx]
	subss	xmm2, xmm1
	subss	xmm2, xmm0
	movss	DWORD PTR _t1$7[ebp], xmm2

; 1814 : 	t2  = -e30*e01 - e31*e11 - e32*e21;

	mov	eax, DWORD PTR _this$[ebp]
	mov	ecx, DWORD PTR _this$[ebp]
	movss	xmm0, DWORD PTR [eax+56]
	mulss	xmm0, DWORD PTR [ecx+36]
	mov	edx, DWORD PTR _this$[ebp]
	mov	eax, DWORD PTR _this$[ebp]
	movss	xmm1, DWORD PTR [edx+52]
	mulss	xmm1, DWORD PTR [eax+20]
	mov	ecx, DWORD PTR _this$[ebp]
	movss	xmm2, DWORD PTR [ecx+48]
	xorps	xmm2, DWORD PTR __xmm@80000000800000008000000080000000
	mov	edx, DWORD PTR _this$[ebp]
	mulss	xmm2, DWORD PTR [edx+4]
	subss	xmm2, xmm1
	subss	xmm2, xmm0
	movss	DWORD PTR _t2$6[ebp], xmm2

; 1815 : 	e32 = -e30*e02 - e31*e12 - e32*e22;

	mov	eax, DWORD PTR _this$[ebp]
	mov	ecx, DWORD PTR _this$[ebp]
	movss	xmm0, DWORD PTR [eax+56]
	mulss	xmm0, DWORD PTR [ecx+40]
	mov	edx, DWORD PTR _this$[ebp]
	mov	eax, DWORD PTR _this$[ebp]
	movss	xmm1, DWORD PTR [edx+52]
	mulss	xmm1, DWORD PTR [eax+24]
	mov	ecx, DWORD PTR _this$[ebp]
	movss	xmm2, DWORD PTR [ecx+48]
	xorps	xmm2, DWORD PTR __xmm@80000000800000008000000080000000
	mov	edx, DWORD PTR _this$[ebp]
	mulss	xmm2, DWORD PTR [edx+8]
	subss	xmm2, xmm1
	subss	xmm2, xmm0
	mov	eax, DWORD PTR _this$[ebp]
	movss	DWORD PTR [eax+56], xmm2

; 1816 : 	e30 = t1;

	mov	eax, DWORD PTR _this$[ebp]
	movss	xmm0, DWORD PTR _t1$7[ebp]
	movss	DWORD PTR [eax+48], xmm0

; 1817 : 	e31 = t2;

	mov	eax, DWORD PTR _this$[ebp]
	movss	xmm0, DWORD PTR _t2$6[ebp]
	movss	DWORD PTR [eax+52], xmm0
	jmp	SHORT $LN6@InvertRotT
__catch$?InvertRotTransScale@CMatrix4x4@gen@@QAEXXZ$0:

; 1818 : 
; 1819 : 	GEN_ENDGUARD;

	push	0
	call	?ObjectName@gen@@YAPBDXZ		; gen::ObjectName
	push	eax
	push	OFFSET ??_C@_0CF@KNEDKMPM@gen?3?3CMatrix4x4?3?3InvertRotTransS@
	mov	ecx, DWORD PTR _e$5[ebp]
	call	?AppendToCallStack@CFatalException@gen@@QAEXPBD0_N@Z ; gen::CFatalException::AppendToCallStack
	mov	eax, DWORD PTR _e$5[ebp]
	push	eax
	lea	ecx, DWORD PTR $T3[ebp]
	call	??0CFatalException@gen@@QAE@ABV01@@Z
	push	OFFSET __TI1?AVCFatalException@gen@@
	lea	ecx, DWORD PTR $T3[ebp]
	push	ecx
	call	__CxxThrowException@8
	mov	eax, $LN10@InvertRotT
	ret	0
__catch$?InvertRotTransScale@CMatrix4x4@gen@@QAEXXZ$1:
	call	?ObjectName@gen@@YAPBDXZ		; gen::ObjectName
	push	eax
	push	OFFSET ??_C@_0CF@KNEDKMPM@gen?3?3CMatrix4x4?3?3InvertRotTransS@
	push	OFFSET ??_C@_0EI@POGHFJCD@c?3?2users?2simon?2documents?2github?2@
	lea	ecx, DWORD PTR $T4[ebp]
	call	??0CFatalException@gen@@QAE@PBD00@Z	; gen::CFatalException::CFatalException
	push	OFFSET __TI1?AVCFatalException@gen@@
	lea	eax, DWORD PTR $T4[ebp]
	push	eax
	call	__CxxThrowException@8
	mov	eax, $LN12@InvertRotT
	ret	0
$LN6@InvertRotT:
	mov	DWORD PTR __$EHRec$[ebp+12], -1
	jmp	SHORT $LN11@InvertRotT
$LN12@InvertRotT:
	mov	DWORD PTR __$EHRec$[ebp+12], -1
	jmp	SHORT $LN9@InvertRotT
$LN11@InvertRotT:
	jmp	SHORT $LN9@InvertRotT
$LN10@InvertRotT:
	mov	DWORD PTR __$EHRec$[ebp+12], -1
$LN9@InvertRotT:
$LN4@InvertRotT:

; 1820 : }

	push	edx
	mov	ecx, ebp
	push	eax
	lea	edx, DWORD PTR $LN16@InvertRotT
	call	@_RTC_CheckStackVars@8
	pop	eax
	pop	edx
	mov	ecx, DWORD PTR __$EHRec$[ebp+4]
	mov	DWORD PTR fs:0, ecx
	pop	ecx
	pop	edi
	pop	esi
	pop	ebx
	mov	ecx, DWORD PTR __$ArrayPad$[ebp]
	xor	ecx, ebp
	call	@__security_check_cookie@4
	add	esp, 624				; 00000270H
	cmp	ebp, esp
	call	__RTC_CheckEsp
	mov	esp, ebp
	pop	ebp
	ret	0
	npad	1
$LN16@InvertRotT:
	DD	1
	DD	$LN15@InvertRotT
$LN15@InvertRotT:
	DD	-136					; ffffff78H
	DD	4
	DD	$LN13@InvertRotT
$LN13@InvertRotT:
	DB	101					; 00000065H
	DB	0
_TEXT	ENDS
;	COMDAT text$x
text$x	SEGMENT
__ehhandler$?InvertRotTransScale@CMatrix4x4@gen@@QAEXXZ:
	mov	edx, DWORD PTR [esp+8]
	lea	eax, DWORD PTR [edx+12]
	mov	ecx, DWORD PTR [edx-628]
	xor	ecx, eax
	call	@__security_check_cookie@4
	mov	ecx, DWORD PTR [edx-8]
	xor	ecx, eax
	call	@__security_check_cookie@4
	mov	eax, OFFSET __ehfuncinfo$?InvertRotTransScale@CMatrix4x4@gen@@QAEXXZ
	jmp	___CxxFrameHandler3
text$x	ENDS
?InvertRotTransScale@CMatrix4x4@gen@@QAEXXZ ENDP	; gen::CMatrix4x4::InvertRotTransScale
; Function compile flags: /Odtp /RTCsu /ZI
; File c:\users\simon\documents\github\uclan-sparta\import\math\cmatrix4x4.cpp
;	COMDAT ?InvertRotTrans@CMatrix4x4@gen@@QAEXXZ
_TEXT	SEGMENT
_t2$ = -32						; size = 4
_t1$ = -20						; size = 4
_this$ = -8						; size = 4
?InvertRotTrans@CMatrix4x4@gen@@QAEXXZ PROC		; gen::CMatrix4x4::InvertRotTrans, COMDAT
; _this$ = ecx

; 1720 : {

	push	ebp
	mov	ebp, esp
	sub	esp, 228				; 000000e4H
	push	ebx
	push	esi
	push	edi
	push	ecx
	lea	edi, DWORD PTR [ebp-228]
	mov	ecx, 57					; 00000039H
	mov	eax, -858993460				; ccccccccH
	rep stosd
	pop	ecx
	mov	DWORD PTR _this$[ebp], ecx

; 1721 : 	// Inverse of upper left 3x3 is just the transpose
; 1722 : 	TFloat32 t1, t2;
; 1723 : 	t1  = e01;

	mov	eax, DWORD PTR _this$[ebp]
	movss	xmm0, DWORD PTR [eax+4]
	movss	DWORD PTR _t1$[ebp], xmm0

; 1724 : 	e01 = e10;

	mov	eax, DWORD PTR _this$[ebp]
	mov	ecx, DWORD PTR _this$[ebp]
	mov	edx, DWORD PTR [ecx+16]
	mov	DWORD PTR [eax+4], edx

; 1725 : 	e10 = t1;

	mov	eax, DWORD PTR _this$[ebp]
	movss	xmm0, DWORD PTR _t1$[ebp]
	movss	DWORD PTR [eax+16], xmm0

; 1726 : 
; 1727 : 	t1  = e02;

	mov	eax, DWORD PTR _this$[ebp]
	movss	xmm0, DWORD PTR [eax+8]
	movss	DWORD PTR _t1$[ebp], xmm0

; 1728 : 	e02 = e20;

	mov	eax, DWORD PTR _this$[ebp]
	mov	ecx, DWORD PTR _this$[ebp]
	mov	edx, DWORD PTR [ecx+32]
	mov	DWORD PTR [eax+8], edx

; 1729 : 	e20 = t1;

	mov	eax, DWORD PTR _this$[ebp]
	movss	xmm0, DWORD PTR _t1$[ebp]
	movss	DWORD PTR [eax+32], xmm0

; 1730 : 
; 1731 : 	t1  = e12;

	mov	eax, DWORD PTR _this$[ebp]
	movss	xmm0, DWORD PTR [eax+24]
	movss	DWORD PTR _t1$[ebp], xmm0

; 1732 : 	e12 = e21;

	mov	eax, DWORD PTR _this$[ebp]
	mov	ecx, DWORD PTR _this$[ebp]
	mov	edx, DWORD PTR [ecx+36]
	mov	DWORD PTR [eax+24], edx

; 1733 : 	e21 = t1;

	mov	eax, DWORD PTR _this$[ebp]
	movss	xmm0, DWORD PTR _t1$[ebp]
	movss	DWORD PTR [eax+36], xmm0

; 1734 : 
; 1735 : 	// Transform negative translation by inverted 3x3 to get inverse
; 1736 : 	t1  = -e30*e00 - e31*e10 - e32*e20;

	mov	eax, DWORD PTR _this$[ebp]
	movss	xmm0, DWORD PTR [eax+48]
	xorps	xmm0, DWORD PTR __xmm@80000000800000008000000080000000
	mov	ecx, DWORD PTR _this$[ebp]
	mulss	xmm0, DWORD PTR [ecx]
	mov	edx, DWORD PTR _this$[ebp]
	mov	eax, DWORD PTR _this$[ebp]
	movss	xmm1, DWORD PTR [edx+52]
	mulss	xmm1, DWORD PTR [eax+16]
	subss	xmm0, xmm1
	mov	ecx, DWORD PTR _this$[ebp]
	mov	edx, DWORD PTR _this$[ebp]
	movss	xmm1, DWORD PTR [ecx+56]
	mulss	xmm1, DWORD PTR [edx+32]
	subss	xmm0, xmm1
	movss	DWORD PTR _t1$[ebp], xmm0

; 1737 : 	t2  = -e30*e01 - e31*e11 - e32*e21;

	mov	eax, DWORD PTR _this$[ebp]
	movss	xmm0, DWORD PTR [eax+48]
	xorps	xmm0, DWORD PTR __xmm@80000000800000008000000080000000
	mov	ecx, DWORD PTR _this$[ebp]
	mulss	xmm0, DWORD PTR [ecx+4]
	mov	edx, DWORD PTR _this$[ebp]
	mov	eax, DWORD PTR _this$[ebp]
	movss	xmm1, DWORD PTR [edx+52]
	mulss	xmm1, DWORD PTR [eax+20]
	subss	xmm0, xmm1
	mov	ecx, DWORD PTR _this$[ebp]
	mov	edx, DWORD PTR _this$[ebp]
	movss	xmm1, DWORD PTR [ecx+56]
	mulss	xmm1, DWORD PTR [edx+36]
	subss	xmm0, xmm1
	movss	DWORD PTR _t2$[ebp], xmm0

; 1738 : 	e32 = -e30*e02 - e31*e12 - e32*e22;

	mov	eax, DWORD PTR _this$[ebp]
	movss	xmm0, DWORD PTR [eax+48]
	xorps	xmm0, DWORD PTR __xmm@80000000800000008000000080000000
	mov	ecx, DWORD PTR _this$[ebp]
	mulss	xmm0, DWORD PTR [ecx+8]
	mov	edx, DWORD PTR _this$[ebp]
	mov	eax, DWORD PTR _this$[ebp]
	movss	xmm1, DWORD PTR [edx+52]
	mulss	xmm1, DWORD PTR [eax+24]
	subss	xmm0, xmm1
	mov	ecx, DWORD PTR _this$[ebp]
	mov	edx, DWORD PTR _this$[ebp]
	movss	xmm1, DWORD PTR [ecx+56]
	mulss	xmm1, DWORD PTR [edx+40]
	subss	xmm0, xmm1
	mov	eax, DWORD PTR _this$[ebp]
	movss	DWORD PTR [eax+56], xmm0

; 1739 : 	e30 = t1;

	mov	eax, DWORD PTR _this$[ebp]
	movss	xmm0, DWORD PTR _t1$[ebp]
	movss	DWORD PTR [eax+48], xmm0

; 1740 : 	e31 = t2;

	mov	eax, DWORD PTR _this$[ebp]
	movss	xmm0, DWORD PTR _t2$[ebp]
	movss	DWORD PTR [eax+52], xmm0

; 1741 : }

	pop	edi
	pop	esi
	pop	ebx
	mov	esp, ebp
	pop	ebp
	ret	0
?InvertRotTrans@CMatrix4x4@gen@@QAEXXZ ENDP		; gen::CMatrix4x4::InvertRotTrans
_TEXT	ENDS
; Function compile flags: /Odtp /RTCsu /ZI
; File c:\users\simon\documents\github\uclan-sparta\import\math\cmatrix4x4.cpp
;	COMDAT ?Transpose@CMatrix4x4@gen@@QAEXXZ
_TEXT	SEGMENT
_t$ = -20						; size = 4
_this$ = -8						; size = 4
?Transpose@CMatrix4x4@gen@@QAEXXZ PROC			; gen::CMatrix4x4::Transpose, COMDAT
; _this$ = ecx

; 1658 : {

	push	ebp
	mov	ebp, esp
	sub	esp, 216				; 000000d8H
	push	ebx
	push	esi
	push	edi
	push	ecx
	lea	edi, DWORD PTR [ebp-216]
	mov	ecx, 54					; 00000036H
	mov	eax, -858993460				; ccccccccH
	rep stosd
	pop	ecx
	mov	DWORD PTR _this$[ebp], ecx

; 1659 : 	TFloat32 t;
; 1660 : 
; 1661 : 	t   = e01;

	mov	eax, DWORD PTR _this$[ebp]
	movss	xmm0, DWORD PTR [eax+4]
	movss	DWORD PTR _t$[ebp], xmm0

; 1662 : 	e01 = e10;

	mov	eax, DWORD PTR _this$[ebp]
	mov	ecx, DWORD PTR _this$[ebp]
	mov	edx, DWORD PTR [ecx+16]
	mov	DWORD PTR [eax+4], edx

; 1663 : 	e10 = t;

	mov	eax, DWORD PTR _this$[ebp]
	movss	xmm0, DWORD PTR _t$[ebp]
	movss	DWORD PTR [eax+16], xmm0

; 1664 : 
; 1665 : 	t   = e02;

	mov	eax, DWORD PTR _this$[ebp]
	movss	xmm0, DWORD PTR [eax+8]
	movss	DWORD PTR _t$[ebp], xmm0

; 1666 : 	e02 = e20;

	mov	eax, DWORD PTR _this$[ebp]
	mov	ecx, DWORD PTR _this$[ebp]
	mov	edx, DWORD PTR [ecx+32]
	mov	DWORD PTR [eax+8], edx

; 1667 : 	e20 = t;

	mov	eax, DWORD PTR _this$[ebp]
	movss	xmm0, DWORD PTR _t$[ebp]
	movss	DWORD PTR [eax+32], xmm0

; 1668 : 
; 1669 : 	t   = e12;

	mov	eax, DWORD PTR _this$[ebp]
	movss	xmm0, DWORD PTR [eax+24]
	movss	DWORD PTR _t$[ebp], xmm0

; 1670 : 	e12 = e21;

	mov	eax, DWORD PTR _this$[ebp]
	mov	ecx, DWORD PTR _this$[ebp]
	mov	edx, DWORD PTR [ecx+36]
	mov	DWORD PTR [eax+24], edx

; 1671 : 	e21 = t;

	mov	eax, DWORD PTR _this$[ebp]
	movss	xmm0, DWORD PTR _t$[ebp]
	movss	DWORD PTR [eax+36], xmm0

; 1672 : 
; 1673 : 	t   = e03;

	mov	eax, DWORD PTR _this$[ebp]
	movss	xmm0, DWORD PTR [eax+12]
	movss	DWORD PTR _t$[ebp], xmm0

; 1674 : 	e03 = e30;

	mov	eax, DWORD PTR _this$[ebp]
	mov	ecx, DWORD PTR _this$[ebp]
	mov	edx, DWORD PTR [ecx+48]
	mov	DWORD PTR [eax+12], edx

; 1675 : 	e30 = t;

	mov	eax, DWORD PTR _this$[ebp]
	movss	xmm0, DWORD PTR _t$[ebp]
	movss	DWORD PTR [eax+48], xmm0

; 1676 : 
; 1677 : 	t   = e13;

	mov	eax, DWORD PTR _this$[ebp]
	movss	xmm0, DWORD PTR [eax+28]
	movss	DWORD PTR _t$[ebp], xmm0

; 1678 : 	e13 = e31;

	mov	eax, DWORD PTR _this$[ebp]
	mov	ecx, DWORD PTR _this$[ebp]
	mov	edx, DWORD PTR [ecx+52]
	mov	DWORD PTR [eax+28], edx

; 1679 : 	e31 = t;

	mov	eax, DWORD PTR _this$[ebp]
	movss	xmm0, DWORD PTR _t$[ebp]
	movss	DWORD PTR [eax+52], xmm0

; 1680 : 
; 1681 : 	t   = e23;

	mov	eax, DWORD PTR _this$[ebp]
	movss	xmm0, DWORD PTR [eax+44]
	movss	DWORD PTR _t$[ebp], xmm0

; 1682 : 	e23 = e32;

	mov	eax, DWORD PTR _this$[ebp]
	mov	ecx, DWORD PTR _this$[ebp]
	mov	edx, DWORD PTR [ecx+56]
	mov	DWORD PTR [eax+44], edx

; 1683 : 	e32 = t;

	mov	eax, DWORD PTR _this$[ebp]
	movss	xmm0, DWORD PTR _t$[ebp]
	movss	DWORD PTR [eax+56], xmm0

; 1684 : }

	pop	edi
	pop	esi
	pop	ebx
	mov	esp, ebp
	pop	ebp
	ret	0
?Transpose@CMatrix4x4@gen@@QAEXXZ ENDP			; gen::CMatrix4x4::Transpose
_TEXT	ENDS
; Function compile flags: /Odtp /RTCsu /ZI
; File c:\users\simon\documents\github\uclan-sparta\import\math\cmatrix4x4.cpp
;	COMDAT ?Orthogonalise3x3@CMatrix4x4@gen@@QAEXABVCVector3@2@@Z
_TEXT	SEGMENT
tv271 = -684						; size = 4
tv269 = -684						; size = 4
tv270 = -681						; size = 1
tv268 = -681						; size = 1
$T2 = -676						; size = 88
$T3 = -580						; size = 88
$T4 = -484						; size = 88
$T5 = -388						; size = 88
_e$6 = -100						; size = 4
_invOrigScaleY$7 = -88					; size = 4
_origScaleY$8 = -76					; size = 4
_proj10$9 = -64						; size = 4
_invOrigScaleX$10 = -52					; size = 4
_origScaleX$11 = -40					; size = 4
_this$ = -28						; size = 4
__$ArrayPad$ = -20					; size = 4
__$EHRec$ = -16						; size = 16
_scale$ = 8						; size = 4
?Orthogonalise3x3@CMatrix4x4@gen@@QAEXABVCVector3@2@@Z PROC ; gen::CMatrix4x4::Orthogonalise3x3, COMDAT
; _this$ = ecx

; 1536 : {

	push	ebp
	mov	ebp, esp
	push	-1
	push	__ehhandler$?Orthogonalise3x3@CMatrix4x4@gen@@QAEXABVCVector3@2@@Z
	mov	eax, DWORD PTR fs:0
	push	eax
	push	ecx
	sub	esp, 668				; 0000029cH
	push	ebx
	push	esi
	push	edi
	push	ecx
	lea	edi, DWORD PTR [ebp-684]
	mov	ecx, 167				; 000000a7H
	mov	eax, -858993460				; ccccccccH
	rep stosd
	pop	ecx
	mov	eax, DWORD PTR ___security_cookie
	xor	eax, ebp
	mov	DWORD PTR __$ArrayPad$[ebp], eax
	push	eax
	lea	eax, DWORD PTR __$EHRec$[ebp+4]
	mov	DWORD PTR fs:0, eax
	mov	DWORD PTR __$EHRec$[ebp], esp
	mov	DWORD PTR _this$[ebp], ecx

; 1537 : 	GEN_GUARD;

	mov	DWORD PTR __$EHRec$[ebp+12], 0

; 1538 : 
; 1539 : 	// Normalise first vector (x-axis)
; 1540 : 	TFloat32 origScaleX = e00*e00 + e01*e01 + e02*e02;

	mov	eax, DWORD PTR _this$[ebp]
	mov	ecx, DWORD PTR _this$[ebp]
	movss	xmm0, DWORD PTR [eax+8]
	mulss	xmm0, DWORD PTR [ecx+8]
	mov	edx, DWORD PTR _this$[ebp]
	mov	eax, DWORD PTR _this$[ebp]
	movss	xmm1, DWORD PTR [edx+4]
	mulss	xmm1, DWORD PTR [eax+4]
	mov	ecx, DWORD PTR _this$[ebp]
	mov	edx, DWORD PTR _this$[ebp]
	movss	xmm2, DWORD PTR [ecx]
	mulss	xmm2, DWORD PTR [edx]
	addss	xmm2, xmm1
	addss	xmm2, xmm0
	movss	DWORD PTR _origScaleX$11[ebp], xmm2

; 1541 : 	GEN_ASSERT( !IsZero(origScaleX), "Singular matrix" );

	push	ecx
	movss	xmm0, DWORD PTR _kfEpsilon
	movss	DWORD PTR [esp], xmm0
	push	ecx
	movss	xmm0, DWORD PTR _origScaleX$11[ebp]
	movss	DWORD PTR [esp], xmm0
	call	?IsZero@gen@@YA_NMM@Z			; gen::IsZero
	add	esp, 8
	mov	BYTE PTR tv268[ebp], al
	movzx	eax, BYTE PTR tv268[ebp]
	test	eax, eax
	je	SHORT $LN2@Orthogonal
	mov	eax, DWORD PTR ?__LINE__Var@?1??Orthogonalise3x3@CMatrix4x4@gen@@QAEXABVCVector3@3@@Z@4JA
	add	eax, 5
	push	eax
	push	OFFSET ??_C@_0EI@POGHFJCD@c?3?2users?2simon?2documents?2github?2@
	push	OFFSET ??_C@_0BA@EJDDFENM@Singular?5matrix?$AA@
	lea	ecx, DWORD PTR $T2[ebp]
	call	??0CFatalException@gen@@QAE@PBD0H@Z	; gen::CFatalException::CFatalException
	push	OFFSET __TI1?AVCFatalException@gen@@
	lea	ecx, DWORD PTR $T2[ebp]
	push	ecx
	call	__CxxThrowException@8
$LN2@Orthogonal:

; 1542 : 	TFloat32 invOrigScaleX = InvSqrt( origScaleX );

	push	ecx
	movss	xmm0, DWORD PTR _origScaleX$11[ebp]
	movss	DWORD PTR [esp], xmm0
	call	?InvSqrt@gen@@YAMM@Z			; gen::InvSqrt
	add	esp, 4
	fstp	DWORD PTR tv269[ebp]
	movss	xmm0, DWORD PTR tv269[ebp]
	movss	DWORD PTR _invOrigScaleX$10[ebp], xmm0

; 1543 : 	e00 *= invOrigScaleX;

	mov	eax, DWORD PTR _this$[ebp]
	movss	xmm0, DWORD PTR [eax]
	mulss	xmm0, DWORD PTR _invOrigScaleX$10[ebp]
	mov	ecx, DWORD PTR _this$[ebp]
	movss	DWORD PTR [ecx], xmm0

; 1544 : 	e01 *= invOrigScaleX;

	mov	eax, DWORD PTR _this$[ebp]
	movss	xmm0, DWORD PTR [eax+4]
	mulss	xmm0, DWORD PTR _invOrigScaleX$10[ebp]
	mov	ecx, DWORD PTR _this$[ebp]
	movss	DWORD PTR [ecx+4], xmm0

; 1545 : 	e02 *= invOrigScaleX;

	mov	eax, DWORD PTR _this$[ebp]
	movss	xmm0, DWORD PTR [eax+8]
	mulss	xmm0, DWORD PTR _invOrigScaleX$10[ebp]
	mov	ecx, DWORD PTR _this$[ebp]
	movss	DWORD PTR [ecx+8], xmm0

; 1546 : 
; 1547 : 	// Orthogonalise second vector (y-axis) with first
; 1548 : 	TFloat32 proj10 = e10*e00 + e11*e01 + e12*e02;

	mov	eax, DWORD PTR _this$[ebp]
	mov	ecx, DWORD PTR _this$[ebp]
	movss	xmm0, DWORD PTR [eax+24]
	mulss	xmm0, DWORD PTR [ecx+8]
	mov	edx, DWORD PTR _this$[ebp]
	mov	eax, DWORD PTR _this$[ebp]
	movss	xmm1, DWORD PTR [edx+20]
	mulss	xmm1, DWORD PTR [eax+4]
	mov	ecx, DWORD PTR _this$[ebp]
	mov	edx, DWORD PTR _this$[ebp]
	movss	xmm2, DWORD PTR [ecx+16]
	mulss	xmm2, DWORD PTR [edx]
	addss	xmm2, xmm1
	addss	xmm2, xmm0
	movss	DWORD PTR _proj10$9[ebp], xmm2

; 1549 : 	e10 -= proj10 * e00;

	mov	eax, DWORD PTR _this$[ebp]
	movss	xmm0, DWORD PTR _proj10$9[ebp]
	mulss	xmm0, DWORD PTR [eax]
	mov	ecx, DWORD PTR _this$[ebp]
	movss	xmm1, DWORD PTR [ecx+16]
	subss	xmm1, xmm0
	mov	edx, DWORD PTR _this$[ebp]
	movss	DWORD PTR [edx+16], xmm1

; 1550 : 	e11 -= proj10 * e01;

	mov	eax, DWORD PTR _this$[ebp]
	movss	xmm0, DWORD PTR _proj10$9[ebp]
	mulss	xmm0, DWORD PTR [eax+4]
	mov	ecx, DWORD PTR _this$[ebp]
	movss	xmm1, DWORD PTR [ecx+20]
	subss	xmm1, xmm0
	mov	edx, DWORD PTR _this$[ebp]
	movss	DWORD PTR [edx+20], xmm1

; 1551 : 	e12 -= proj10 * e02;

	mov	eax, DWORD PTR _this$[ebp]
	movss	xmm0, DWORD PTR _proj10$9[ebp]
	mulss	xmm0, DWORD PTR [eax+8]
	mov	ecx, DWORD PTR _this$[ebp]
	movss	xmm1, DWORD PTR [ecx+24]
	subss	xmm1, xmm0
	mov	edx, DWORD PTR _this$[ebp]
	movss	DWORD PTR [edx+24], xmm1

; 1552 : 
; 1553 : 	// Normalise second vector
; 1554 : 	TFloat32 origScaleY = e10*e10 + e11*e11 + e12*e12;

	mov	eax, DWORD PTR _this$[ebp]
	mov	ecx, DWORD PTR _this$[ebp]
	movss	xmm0, DWORD PTR [eax+24]
	mulss	xmm0, DWORD PTR [ecx+24]
	mov	edx, DWORD PTR _this$[ebp]
	mov	eax, DWORD PTR _this$[ebp]
	movss	xmm1, DWORD PTR [edx+20]
	mulss	xmm1, DWORD PTR [eax+20]
	mov	ecx, DWORD PTR _this$[ebp]
	mov	edx, DWORD PTR _this$[ebp]
	movss	xmm2, DWORD PTR [ecx+16]
	mulss	xmm2, DWORD PTR [edx+16]
	addss	xmm2, xmm1
	addss	xmm2, xmm0
	movss	DWORD PTR _origScaleY$8[ebp], xmm2

; 1555 : 	GEN_ASSERT( !IsZero(origScaleY), "Singular matrix" );

	push	ecx
	movss	xmm0, DWORD PTR _kfEpsilon
	movss	DWORD PTR [esp], xmm0
	push	ecx
	movss	xmm0, DWORD PTR _origScaleY$8[ebp]
	movss	DWORD PTR [esp], xmm0
	call	?IsZero@gen@@YA_NMM@Z			; gen::IsZero
	add	esp, 8
	mov	BYTE PTR tv270[ebp], al
	movzx	eax, BYTE PTR tv270[ebp]
	test	eax, eax
	je	SHORT $LN1@Orthogonal
	mov	eax, DWORD PTR ?__LINE__Var@?1??Orthogonalise3x3@CMatrix4x4@gen@@QAEXABVCVector3@3@@Z@4JA
	add	eax, 19					; 00000013H
	push	eax
	push	OFFSET ??_C@_0EI@POGHFJCD@c?3?2users?2simon?2documents?2github?2@
	push	OFFSET ??_C@_0BA@EJDDFENM@Singular?5matrix?$AA@
	lea	ecx, DWORD PTR $T3[ebp]
	call	??0CFatalException@gen@@QAE@PBD0H@Z	; gen::CFatalException::CFatalException
	push	OFFSET __TI1?AVCFatalException@gen@@
	lea	ecx, DWORD PTR $T3[ebp]
	push	ecx
	call	__CxxThrowException@8
$LN1@Orthogonal:

; 1556 : 	TFloat32 invOrigScaleY = InvSqrt( origScaleY );

	push	ecx
	movss	xmm0, DWORD PTR _origScaleY$8[ebp]
	movss	DWORD PTR [esp], xmm0
	call	?InvSqrt@gen@@YAMM@Z			; gen::InvSqrt
	add	esp, 4
	fstp	DWORD PTR tv271[ebp]
	movss	xmm0, DWORD PTR tv271[ebp]
	movss	DWORD PTR _invOrigScaleY$7[ebp], xmm0

; 1557 : 	e10 *= invOrigScaleY;

	mov	eax, DWORD PTR _this$[ebp]
	movss	xmm0, DWORD PTR [eax+16]
	mulss	xmm0, DWORD PTR _invOrigScaleY$7[ebp]
	mov	ecx, DWORD PTR _this$[ebp]
	movss	DWORD PTR [ecx+16], xmm0

; 1558 : 	e11 *= invOrigScaleY;

	mov	eax, DWORD PTR _this$[ebp]
	movss	xmm0, DWORD PTR [eax+20]
	mulss	xmm0, DWORD PTR _invOrigScaleY$7[ebp]
	mov	ecx, DWORD PTR _this$[ebp]
	movss	DWORD PTR [ecx+20], xmm0

; 1559 : 	e12 *= invOrigScaleY;

	mov	eax, DWORD PTR _this$[ebp]
	movss	xmm0, DWORD PTR [eax+24]
	mulss	xmm0, DWORD PTR _invOrigScaleY$7[ebp]
	mov	ecx, DWORD PTR _this$[ebp]
	movss	DWORD PTR [ecx+24], xmm0

; 1560 : 
; 1561 : 	// Get third vector from cross product of first two (result is already normalised)
; 1562 : 	e20 = e01*e12 - e02*e11;

	mov	eax, DWORD PTR _this$[ebp]
	mov	ecx, DWORD PTR _this$[ebp]
	movss	xmm0, DWORD PTR [eax+8]
	mulss	xmm0, DWORD PTR [ecx+20]
	mov	edx, DWORD PTR _this$[ebp]
	mov	eax, DWORD PTR _this$[ebp]
	movss	xmm1, DWORD PTR [edx+4]
	mulss	xmm1, DWORD PTR [eax+24]
	subss	xmm1, xmm0
	mov	ecx, DWORD PTR _this$[ebp]
	movss	DWORD PTR [ecx+32], xmm1

; 1563 : 	e21 = e02*e10 - e00*e12;

	mov	eax, DWORD PTR _this$[ebp]
	mov	ecx, DWORD PTR _this$[ebp]
	movss	xmm0, DWORD PTR [eax]
	mulss	xmm0, DWORD PTR [ecx+24]
	mov	edx, DWORD PTR _this$[ebp]
	mov	eax, DWORD PTR _this$[ebp]
	movss	xmm1, DWORD PTR [edx+8]
	mulss	xmm1, DWORD PTR [eax+16]
	subss	xmm1, xmm0
	mov	ecx, DWORD PTR _this$[ebp]
	movss	DWORD PTR [ecx+36], xmm1

; 1564 : 	e22 = e00*e11 - e01*e10;

	mov	eax, DWORD PTR _this$[ebp]
	mov	ecx, DWORD PTR _this$[ebp]
	movss	xmm0, DWORD PTR [eax+4]
	mulss	xmm0, DWORD PTR [ecx+16]
	mov	edx, DWORD PTR _this$[ebp]
	mov	eax, DWORD PTR _this$[ebp]
	movss	xmm1, DWORD PTR [edx]
	mulss	xmm1, DWORD PTR [eax+20]
	subss	xmm1, xmm0
	mov	ecx, DWORD PTR _this$[ebp]
	movss	DWORD PTR [ecx+40], xmm1

; 1565 : 	
; 1566 : 	// Rescale each vector
; 1567 : 	e00 *= scale.x;

	mov	eax, DWORD PTR _this$[ebp]
	mov	ecx, DWORD PTR _scale$[ebp]
	movss	xmm0, DWORD PTR [eax]
	mulss	xmm0, DWORD PTR [ecx]
	mov	edx, DWORD PTR _this$[ebp]
	movss	DWORD PTR [edx], xmm0

; 1568 : 	e01 *= scale.x;

	mov	eax, DWORD PTR _this$[ebp]
	mov	ecx, DWORD PTR _scale$[ebp]
	movss	xmm0, DWORD PTR [eax+4]
	mulss	xmm0, DWORD PTR [ecx]
	mov	edx, DWORD PTR _this$[ebp]
	movss	DWORD PTR [edx+4], xmm0

; 1569 : 	e02 *= scale.x;

	mov	eax, DWORD PTR _this$[ebp]
	mov	ecx, DWORD PTR _scale$[ebp]
	movss	xmm0, DWORD PTR [eax+8]
	mulss	xmm0, DWORD PTR [ecx]
	mov	edx, DWORD PTR _this$[ebp]
	movss	DWORD PTR [edx+8], xmm0

; 1570 : 
; 1571 : 	e10 *= scale.y;

	mov	eax, DWORD PTR _this$[ebp]
	mov	ecx, DWORD PTR _scale$[ebp]
	movss	xmm0, DWORD PTR [eax+16]
	mulss	xmm0, DWORD PTR [ecx+4]
	mov	edx, DWORD PTR _this$[ebp]
	movss	DWORD PTR [edx+16], xmm0

; 1572 : 	e11 *= scale.y;

	mov	eax, DWORD PTR _this$[ebp]
	mov	ecx, DWORD PTR _scale$[ebp]
	movss	xmm0, DWORD PTR [eax+20]
	mulss	xmm0, DWORD PTR [ecx+4]
	mov	edx, DWORD PTR _this$[ebp]
	movss	DWORD PTR [edx+20], xmm0

; 1573 : 	e12 *= scale.y;

	mov	eax, DWORD PTR _this$[ebp]
	mov	ecx, DWORD PTR _scale$[ebp]
	movss	xmm0, DWORD PTR [eax+24]
	mulss	xmm0, DWORD PTR [ecx+4]
	mov	edx, DWORD PTR _this$[ebp]
	movss	DWORD PTR [edx+24], xmm0

; 1574 : 
; 1575 : 	e20 *= scale.z;

	mov	eax, DWORD PTR _this$[ebp]
	mov	ecx, DWORD PTR _scale$[ebp]
	movss	xmm0, DWORD PTR [eax+32]
	mulss	xmm0, DWORD PTR [ecx+8]
	mov	edx, DWORD PTR _this$[ebp]
	movss	DWORD PTR [edx+32], xmm0

; 1576 : 	e21 *= scale.z;

	mov	eax, DWORD PTR _this$[ebp]
	mov	ecx, DWORD PTR _scale$[ebp]
	movss	xmm0, DWORD PTR [eax+36]
	mulss	xmm0, DWORD PTR [ecx+8]
	mov	edx, DWORD PTR _this$[ebp]
	movss	DWORD PTR [edx+36], xmm0

; 1577 : 	e22 *= scale.z;

	mov	eax, DWORD PTR _this$[ebp]
	mov	ecx, DWORD PTR _scale$[ebp]
	movss	xmm0, DWORD PTR [eax+40]
	mulss	xmm0, DWORD PTR [ecx+8]
	mov	edx, DWORD PTR _this$[ebp]
	movss	DWORD PTR [edx+40], xmm0
	jmp	SHORT $LN6@Orthogonal
__catch$?Orthogonalise3x3@CMatrix4x4@gen@@QAEXABVCVector3@2@@Z$0:

; 1578 : 
; 1579 : 	GEN_ENDGUARD;

	push	0
	call	?ObjectName@gen@@YAPBDXZ		; gen::ObjectName
	push	eax
	push	OFFSET ??_C@_0CC@BIGHOAJP@gen?3?3CMatrix4x4?3?3Orthogonalise3x@
	mov	ecx, DWORD PTR _e$6[ebp]
	call	?AppendToCallStack@CFatalException@gen@@QAEXPBD0_N@Z ; gen::CFatalException::AppendToCallStack
	mov	eax, DWORD PTR _e$6[ebp]
	push	eax
	lea	ecx, DWORD PTR $T4[ebp]
	call	??0CFatalException@gen@@QAE@ABV01@@Z
	push	OFFSET __TI1?AVCFatalException@gen@@
	lea	ecx, DWORD PTR $T4[ebp]
	push	ecx
	call	__CxxThrowException@8
	mov	eax, $LN10@Orthogonal
	ret	0
__catch$?Orthogonalise3x3@CMatrix4x4@gen@@QAEXABVCVector3@2@@Z$1:
	call	?ObjectName@gen@@YAPBDXZ		; gen::ObjectName
	push	eax
	push	OFFSET ??_C@_0CC@BIGHOAJP@gen?3?3CMatrix4x4?3?3Orthogonalise3x@
	push	OFFSET ??_C@_0EI@POGHFJCD@c?3?2users?2simon?2documents?2github?2@
	lea	ecx, DWORD PTR $T5[ebp]
	call	??0CFatalException@gen@@QAE@PBD00@Z	; gen::CFatalException::CFatalException
	push	OFFSET __TI1?AVCFatalException@gen@@
	lea	eax, DWORD PTR $T5[ebp]
	push	eax
	call	__CxxThrowException@8
	mov	eax, $LN12@Orthogonal
	ret	0
$LN6@Orthogonal:
	mov	DWORD PTR __$EHRec$[ebp+12], -1
	jmp	SHORT $LN11@Orthogonal
$LN12@Orthogonal:
	mov	DWORD PTR __$EHRec$[ebp+12], -1
	jmp	SHORT $LN9@Orthogonal
$LN11@Orthogonal:
	jmp	SHORT $LN9@Orthogonal
$LN10@Orthogonal:
	mov	DWORD PTR __$EHRec$[ebp+12], -1
$LN9@Orthogonal:
$LN4@Orthogonal:

; 1580 : }

	push	edx
	mov	ecx, ebp
	push	eax
	lea	edx, DWORD PTR $LN16@Orthogonal
	call	@_RTC_CheckStackVars@8
	pop	eax
	pop	edx
	mov	ecx, DWORD PTR __$EHRec$[ebp+4]
	mov	DWORD PTR fs:0, ecx
	pop	ecx
	pop	edi
	pop	esi
	pop	ebx
	mov	ecx, DWORD PTR __$ArrayPad$[ebp]
	xor	ecx, ebp
	call	@__security_check_cookie@4
	add	esp, 684				; 000002acH
	cmp	ebp, esp
	call	__RTC_CheckEsp
	mov	esp, ebp
	pop	ebp
	ret	4
	npad	1
$LN16@Orthogonal:
	DD	1
	DD	$LN15@Orthogonal
$LN15@Orthogonal:
	DD	-100					; ffffff9cH
	DD	4
	DD	$LN13@Orthogonal
$LN13@Orthogonal:
	DB	101					; 00000065H
	DB	0
_TEXT	ENDS
;	COMDAT text$x
text$x	SEGMENT
__ehhandler$?Orthogonalise3x3@CMatrix4x4@gen@@QAEXABVCVector3@2@@Z:
	mov	edx, DWORD PTR [esp+8]
	lea	eax, DWORD PTR [edx+12]
	mov	ecx, DWORD PTR [edx-688]
	xor	ecx, eax
	call	@__security_check_cookie@4
	mov	ecx, DWORD PTR [edx-8]
	xor	ecx, eax
	call	@__security_check_cookie@4
	mov	eax, OFFSET __ehfuncinfo$?Orthogonalise3x3@CMatrix4x4@gen@@QAEXABVCVector3@2@@Z
	jmp	___CxxFrameHandler3
text$x	ENDS
?Orthogonalise3x3@CMatrix4x4@gen@@QAEXABVCVector3@2@@Z ENDP ; gen::CMatrix4x4::Orthogonalise3x3
; Function compile flags: /Odtp /RTCsu /ZI
; File c:\users\simon\documents\github\uclan-sparta\import\math\cmatrix4x4.cpp
;	COMDAT ?IsOrthonormal3x3@CMatrix4x4@gen@@QBE_NXZ
_TEXT	SEGMENT
tv195 = -208						; size = 4
_this$ = -8						; size = 4
?IsOrthonormal3x3@CMatrix4x4@gen@@QBE_NXZ PROC		; gen::CMatrix4x4::IsOrthonormal3x3, COMDAT
; _this$ = ecx

; 1522 : {

	push	ebp
	mov	ebp, esp
	sub	esp, 208				; 000000d0H
	push	ebx
	push	esi
	push	edi
	push	ecx
	lea	edi, DWORD PTR [ebp-208]
	mov	ecx, 52					; 00000034H
	mov	eax, -858993460				; ccccccccH
	rep stosd
	pop	ecx
	mov	DWORD PTR _this$[ebp], ecx

; 1523 : 	// Check each row is length 1 and dot product of each pair of rows is zero
; 1524 : 	return IsZero( e00*e00 + e01*e01 + e02*e02 - 1.0f ) &&
; 1525 : 	       IsZero( e10*e10 + e11*e11 + e12*e12 - 1.0f ) &&
; 1526 : 	       IsZero( e20*e20 + e21*e21 + e22*e22 - 1.0f ) &&
; 1527 : 	       IsZero( e00*e10 + e01*e11 + e02*e12 ) &&
; 1528 : 	       IsZero( e10*e20 + e11*e21 + e12*e22 ) &&
; 1529 : 	       IsZero( e20*e00 + e21*e01 + e22*e02 );

	push	ecx
	movss	xmm0, DWORD PTR _kfEpsilon
	movss	DWORD PTR [esp], xmm0
	mov	eax, DWORD PTR _this$[ebp]
	mov	ecx, DWORD PTR _this$[ebp]
	movss	xmm0, DWORD PTR [eax]
	mulss	xmm0, DWORD PTR [ecx]
	mov	edx, DWORD PTR _this$[ebp]
	mov	eax, DWORD PTR _this$[ebp]
	movss	xmm1, DWORD PTR [edx+4]
	mulss	xmm1, DWORD PTR [eax+4]
	addss	xmm0, xmm1
	mov	ecx, DWORD PTR _this$[ebp]
	mov	edx, DWORD PTR _this$[ebp]
	movss	xmm1, DWORD PTR [ecx+8]
	mulss	xmm1, DWORD PTR [edx+8]
	addss	xmm0, xmm1
	subss	xmm0, DWORD PTR __real@3f800000
	push	ecx
	movss	DWORD PTR [esp], xmm0
	call	?IsZero@gen@@YA_NMM@Z			; gen::IsZero
	add	esp, 8
	movzx	eax, al
	test	eax, eax
	je	$LN3@IsOrthonor
	push	ecx
	movss	xmm0, DWORD PTR _kfEpsilon
	movss	DWORD PTR [esp], xmm0
	mov	ecx, DWORD PTR _this$[ebp]
	mov	edx, DWORD PTR _this$[ebp]
	movss	xmm0, DWORD PTR [ecx+16]
	mulss	xmm0, DWORD PTR [edx+16]
	mov	eax, DWORD PTR _this$[ebp]
	mov	ecx, DWORD PTR _this$[ebp]
	movss	xmm1, DWORD PTR [eax+20]
	mulss	xmm1, DWORD PTR [ecx+20]
	addss	xmm0, xmm1
	mov	edx, DWORD PTR _this$[ebp]
	mov	eax, DWORD PTR _this$[ebp]
	movss	xmm1, DWORD PTR [edx+24]
	mulss	xmm1, DWORD PTR [eax+24]
	addss	xmm0, xmm1
	subss	xmm0, DWORD PTR __real@3f800000
	push	ecx
	movss	DWORD PTR [esp], xmm0
	call	?IsZero@gen@@YA_NMM@Z			; gen::IsZero
	add	esp, 8
	movzx	ecx, al
	test	ecx, ecx
	je	$LN3@IsOrthonor
	push	ecx
	movss	xmm0, DWORD PTR _kfEpsilon
	movss	DWORD PTR [esp], xmm0
	mov	edx, DWORD PTR _this$[ebp]
	mov	eax, DWORD PTR _this$[ebp]
	movss	xmm0, DWORD PTR [edx+32]
	mulss	xmm0, DWORD PTR [eax+32]
	mov	ecx, DWORD PTR _this$[ebp]
	mov	edx, DWORD PTR _this$[ebp]
	movss	xmm1, DWORD PTR [ecx+36]
	mulss	xmm1, DWORD PTR [edx+36]
	addss	xmm0, xmm1
	mov	eax, DWORD PTR _this$[ebp]
	mov	ecx, DWORD PTR _this$[ebp]
	movss	xmm1, DWORD PTR [eax+40]
	mulss	xmm1, DWORD PTR [ecx+40]
	addss	xmm0, xmm1
	subss	xmm0, DWORD PTR __real@3f800000
	push	ecx
	movss	DWORD PTR [esp], xmm0
	call	?IsZero@gen@@YA_NMM@Z			; gen::IsZero
	add	esp, 8
	movzx	edx, al
	test	edx, edx
	je	$LN3@IsOrthonor
	push	ecx
	movss	xmm0, DWORD PTR _kfEpsilon
	movss	DWORD PTR [esp], xmm0
	mov	eax, DWORD PTR _this$[ebp]
	mov	ecx, DWORD PTR _this$[ebp]
	movss	xmm0, DWORD PTR [eax]
	mulss	xmm0, DWORD PTR [ecx+16]
	mov	edx, DWORD PTR _this$[ebp]
	mov	eax, DWORD PTR _this$[ebp]
	movss	xmm1, DWORD PTR [edx+4]
	mulss	xmm1, DWORD PTR [eax+20]
	addss	xmm0, xmm1
	mov	ecx, DWORD PTR _this$[ebp]
	mov	edx, DWORD PTR _this$[ebp]
	movss	xmm1, DWORD PTR [ecx+8]
	mulss	xmm1, DWORD PTR [edx+24]
	addss	xmm0, xmm1
	push	ecx
	movss	DWORD PTR [esp], xmm0
	call	?IsZero@gen@@YA_NMM@Z			; gen::IsZero
	add	esp, 8
	movzx	eax, al
	test	eax, eax
	je	$LN3@IsOrthonor
	push	ecx
	movss	xmm0, DWORD PTR _kfEpsilon
	movss	DWORD PTR [esp], xmm0
	mov	ecx, DWORD PTR _this$[ebp]
	mov	edx, DWORD PTR _this$[ebp]
	movss	xmm0, DWORD PTR [ecx+16]
	mulss	xmm0, DWORD PTR [edx+32]
	mov	eax, DWORD PTR _this$[ebp]
	mov	ecx, DWORD PTR _this$[ebp]
	movss	xmm1, DWORD PTR [eax+20]
	mulss	xmm1, DWORD PTR [ecx+36]
	addss	xmm0, xmm1
	mov	edx, DWORD PTR _this$[ebp]
	mov	eax, DWORD PTR _this$[ebp]
	movss	xmm1, DWORD PTR [edx+24]
	mulss	xmm1, DWORD PTR [eax+40]
	addss	xmm0, xmm1
	push	ecx
	movss	DWORD PTR [esp], xmm0
	call	?IsZero@gen@@YA_NMM@Z			; gen::IsZero
	add	esp, 8
	movzx	ecx, al
	test	ecx, ecx
	je	SHORT $LN3@IsOrthonor
	push	ecx
	movss	xmm0, DWORD PTR _kfEpsilon
	movss	DWORD PTR [esp], xmm0
	mov	edx, DWORD PTR _this$[ebp]
	mov	eax, DWORD PTR _this$[ebp]
	movss	xmm0, DWORD PTR [edx+32]
	mulss	xmm0, DWORD PTR [eax]
	mov	ecx, DWORD PTR _this$[ebp]
	mov	edx, DWORD PTR _this$[ebp]
	movss	xmm1, DWORD PTR [ecx+36]
	mulss	xmm1, DWORD PTR [edx+4]
	addss	xmm0, xmm1
	mov	eax, DWORD PTR _this$[ebp]
	mov	ecx, DWORD PTR _this$[ebp]
	movss	xmm1, DWORD PTR [eax+40]
	mulss	xmm1, DWORD PTR [ecx+8]
	addss	xmm0, xmm1
	push	ecx
	movss	DWORD PTR [esp], xmm0
	call	?IsZero@gen@@YA_NMM@Z			; gen::IsZero
	add	esp, 8
	movzx	edx, al
	test	edx, edx
	je	SHORT $LN3@IsOrthonor
	mov	DWORD PTR tv195[ebp], 1
	jmp	SHORT $LN4@IsOrthonor
$LN3@IsOrthonor:
	mov	DWORD PTR tv195[ebp], 0
$LN4@IsOrthonor:
	mov	al, BYTE PTR tv195[ebp]

; 1530 : }

	pop	edi
	pop	esi
	pop	ebx
	add	esp, 208				; 000000d0H
	cmp	ebp, esp
	call	__RTC_CheckEsp
	mov	esp, ebp
	pop	ebp
	ret	0
?IsOrthonormal3x3@CMatrix4x4@gen@@QBE_NXZ ENDP		; gen::CMatrix4x4::IsOrthonormal3x3
_TEXT	ENDS
; Function compile flags: /Odtp /RTCsu /ZI
; File c:\users\simon\documents\github\uclan-sparta\import\math\cmatrix4x4.cpp
;	COMDAT ?IsOrthogonal3x3@CMatrix4x4@gen@@QBE_NXZ
_TEXT	SEGMENT
tv144 = -208						; size = 4
_this$ = -8						; size = 4
?IsOrthogonal3x3@CMatrix4x4@gen@@QBE_NXZ PROC		; gen::CMatrix4x4::IsOrthogonal3x3, COMDAT
; _this$ = ecx

; 1512 : {

	push	ebp
	mov	ebp, esp
	sub	esp, 208				; 000000d0H
	push	ebx
	push	esi
	push	edi
	push	ecx
	lea	edi, DWORD PTR [ebp-208]
	mov	ecx, 52					; 00000034H
	mov	eax, -858993460				; ccccccccH
	rep stosd
	pop	ecx
	mov	DWORD PTR _this$[ebp], ecx

; 1513 : 	// Check dot product of each pair of rows is zero
; 1514 : 	return IsZero( e00*e10 + e01*e11 + e02*e12 ) &&
; 1515 : 	       IsZero( e10*e20 + e11*e21 + e12*e22 ) &&
; 1516 : 	       IsZero( e20*e00 + e21*e01 + e22*e02 );

	push	ecx
	movss	xmm0, DWORD PTR _kfEpsilon
	movss	DWORD PTR [esp], xmm0
	mov	eax, DWORD PTR _this$[ebp]
	mov	ecx, DWORD PTR _this$[ebp]
	movss	xmm0, DWORD PTR [eax]
	mulss	xmm0, DWORD PTR [ecx+16]
	mov	edx, DWORD PTR _this$[ebp]
	mov	eax, DWORD PTR _this$[ebp]
	movss	xmm1, DWORD PTR [edx+4]
	mulss	xmm1, DWORD PTR [eax+20]
	addss	xmm0, xmm1
	mov	ecx, DWORD PTR _this$[ebp]
	mov	edx, DWORD PTR _this$[ebp]
	movss	xmm1, DWORD PTR [ecx+8]
	mulss	xmm1, DWORD PTR [edx+24]
	addss	xmm0, xmm1
	push	ecx
	movss	DWORD PTR [esp], xmm0
	call	?IsZero@gen@@YA_NMM@Z			; gen::IsZero
	add	esp, 8
	movzx	eax, al
	test	eax, eax
	je	$LN3@IsOrthogon
	push	ecx
	movss	xmm0, DWORD PTR _kfEpsilon
	movss	DWORD PTR [esp], xmm0
	mov	ecx, DWORD PTR _this$[ebp]
	mov	edx, DWORD PTR _this$[ebp]
	movss	xmm0, DWORD PTR [ecx+16]
	mulss	xmm0, DWORD PTR [edx+32]
	mov	eax, DWORD PTR _this$[ebp]
	mov	ecx, DWORD PTR _this$[ebp]
	movss	xmm1, DWORD PTR [eax+20]
	mulss	xmm1, DWORD PTR [ecx+36]
	addss	xmm0, xmm1
	mov	edx, DWORD PTR _this$[ebp]
	mov	eax, DWORD PTR _this$[ebp]
	movss	xmm1, DWORD PTR [edx+24]
	mulss	xmm1, DWORD PTR [eax+40]
	addss	xmm0, xmm1
	push	ecx
	movss	DWORD PTR [esp], xmm0
	call	?IsZero@gen@@YA_NMM@Z			; gen::IsZero
	add	esp, 8
	movzx	ecx, al
	test	ecx, ecx
	je	SHORT $LN3@IsOrthogon
	push	ecx
	movss	xmm0, DWORD PTR _kfEpsilon
	movss	DWORD PTR [esp], xmm0
	mov	edx, DWORD PTR _this$[ebp]
	mov	eax, DWORD PTR _this$[ebp]
	movss	xmm0, DWORD PTR [edx+32]
	mulss	xmm0, DWORD PTR [eax]
	mov	ecx, DWORD PTR _this$[ebp]
	mov	edx, DWORD PTR _this$[ebp]
	movss	xmm1, DWORD PTR [ecx+36]
	mulss	xmm1, DWORD PTR [edx+4]
	addss	xmm0, xmm1
	mov	eax, DWORD PTR _this$[ebp]
	mov	ecx, DWORD PTR _this$[ebp]
	movss	xmm1, DWORD PTR [eax+40]
	mulss	xmm1, DWORD PTR [ecx+8]
	addss	xmm0, xmm1
	push	ecx
	movss	DWORD PTR [esp], xmm0
	call	?IsZero@gen@@YA_NMM@Z			; gen::IsZero
	add	esp, 8
	movzx	edx, al
	test	edx, edx
	je	SHORT $LN3@IsOrthogon
	mov	DWORD PTR tv144[ebp], 1
	jmp	SHORT $LN4@IsOrthogon
$LN3@IsOrthogon:
	mov	DWORD PTR tv144[ebp], 0
$LN4@IsOrthogon:
	mov	al, BYTE PTR tv144[ebp]

; 1517 : }

	pop	edi
	pop	esi
	pop	ebx
	add	esp, 208				; 000000d0H
	cmp	ebp, esp
	call	__RTC_CheckEsp
	mov	esp, ebp
	pop	ebp
	ret	0
?IsOrthogonal3x3@CMatrix4x4@gen@@QBE_NXZ ENDP		; gen::CMatrix4x4::IsOrthogonal3x3
_TEXT	ENDS
; Function compile flags: /Odtp /RTCsu /ZI
; File c:\users\simon\documents\github\uclan-sparta\import\math\cmatrix4x4.cpp
;	COMDAT ?IsIdentity@CMatrix4x4@gen@@QBE_NXZ
_TEXT	SEGMENT
tv196 = -208						; size = 4
_this$ = -8						; size = 4
?IsIdentity@CMatrix4x4@gen@@QBE_NXZ PROC		; gen::CMatrix4x4::IsIdentity, COMDAT
; _this$ = ecx

; 1493 : {

	push	ebp
	mov	ebp, esp
	sub	esp, 208				; 000000d0H
	push	ebx
	push	esi
	push	edi
	push	ecx
	lea	edi, DWORD PTR [ebp-208]
	mov	ecx, 52					; 00000034H
	mov	eax, -858993460				; ccccccccH
	rep stosd
	pop	ecx
	mov	DWORD PTR _this$[ebp], ecx

; 1494 : 	return IsZero( e00 - 1.0f ) && IsZero( e11 - 1.0f ) && 
; 1495 : 	       IsZero( e22 - 1.0f ) && IsZero( e33 - 1.0f ) && 
; 1496 : 	       IsZero( e01 ) && IsZero( e02 ) && IsZero( e03 ) && 
; 1497 : 	       IsZero( e10 ) && IsZero( e12 ) && IsZero( e13 ) && 
; 1498 : 	       IsZero( e20 ) && IsZero( e21 ) && IsZero( e23 ) && 
; 1499 : 	       IsZero( e30 ) && IsZero( e31 ) && IsZero( e32 );

	push	ecx
	movss	xmm0, DWORD PTR _kfEpsilon
	movss	DWORD PTR [esp], xmm0
	mov	eax, DWORD PTR _this$[ebp]
	movss	xmm0, DWORD PTR [eax]
	subss	xmm0, DWORD PTR __real@3f800000
	push	ecx
	movss	DWORD PTR [esp], xmm0
	call	?IsZero@gen@@YA_NMM@Z			; gen::IsZero
	add	esp, 8
	movzx	ecx, al
	test	ecx, ecx
	je	$LN3@IsIdentity
	push	ecx
	movss	xmm0, DWORD PTR _kfEpsilon
	movss	DWORD PTR [esp], xmm0
	mov	edx, DWORD PTR _this$[ebp]
	movss	xmm0, DWORD PTR [edx+20]
	subss	xmm0, DWORD PTR __real@3f800000
	push	ecx
	movss	DWORD PTR [esp], xmm0
	call	?IsZero@gen@@YA_NMM@Z			; gen::IsZero
	add	esp, 8
	movzx	eax, al
	test	eax, eax
	je	$LN3@IsIdentity
	push	ecx
	movss	xmm0, DWORD PTR _kfEpsilon
	movss	DWORD PTR [esp], xmm0
	mov	ecx, DWORD PTR _this$[ebp]
	movss	xmm0, DWORD PTR [ecx+40]
	subss	xmm0, DWORD PTR __real@3f800000
	push	ecx
	movss	DWORD PTR [esp], xmm0
	call	?IsZero@gen@@YA_NMM@Z			; gen::IsZero
	add	esp, 8
	movzx	edx, al
	test	edx, edx
	je	$LN3@IsIdentity
	push	ecx
	movss	xmm0, DWORD PTR _kfEpsilon
	movss	DWORD PTR [esp], xmm0
	mov	eax, DWORD PTR _this$[ebp]
	movss	xmm0, DWORD PTR [eax+60]
	subss	xmm0, DWORD PTR __real@3f800000
	push	ecx
	movss	DWORD PTR [esp], xmm0
	call	?IsZero@gen@@YA_NMM@Z			; gen::IsZero
	add	esp, 8
	movzx	ecx, al
	test	ecx, ecx
	je	$LN3@IsIdentity
	push	ecx
	movss	xmm0, DWORD PTR _kfEpsilon
	movss	DWORD PTR [esp], xmm0
	mov	edx, DWORD PTR _this$[ebp]
	push	ecx
	movss	xmm0, DWORD PTR [edx+4]
	movss	DWORD PTR [esp], xmm0
	call	?IsZero@gen@@YA_NMM@Z			; gen::IsZero
	add	esp, 8
	movzx	eax, al
	test	eax, eax
	je	$LN3@IsIdentity
	push	ecx
	movss	xmm0, DWORD PTR _kfEpsilon
	movss	DWORD PTR [esp], xmm0
	mov	ecx, DWORD PTR _this$[ebp]
	push	ecx
	movss	xmm0, DWORD PTR [ecx+8]
	movss	DWORD PTR [esp], xmm0
	call	?IsZero@gen@@YA_NMM@Z			; gen::IsZero
	add	esp, 8
	movzx	edx, al
	test	edx, edx
	je	$LN3@IsIdentity
	push	ecx
	movss	xmm0, DWORD PTR _kfEpsilon
	movss	DWORD PTR [esp], xmm0
	mov	eax, DWORD PTR _this$[ebp]
	push	ecx
	movss	xmm0, DWORD PTR [eax+12]
	movss	DWORD PTR [esp], xmm0
	call	?IsZero@gen@@YA_NMM@Z			; gen::IsZero
	add	esp, 8
	movzx	ecx, al
	test	ecx, ecx
	je	$LN3@IsIdentity
	push	ecx
	movss	xmm0, DWORD PTR _kfEpsilon
	movss	DWORD PTR [esp], xmm0
	mov	edx, DWORD PTR _this$[ebp]
	push	ecx
	movss	xmm0, DWORD PTR [edx+16]
	movss	DWORD PTR [esp], xmm0
	call	?IsZero@gen@@YA_NMM@Z			; gen::IsZero
	add	esp, 8
	movzx	eax, al
	test	eax, eax
	je	$LN3@IsIdentity
	push	ecx
	movss	xmm0, DWORD PTR _kfEpsilon
	movss	DWORD PTR [esp], xmm0
	mov	ecx, DWORD PTR _this$[ebp]
	push	ecx
	movss	xmm0, DWORD PTR [ecx+24]
	movss	DWORD PTR [esp], xmm0
	call	?IsZero@gen@@YA_NMM@Z			; gen::IsZero
	add	esp, 8
	movzx	edx, al
	test	edx, edx
	je	$LN3@IsIdentity
	push	ecx
	movss	xmm0, DWORD PTR _kfEpsilon
	movss	DWORD PTR [esp], xmm0
	mov	eax, DWORD PTR _this$[ebp]
	push	ecx
	movss	xmm0, DWORD PTR [eax+28]
	movss	DWORD PTR [esp], xmm0
	call	?IsZero@gen@@YA_NMM@Z			; gen::IsZero
	add	esp, 8
	movzx	ecx, al
	test	ecx, ecx
	je	$LN3@IsIdentity
	push	ecx
	movss	xmm0, DWORD PTR _kfEpsilon
	movss	DWORD PTR [esp], xmm0
	mov	edx, DWORD PTR _this$[ebp]
	push	ecx
	movss	xmm0, DWORD PTR [edx+32]
	movss	DWORD PTR [esp], xmm0
	call	?IsZero@gen@@YA_NMM@Z			; gen::IsZero
	add	esp, 8
	movzx	eax, al
	test	eax, eax
	je	$LN3@IsIdentity
	push	ecx
	movss	xmm0, DWORD PTR _kfEpsilon
	movss	DWORD PTR [esp], xmm0
	mov	ecx, DWORD PTR _this$[ebp]
	push	ecx
	movss	xmm0, DWORD PTR [ecx+36]
	movss	DWORD PTR [esp], xmm0
	call	?IsZero@gen@@YA_NMM@Z			; gen::IsZero
	add	esp, 8
	movzx	edx, al
	test	edx, edx
	je	$LN3@IsIdentity
	push	ecx
	movss	xmm0, DWORD PTR _kfEpsilon
	movss	DWORD PTR [esp], xmm0
	mov	eax, DWORD PTR _this$[ebp]
	push	ecx
	movss	xmm0, DWORD PTR [eax+44]
	movss	DWORD PTR [esp], xmm0
	call	?IsZero@gen@@YA_NMM@Z			; gen::IsZero
	add	esp, 8
	movzx	ecx, al
	test	ecx, ecx
	je	$LN3@IsIdentity
	push	ecx
	movss	xmm0, DWORD PTR _kfEpsilon
	movss	DWORD PTR [esp], xmm0
	mov	edx, DWORD PTR _this$[ebp]
	push	ecx
	movss	xmm0, DWORD PTR [edx+48]
	movss	DWORD PTR [esp], xmm0
	call	?IsZero@gen@@YA_NMM@Z			; gen::IsZero
	add	esp, 8
	movzx	eax, al
	test	eax, eax
	je	SHORT $LN3@IsIdentity
	push	ecx
	movss	xmm0, DWORD PTR _kfEpsilon
	movss	DWORD PTR [esp], xmm0
	mov	ecx, DWORD PTR _this$[ebp]
	push	ecx
	movss	xmm0, DWORD PTR [ecx+52]
	movss	DWORD PTR [esp], xmm0
	call	?IsZero@gen@@YA_NMM@Z			; gen::IsZero
	add	esp, 8
	movzx	edx, al
	test	edx, edx
	je	SHORT $LN3@IsIdentity
	push	ecx
	movss	xmm0, DWORD PTR _kfEpsilon
	movss	DWORD PTR [esp], xmm0
	mov	eax, DWORD PTR _this$[ebp]
	push	ecx
	movss	xmm0, DWORD PTR [eax+56]
	movss	DWORD PTR [esp], xmm0
	call	?IsZero@gen@@YA_NMM@Z			; gen::IsZero
	add	esp, 8
	movzx	ecx, al
	test	ecx, ecx
	je	SHORT $LN3@IsIdentity
	mov	DWORD PTR tv196[ebp], 1
	jmp	SHORT $LN4@IsIdentity
$LN3@IsIdentity:
	mov	DWORD PTR tv196[ebp], 0
$LN4@IsIdentity:
	mov	al, BYTE PTR tv196[ebp]

; 1500 : }

	pop	edi
	pop	esi
	pop	ebx
	add	esp, 208				; 000000d0H
	cmp	ebp, esp
	call	__RTC_CheckEsp
	mov	esp, ebp
	pop	ebp
	ret	0
?IsIdentity@CMatrix4x4@gen@@QBE_NXZ ENDP		; gen::CMatrix4x4::IsIdentity
_TEXT	ENDS
; Function compile flags: /Odtp /RTCsu /ZI
; File c:\users\simon\documents\github\uclan-sparta\import\math\cmatrix4x4.cpp
;	COMDAT ?SetScale@CMatrix4x4@gen@@QAEXM@Z
_TEXT	SEGMENT
tv276 = -232						; size = 4
tv243 = -232						; size = 4
tv210 = -232						; size = 4
_scaleSq$ = -32						; size = 4
_rescale$ = -20						; size = 4
_this$ = -8						; size = 4
_fScale$ = 8						; size = 4
?SetScale@CMatrix4x4@gen@@QAEXM@Z PROC			; gen::CMatrix4x4::SetScale, COMDAT
; _this$ = ecx

; 1455 : {

	push	ebp
	mov	ebp, esp
	sub	esp, 232				; 000000e8H
	push	ebx
	push	esi
	push	edi
	push	ecx
	lea	edi, DWORD PTR [ebp-232]
	mov	ecx, 58					; 0000003aH
	mov	eax, -858993460				; ccccccccH
	rep stosd
	pop	ecx
	mov	DWORD PTR _this$[ebp], ecx

; 1456 : 	TFloat32 rescale;
; 1457 : 	TFloat32 scaleSq = Sqrt( e00*e00 + e01*e01 + e02*e02 );

	mov	eax, DWORD PTR _this$[ebp]
	mov	ecx, DWORD PTR _this$[ebp]
	movss	xmm0, DWORD PTR [eax]
	mulss	xmm0, DWORD PTR [ecx]
	mov	edx, DWORD PTR _this$[ebp]
	mov	eax, DWORD PTR _this$[ebp]
	movss	xmm1, DWORD PTR [edx+4]
	mulss	xmm1, DWORD PTR [eax+4]
	addss	xmm0, xmm1
	mov	ecx, DWORD PTR _this$[ebp]
	mov	edx, DWORD PTR _this$[ebp]
	movss	xmm1, DWORD PTR [ecx+8]
	mulss	xmm1, DWORD PTR [edx+8]
	addss	xmm0, xmm1
	push	ecx
	movss	DWORD PTR [esp], xmm0
	call	?Sqrt@gen@@YAMM@Z			; gen::Sqrt
	add	esp, 4
	fstp	DWORD PTR _scaleSq$[ebp]

; 1458 : 	if (!IsZero(scaleSq)) // No effect on zero axes

	push	ecx
	movss	xmm0, DWORD PTR _kfEpsilon
	movss	DWORD PTR [esp], xmm0
	push	ecx
	movss	xmm0, DWORD PTR _scaleSq$[ebp]
	movss	DWORD PTR [esp], xmm0
	call	?IsZero@gen@@YA_NMM@Z			; gen::IsZero
	add	esp, 8
	movzx	eax, al
	test	eax, eax
	jne	SHORT $LN3@SetScale

; 1459 : 	{
; 1460 : 		rescale = fScale * InvSqrt( scaleSq );

	push	ecx
	movss	xmm0, DWORD PTR _scaleSq$[ebp]
	movss	DWORD PTR [esp], xmm0
	call	?InvSqrt@gen@@YAMM@Z			; gen::InvSqrt
	add	esp, 4
	fstp	DWORD PTR tv210[ebp]
	movss	xmm0, DWORD PTR tv210[ebp]
	mulss	xmm0, DWORD PTR _fScale$[ebp]
	movss	DWORD PTR _rescale$[ebp], xmm0

; 1461 : 		e00 *= rescale;

	mov	eax, DWORD PTR _this$[ebp]
	movss	xmm0, DWORD PTR [eax]
	mulss	xmm0, DWORD PTR _rescale$[ebp]
	mov	ecx, DWORD PTR _this$[ebp]
	movss	DWORD PTR [ecx], xmm0

; 1462 : 		e01 *= rescale;

	mov	eax, DWORD PTR _this$[ebp]
	movss	xmm0, DWORD PTR [eax+4]
	mulss	xmm0, DWORD PTR _rescale$[ebp]
	mov	ecx, DWORD PTR _this$[ebp]
	movss	DWORD PTR [ecx+4], xmm0

; 1463 : 		e02 *= rescale;

	mov	eax, DWORD PTR _this$[ebp]
	movss	xmm0, DWORD PTR [eax+8]
	mulss	xmm0, DWORD PTR _rescale$[ebp]
	mov	ecx, DWORD PTR _this$[ebp]
	movss	DWORD PTR [ecx+8], xmm0
$LN3@SetScale:

; 1464 : 	}
; 1465 : 	
; 1466 : 	scaleSq = Sqrt( e10*e10 + e11*e11 + e12*e12 );

	mov	eax, DWORD PTR _this$[ebp]
	mov	ecx, DWORD PTR _this$[ebp]
	movss	xmm0, DWORD PTR [eax+16]
	mulss	xmm0, DWORD PTR [ecx+16]
	mov	edx, DWORD PTR _this$[ebp]
	mov	eax, DWORD PTR _this$[ebp]
	movss	xmm1, DWORD PTR [edx+20]
	mulss	xmm1, DWORD PTR [eax+20]
	addss	xmm0, xmm1
	mov	ecx, DWORD PTR _this$[ebp]
	mov	edx, DWORD PTR _this$[ebp]
	movss	xmm1, DWORD PTR [ecx+24]
	mulss	xmm1, DWORD PTR [edx+24]
	addss	xmm0, xmm1
	push	ecx
	movss	DWORD PTR [esp], xmm0
	call	?Sqrt@gen@@YAMM@Z			; gen::Sqrt
	add	esp, 4
	fstp	DWORD PTR _scaleSq$[ebp]

; 1467 : 	if (!IsZero(scaleSq)) // No effect on zero axes

	push	ecx
	movss	xmm0, DWORD PTR _kfEpsilon
	movss	DWORD PTR [esp], xmm0
	push	ecx
	movss	xmm0, DWORD PTR _scaleSq$[ebp]
	movss	DWORD PTR [esp], xmm0
	call	?IsZero@gen@@YA_NMM@Z			; gen::IsZero
	add	esp, 8
	movzx	eax, al
	test	eax, eax
	jne	SHORT $LN2@SetScale

; 1468 : 	{
; 1469 : 		rescale = fScale * InvSqrt( scaleSq );

	push	ecx
	movss	xmm0, DWORD PTR _scaleSq$[ebp]
	movss	DWORD PTR [esp], xmm0
	call	?InvSqrt@gen@@YAMM@Z			; gen::InvSqrt
	add	esp, 4
	fstp	DWORD PTR tv243[ebp]
	movss	xmm0, DWORD PTR tv243[ebp]
	mulss	xmm0, DWORD PTR _fScale$[ebp]
	movss	DWORD PTR _rescale$[ebp], xmm0

; 1470 : 		e10 *= rescale;

	mov	eax, DWORD PTR _this$[ebp]
	movss	xmm0, DWORD PTR [eax+16]
	mulss	xmm0, DWORD PTR _rescale$[ebp]
	mov	ecx, DWORD PTR _this$[ebp]
	movss	DWORD PTR [ecx+16], xmm0

; 1471 : 		e11 *= rescale;

	mov	eax, DWORD PTR _this$[ebp]
	movss	xmm0, DWORD PTR [eax+20]
	mulss	xmm0, DWORD PTR _rescale$[ebp]
	mov	ecx, DWORD PTR _this$[ebp]
	movss	DWORD PTR [ecx+20], xmm0

; 1472 : 		e12 *= rescale;

	mov	eax, DWORD PTR _this$[ebp]
	movss	xmm0, DWORD PTR [eax+24]
	mulss	xmm0, DWORD PTR _rescale$[ebp]
	mov	ecx, DWORD PTR _this$[ebp]
	movss	DWORD PTR [ecx+24], xmm0
$LN2@SetScale:

; 1473 : 	}
; 1474 : 
; 1475 : 	scaleSq = Sqrt( e20*e20 + e21*e21 + e22*e22 );

	mov	eax, DWORD PTR _this$[ebp]
	mov	ecx, DWORD PTR _this$[ebp]
	movss	xmm0, DWORD PTR [eax+32]
	mulss	xmm0, DWORD PTR [ecx+32]
	mov	edx, DWORD PTR _this$[ebp]
	mov	eax, DWORD PTR _this$[ebp]
	movss	xmm1, DWORD PTR [edx+36]
	mulss	xmm1, DWORD PTR [eax+36]
	addss	xmm0, xmm1
	mov	ecx, DWORD PTR _this$[ebp]
	mov	edx, DWORD PTR _this$[ebp]
	movss	xmm1, DWORD PTR [ecx+40]
	mulss	xmm1, DWORD PTR [edx+40]
	addss	xmm0, xmm1
	push	ecx
	movss	DWORD PTR [esp], xmm0
	call	?Sqrt@gen@@YAMM@Z			; gen::Sqrt
	add	esp, 4
	fstp	DWORD PTR _scaleSq$[ebp]

; 1476 : 	if (!IsZero(scaleSq)) // No effect on zero axes

	push	ecx
	movss	xmm0, DWORD PTR _kfEpsilon
	movss	DWORD PTR [esp], xmm0
	push	ecx
	movss	xmm0, DWORD PTR _scaleSq$[ebp]
	movss	DWORD PTR [esp], xmm0
	call	?IsZero@gen@@YA_NMM@Z			; gen::IsZero
	add	esp, 8
	movzx	eax, al
	test	eax, eax
	jne	SHORT $LN1@SetScale

; 1477 : 	{
; 1478 : 		rescale = fScale * InvSqrt( scaleSq );

	push	ecx
	movss	xmm0, DWORD PTR _scaleSq$[ebp]
	movss	DWORD PTR [esp], xmm0
	call	?InvSqrt@gen@@YAMM@Z			; gen::InvSqrt
	add	esp, 4
	fstp	DWORD PTR tv276[ebp]
	movss	xmm0, DWORD PTR tv276[ebp]
	mulss	xmm0, DWORD PTR _fScale$[ebp]
	movss	DWORD PTR _rescale$[ebp], xmm0

; 1479 : 		e20 *= rescale;

	mov	eax, DWORD PTR _this$[ebp]
	movss	xmm0, DWORD PTR [eax+32]
	mulss	xmm0, DWORD PTR _rescale$[ebp]
	mov	ecx, DWORD PTR _this$[ebp]
	movss	DWORD PTR [ecx+32], xmm0

; 1480 : 		e21 *= rescale;

	mov	eax, DWORD PTR _this$[ebp]
	movss	xmm0, DWORD PTR [eax+36]
	mulss	xmm0, DWORD PTR _rescale$[ebp]
	mov	ecx, DWORD PTR _this$[ebp]
	movss	DWORD PTR [ecx+36], xmm0

; 1481 : 		e22 *= rescale;

	mov	eax, DWORD PTR _this$[ebp]
	movss	xmm0, DWORD PTR [eax+40]
	mulss	xmm0, DWORD PTR _rescale$[ebp]
	mov	ecx, DWORD PTR _this$[ebp]
	movss	DWORD PTR [ecx+40], xmm0
$LN1@SetScale:

; 1482 : 	}
; 1483 : }

	pop	edi
	pop	esi
	pop	ebx
	add	esp, 232				; 000000e8H
	cmp	ebp, esp
	call	__RTC_CheckEsp
	mov	esp, ebp
	pop	ebp
	ret	4
?SetScale@CMatrix4x4@gen@@QAEXM@Z ENDP			; gen::CMatrix4x4::SetScale
_TEXT	ENDS
; Function compile flags: /Odtp /RTCsu /ZI
; File c:\users\simon\documents\github\uclan-sparta\import\math\cmatrix4x4.cpp
;	COMDAT ?SetScale@CMatrix4x4@gen@@QAEXABVCVector3@2@@Z
_TEXT	SEGMENT
tv281 = -232						; size = 4
tv247 = -232						; size = 4
tv213 = -232						; size = 4
_scaleSq$ = -32						; size = 4
_rescale$ = -20						; size = 4
_this$ = -8						; size = 4
_scale$ = 8						; size = 4
?SetScale@CMatrix4x4@gen@@QAEXABVCVector3@2@@Z PROC	; gen::CMatrix4x4::SetScale, COMDAT
; _this$ = ecx

; 1422 : {

	push	ebp
	mov	ebp, esp
	sub	esp, 232				; 000000e8H
	push	ebx
	push	esi
	push	edi
	push	ecx
	lea	edi, DWORD PTR [ebp-232]
	mov	ecx, 58					; 0000003aH
	mov	eax, -858993460				; ccccccccH
	rep stosd
	pop	ecx
	mov	DWORD PTR _this$[ebp], ecx

; 1423 : 	TFloat32 rescale;
; 1424 : 	TFloat32 scaleSq = Sqrt( e00*e00 + e01*e01 + e02*e02 );

	mov	eax, DWORD PTR _this$[ebp]
	mov	ecx, DWORD PTR _this$[ebp]
	movss	xmm0, DWORD PTR [eax]
	mulss	xmm0, DWORD PTR [ecx]
	mov	edx, DWORD PTR _this$[ebp]
	mov	eax, DWORD PTR _this$[ebp]
	movss	xmm1, DWORD PTR [edx+4]
	mulss	xmm1, DWORD PTR [eax+4]
	addss	xmm0, xmm1
	mov	ecx, DWORD PTR _this$[ebp]
	mov	edx, DWORD PTR _this$[ebp]
	movss	xmm1, DWORD PTR [ecx+8]
	mulss	xmm1, DWORD PTR [edx+8]
	addss	xmm0, xmm1
	push	ecx
	movss	DWORD PTR [esp], xmm0
	call	?Sqrt@gen@@YAMM@Z			; gen::Sqrt
	add	esp, 4
	fstp	DWORD PTR _scaleSq$[ebp]

; 1425 : 	if (!IsZero(scaleSq)) // No effect on zero axes

	push	ecx
	movss	xmm0, DWORD PTR _kfEpsilon
	movss	DWORD PTR [esp], xmm0
	push	ecx
	movss	xmm0, DWORD PTR _scaleSq$[ebp]
	movss	DWORD PTR [esp], xmm0
	call	?IsZero@gen@@YA_NMM@Z			; gen::IsZero
	add	esp, 8
	movzx	eax, al
	test	eax, eax
	jne	SHORT $LN3@SetScale

; 1426 : 	{
; 1427 : 		rescale = scale.x * InvSqrt( scaleSq );

	push	ecx
	movss	xmm0, DWORD PTR _scaleSq$[ebp]
	movss	DWORD PTR [esp], xmm0
	call	?InvSqrt@gen@@YAMM@Z			; gen::InvSqrt
	add	esp, 4
	fstp	DWORD PTR tv213[ebp]
	mov	eax, DWORD PTR _scale$[ebp]
	movss	xmm0, DWORD PTR tv213[ebp]
	mulss	xmm0, DWORD PTR [eax]
	movss	DWORD PTR _rescale$[ebp], xmm0

; 1428 : 		e00 *= rescale;

	mov	eax, DWORD PTR _this$[ebp]
	movss	xmm0, DWORD PTR [eax]
	mulss	xmm0, DWORD PTR _rescale$[ebp]
	mov	ecx, DWORD PTR _this$[ebp]
	movss	DWORD PTR [ecx], xmm0

; 1429 : 		e01 *= rescale;

	mov	eax, DWORD PTR _this$[ebp]
	movss	xmm0, DWORD PTR [eax+4]
	mulss	xmm0, DWORD PTR _rescale$[ebp]
	mov	ecx, DWORD PTR _this$[ebp]
	movss	DWORD PTR [ecx+4], xmm0

; 1430 : 		e02 *= rescale;

	mov	eax, DWORD PTR _this$[ebp]
	movss	xmm0, DWORD PTR [eax+8]
	mulss	xmm0, DWORD PTR _rescale$[ebp]
	mov	ecx, DWORD PTR _this$[ebp]
	movss	DWORD PTR [ecx+8], xmm0
$LN3@SetScale:

; 1431 : 	}
; 1432 : 	
; 1433 : 	scaleSq = Sqrt( e10*e10 + e11*e11 + e12*e12 );

	mov	eax, DWORD PTR _this$[ebp]
	mov	ecx, DWORD PTR _this$[ebp]
	movss	xmm0, DWORD PTR [eax+16]
	mulss	xmm0, DWORD PTR [ecx+16]
	mov	edx, DWORD PTR _this$[ebp]
	mov	eax, DWORD PTR _this$[ebp]
	movss	xmm1, DWORD PTR [edx+20]
	mulss	xmm1, DWORD PTR [eax+20]
	addss	xmm0, xmm1
	mov	ecx, DWORD PTR _this$[ebp]
	mov	edx, DWORD PTR _this$[ebp]
	movss	xmm1, DWORD PTR [ecx+24]
	mulss	xmm1, DWORD PTR [edx+24]
	addss	xmm0, xmm1
	push	ecx
	movss	DWORD PTR [esp], xmm0
	call	?Sqrt@gen@@YAMM@Z			; gen::Sqrt
	add	esp, 4
	fstp	DWORD PTR _scaleSq$[ebp]

; 1434 : 	if (!IsZero(scaleSq)) // No effect on zero axes

	push	ecx
	movss	xmm0, DWORD PTR _kfEpsilon
	movss	DWORD PTR [esp], xmm0
	push	ecx
	movss	xmm0, DWORD PTR _scaleSq$[ebp]
	movss	DWORD PTR [esp], xmm0
	call	?IsZero@gen@@YA_NMM@Z			; gen::IsZero
	add	esp, 8
	movzx	eax, al
	test	eax, eax
	jne	SHORT $LN2@SetScale

; 1435 : 	{
; 1436 : 		rescale = scale.y * InvSqrt( scaleSq );

	push	ecx
	movss	xmm0, DWORD PTR _scaleSq$[ebp]
	movss	DWORD PTR [esp], xmm0
	call	?InvSqrt@gen@@YAMM@Z			; gen::InvSqrt
	add	esp, 4
	fstp	DWORD PTR tv247[ebp]
	mov	eax, DWORD PTR _scale$[ebp]
	movss	xmm0, DWORD PTR tv247[ebp]
	mulss	xmm0, DWORD PTR [eax+4]
	movss	DWORD PTR _rescale$[ebp], xmm0

; 1437 : 		e10 *= rescale;

	mov	eax, DWORD PTR _this$[ebp]
	movss	xmm0, DWORD PTR [eax+16]
	mulss	xmm0, DWORD PTR _rescale$[ebp]
	mov	ecx, DWORD PTR _this$[ebp]
	movss	DWORD PTR [ecx+16], xmm0

; 1438 : 		e11 *= rescale;

	mov	eax, DWORD PTR _this$[ebp]
	movss	xmm0, DWORD PTR [eax+20]
	mulss	xmm0, DWORD PTR _rescale$[ebp]
	mov	ecx, DWORD PTR _this$[ebp]
	movss	DWORD PTR [ecx+20], xmm0

; 1439 : 		e12 *= rescale;

	mov	eax, DWORD PTR _this$[ebp]
	movss	xmm0, DWORD PTR [eax+24]
	mulss	xmm0, DWORD PTR _rescale$[ebp]
	mov	ecx, DWORD PTR _this$[ebp]
	movss	DWORD PTR [ecx+24], xmm0
$LN2@SetScale:

; 1440 : 	}
; 1441 : 
; 1442 : 	scaleSq = Sqrt( e20*e20 + e21*e21 + e22*e22 );

	mov	eax, DWORD PTR _this$[ebp]
	mov	ecx, DWORD PTR _this$[ebp]
	movss	xmm0, DWORD PTR [eax+32]
	mulss	xmm0, DWORD PTR [ecx+32]
	mov	edx, DWORD PTR _this$[ebp]
	mov	eax, DWORD PTR _this$[ebp]
	movss	xmm1, DWORD PTR [edx+36]
	mulss	xmm1, DWORD PTR [eax+36]
	addss	xmm0, xmm1
	mov	ecx, DWORD PTR _this$[ebp]
	mov	edx, DWORD PTR _this$[ebp]
	movss	xmm1, DWORD PTR [ecx+40]
	mulss	xmm1, DWORD PTR [edx+40]
	addss	xmm0, xmm1
	push	ecx
	movss	DWORD PTR [esp], xmm0
	call	?Sqrt@gen@@YAMM@Z			; gen::Sqrt
	add	esp, 4
	fstp	DWORD PTR _scaleSq$[ebp]

; 1443 : 	if (!IsZero(scaleSq)) // No effect on zero axes

	push	ecx
	movss	xmm0, DWORD PTR _kfEpsilon
	movss	DWORD PTR [esp], xmm0
	push	ecx
	movss	xmm0, DWORD PTR _scaleSq$[ebp]
	movss	DWORD PTR [esp], xmm0
	call	?IsZero@gen@@YA_NMM@Z			; gen::IsZero
	add	esp, 8
	movzx	eax, al
	test	eax, eax
	jne	SHORT $LN1@SetScale

; 1444 : 	{
; 1445 : 		rescale = scale.z * InvSqrt( scaleSq );

	push	ecx
	movss	xmm0, DWORD PTR _scaleSq$[ebp]
	movss	DWORD PTR [esp], xmm0
	call	?InvSqrt@gen@@YAMM@Z			; gen::InvSqrt
	add	esp, 4
	fstp	DWORD PTR tv281[ebp]
	mov	eax, DWORD PTR _scale$[ebp]
	movss	xmm0, DWORD PTR tv281[ebp]
	mulss	xmm0, DWORD PTR [eax+8]
	movss	DWORD PTR _rescale$[ebp], xmm0

; 1446 : 		e20 *= rescale;

	mov	eax, DWORD PTR _this$[ebp]
	movss	xmm0, DWORD PTR [eax+32]
	mulss	xmm0, DWORD PTR _rescale$[ebp]
	mov	ecx, DWORD PTR _this$[ebp]
	movss	DWORD PTR [ecx+32], xmm0

; 1447 : 		e21 *= rescale;

	mov	eax, DWORD PTR _this$[ebp]
	movss	xmm0, DWORD PTR [eax+36]
	mulss	xmm0, DWORD PTR _rescale$[ebp]
	mov	ecx, DWORD PTR _this$[ebp]
	movss	DWORD PTR [ecx+36], xmm0

; 1448 : 		e22 *= rescale;

	mov	eax, DWORD PTR _this$[ebp]
	movss	xmm0, DWORD PTR [eax+40]
	mulss	xmm0, DWORD PTR _rescale$[ebp]
	mov	ecx, DWORD PTR _this$[ebp]
	movss	DWORD PTR [ecx+40], xmm0
$LN1@SetScale:

; 1449 : 	}
; 1450 : }

	pop	edi
	pop	esi
	pop	ebx
	add	esp, 232				; 000000e8H
	cmp	ebp, esp
	call	__RTC_CheckEsp
	mov	esp, ebp
	pop	ebp
	ret	4
?SetScale@CMatrix4x4@gen@@QAEXABVCVector3@2@@Z ENDP	; gen::CMatrix4x4::SetScale
_TEXT	ENDS
; Function compile flags: /Odtp /RTCsu /ZI
; File c:\users\simon\documents\github\uclan-sparta\import\math\cmatrix4x4.cpp
;	COMDAT ?SetScaleZ@CMatrix4x4@gen@@QAEXM@Z
_TEXT	SEGMENT
tv148 = -232						; size = 4
_rescale$1 = -32					; size = 4
_scaleSq$ = -20						; size = 4
_this$ = -8						; size = 4
_z$ = 8							; size = 4
?SetScaleZ@CMatrix4x4@gen@@QAEXM@Z PROC			; gen::CMatrix4x4::SetScaleZ, COMDAT
; _this$ = ecx

; 1408 : {

	push	ebp
	mov	ebp, esp
	sub	esp, 232				; 000000e8H
	push	ebx
	push	esi
	push	edi
	push	ecx
	lea	edi, DWORD PTR [ebp-232]
	mov	ecx, 58					; 0000003aH
	mov	eax, -858993460				; ccccccccH
	rep stosd
	pop	ecx
	mov	DWORD PTR _this$[ebp], ecx

; 1409 : 	TFloat32 scaleSq = Sqrt( e20*e20 + e21*e21 + e22*e22 );

	mov	eax, DWORD PTR _this$[ebp]
	mov	ecx, DWORD PTR _this$[ebp]
	movss	xmm0, DWORD PTR [eax+32]
	mulss	xmm0, DWORD PTR [ecx+32]
	mov	edx, DWORD PTR _this$[ebp]
	mov	eax, DWORD PTR _this$[ebp]
	movss	xmm1, DWORD PTR [edx+36]
	mulss	xmm1, DWORD PTR [eax+36]
	addss	xmm0, xmm1
	mov	ecx, DWORD PTR _this$[ebp]
	mov	edx, DWORD PTR _this$[ebp]
	movss	xmm1, DWORD PTR [ecx+40]
	mulss	xmm1, DWORD PTR [edx+40]
	addss	xmm0, xmm1
	push	ecx
	movss	DWORD PTR [esp], xmm0
	call	?Sqrt@gen@@YAMM@Z			; gen::Sqrt
	add	esp, 4
	fstp	DWORD PTR _scaleSq$[ebp]

; 1410 : 	if (!IsZero(scaleSq)) // No effect on zero axes

	push	ecx
	movss	xmm0, DWORD PTR _kfEpsilon
	movss	DWORD PTR [esp], xmm0
	push	ecx
	movss	xmm0, DWORD PTR _scaleSq$[ebp]
	movss	DWORD PTR [esp], xmm0
	call	?IsZero@gen@@YA_NMM@Z			; gen::IsZero
	add	esp, 8
	movzx	eax, al
	test	eax, eax
	jne	SHORT $LN1@SetScaleZ

; 1411 : 	{
; 1412 : 		TFloat32 rescale = z * InvSqrt( scaleSq );

	push	ecx
	movss	xmm0, DWORD PTR _scaleSq$[ebp]
	movss	DWORD PTR [esp], xmm0
	call	?InvSqrt@gen@@YAMM@Z			; gen::InvSqrt
	add	esp, 4
	fstp	DWORD PTR tv148[ebp]
	movss	xmm0, DWORD PTR tv148[ebp]
	mulss	xmm0, DWORD PTR _z$[ebp]
	movss	DWORD PTR _rescale$1[ebp], xmm0

; 1413 : 		e20 *= rescale;

	mov	eax, DWORD PTR _this$[ebp]
	movss	xmm0, DWORD PTR [eax+32]
	mulss	xmm0, DWORD PTR _rescale$1[ebp]
	mov	ecx, DWORD PTR _this$[ebp]
	movss	DWORD PTR [ecx+32], xmm0

; 1414 : 		e21 *= rescale;

	mov	eax, DWORD PTR _this$[ebp]
	movss	xmm0, DWORD PTR [eax+36]
	mulss	xmm0, DWORD PTR _rescale$1[ebp]
	mov	ecx, DWORD PTR _this$[ebp]
	movss	DWORD PTR [ecx+36], xmm0

; 1415 : 		e22 *= rescale;

	mov	eax, DWORD PTR _this$[ebp]
	movss	xmm0, DWORD PTR [eax+40]
	mulss	xmm0, DWORD PTR _rescale$1[ebp]
	mov	ecx, DWORD PTR _this$[ebp]
	movss	DWORD PTR [ecx+40], xmm0
$LN1@SetScaleZ:

; 1416 : 	}
; 1417 : }

	pop	edi
	pop	esi
	pop	ebx
	add	esp, 232				; 000000e8H
	cmp	ebp, esp
	call	__RTC_CheckEsp
	mov	esp, ebp
	pop	ebp
	ret	4
?SetScaleZ@CMatrix4x4@gen@@QAEXM@Z ENDP			; gen::CMatrix4x4::SetScaleZ
_TEXT	ENDS
; Function compile flags: /Odtp /RTCsu /ZI
; File c:\users\simon\documents\github\uclan-sparta\import\math\cmatrix4x4.cpp
;	COMDAT ?SetScaleY@CMatrix4x4@gen@@QAEXM@Z
_TEXT	SEGMENT
tv148 = -232						; size = 4
_rescale$1 = -32					; size = 4
_scaleSq$ = -20						; size = 4
_this$ = -8						; size = 4
_y$ = 8							; size = 4
?SetScaleY@CMatrix4x4@gen@@QAEXM@Z PROC			; gen::CMatrix4x4::SetScaleY, COMDAT
; _this$ = ecx

; 1394 : {

	push	ebp
	mov	ebp, esp
	sub	esp, 232				; 000000e8H
	push	ebx
	push	esi
	push	edi
	push	ecx
	lea	edi, DWORD PTR [ebp-232]
	mov	ecx, 58					; 0000003aH
	mov	eax, -858993460				; ccccccccH
	rep stosd
	pop	ecx
	mov	DWORD PTR _this$[ebp], ecx

; 1395 : 	TFloat32 scaleSq = Sqrt( e10*e10 + e11*e11 + e12*e12 );

	mov	eax, DWORD PTR _this$[ebp]
	mov	ecx, DWORD PTR _this$[ebp]
	movss	xmm0, DWORD PTR [eax+16]
	mulss	xmm0, DWORD PTR [ecx+16]
	mov	edx, DWORD PTR _this$[ebp]
	mov	eax, DWORD PTR _this$[ebp]
	movss	xmm1, DWORD PTR [edx+20]
	mulss	xmm1, DWORD PTR [eax+20]
	addss	xmm0, xmm1
	mov	ecx, DWORD PTR _this$[ebp]
	mov	edx, DWORD PTR _this$[ebp]
	movss	xmm1, DWORD PTR [ecx+24]
	mulss	xmm1, DWORD PTR [edx+24]
	addss	xmm0, xmm1
	push	ecx
	movss	DWORD PTR [esp], xmm0
	call	?Sqrt@gen@@YAMM@Z			; gen::Sqrt
	add	esp, 4
	fstp	DWORD PTR _scaleSq$[ebp]

; 1396 : 	if (!IsZero(scaleSq)) // No effect on zero axes

	push	ecx
	movss	xmm0, DWORD PTR _kfEpsilon
	movss	DWORD PTR [esp], xmm0
	push	ecx
	movss	xmm0, DWORD PTR _scaleSq$[ebp]
	movss	DWORD PTR [esp], xmm0
	call	?IsZero@gen@@YA_NMM@Z			; gen::IsZero
	add	esp, 8
	movzx	eax, al
	test	eax, eax
	jne	SHORT $LN1@SetScaleY

; 1397 : 	{
; 1398 : 		TFloat32 rescale = y * InvSqrt( scaleSq );

	push	ecx
	movss	xmm0, DWORD PTR _scaleSq$[ebp]
	movss	DWORD PTR [esp], xmm0
	call	?InvSqrt@gen@@YAMM@Z			; gen::InvSqrt
	add	esp, 4
	fstp	DWORD PTR tv148[ebp]
	movss	xmm0, DWORD PTR tv148[ebp]
	mulss	xmm0, DWORD PTR _y$[ebp]
	movss	DWORD PTR _rescale$1[ebp], xmm0

; 1399 : 		e10 *= rescale;

	mov	eax, DWORD PTR _this$[ebp]
	movss	xmm0, DWORD PTR [eax+16]
	mulss	xmm0, DWORD PTR _rescale$1[ebp]
	mov	ecx, DWORD PTR _this$[ebp]
	movss	DWORD PTR [ecx+16], xmm0

; 1400 : 		e11 *= rescale;

	mov	eax, DWORD PTR _this$[ebp]
	movss	xmm0, DWORD PTR [eax+20]
	mulss	xmm0, DWORD PTR _rescale$1[ebp]
	mov	ecx, DWORD PTR _this$[ebp]
	movss	DWORD PTR [ecx+20], xmm0

; 1401 : 		e12 *= rescale;

	mov	eax, DWORD PTR _this$[ebp]
	movss	xmm0, DWORD PTR [eax+24]
	mulss	xmm0, DWORD PTR _rescale$1[ebp]
	mov	ecx, DWORD PTR _this$[ebp]
	movss	DWORD PTR [ecx+24], xmm0
$LN1@SetScaleY:

; 1402 : 	}
; 1403 : }

	pop	edi
	pop	esi
	pop	ebx
	add	esp, 232				; 000000e8H
	cmp	ebp, esp
	call	__RTC_CheckEsp
	mov	esp, ebp
	pop	ebp
	ret	4
?SetScaleY@CMatrix4x4@gen@@QAEXM@Z ENDP			; gen::CMatrix4x4::SetScaleY
_TEXT	ENDS
; Function compile flags: /Odtp /RTCsu /ZI
; File c:\users\simon\documents\github\uclan-sparta\import\math\cmatrix4x4.cpp
;	COMDAT ?SetScaleX@CMatrix4x4@gen@@QAEXM@Z
_TEXT	SEGMENT
tv148 = -232						; size = 4
_rescale$1 = -32					; size = 4
_scaleSq$ = -20						; size = 4
_this$ = -8						; size = 4
_x$ = 8							; size = 4
?SetScaleX@CMatrix4x4@gen@@QAEXM@Z PROC			; gen::CMatrix4x4::SetScaleX, COMDAT
; _this$ = ecx

; 1380 : {

	push	ebp
	mov	ebp, esp
	sub	esp, 232				; 000000e8H
	push	ebx
	push	esi
	push	edi
	push	ecx
	lea	edi, DWORD PTR [ebp-232]
	mov	ecx, 58					; 0000003aH
	mov	eax, -858993460				; ccccccccH
	rep stosd
	pop	ecx
	mov	DWORD PTR _this$[ebp], ecx

; 1381 : 	TFloat32 scaleSq = Sqrt( e00*e00 + e01*e01 + e02*e02 );

	mov	eax, DWORD PTR _this$[ebp]
	mov	ecx, DWORD PTR _this$[ebp]
	movss	xmm0, DWORD PTR [eax]
	mulss	xmm0, DWORD PTR [ecx]
	mov	edx, DWORD PTR _this$[ebp]
	mov	eax, DWORD PTR _this$[ebp]
	movss	xmm1, DWORD PTR [edx+4]
	mulss	xmm1, DWORD PTR [eax+4]
	addss	xmm0, xmm1
	mov	ecx, DWORD PTR _this$[ebp]
	mov	edx, DWORD PTR _this$[ebp]
	movss	xmm1, DWORD PTR [ecx+8]
	mulss	xmm1, DWORD PTR [edx+8]
	addss	xmm0, xmm1
	push	ecx
	movss	DWORD PTR [esp], xmm0
	call	?Sqrt@gen@@YAMM@Z			; gen::Sqrt
	add	esp, 4
	fstp	DWORD PTR _scaleSq$[ebp]

; 1382 : 	if (!IsZero(scaleSq)) // No effect on zero axes

	push	ecx
	movss	xmm0, DWORD PTR _kfEpsilon
	movss	DWORD PTR [esp], xmm0
	push	ecx
	movss	xmm0, DWORD PTR _scaleSq$[ebp]
	movss	DWORD PTR [esp], xmm0
	call	?IsZero@gen@@YA_NMM@Z			; gen::IsZero
	add	esp, 8
	movzx	eax, al
	test	eax, eax
	jne	SHORT $LN1@SetScaleX

; 1383 : 	{
; 1384 : 		TFloat32 rescale = x * InvSqrt( scaleSq );

	push	ecx
	movss	xmm0, DWORD PTR _scaleSq$[ebp]
	movss	DWORD PTR [esp], xmm0
	call	?InvSqrt@gen@@YAMM@Z			; gen::InvSqrt
	add	esp, 4
	fstp	DWORD PTR tv148[ebp]
	movss	xmm0, DWORD PTR tv148[ebp]
	mulss	xmm0, DWORD PTR _x$[ebp]
	movss	DWORD PTR _rescale$1[ebp], xmm0

; 1385 : 		e00 *= rescale;

	mov	eax, DWORD PTR _this$[ebp]
	movss	xmm0, DWORD PTR [eax]
	mulss	xmm0, DWORD PTR _rescale$1[ebp]
	mov	ecx, DWORD PTR _this$[ebp]
	movss	DWORD PTR [ecx], xmm0

; 1386 : 		e01 *= rescale;

	mov	eax, DWORD PTR _this$[ebp]
	movss	xmm0, DWORD PTR [eax+4]
	mulss	xmm0, DWORD PTR _rescale$1[ebp]
	mov	ecx, DWORD PTR _this$[ebp]
	movss	DWORD PTR [ecx+4], xmm0

; 1387 : 		e02 *= rescale;

	mov	eax, DWORD PTR _this$[ebp]
	movss	xmm0, DWORD PTR [eax+8]
	mulss	xmm0, DWORD PTR _rescale$1[ebp]
	mov	ecx, DWORD PTR _this$[ebp]
	movss	DWORD PTR [ecx+8], xmm0
$LN1@SetScaleX:

; 1388 : 	}
; 1389 : }

	pop	edi
	pop	esi
	pop	ebx
	add	esp, 232				; 000000e8H
	cmp	ebp, esp
	call	__RTC_CheckEsp
	mov	esp, ebp
	pop	ebp
	ret	4
?SetScaleX@CMatrix4x4@gen@@QAEXM@Z ENDP			; gen::CMatrix4x4::SetScaleX
_TEXT	ENDS
; Function compile flags: /Odtp /RTCsu /ZI
; File c:\users\simon\documents\github\uclan-sparta\import\math\cmatrix4x4.cpp
;	COMDAT ?GetScale@CMatrix4x4@gen@@QBE?AVCVector3@2@XZ
_TEXT	SEGMENT
_scale$ = -28						; size = 12
_this$ = -8						; size = 4
___$ReturnUdt$ = 8					; size = 4
?GetScale@CMatrix4x4@gen@@QBE?AVCVector3@2@XZ PROC	; gen::CMatrix4x4::GetScale, COMDAT
; _this$ = ecx

; 1368 : {

	push	ebp
	mov	ebp, esp
	sub	esp, 224				; 000000e0H
	push	ebx
	push	esi
	push	edi
	push	ecx
	lea	edi, DWORD PTR [ebp-224]
	mov	ecx, 56					; 00000038H
	mov	eax, -858993460				; ccccccccH
	rep stosd
	pop	ecx
	mov	DWORD PTR _this$[ebp], ecx

; 1369 : 	CVector3 scale;

	lea	ecx, DWORD PTR _scale$[ebp]
	call	??0CVector3@gen@@QAE@XZ			; gen::CVector3::CVector3

; 1370 : 	scale.x = Sqrt( e00*e00 + e01*e01 + e02*e02 );

	mov	eax, DWORD PTR _this$[ebp]
	mov	ecx, DWORD PTR _this$[ebp]
	movss	xmm0, DWORD PTR [eax]
	mulss	xmm0, DWORD PTR [ecx]
	mov	edx, DWORD PTR _this$[ebp]
	mov	eax, DWORD PTR _this$[ebp]
	movss	xmm1, DWORD PTR [edx+4]
	mulss	xmm1, DWORD PTR [eax+4]
	addss	xmm0, xmm1
	mov	ecx, DWORD PTR _this$[ebp]
	mov	edx, DWORD PTR _this$[ebp]
	movss	xmm1, DWORD PTR [ecx+8]
	mulss	xmm1, DWORD PTR [edx+8]
	addss	xmm0, xmm1
	push	ecx
	movss	DWORD PTR [esp], xmm0
	call	?Sqrt@gen@@YAMM@Z			; gen::Sqrt
	add	esp, 4
	fstp	DWORD PTR _scale$[ebp]

; 1371 : 	scale.y = Sqrt( e10*e10 + e11*e11 + e12*e12 );

	mov	eax, DWORD PTR _this$[ebp]
	mov	ecx, DWORD PTR _this$[ebp]
	movss	xmm0, DWORD PTR [eax+16]
	mulss	xmm0, DWORD PTR [ecx+16]
	mov	edx, DWORD PTR _this$[ebp]
	mov	eax, DWORD PTR _this$[ebp]
	movss	xmm1, DWORD PTR [edx+20]
	mulss	xmm1, DWORD PTR [eax+20]
	addss	xmm0, xmm1
	mov	ecx, DWORD PTR _this$[ebp]
	mov	edx, DWORD PTR _this$[ebp]
	movss	xmm1, DWORD PTR [ecx+24]
	mulss	xmm1, DWORD PTR [edx+24]
	addss	xmm0, xmm1
	push	ecx
	movss	DWORD PTR [esp], xmm0
	call	?Sqrt@gen@@YAMM@Z			; gen::Sqrt
	add	esp, 4
	fstp	DWORD PTR _scale$[ebp+4]

; 1372 : 	scale.z = Sqrt( e20*e20 + e21*e21 + e22*e22 );

	mov	eax, DWORD PTR _this$[ebp]
	mov	ecx, DWORD PTR _this$[ebp]
	movss	xmm0, DWORD PTR [eax+32]
	mulss	xmm0, DWORD PTR [ecx+32]
	mov	edx, DWORD PTR _this$[ebp]
	mov	eax, DWORD PTR _this$[ebp]
	movss	xmm1, DWORD PTR [edx+36]
	mulss	xmm1, DWORD PTR [eax+36]
	addss	xmm0, xmm1
	mov	ecx, DWORD PTR _this$[ebp]
	mov	edx, DWORD PTR _this$[ebp]
	movss	xmm1, DWORD PTR [ecx+40]
	mulss	xmm1, DWORD PTR [edx+40]
	addss	xmm0, xmm1
	push	ecx
	movss	DWORD PTR [esp], xmm0
	call	?Sqrt@gen@@YAMM@Z			; gen::Sqrt
	add	esp, 4
	fstp	DWORD PTR _scale$[ebp+8]

; 1373 : 	return scale;

	lea	eax, DWORD PTR _scale$[ebp]
	push	eax
	mov	ecx, DWORD PTR ___$ReturnUdt$[ebp]
	call	??0CVector3@gen@@QAE@ABV01@@Z		; gen::CVector3::CVector3
	mov	eax, DWORD PTR ___$ReturnUdt$[ebp]

; 1374 : }

	push	edx
	mov	ecx, ebp
	push	eax
	lea	edx, DWORD PTR $LN5@GetScale
	call	@_RTC_CheckStackVars@8
	pop	eax
	pop	edx
	pop	edi
	pop	esi
	pop	ebx
	add	esp, 224				; 000000e0H
	cmp	ebp, esp
	call	__RTC_CheckEsp
	mov	esp, ebp
	pop	ebp
	ret	4
	npad	2
$LN5@GetScale:
	DD	1
	DD	$LN4@GetScale
$LN4@GetScale:
	DD	-28					; ffffffe4H
	DD	12					; 0000000cH
	DD	$LN3@GetScale
$LN3@GetScale:
	DB	115					; 00000073H
	DB	99					; 00000063H
	DB	97					; 00000061H
	DB	108					; 0000006cH
	DB	101					; 00000065H
	DB	0
?GetScale@CMatrix4x4@gen@@QBE?AVCVector3@2@XZ ENDP	; gen::CMatrix4x4::GetScale
_TEXT	ENDS
; Function compile flags: /Odtp /RTCsu /ZI
; File c:\users\simon\documents\github\uclan-sparta\import\math\cmatrix4x4.h
;	COMDAT ?GetPosition@CMatrix4x4@gen@@QBE?AVCVector3@2@XZ
_TEXT	SEGMENT
_this$ = -8						; size = 4
___$ReturnUdt$ = 8					; size = 4
?GetPosition@CMatrix4x4@gen@@QBE?AVCVector3@2@XZ PROC	; gen::CMatrix4x4::GetPosition, COMDAT
; _this$ = ecx

; 457  : 	{

	push	ebp
	mov	ebp, esp
	sub	esp, 204				; 000000ccH
	push	ebx
	push	esi
	push	edi
	push	ecx
	lea	edi, DWORD PTR [ebp-204]
	mov	ecx, 51					; 00000033H
	mov	eax, -858993460				; ccccccccH
	rep stosd
	pop	ecx
	mov	DWORD PTR _this$[ebp], ecx

; 458  : 		return CVector3(e30, e31, e32);

	mov	eax, DWORD PTR _this$[ebp]
	push	ecx
	movss	xmm0, DWORD PTR [eax+56]
	movss	DWORD PTR [esp], xmm0
	mov	ecx, DWORD PTR _this$[ebp]
	push	ecx
	movss	xmm0, DWORD PTR [ecx+52]
	movss	DWORD PTR [esp], xmm0
	mov	edx, DWORD PTR _this$[ebp]
	push	ecx
	movss	xmm0, DWORD PTR [edx+48]
	movss	DWORD PTR [esp], xmm0
	mov	ecx, DWORD PTR ___$ReturnUdt$[ebp]
	call	??0CVector3@gen@@QAE@MMM@Z		; gen::CVector3::CVector3
	mov	eax, DWORD PTR ___$ReturnUdt$[ebp]

; 459  : 	}

	pop	edi
	pop	esi
	pop	ebx
	add	esp, 204				; 000000ccH
	cmp	ebp, esp
	call	__RTC_CheckEsp
	mov	esp, ebp
	pop	ebp
	ret	4
?GetPosition@CMatrix4x4@gen@@QBE?AVCVector3@2@XZ ENDP	; gen::CMatrix4x4::GetPosition
_TEXT	ENDS
; Function compile flags: /Odtp /RTCsu /ZI
; File c:\users\simon\documents\github\uclan-sparta\import\math\cmatrix4x4.cpp
;	COMDAT ?DecomposeAffineAxisAngle@CMatrix4x4@gen@@QBEXPAVCVector3@2@0PAM0@Z
_TEXT	SEGMENT
$T1 = -456						; size = 88
_invMaxAxis$2 = -168					; size = 4
_maxAxis$3 = -156					; size = 4
_angle$4 = -144						; size = 4
_cosAngle$5 = -132					; size = 4
_diagZ$6 = -120						; size = 4
_diagY$7 = -108						; size = 4
_diagX$8 = -96						; size = 4
_invScaleZ$9 = -84					; size = 4
_invScaleY$10 = -72					; size = 4
_invScaleX$11 = -60					; size = 4
_scaleZ$ = -48						; size = 4
_scaleY$ = -36						; size = 4
_scaleX$ = -24						; size = 4
_this$ = -12						; size = 4
__$ArrayPad$ = -4					; size = 4
_pPosition$ = 8						; size = 4
_pAxis$ = 12						; size = 4
_pfAngle$ = 16						; size = 4
_pScale$ = 20						; size = 4
?DecomposeAffineAxisAngle@CMatrix4x4@gen@@QBEXPAVCVector3@2@0PAM0@Z PROC ; gen::CMatrix4x4::DecomposeAffineAxisAngle, COMDAT
; _this$ = ecx

; 1253 : {

	push	ebp
	mov	ebp, esp
	sub	esp, 460				; 000001ccH
	push	ebx
	push	esi
	push	edi
	push	ecx
	lea	edi, DWORD PTR [ebp-460]
	mov	ecx, 115				; 00000073H
	mov	eax, -858993460				; ccccccccH
	rep stosd
	pop	ecx
	mov	eax, DWORD PTR ___security_cookie
	xor	eax, ebp
	mov	DWORD PTR __$ArrayPad$[ebp], eax
	mov	DWORD PTR _this$[ebp], ecx

; 1254 : 	// Get position if required
; 1255 : 	if (pPosition)

	cmp	DWORD PTR _pPosition$[ebp], 0
	je	SHORT $LN18@DecomposeA

; 1256 : 	{
; 1257 : 		pPosition->x = e30;

	mov	eax, DWORD PTR _pPosition$[ebp]
	mov	ecx, DWORD PTR _this$[ebp]
	mov	edx, DWORD PTR [ecx+48]
	mov	DWORD PTR [eax], edx

; 1258 : 		pPosition->y = e31;

	mov	eax, DWORD PTR _pPosition$[ebp]
	mov	ecx, DWORD PTR _this$[ebp]
	mov	edx, DWORD PTR [ecx+52]
	mov	DWORD PTR [eax+4], edx

; 1259 : 		pPosition->z = e32;

	mov	eax, DWORD PTR _pPosition$[ebp]
	mov	ecx, DWORD PTR _this$[ebp]
	mov	edx, DWORD PTR [ecx+56]
	mov	DWORD PTR [eax+8], edx
$LN18@DecomposeA:

; 1260 : 	}
; 1261 : 
; 1262 : 	// Calculate matrix scaling
; 1263 : 	TFloat32 scaleX = Sqrt( e00*e00 + e01*e01 + e02*e02 );

	mov	eax, DWORD PTR _this$[ebp]
	mov	ecx, DWORD PTR _this$[ebp]
	movss	xmm0, DWORD PTR [eax]
	mulss	xmm0, DWORD PTR [ecx]
	mov	edx, DWORD PTR _this$[ebp]
	mov	eax, DWORD PTR _this$[ebp]
	movss	xmm1, DWORD PTR [edx+4]
	mulss	xmm1, DWORD PTR [eax+4]
	addss	xmm0, xmm1
	mov	ecx, DWORD PTR _this$[ebp]
	mov	edx, DWORD PTR _this$[ebp]
	movss	xmm1, DWORD PTR [ecx+8]
	mulss	xmm1, DWORD PTR [edx+8]
	addss	xmm0, xmm1
	push	ecx
	movss	DWORD PTR [esp], xmm0
	call	?Sqrt@gen@@YAMM@Z			; gen::Sqrt
	add	esp, 4
	fstp	DWORD PTR _scaleX$[ebp]

; 1264 : 	TFloat32 scaleY = Sqrt( e10*e10 + e11*e11 + e12*e12 );

	mov	eax, DWORD PTR _this$[ebp]
	mov	ecx, DWORD PTR _this$[ebp]
	movss	xmm0, DWORD PTR [eax+16]
	mulss	xmm0, DWORD PTR [ecx+16]
	mov	edx, DWORD PTR _this$[ebp]
	mov	eax, DWORD PTR _this$[ebp]
	movss	xmm1, DWORD PTR [edx+20]
	mulss	xmm1, DWORD PTR [eax+20]
	addss	xmm0, xmm1
	mov	ecx, DWORD PTR _this$[ebp]
	mov	edx, DWORD PTR _this$[ebp]
	movss	xmm1, DWORD PTR [ecx+24]
	mulss	xmm1, DWORD PTR [edx+24]
	addss	xmm0, xmm1
	push	ecx
	movss	DWORD PTR [esp], xmm0
	call	?Sqrt@gen@@YAMM@Z			; gen::Sqrt
	add	esp, 4
	fstp	DWORD PTR _scaleY$[ebp]

; 1265 : 	TFloat32 scaleZ = Sqrt( e20*e20 + e21*e21 + e22*e22 );

	mov	eax, DWORD PTR _this$[ebp]
	mov	ecx, DWORD PTR _this$[ebp]
	movss	xmm0, DWORD PTR [eax+32]
	mulss	xmm0, DWORD PTR [ecx+32]
	mov	edx, DWORD PTR _this$[ebp]
	mov	eax, DWORD PTR _this$[ebp]
	movss	xmm1, DWORD PTR [edx+36]
	mulss	xmm1, DWORD PTR [eax+36]
	addss	xmm0, xmm1
	mov	ecx, DWORD PTR _this$[ebp]
	mov	edx, DWORD PTR _this$[ebp]
	movss	xmm1, DWORD PTR [ecx+40]
	mulss	xmm1, DWORD PTR [edx+40]
	addss	xmm0, xmm1
	push	ecx
	movss	DWORD PTR [esp], xmm0
	call	?Sqrt@gen@@YAMM@Z			; gen::Sqrt
	add	esp, 4
	fstp	DWORD PTR _scaleZ$[ebp]

; 1266 : 
; 1267 : 	// Return angle/axis if required
; 1268 : 	if (pAxis || pfAngle)

	cmp	DWORD PTR _pAxis$[ebp], 0
	jne	SHORT $LN16@DecomposeA
	cmp	DWORD PTR _pfAngle$[ebp], 0
	je	$LN2@DecomposeA
$LN16@DecomposeA:

; 1269 : 	{
; 1270 : 		// Calculate inverse scaling to extract rotational values only
; 1271 : 		GEN_ASSERT( !IsZero(scaleX) && !IsZero(scaleY) && !IsZero(scaleZ), "Singular matrix" );

	push	ecx
	movss	xmm0, DWORD PTR _kfEpsilon
	movss	DWORD PTR [esp], xmm0
	push	ecx
	movss	xmm0, DWORD PTR _scaleX$[ebp]
	movss	DWORD PTR [esp], xmm0
	call	?IsZero@gen@@YA_NMM@Z			; gen::IsZero
	add	esp, 8
	movzx	eax, al
	test	eax, eax
	jne	SHORT $LN14@DecomposeA
	push	ecx
	movss	xmm0, DWORD PTR _kfEpsilon
	movss	DWORD PTR [esp], xmm0
	push	ecx
	movss	xmm0, DWORD PTR _scaleY$[ebp]
	movss	DWORD PTR [esp], xmm0
	call	?IsZero@gen@@YA_NMM@Z			; gen::IsZero
	add	esp, 8
	movzx	eax, al
	test	eax, eax
	jne	SHORT $LN14@DecomposeA
	push	ecx
	movss	xmm0, DWORD PTR _kfEpsilon
	movss	DWORD PTR [esp], xmm0
	push	ecx
	movss	xmm0, DWORD PTR _scaleZ$[ebp]
	movss	DWORD PTR [esp], xmm0
	call	?IsZero@gen@@YA_NMM@Z			; gen::IsZero
	add	esp, 8
	movzx	eax, al
	test	eax, eax
	je	SHORT $LN15@DecomposeA
$LN14@DecomposeA:
	mov	eax, DWORD PTR ?__LINE__Var@?1??DecomposeAffineAxisAngle@CMatrix4x4@gen@@QBEXPAVCVector3@3@0PAM0@Z@4JA
	add	eax, 18					; 00000012H
	push	eax
	push	OFFSET ??_C@_0EI@POGHFJCD@c?3?2users?2simon?2documents?2github?2@
	push	OFFSET ??_C@_0BA@EJDDFENM@Singular?5matrix?$AA@
	lea	ecx, DWORD PTR $T1[ebp]
	call	??0CFatalException@gen@@QAE@PBD0H@Z	; gen::CFatalException::CFatalException
	push	OFFSET __TI1?AVCFatalException@gen@@
	lea	ecx, DWORD PTR $T1[ebp]
	push	ecx
	call	__CxxThrowException@8
$LN15@DecomposeA:

; 1272 : 		TFloat32 invScaleX = 1.0f / scaleX;

	movss	xmm0, DWORD PTR __real@3f800000
	divss	xmm0, DWORD PTR _scaleX$[ebp]
	movss	DWORD PTR _invScaleX$11[ebp], xmm0

; 1273 : 		TFloat32 invScaleY = 1.0f / scaleY;

	movss	xmm0, DWORD PTR __real@3f800000
	divss	xmm0, DWORD PTR _scaleY$[ebp]
	movss	DWORD PTR _invScaleY$10[ebp], xmm0

; 1274 : 		TFloat32 invScaleZ = 1.0f / scaleZ;

	movss	xmm0, DWORD PTR __real@3f800000
	divss	xmm0, DWORD PTR _scaleZ$[ebp]
	movss	DWORD PTR _invScaleZ$9[ebp], xmm0

; 1275 : 
; 1276 : 		// Calculate rotation using trace of matrix (the sum of diagonal elements) 
; 1277 : 		TFloat32 diagX = e00 * invScaleX; // Remove scaling

	mov	eax, DWORD PTR _this$[ebp]
	movss	xmm0, DWORD PTR [eax]
	mulss	xmm0, DWORD PTR _invScaleX$11[ebp]
	movss	DWORD PTR _diagX$8[ebp], xmm0

; 1278 : 		TFloat32 diagY = e11 * invScaleY;

	mov	eax, DWORD PTR _this$[ebp]
	movss	xmm0, DWORD PTR [eax+20]
	mulss	xmm0, DWORD PTR _invScaleY$10[ebp]
	movss	DWORD PTR _diagY$7[ebp], xmm0

; 1279 : 		TFloat32 diagZ = e22 * invScaleZ;

	mov	eax, DWORD PTR _this$[ebp]
	movss	xmm0, DWORD PTR [eax+40]
	mulss	xmm0, DWORD PTR _invScaleZ$9[ebp]
	movss	DWORD PTR _diagZ$6[ebp], xmm0

; 1280 : 		TFloat32 cosAngle = (diagX + diagY + diagZ - 1.0f) * 0.5f;

	movss	xmm0, DWORD PTR _diagX$8[ebp]
	addss	xmm0, DWORD PTR _diagY$7[ebp]
	addss	xmm0, DWORD PTR _diagZ$6[ebp]
	subss	xmm0, DWORD PTR __real@3f800000
	mulss	xmm0, DWORD PTR __real@3f000000
	movss	DWORD PTR _cosAngle$5[ebp], xmm0

; 1281 : 		TFloat32 angle = ACos( cosAngle );

	push	ecx
	movss	xmm0, DWORD PTR _cosAngle$5[ebp]
	movss	DWORD PTR [esp], xmm0
	call	?ACos@gen@@YAMM@Z			; gen::ACos
	add	esp, 4
	fstp	DWORD PTR _angle$4[ebp]

; 1282 : 
; 1283 : 		// Return angle if required
; 1284 : 		if (pfAngle)

	cmp	DWORD PTR _pfAngle$[ebp], 0
	je	SHORT $LN13@DecomposeA

; 1285 : 		{
; 1286 : 			*pfAngle = angle;

	mov	eax, DWORD PTR _pfAngle$[ebp]
	movss	xmm0, DWORD PTR _angle$4[ebp]
	movss	DWORD PTR [eax], xmm0
$LN13@DecomposeA:

; 1287 : 		}
; 1288 : 
; 1289 : 		// Get axis if required
; 1290 : 		if (pAxis)

	cmp	DWORD PTR _pAxis$[ebp], 0
	je	$LN2@DecomposeA

; 1291 : 		{
; 1292 : 			// Rotation of 0 gives free choice of axis
; 1293 : 			if (IsZero( angle ))

	push	ecx
	movss	xmm0, DWORD PTR _kfEpsilon
	movss	DWORD PTR [esp], xmm0
	push	ecx
	movss	xmm0, DWORD PTR _angle$4[ebp]
	movss	DWORD PTR [esp], xmm0
	call	?IsZero@gen@@YA_NMM@Z			; gen::IsZero
	add	esp, 8
	movzx	eax, al
	test	eax, eax
	je	SHORT $LN11@DecomposeA

; 1294 : 			{
; 1295 : 				*pAxis = CVector3::kZAxis;

	push	OFFSET ?kZAxis@CVector3@gen@@2V12@B	; gen::CVector3::kZAxis
	mov	ecx, DWORD PTR _pAxis$[ebp]
	call	??4CVector3@gen@@QAEAAV01@ABV01@@Z	; gen::CVector3::operator=
	jmp	$LN2@DecomposeA
$LN11@DecomposeA:

; 1296 : 			}
; 1297 : 
; 1298 : 			// Otherwise if rotation is not 180 degrees...
; 1299 : 			else if (!IsZero( angle - kfPi ))

	push	ecx
	movss	xmm0, DWORD PTR _kfEpsilon
	movss	DWORD PTR [esp], xmm0
	movss	xmm0, DWORD PTR _angle$4[ebp]
	subss	xmm0, DWORD PTR _kfPi
	push	ecx
	movss	DWORD PTR [esp], xmm0
	call	?IsZero@gen@@YA_NMM@Z			; gen::IsZero
	add	esp, 8
	movzx	eax, al
	test	eax, eax
	jne	$LN9@DecomposeA

; 1300 : 			{
; 1301 : 				pAxis->Set( e12 * invScaleY - e21 * invScaleZ, 
; 1302 : 				            e20 * invScaleZ - e02 * invScaleX,
; 1303 : 							e01 * invScaleX - e10 * invScaleY );

	mov	eax, DWORD PTR _this$[ebp]
	movss	xmm0, DWORD PTR [eax+4]
	mulss	xmm0, DWORD PTR _invScaleX$11[ebp]
	mov	ecx, DWORD PTR _this$[ebp]
	movss	xmm1, DWORD PTR [ecx+16]
	mulss	xmm1, DWORD PTR _invScaleY$10[ebp]
	subss	xmm0, xmm1
	push	ecx
	movss	DWORD PTR [esp], xmm0
	mov	edx, DWORD PTR _this$[ebp]
	movss	xmm0, DWORD PTR [edx+32]
	mulss	xmm0, DWORD PTR _invScaleZ$9[ebp]
	mov	eax, DWORD PTR _this$[ebp]
	movss	xmm1, DWORD PTR [eax+8]
	mulss	xmm1, DWORD PTR _invScaleX$11[ebp]
	subss	xmm0, xmm1
	push	ecx
	movss	DWORD PTR [esp], xmm0
	mov	ecx, DWORD PTR _this$[ebp]
	movss	xmm0, DWORD PTR [ecx+24]
	mulss	xmm0, DWORD PTR _invScaleY$10[ebp]
	mov	edx, DWORD PTR _this$[ebp]
	movss	xmm1, DWORD PTR [edx+36]
	mulss	xmm1, DWORD PTR _invScaleZ$9[ebp]
	subss	xmm0, xmm1
	push	ecx
	movss	DWORD PTR [esp], xmm0
	mov	ecx, DWORD PTR _pAxis$[ebp]
	call	?Set@CVector3@gen@@QAEXMMM@Z		; gen::CVector3::Set

; 1304 : 				pAxis->Normalise();

	mov	ecx, DWORD PTR _pAxis$[ebp]
	call	?Normalise@CVector3@gen@@QAEXXZ		; gen::CVector3::Normalise

; 1305 : 			}
; 1306 : 
; 1307 : 			// Or if rotation is 180 degrees
; 1308 : 			else

	jmp	$LN2@DecomposeA
$LN9@DecomposeA:

; 1309 : 			{
; 1310 : 				// Find largest x,y or z axis component by manipulating diagonal elts
; 1311 : 				TFloat32 maxAxis, invMaxAxis;
; 1312 : 				if (diagX > diagY)

	movss	xmm0, DWORD PTR _diagX$8[ebp]
	comiss	xmm0, DWORD PTR _diagY$7[ebp]
	jbe	$LN7@DecomposeA

; 1313 : 				{
; 1314 : 					if (diagX > diagZ)

	movss	xmm0, DWORD PTR _diagX$8[ebp]
	comiss	xmm0, DWORD PTR _diagZ$6[ebp]
	jbe	$LN6@DecomposeA

; 1315 : 					{
; 1316 : 						maxAxis = Sqrt(diagX - diagY - diagZ + 1.0f);

	movss	xmm0, DWORD PTR _diagX$8[ebp]
	subss	xmm0, DWORD PTR _diagY$7[ebp]
	subss	xmm0, DWORD PTR _diagZ$6[ebp]
	addss	xmm0, DWORD PTR __real@3f800000
	push	ecx
	movss	DWORD PTR [esp], xmm0
	call	?Sqrt@gen@@YAMM@Z			; gen::Sqrt
	add	esp, 4
	fstp	DWORD PTR _maxAxis$3[ebp]

; 1317 : 						pAxis->x = 0.5f * maxAxis;

	movss	xmm0, DWORD PTR __real@3f000000
	mulss	xmm0, DWORD PTR _maxAxis$3[ebp]
	mov	eax, DWORD PTR _pAxis$[ebp]
	movss	DWORD PTR [eax], xmm0

; 1318 : 						// Use this component to calculate others using other matrix elts
; 1319 : 						invMaxAxis = 1.0f / maxAxis;

	movss	xmm0, DWORD PTR __real@3f800000
	divss	xmm0, DWORD PTR _maxAxis$3[ebp]
	movss	DWORD PTR _invMaxAxis$2[ebp], xmm0

; 1320 : 						pAxis->y = e01 * invMaxAxis;

	mov	eax, DWORD PTR _this$[ebp]
	movss	xmm0, DWORD PTR [eax+4]
	mulss	xmm0, DWORD PTR _invMaxAxis$2[ebp]
	mov	ecx, DWORD PTR _pAxis$[ebp]
	movss	DWORD PTR [ecx+4], xmm0

; 1321 : 						pAxis->z = e02 * invMaxAxis;

	mov	eax, DWORD PTR _this$[ebp]
	movss	xmm0, DWORD PTR [eax+8]
	mulss	xmm0, DWORD PTR _invMaxAxis$2[ebp]
	mov	ecx, DWORD PTR _pAxis$[ebp]
	movss	DWORD PTR [ecx+8], xmm0

; 1322 : 					}
; 1323 : 					else

	jmp	$LN5@DecomposeA
$LN6@DecomposeA:

; 1324 : 					{
; 1325 : 						maxAxis = Sqrt(diagZ - diagX - diagY + 1.0f);

	movss	xmm0, DWORD PTR _diagZ$6[ebp]
	subss	xmm0, DWORD PTR _diagX$8[ebp]
	subss	xmm0, DWORD PTR _diagY$7[ebp]
	addss	xmm0, DWORD PTR __real@3f800000
	push	ecx
	movss	DWORD PTR [esp], xmm0
	call	?Sqrt@gen@@YAMM@Z			; gen::Sqrt
	add	esp, 4
	fstp	DWORD PTR _maxAxis$3[ebp]

; 1326 : 						pAxis->z = 0.5f * maxAxis;

	movss	xmm0, DWORD PTR __real@3f000000
	mulss	xmm0, DWORD PTR _maxAxis$3[ebp]
	mov	eax, DWORD PTR _pAxis$[ebp]
	movss	DWORD PTR [eax+8], xmm0

; 1327 : 						invMaxAxis = 1.0f / maxAxis;

	movss	xmm0, DWORD PTR __real@3f800000
	divss	xmm0, DWORD PTR _maxAxis$3[ebp]
	movss	DWORD PTR _invMaxAxis$2[ebp], xmm0

; 1328 : 						pAxis->x = e02 * invMaxAxis;

	mov	eax, DWORD PTR _this$[ebp]
	movss	xmm0, DWORD PTR [eax+8]
	mulss	xmm0, DWORD PTR _invMaxAxis$2[ebp]
	mov	ecx, DWORD PTR _pAxis$[ebp]
	movss	DWORD PTR [ecx], xmm0

; 1329 : 						pAxis->y = e12 * invMaxAxis;

	mov	eax, DWORD PTR _this$[ebp]
	movss	xmm0, DWORD PTR [eax+24]
	mulss	xmm0, DWORD PTR _invMaxAxis$2[ebp]
	mov	ecx, DWORD PTR _pAxis$[ebp]
	movss	DWORD PTR [ecx+4], xmm0
$LN5@DecomposeA:

; 1330 : 					}

	jmp	$LN2@DecomposeA
$LN7@DecomposeA:

; 1331 : 				}
; 1332 : 				else if (diagY > diagZ)

	movss	xmm0, DWORD PTR _diagY$7[ebp]
	comiss	xmm0, DWORD PTR _diagZ$6[ebp]
	jbe	$LN3@DecomposeA

; 1333 : 				{
; 1334 : 					maxAxis = Sqrt(diagY - diagZ - diagX + 1.0f);

	movss	xmm0, DWORD PTR _diagY$7[ebp]
	subss	xmm0, DWORD PTR _diagZ$6[ebp]
	subss	xmm0, DWORD PTR _diagX$8[ebp]
	addss	xmm0, DWORD PTR __real@3f800000
	push	ecx
	movss	DWORD PTR [esp], xmm0
	call	?Sqrt@gen@@YAMM@Z			; gen::Sqrt
	add	esp, 4
	fstp	DWORD PTR _maxAxis$3[ebp]

; 1335 : 					pAxis->y = 0.5f * maxAxis;

	movss	xmm0, DWORD PTR __real@3f000000
	mulss	xmm0, DWORD PTR _maxAxis$3[ebp]
	mov	eax, DWORD PTR _pAxis$[ebp]
	movss	DWORD PTR [eax+4], xmm0

; 1336 : 					invMaxAxis = 1.0f / maxAxis;

	movss	xmm0, DWORD PTR __real@3f800000
	divss	xmm0, DWORD PTR _maxAxis$3[ebp]
	movss	DWORD PTR _invMaxAxis$2[ebp], xmm0

; 1337 : 					pAxis->x = e01 * invMaxAxis;

	mov	eax, DWORD PTR _this$[ebp]
	movss	xmm0, DWORD PTR [eax+4]
	mulss	xmm0, DWORD PTR _invMaxAxis$2[ebp]
	mov	ecx, DWORD PTR _pAxis$[ebp]
	movss	DWORD PTR [ecx], xmm0

; 1338 : 					pAxis->z = e12 * invMaxAxis;

	mov	eax, DWORD PTR _this$[ebp]
	movss	xmm0, DWORD PTR [eax+24]
	mulss	xmm0, DWORD PTR _invMaxAxis$2[ebp]
	mov	ecx, DWORD PTR _pAxis$[ebp]
	movss	DWORD PTR [ecx+8], xmm0

; 1339 : 				}
; 1340 : 				else

	jmp	$LN2@DecomposeA
$LN3@DecomposeA:

; 1341 : 				{
; 1342 : 					maxAxis = Sqrt(diagZ - diagX - diagY + 1.0f);

	movss	xmm0, DWORD PTR _diagZ$6[ebp]
	subss	xmm0, DWORD PTR _diagX$8[ebp]
	subss	xmm0, DWORD PTR _diagY$7[ebp]
	addss	xmm0, DWORD PTR __real@3f800000
	push	ecx
	movss	DWORD PTR [esp], xmm0
	call	?Sqrt@gen@@YAMM@Z			; gen::Sqrt
	add	esp, 4
	fstp	DWORD PTR _maxAxis$3[ebp]

; 1343 : 					pAxis->z = 0.5f * maxAxis;

	movss	xmm0, DWORD PTR __real@3f000000
	mulss	xmm0, DWORD PTR _maxAxis$3[ebp]
	mov	eax, DWORD PTR _pAxis$[ebp]
	movss	DWORD PTR [eax+8], xmm0

; 1344 : 					invMaxAxis = 1.0f / maxAxis;

	movss	xmm0, DWORD PTR __real@3f800000
	divss	xmm0, DWORD PTR _maxAxis$3[ebp]
	movss	DWORD PTR _invMaxAxis$2[ebp], xmm0

; 1345 : 					pAxis->x = e02 * invMaxAxis;

	mov	eax, DWORD PTR _this$[ebp]
	movss	xmm0, DWORD PTR [eax+8]
	mulss	xmm0, DWORD PTR _invMaxAxis$2[ebp]
	mov	ecx, DWORD PTR _pAxis$[ebp]
	movss	DWORD PTR [ecx], xmm0

; 1346 : 					pAxis->y = e12 * invMaxAxis;

	mov	eax, DWORD PTR _this$[ebp]
	movss	xmm0, DWORD PTR [eax+24]
	mulss	xmm0, DWORD PTR _invMaxAxis$2[ebp]
	mov	ecx, DWORD PTR _pAxis$[ebp]
	movss	DWORD PTR [ecx+4], xmm0
$LN2@DecomposeA:

; 1347 : 				}
; 1348 : 			}
; 1349 : 		}
; 1350 : 	}
; 1351 : 
; 1352 : 	// Get scale if required
; 1353 : 	if (pScale)

	cmp	DWORD PTR _pScale$[ebp], 0
	je	SHORT $LN1@DecomposeA

; 1354 : 	{
; 1355 : 		pScale->x = scaleX;

	mov	eax, DWORD PTR _pScale$[ebp]
	movss	xmm0, DWORD PTR _scaleX$[ebp]
	movss	DWORD PTR [eax], xmm0

; 1356 : 		pScale->y = scaleY;

	mov	eax, DWORD PTR _pScale$[ebp]
	movss	xmm0, DWORD PTR _scaleY$[ebp]
	movss	DWORD PTR [eax+4], xmm0

; 1357 : 		pScale->z = scaleZ;

	mov	eax, DWORD PTR _pScale$[ebp]
	movss	xmm0, DWORD PTR _scaleZ$[ebp]
	movss	DWORD PTR [eax+8], xmm0
$LN1@DecomposeA:
$LN19@DecomposeA:

; 1358 : 	}
; 1359 : }

	pop	edi
	pop	esi
	pop	ebx
	mov	ecx, DWORD PTR __$ArrayPad$[ebp]
	xor	ecx, ebp
	call	@__security_check_cookie@4
	add	esp, 460				; 000001ccH
	cmp	ebp, esp
	call	__RTC_CheckEsp
	mov	esp, ebp
	pop	ebp
	ret	16					; 00000010H
?DecomposeAffineAxisAngle@CMatrix4x4@gen@@QBEXPAVCVector3@2@0PAM0@Z ENDP ; gen::CMatrix4x4::DecomposeAffineAxisAngle
_TEXT	ENDS
; Function compile flags: /Odtp /RTCsu /ZI
; File c:\users\simon\documents\github\uclan-sparta\import\math\cmatrix4x4.cpp
;	COMDAT ?DecomposeAffineQuaternion@CMatrix4x4@gen@@QBEXPAVCVector3@2@PAVCQuaternion@2@0@Z
_TEXT	SEGMENT
$T1 = -468						; size = 88
_invMaxAxis$2 = -180					; size = 4
_maxAxis$3 = -168					; size = 4
_invCosAng$4 = -156					; size = 4
_cosAng$5 = -144					; size = 4
_trace$6 = -132						; size = 4
_diagZ$7 = -120						; size = 4
_diagY$8 = -108						; size = 4
_diagX$9 = -96						; size = 4
_invScaleZ$10 = -84					; size = 4
_invScaleY$11 = -72					; size = 4
_invScaleX$12 = -60					; size = 4
_scaleZ$ = -48						; size = 4
_scaleY$ = -36						; size = 4
_scaleX$ = -24						; size = 4
_this$ = -12						; size = 4
__$ArrayPad$ = -4					; size = 4
_pPosition$ = 8						; size = 4
_pQuat$ = 12						; size = 4
_pScale$ = 16						; size = 4
?DecomposeAffineQuaternion@CMatrix4x4@gen@@QBEXPAVCVector3@2@PAVCQuaternion@2@0@Z PROC ; gen::CMatrix4x4::DecomposeAffineQuaternion, COMDAT
; _this$ = ecx

; 1148 : {

	push	ebp
	mov	ebp, esp
	sub	esp, 472				; 000001d8H
	push	ebx
	push	esi
	push	edi
	push	ecx
	lea	edi, DWORD PTR [ebp-472]
	mov	ecx, 118				; 00000076H
	mov	eax, -858993460				; ccccccccH
	rep stosd
	pop	ecx
	mov	eax, DWORD PTR ___security_cookie
	xor	eax, ebp
	mov	DWORD PTR __$ArrayPad$[ebp], eax
	mov	DWORD PTR _this$[ebp], ecx

; 1149 : 	// Get position if required
; 1150 : 	if (pPosition)

	cmp	DWORD PTR _pPosition$[ebp], 0
	je	SHORT $LN13@DecomposeA

; 1151 : 	{
; 1152 : 		pPosition->x = e30;

	mov	eax, DWORD PTR _pPosition$[ebp]
	mov	ecx, DWORD PTR _this$[ebp]
	mov	edx, DWORD PTR [ecx+48]
	mov	DWORD PTR [eax], edx

; 1153 : 		pPosition->y = e31;

	mov	eax, DWORD PTR _pPosition$[ebp]
	mov	ecx, DWORD PTR _this$[ebp]
	mov	edx, DWORD PTR [ecx+52]
	mov	DWORD PTR [eax+4], edx

; 1154 : 		pPosition->z = e32;

	mov	eax, DWORD PTR _pPosition$[ebp]
	mov	ecx, DWORD PTR _this$[ebp]
	mov	edx, DWORD PTR [ecx+56]
	mov	DWORD PTR [eax+8], edx
$LN13@DecomposeA:

; 1155 : 	}
; 1156 : 
; 1157 : 	// Calculate matrix scaling
; 1158 : 	TFloat32 scaleX = Sqrt( e00*e00 + e01*e01 + e02*e02 );

	mov	eax, DWORD PTR _this$[ebp]
	mov	ecx, DWORD PTR _this$[ebp]
	movss	xmm0, DWORD PTR [eax]
	mulss	xmm0, DWORD PTR [ecx]
	mov	edx, DWORD PTR _this$[ebp]
	mov	eax, DWORD PTR _this$[ebp]
	movss	xmm1, DWORD PTR [edx+4]
	mulss	xmm1, DWORD PTR [eax+4]
	addss	xmm0, xmm1
	mov	ecx, DWORD PTR _this$[ebp]
	mov	edx, DWORD PTR _this$[ebp]
	movss	xmm1, DWORD PTR [ecx+8]
	mulss	xmm1, DWORD PTR [edx+8]
	addss	xmm0, xmm1
	push	ecx
	movss	DWORD PTR [esp], xmm0
	call	?Sqrt@gen@@YAMM@Z			; gen::Sqrt
	add	esp, 4
	fstp	DWORD PTR _scaleX$[ebp]

; 1159 : 	TFloat32 scaleY = Sqrt( e10*e10 + e11*e11 + e12*e12 );

	mov	eax, DWORD PTR _this$[ebp]
	mov	ecx, DWORD PTR _this$[ebp]
	movss	xmm0, DWORD PTR [eax+16]
	mulss	xmm0, DWORD PTR [ecx+16]
	mov	edx, DWORD PTR _this$[ebp]
	mov	eax, DWORD PTR _this$[ebp]
	movss	xmm1, DWORD PTR [edx+20]
	mulss	xmm1, DWORD PTR [eax+20]
	addss	xmm0, xmm1
	mov	ecx, DWORD PTR _this$[ebp]
	mov	edx, DWORD PTR _this$[ebp]
	movss	xmm1, DWORD PTR [ecx+24]
	mulss	xmm1, DWORD PTR [edx+24]
	addss	xmm0, xmm1
	push	ecx
	movss	DWORD PTR [esp], xmm0
	call	?Sqrt@gen@@YAMM@Z			; gen::Sqrt
	add	esp, 4
	fstp	DWORD PTR _scaleY$[ebp]

; 1160 : 	TFloat32 scaleZ = Sqrt( e20*e20 + e21*e21 + e22*e22 );

	mov	eax, DWORD PTR _this$[ebp]
	mov	ecx, DWORD PTR _this$[ebp]
	movss	xmm0, DWORD PTR [eax+32]
	mulss	xmm0, DWORD PTR [ecx+32]
	mov	edx, DWORD PTR _this$[ebp]
	mov	eax, DWORD PTR _this$[ebp]
	movss	xmm1, DWORD PTR [edx+36]
	mulss	xmm1, DWORD PTR [eax+36]
	addss	xmm0, xmm1
	mov	ecx, DWORD PTR _this$[ebp]
	mov	edx, DWORD PTR _this$[ebp]
	movss	xmm1, DWORD PTR [ecx+40]
	mulss	xmm1, DWORD PTR [edx+40]
	addss	xmm0, xmm1
	push	ecx
	movss	DWORD PTR [esp], xmm0
	call	?Sqrt@gen@@YAMM@Z			; gen::Sqrt
	add	esp, 4
	fstp	DWORD PTR _scaleZ$[ebp]

; 1161 : 
; 1162 : 	// Return quaternion if required - similar to angle-axis process below
; 1163 : 	if (pQuat)

	cmp	DWORD PTR _pQuat$[ebp], 0
	je	$LN2@DecomposeA

; 1164 : 	{
; 1165 : 		// Calculate inverse scaling to extract rotational values only
; 1166 : 		GEN_ASSERT( !IsZero(scaleX) && !IsZero(scaleY) && !IsZero(scaleZ), "Singular matrix" );

	push	ecx
	movss	xmm0, DWORD PTR _kfEpsilon
	movss	DWORD PTR [esp], xmm0
	push	ecx
	movss	xmm0, DWORD PTR _scaleX$[ebp]
	movss	DWORD PTR [esp], xmm0
	call	?IsZero@gen@@YA_NMM@Z			; gen::IsZero
	add	esp, 8
	movzx	eax, al
	test	eax, eax
	jne	SHORT $LN10@DecomposeA
	push	ecx
	movss	xmm0, DWORD PTR _kfEpsilon
	movss	DWORD PTR [esp], xmm0
	push	ecx
	movss	xmm0, DWORD PTR _scaleY$[ebp]
	movss	DWORD PTR [esp], xmm0
	call	?IsZero@gen@@YA_NMM@Z			; gen::IsZero
	add	esp, 8
	movzx	eax, al
	test	eax, eax
	jne	SHORT $LN10@DecomposeA
	push	ecx
	movss	xmm0, DWORD PTR _kfEpsilon
	movss	DWORD PTR [esp], xmm0
	push	ecx
	movss	xmm0, DWORD PTR _scaleZ$[ebp]
	movss	DWORD PTR [esp], xmm0
	call	?IsZero@gen@@YA_NMM@Z			; gen::IsZero
	add	esp, 8
	movzx	eax, al
	test	eax, eax
	je	SHORT $LN11@DecomposeA
$LN10@DecomposeA:
	mov	eax, DWORD PTR ?__LINE__Var@?1??DecomposeAffineQuaternion@CMatrix4x4@gen@@QBEXPAVCVector3@3@PAVCQuaternion@3@0@Z@4JA
	add	eax, 18					; 00000012H
	push	eax
	push	OFFSET ??_C@_0EI@POGHFJCD@c?3?2users?2simon?2documents?2github?2@
	push	OFFSET ??_C@_0BA@EJDDFENM@Singular?5matrix?$AA@
	lea	ecx, DWORD PTR $T1[ebp]
	call	??0CFatalException@gen@@QAE@PBD0H@Z	; gen::CFatalException::CFatalException
	push	OFFSET __TI1?AVCFatalException@gen@@
	lea	ecx, DWORD PTR $T1[ebp]
	push	ecx
	call	__CxxThrowException@8
$LN11@DecomposeA:

; 1167 : 		TFloat32 invScaleX = 1.0f / scaleX;

	movss	xmm0, DWORD PTR __real@3f800000
	divss	xmm0, DWORD PTR _scaleX$[ebp]
	movss	DWORD PTR _invScaleX$12[ebp], xmm0

; 1168 : 		TFloat32 invScaleY = 1.0f / scaleY;

	movss	xmm0, DWORD PTR __real@3f800000
	divss	xmm0, DWORD PTR _scaleY$[ebp]
	movss	DWORD PTR _invScaleY$11[ebp], xmm0

; 1169 : 		TFloat32 invScaleZ = 1.0f / scaleZ;

	movss	xmm0, DWORD PTR __real@3f800000
	divss	xmm0, DWORD PTR _scaleZ$[ebp]
	movss	DWORD PTR _invScaleZ$10[ebp], xmm0

; 1170 : 
; 1171 : 		// Calculate trace of matrix (the sum of diagonal elements)
; 1172 : 		TFloat32 diagX = e00 * invScaleX; // Remove scaling

	mov	eax, DWORD PTR _this$[ebp]
	movss	xmm0, DWORD PTR [eax]
	mulss	xmm0, DWORD PTR _invScaleX$12[ebp]
	movss	DWORD PTR _diagX$9[ebp], xmm0

; 1173 : 		TFloat32 diagY = e11 * invScaleY;

	mov	eax, DWORD PTR _this$[ebp]
	movss	xmm0, DWORD PTR [eax+20]
	mulss	xmm0, DWORD PTR _invScaleY$11[ebp]
	movss	DWORD PTR _diagY$8[ebp], xmm0

; 1174 : 		TFloat32 diagZ = e22 * invScaleZ;

	mov	eax, DWORD PTR _this$[ebp]
	movss	xmm0, DWORD PTR [eax+40]
	mulss	xmm0, DWORD PTR _invScaleZ$10[ebp]
	movss	DWORD PTR _diagZ$7[ebp], xmm0

; 1175 : 		TFloat32 trace = diagX + diagY + diagZ;

	movss	xmm0, DWORD PTR _diagX$9[ebp]
	addss	xmm0, DWORD PTR _diagY$8[ebp]
	addss	xmm0, DWORD PTR _diagZ$7[ebp]
	movss	DWORD PTR _trace$6[ebp], xmm0

; 1176 : 
; 1177 : 		// Simple method if trace is positive
; 1178 : 		if (trace > 0.0f)

	movss	xmm0, DWORD PTR _trace$6[ebp]
	comiss	xmm0, DWORD PTR __real@00000000
	jbe	$LN9@DecomposeA

; 1179 : 		{
; 1180 : 			// Derive quaternion from remaining elements
; 1181 : 			TFloat32 cosAng = Sqrt( trace + 1.0f );

	movss	xmm0, DWORD PTR _trace$6[ebp]
	addss	xmm0, DWORD PTR __real@3f800000
	push	ecx
	movss	DWORD PTR [esp], xmm0
	call	?Sqrt@gen@@YAMM@Z			; gen::Sqrt
	add	esp, 4
	fstp	DWORD PTR _cosAng$5[ebp]

; 1182 : 			pQuat->w = cosAng * 0.5f;

	movss	xmm0, DWORD PTR _cosAng$5[ebp]
	mulss	xmm0, DWORD PTR __real@3f000000
	mov	eax, DWORD PTR _pQuat$[ebp]
	movss	DWORD PTR [eax], xmm0

; 1183 : 			TFloat32 invCosAng = 0.5f / cosAng;

	movss	xmm0, DWORD PTR __real@3f000000
	divss	xmm0, DWORD PTR _cosAng$5[ebp]
	movss	DWORD PTR _invCosAng$4[ebp], xmm0

; 1184 : 			pQuat->x = (e12*invScaleY - e21*invScaleZ) * invCosAng;

	mov	eax, DWORD PTR _this$[ebp]
	movss	xmm0, DWORD PTR [eax+24]
	mulss	xmm0, DWORD PTR _invScaleY$11[ebp]
	mov	ecx, DWORD PTR _this$[ebp]
	movss	xmm1, DWORD PTR [ecx+36]
	mulss	xmm1, DWORD PTR _invScaleZ$10[ebp]
	subss	xmm0, xmm1
	mulss	xmm0, DWORD PTR _invCosAng$4[ebp]
	mov	edx, DWORD PTR _pQuat$[ebp]
	movss	DWORD PTR [edx+4], xmm0

; 1185 : 			pQuat->y = (e20*invScaleZ - e02*invScaleX) * invCosAng;

	mov	eax, DWORD PTR _this$[ebp]
	movss	xmm0, DWORD PTR [eax+32]
	mulss	xmm0, DWORD PTR _invScaleZ$10[ebp]
	mov	ecx, DWORD PTR _this$[ebp]
	movss	xmm1, DWORD PTR [ecx+8]
	mulss	xmm1, DWORD PTR _invScaleX$12[ebp]
	subss	xmm0, xmm1
	mulss	xmm0, DWORD PTR _invCosAng$4[ebp]
	mov	edx, DWORD PTR _pQuat$[ebp]
	movss	DWORD PTR [edx+8], xmm0

; 1186 : 			pQuat->z = (e01*invScaleX - e10*invScaleY) * invCosAng;

	mov	eax, DWORD PTR _this$[ebp]
	movss	xmm0, DWORD PTR [eax+4]
	mulss	xmm0, DWORD PTR _invScaleX$12[ebp]
	mov	ecx, DWORD PTR _this$[ebp]
	movss	xmm1, DWORD PTR [ecx+16]
	mulss	xmm1, DWORD PTR _invScaleY$11[ebp]
	subss	xmm0, xmm1
	mulss	xmm0, DWORD PTR _invCosAng$4[ebp]
	mov	edx, DWORD PTR _pQuat$[ebp]
	movss	DWORD PTR [edx+12], xmm0

; 1187 : 		}
; 1188 : 		else

	jmp	$LN2@DecomposeA
$LN9@DecomposeA:

; 1189 : 		{
; 1190 : 			// Find largest x,y or z axis component by manipulating diagonal elts
; 1191 : 			TFloat32 maxAxis, invMaxAxis;
; 1192 : 			if (diagX > diagY)

	movss	xmm0, DWORD PTR _diagX$9[ebp]
	comiss	xmm0, DWORD PTR _diagY$8[ebp]
	jbe	$LN7@DecomposeA

; 1193 : 			{
; 1194 : 				if (diagX > diagZ)

	movss	xmm0, DWORD PTR _diagX$9[ebp]
	comiss	xmm0, DWORD PTR _diagZ$7[ebp]
	jbe	$LN6@DecomposeA

; 1195 : 				{
; 1196 : 					maxAxis = Sqrt( diagX - diagY - diagZ + 1.0f );

	movss	xmm0, DWORD PTR _diagX$9[ebp]
	subss	xmm0, DWORD PTR _diagY$8[ebp]
	subss	xmm0, DWORD PTR _diagZ$7[ebp]
	addss	xmm0, DWORD PTR __real@3f800000
	push	ecx
	movss	DWORD PTR [esp], xmm0
	call	?Sqrt@gen@@YAMM@Z			; gen::Sqrt
	add	esp, 4
	fstp	DWORD PTR _maxAxis$3[ebp]

; 1197 : 					pQuat->x = 0.5f * maxAxis;

	movss	xmm0, DWORD PTR __real@3f000000
	mulss	xmm0, DWORD PTR _maxAxis$3[ebp]
	mov	eax, DWORD PTR _pQuat$[ebp]
	movss	DWORD PTR [eax+4], xmm0

; 1198 : 					invMaxAxis = 0.5f / maxAxis;

	movss	xmm0, DWORD PTR __real@3f000000
	divss	xmm0, DWORD PTR _maxAxis$3[ebp]
	movss	DWORD PTR _invMaxAxis$2[ebp], xmm0

; 1199 : 					pQuat->y = (e01*invScaleX + e10*invScaleY) * invMaxAxis;

	mov	eax, DWORD PTR _this$[ebp]
	movss	xmm0, DWORD PTR [eax+4]
	mulss	xmm0, DWORD PTR _invScaleX$12[ebp]
	mov	ecx, DWORD PTR _this$[ebp]
	movss	xmm1, DWORD PTR [ecx+16]
	mulss	xmm1, DWORD PTR _invScaleY$11[ebp]
	addss	xmm0, xmm1
	mulss	xmm0, DWORD PTR _invMaxAxis$2[ebp]
	mov	edx, DWORD PTR _pQuat$[ebp]
	movss	DWORD PTR [edx+8], xmm0

; 1200 : 					pQuat->z = (e20*invScaleZ + e02*invScaleX) * invMaxAxis;

	mov	eax, DWORD PTR _this$[ebp]
	movss	xmm0, DWORD PTR [eax+32]
	mulss	xmm0, DWORD PTR _invScaleZ$10[ebp]
	mov	ecx, DWORD PTR _this$[ebp]
	movss	xmm1, DWORD PTR [ecx+8]
	mulss	xmm1, DWORD PTR _invScaleX$12[ebp]
	addss	xmm0, xmm1
	mulss	xmm0, DWORD PTR _invMaxAxis$2[ebp]
	mov	edx, DWORD PTR _pQuat$[ebp]
	movss	DWORD PTR [edx+12], xmm0

; 1201 : 					pQuat->w = (e12*invScaleY - e21*invScaleZ) * invMaxAxis;

	mov	eax, DWORD PTR _this$[ebp]
	movss	xmm0, DWORD PTR [eax+24]
	mulss	xmm0, DWORD PTR _invScaleY$11[ebp]
	mov	ecx, DWORD PTR _this$[ebp]
	movss	xmm1, DWORD PTR [ecx+36]
	mulss	xmm1, DWORD PTR _invScaleZ$10[ebp]
	subss	xmm0, xmm1
	mulss	xmm0, DWORD PTR _invMaxAxis$2[ebp]
	mov	edx, DWORD PTR _pQuat$[ebp]
	movss	DWORD PTR [edx], xmm0

; 1202 : 				}
; 1203 : 				else

	jmp	$LN5@DecomposeA
$LN6@DecomposeA:

; 1204 : 				{
; 1205 : 					maxAxis = Sqrt( diagZ - diagX - diagY + 1.0f );

	movss	xmm0, DWORD PTR _diagZ$7[ebp]
	subss	xmm0, DWORD PTR _diagX$9[ebp]
	subss	xmm0, DWORD PTR _diagY$8[ebp]
	addss	xmm0, DWORD PTR __real@3f800000
	push	ecx
	movss	DWORD PTR [esp], xmm0
	call	?Sqrt@gen@@YAMM@Z			; gen::Sqrt
	add	esp, 4
	fstp	DWORD PTR _maxAxis$3[ebp]

; 1206 : 					pQuat->z = 0.5f * maxAxis;

	movss	xmm0, DWORD PTR __real@3f000000
	mulss	xmm0, DWORD PTR _maxAxis$3[ebp]
	mov	eax, DWORD PTR _pQuat$[ebp]
	movss	DWORD PTR [eax+12], xmm0

; 1207 : 					invMaxAxis = 0.5f / maxAxis;

	movss	xmm0, DWORD PTR __real@3f000000
	divss	xmm0, DWORD PTR _maxAxis$3[ebp]
	movss	DWORD PTR _invMaxAxis$2[ebp], xmm0

; 1208 : 					pQuat->x = (e20*invScaleZ + e02*invScaleX) * invMaxAxis;

	mov	eax, DWORD PTR _this$[ebp]
	movss	xmm0, DWORD PTR [eax+32]
	mulss	xmm0, DWORD PTR _invScaleZ$10[ebp]
	mov	ecx, DWORD PTR _this$[ebp]
	movss	xmm1, DWORD PTR [ecx+8]
	mulss	xmm1, DWORD PTR _invScaleX$12[ebp]
	addss	xmm0, xmm1
	mulss	xmm0, DWORD PTR _invMaxAxis$2[ebp]
	mov	edx, DWORD PTR _pQuat$[ebp]
	movss	DWORD PTR [edx+4], xmm0

; 1209 : 					pQuat->y = (e12*invScaleY + e21*invScaleZ) * invMaxAxis;

	mov	eax, DWORD PTR _this$[ebp]
	movss	xmm0, DWORD PTR [eax+24]
	mulss	xmm0, DWORD PTR _invScaleY$11[ebp]
	mov	ecx, DWORD PTR _this$[ebp]
	movss	xmm1, DWORD PTR [ecx+36]
	mulss	xmm1, DWORD PTR _invScaleZ$10[ebp]
	addss	xmm0, xmm1
	mulss	xmm0, DWORD PTR _invMaxAxis$2[ebp]
	mov	edx, DWORD PTR _pQuat$[ebp]
	movss	DWORD PTR [edx+8], xmm0

; 1210 : 					pQuat->w = (e01*invScaleX - e10*invScaleY) * invMaxAxis;

	mov	eax, DWORD PTR _this$[ebp]
	movss	xmm0, DWORD PTR [eax+4]
	mulss	xmm0, DWORD PTR _invScaleX$12[ebp]
	mov	ecx, DWORD PTR _this$[ebp]
	movss	xmm1, DWORD PTR [ecx+16]
	mulss	xmm1, DWORD PTR _invScaleY$11[ebp]
	subss	xmm0, xmm1
	mulss	xmm0, DWORD PTR _invMaxAxis$2[ebp]
	mov	edx, DWORD PTR _pQuat$[ebp]
	movss	DWORD PTR [edx], xmm0
$LN5@DecomposeA:

; 1211 : 				}

	jmp	$LN2@DecomposeA
$LN7@DecomposeA:

; 1212 : 			}
; 1213 : 			else if (diagY > diagZ)

	movss	xmm0, DWORD PTR _diagY$8[ebp]
	comiss	xmm0, DWORD PTR _diagZ$7[ebp]
	jbe	$LN3@DecomposeA

; 1214 : 			{
; 1215 : 				maxAxis = Sqrt( diagY - diagZ - diagX + 1.0f );

	movss	xmm0, DWORD PTR _diagY$8[ebp]
	subss	xmm0, DWORD PTR _diagZ$7[ebp]
	subss	xmm0, DWORD PTR _diagX$9[ebp]
	addss	xmm0, DWORD PTR __real@3f800000
	push	ecx
	movss	DWORD PTR [esp], xmm0
	call	?Sqrt@gen@@YAMM@Z			; gen::Sqrt
	add	esp, 4
	fstp	DWORD PTR _maxAxis$3[ebp]

; 1216 : 				pQuat->y = 0.5f * maxAxis;

	movss	xmm0, DWORD PTR __real@3f000000
	mulss	xmm0, DWORD PTR _maxAxis$3[ebp]
	mov	eax, DWORD PTR _pQuat$[ebp]
	movss	DWORD PTR [eax+8], xmm0

; 1217 : 				invMaxAxis = 0.5f / maxAxis;

	movss	xmm0, DWORD PTR __real@3f000000
	divss	xmm0, DWORD PTR _maxAxis$3[ebp]
	movss	DWORD PTR _invMaxAxis$2[ebp], xmm0

; 1218 : 				pQuat->z = (e12*invScaleY + e21*invScaleZ) * invMaxAxis;

	mov	eax, DWORD PTR _this$[ebp]
	movss	xmm0, DWORD PTR [eax+24]
	mulss	xmm0, DWORD PTR _invScaleY$11[ebp]
	mov	ecx, DWORD PTR _this$[ebp]
	movss	xmm1, DWORD PTR [ecx+36]
	mulss	xmm1, DWORD PTR _invScaleZ$10[ebp]
	addss	xmm0, xmm1
	mulss	xmm0, DWORD PTR _invMaxAxis$2[ebp]
	mov	edx, DWORD PTR _pQuat$[ebp]
	movss	DWORD PTR [edx+12], xmm0

; 1219 : 				pQuat->x = (e01*invScaleX + e10*invScaleY) * invMaxAxis;

	mov	eax, DWORD PTR _this$[ebp]
	movss	xmm0, DWORD PTR [eax+4]
	mulss	xmm0, DWORD PTR _invScaleX$12[ebp]
	mov	ecx, DWORD PTR _this$[ebp]
	movss	xmm1, DWORD PTR [ecx+16]
	mulss	xmm1, DWORD PTR _invScaleY$11[ebp]
	addss	xmm0, xmm1
	mulss	xmm0, DWORD PTR _invMaxAxis$2[ebp]
	mov	edx, DWORD PTR _pQuat$[ebp]
	movss	DWORD PTR [edx+4], xmm0

; 1220 : 				pQuat->w = (e20*invScaleZ - e02*invScaleX) * invMaxAxis;

	mov	eax, DWORD PTR _this$[ebp]
	movss	xmm0, DWORD PTR [eax+32]
	mulss	xmm0, DWORD PTR _invScaleZ$10[ebp]
	mov	ecx, DWORD PTR _this$[ebp]
	movss	xmm1, DWORD PTR [ecx+8]
	mulss	xmm1, DWORD PTR _invScaleX$12[ebp]
	subss	xmm0, xmm1
	mulss	xmm0, DWORD PTR _invMaxAxis$2[ebp]
	mov	edx, DWORD PTR _pQuat$[ebp]
	movss	DWORD PTR [edx], xmm0

; 1221 : 			}
; 1222 : 			else

	jmp	$LN2@DecomposeA
$LN3@DecomposeA:

; 1223 : 			{
; 1224 : 				maxAxis = Sqrt( diagZ - diagX - diagY + 1.0f );

	movss	xmm0, DWORD PTR _diagZ$7[ebp]
	subss	xmm0, DWORD PTR _diagX$9[ebp]
	subss	xmm0, DWORD PTR _diagY$8[ebp]
	addss	xmm0, DWORD PTR __real@3f800000
	push	ecx
	movss	DWORD PTR [esp], xmm0
	call	?Sqrt@gen@@YAMM@Z			; gen::Sqrt
	add	esp, 4
	fstp	DWORD PTR _maxAxis$3[ebp]

; 1225 : 				pQuat->z = 0.5f * maxAxis;

	movss	xmm0, DWORD PTR __real@3f000000
	mulss	xmm0, DWORD PTR _maxAxis$3[ebp]
	mov	eax, DWORD PTR _pQuat$[ebp]
	movss	DWORD PTR [eax+12], xmm0

; 1226 : 				invMaxAxis = 0.5f / maxAxis;

	movss	xmm0, DWORD PTR __real@3f000000
	divss	xmm0, DWORD PTR _maxAxis$3[ebp]
	movss	DWORD PTR _invMaxAxis$2[ebp], xmm0

; 1227 : 				pQuat->x = (e20*invScaleZ + e02*invScaleX) * invMaxAxis;

	mov	eax, DWORD PTR _this$[ebp]
	movss	xmm0, DWORD PTR [eax+32]
	mulss	xmm0, DWORD PTR _invScaleZ$10[ebp]
	mov	ecx, DWORD PTR _this$[ebp]
	movss	xmm1, DWORD PTR [ecx+8]
	mulss	xmm1, DWORD PTR _invScaleX$12[ebp]
	addss	xmm0, xmm1
	mulss	xmm0, DWORD PTR _invMaxAxis$2[ebp]
	mov	edx, DWORD PTR _pQuat$[ebp]
	movss	DWORD PTR [edx+4], xmm0

; 1228 : 				pQuat->y = (e12*invScaleY + e21*invScaleZ) * invMaxAxis;

	mov	eax, DWORD PTR _this$[ebp]
	movss	xmm0, DWORD PTR [eax+24]
	mulss	xmm0, DWORD PTR _invScaleY$11[ebp]
	mov	ecx, DWORD PTR _this$[ebp]
	movss	xmm1, DWORD PTR [ecx+36]
	mulss	xmm1, DWORD PTR _invScaleZ$10[ebp]
	addss	xmm0, xmm1
	mulss	xmm0, DWORD PTR _invMaxAxis$2[ebp]
	mov	edx, DWORD PTR _pQuat$[ebp]
	movss	DWORD PTR [edx+8], xmm0

; 1229 : 				pQuat->w = (e01*invScaleX - e10*invScaleY) * invMaxAxis;

	mov	eax, DWORD PTR _this$[ebp]
	movss	xmm0, DWORD PTR [eax+4]
	mulss	xmm0, DWORD PTR _invScaleX$12[ebp]
	mov	ecx, DWORD PTR _this$[ebp]
	movss	xmm1, DWORD PTR [ecx+16]
	mulss	xmm1, DWORD PTR _invScaleY$11[ebp]
	subss	xmm0, xmm1
	mulss	xmm0, DWORD PTR _invMaxAxis$2[ebp]
	mov	edx, DWORD PTR _pQuat$[ebp]
	movss	DWORD PTR [edx], xmm0
$LN2@DecomposeA:

; 1230 : 			}
; 1231 : 		}
; 1232 : 	}
; 1233 : 
; 1234 : 	// Return scale if required
; 1235 : 	if (pScale)

	cmp	DWORD PTR _pScale$[ebp], 0
	je	SHORT $LN1@DecomposeA

; 1236 : 	{
; 1237 : 		pScale->x = scaleX;

	mov	eax, DWORD PTR _pScale$[ebp]
	movss	xmm0, DWORD PTR _scaleX$[ebp]
	movss	DWORD PTR [eax], xmm0

; 1238 : 		pScale->y = scaleY;

	mov	eax, DWORD PTR _pScale$[ebp]
	movss	xmm0, DWORD PTR _scaleY$[ebp]
	movss	DWORD PTR [eax+4], xmm0

; 1239 : 		pScale->z = scaleZ;

	mov	eax, DWORD PTR _pScale$[ebp]
	movss	xmm0, DWORD PTR _scaleZ$[ebp]
	movss	DWORD PTR [eax+8], xmm0
$LN1@DecomposeA:
$LN14@DecomposeA:

; 1240 : 	}
; 1241 : }

	pop	edi
	pop	esi
	pop	ebx
	mov	ecx, DWORD PTR __$ArrayPad$[ebp]
	xor	ecx, ebp
	call	@__security_check_cookie@4
	add	esp, 472				; 000001d8H
	cmp	ebp, esp
	call	__RTC_CheckEsp
	mov	esp, ebp
	pop	ebp
	ret	12					; 0000000cH
?DecomposeAffineQuaternion@CMatrix4x4@gen@@QBEXPAVCVector3@2@PAVCQuaternion@2@0@Z ENDP ; gen::CMatrix4x4::DecomposeAffineQuaternion
_TEXT	ENDS
; Function compile flags: /Odtp /RTCsu /ZI
; File c:\users\simon\documents\github\uclan-sparta\import\math\cmatrix4x4.cpp
;	COMDAT ?DecomposeAffineEuler@CMatrix4x4@gen@@QBEXPAVCVector3@2@00W4ERotationOrder@2@@Z
_TEXT	SEGMENT
tv411 = -840						; size = 4
tv410 = -840						; size = 4
tv409 = -840						; size = 4
tv407 = -840						; size = 4
tv405 = -840						; size = 4
tv403 = -840						; size = 4
tv401 = -840						; size = 4
tv399 = -840						; size = 4
tv397 = -840						; size = 4
tv393 = -840						; size = 4
tv392 = -840						; size = 4
tv391 = -840						; size = 4
tv168 = -840						; size = 4
tv408 = -837						; size = 1
tv406 = -837						; size = 1
tv404 = -837						; size = 1
tv402 = -837						; size = 1
tv400 = -837						; size = 1
tv398 = -837						; size = 1
tv396 = -837						; size = 1
tv395 = -837						; size = 1
tv394 = -837						; size = 1
$T2 = -832						; size = 88
$T3 = -736						; size = 88
$T4 = -640						; size = 88
$T5 = -544						; size = 88
_e$6 = -256						; size = 4
_invCY$7 = -244						; size = 4
_invCX$8 = -232						; size = 4
_invCX$9 = -220						; size = 4
_invCZ$10 = -208					; size = 4
_invCZ$11 = -196					; size = 4
_invCY$12 = -184					; size = 4
_cZ$13 = -172						; size = 4
_sZ$14 = -160						; size = 4
_cY$15 = -148						; size = 4
_sY$16 = -136						; size = 4
_cX$17 = -124						; size = 4
_sX$18 = -112						; size = 4
_invScaleZ$19 = -100					; size = 4
_invScaleY$20 = -88					; size = 4
_invScaleX$21 = -76					; size = 4
_scaleZ$22 = -64					; size = 4
_scaleY$23 = -52					; size = 4
_scaleX$24 = -40					; size = 4
_this$ = -28						; size = 4
__$ArrayPad$ = -20					; size = 4
__$EHRec$ = -16						; size = 16
_pPosition$ = 8						; size = 4
_pAngles$ = 12						; size = 4
_pScale$ = 16						; size = 4
_eRotOrder$ = 20					; size = 4
?DecomposeAffineEuler@CMatrix4x4@gen@@QBEXPAVCVector3@2@00W4ERotationOrder@2@@Z PROC ; gen::CMatrix4x4::DecomposeAffineEuler, COMDAT
; _this$ = ecx

; 942  : {

	push	ebp
	mov	ebp, esp
	push	-1
	push	__ehhandler$?DecomposeAffineEuler@CMatrix4x4@gen@@QBEXPAVCVector3@2@00W4ERotationOrder@2@@Z
	mov	eax, DWORD PTR fs:0
	push	eax
	push	ecx
	sub	esp, 824				; 00000338H
	push	ebx
	push	esi
	push	edi
	push	ecx
	lea	edi, DWORD PTR [ebp-840]
	mov	ecx, 206				; 000000ceH
	mov	eax, -858993460				; ccccccccH
	rep stosd
	pop	ecx
	mov	eax, DWORD PTR ___security_cookie
	xor	eax, ebp
	mov	DWORD PTR __$ArrayPad$[ebp], eax
	push	eax
	lea	eax, DWORD PTR __$EHRec$[ebp+4]
	mov	DWORD PTR fs:0, eax
	mov	DWORD PTR __$EHRec$[ebp], esp
	mov	DWORD PTR _this$[ebp], ecx

; 943  : 	GEN_GUARD;

	mov	DWORD PTR __$EHRec$[ebp+12], 0

; 944  : 
; 945  : 	// Get position if required
; 946  : 	if (pPosition)

	cmp	DWORD PTR _pPosition$[ebp], 0
	je	SHORT $LN26@DecomposeA

; 947  : 	{
; 948  : 		pPosition->x = e30;

	mov	eax, DWORD PTR _pPosition$[ebp]
	mov	ecx, DWORD PTR _this$[ebp]
	mov	edx, DWORD PTR [ecx+48]
	mov	DWORD PTR [eax], edx

; 949  : 		pPosition->y = e31;

	mov	eax, DWORD PTR _pPosition$[ebp]
	mov	ecx, DWORD PTR _this$[ebp]
	mov	edx, DWORD PTR [ecx+52]
	mov	DWORD PTR [eax+4], edx

; 950  : 		pPosition->z = e32;

	mov	eax, DWORD PTR _pPosition$[ebp]
	mov	ecx, DWORD PTR _this$[ebp]
	mov	edx, DWORD PTR [ecx+56]
	mov	DWORD PTR [eax+8], edx
$LN26@DecomposeA:

; 951  : 	}
; 952  : 
; 953  : 	// Calculate matrix scaling
; 954  : 	TFloat32 scaleX = Sqrt( e00*e00 + e01*e01 + e02*e02 );

	mov	eax, DWORD PTR _this$[ebp]
	mov	ecx, DWORD PTR _this$[ebp]
	movss	xmm0, DWORD PTR [eax+8]
	mulss	xmm0, DWORD PTR [ecx+8]
	mov	edx, DWORD PTR _this$[ebp]
	mov	eax, DWORD PTR _this$[ebp]
	movss	xmm1, DWORD PTR [edx+4]
	mulss	xmm1, DWORD PTR [eax+4]
	mov	ecx, DWORD PTR _this$[ebp]
	mov	edx, DWORD PTR _this$[ebp]
	movss	xmm2, DWORD PTR [ecx]
	mulss	xmm2, DWORD PTR [edx]
	addss	xmm2, xmm1
	addss	xmm2, xmm0
	push	ecx
	movss	DWORD PTR [esp], xmm2
	call	?Sqrt@gen@@YAMM@Z			; gen::Sqrt
	add	esp, 4
	fstp	DWORD PTR tv391[ebp]
	movss	xmm0, DWORD PTR tv391[ebp]
	movss	DWORD PTR _scaleX$24[ebp], xmm0

; 955  : 	TFloat32 scaleY = Sqrt( e10*e10 + e11*e11 + e12*e12 );

	mov	eax, DWORD PTR _this$[ebp]
	mov	ecx, DWORD PTR _this$[ebp]
	movss	xmm0, DWORD PTR [eax+24]
	mulss	xmm0, DWORD PTR [ecx+24]
	mov	edx, DWORD PTR _this$[ebp]
	mov	eax, DWORD PTR _this$[ebp]
	movss	xmm1, DWORD PTR [edx+20]
	mulss	xmm1, DWORD PTR [eax+20]
	mov	ecx, DWORD PTR _this$[ebp]
	mov	edx, DWORD PTR _this$[ebp]
	movss	xmm2, DWORD PTR [ecx+16]
	mulss	xmm2, DWORD PTR [edx+16]
	addss	xmm2, xmm1
	addss	xmm2, xmm0
	push	ecx
	movss	DWORD PTR [esp], xmm2
	call	?Sqrt@gen@@YAMM@Z			; gen::Sqrt
	add	esp, 4
	fstp	DWORD PTR tv392[ebp]
	movss	xmm0, DWORD PTR tv392[ebp]
	movss	DWORD PTR _scaleY$23[ebp], xmm0

; 956  : 	TFloat32 scaleZ = Sqrt( e20*e20 + e21*e21 + e22*e22 );

	mov	eax, DWORD PTR _this$[ebp]
	mov	ecx, DWORD PTR _this$[ebp]
	movss	xmm0, DWORD PTR [eax+40]
	mulss	xmm0, DWORD PTR [ecx+40]
	mov	edx, DWORD PTR _this$[ebp]
	mov	eax, DWORD PTR _this$[ebp]
	movss	xmm1, DWORD PTR [edx+36]
	mulss	xmm1, DWORD PTR [eax+36]
	mov	ecx, DWORD PTR _this$[ebp]
	mov	edx, DWORD PTR _this$[ebp]
	movss	xmm2, DWORD PTR [ecx+32]
	mulss	xmm2, DWORD PTR [edx+32]
	addss	xmm2, xmm1
	addss	xmm2, xmm0
	push	ecx
	movss	DWORD PTR [esp], xmm2
	call	?Sqrt@gen@@YAMM@Z			; gen::Sqrt
	add	esp, 4
	fstp	DWORD PTR tv393[ebp]
	movss	xmm0, DWORD PTR tv393[ebp]
	movss	DWORD PTR _scaleZ$22[ebp], xmm0

; 957  : 
; 958  : 	// Get rotations if required
; 959  : 	if (pAngles)

	cmp	DWORD PTR _pAngles$[ebp], 0
	je	$LN25@DecomposeA

; 960  : 	{
; 961  : 		// Calculate inverse scaling to extract rotational values only
; 962  : 		GEN_ASSERT( !IsZero(scaleX) && !IsZero(scaleY) && !IsZero(scaleZ), "Singular matrix" );

	push	ecx
	movss	xmm0, DWORD PTR _kfEpsilon
	movss	DWORD PTR [esp], xmm0
	push	ecx
	movss	xmm0, DWORD PTR _scaleX$24[ebp]
	movss	DWORD PTR [esp], xmm0
	call	?IsZero@gen@@YA_NMM@Z			; gen::IsZero
	add	esp, 8
	mov	BYTE PTR tv394[ebp], al
	movzx	eax, BYTE PTR tv394[ebp]
	test	eax, eax
	jne	SHORT $LN23@DecomposeA
	push	ecx
	movss	xmm0, DWORD PTR _kfEpsilon
	movss	DWORD PTR [esp], xmm0
	push	ecx
	movss	xmm0, DWORD PTR _scaleY$23[ebp]
	movss	DWORD PTR [esp], xmm0
	call	?IsZero@gen@@YA_NMM@Z			; gen::IsZero
	add	esp, 8
	mov	BYTE PTR tv395[ebp], al
	movzx	eax, BYTE PTR tv395[ebp]
	test	eax, eax
	jne	SHORT $LN23@DecomposeA
	push	ecx
	movss	xmm0, DWORD PTR _kfEpsilon
	movss	DWORD PTR [esp], xmm0
	push	ecx
	movss	xmm0, DWORD PTR _scaleZ$22[ebp]
	movss	DWORD PTR [esp], xmm0
	call	?IsZero@gen@@YA_NMM@Z			; gen::IsZero
	add	esp, 8
	mov	BYTE PTR tv396[ebp], al
	movzx	eax, BYTE PTR tv396[ebp]
	test	eax, eax
	je	SHORT $LN24@DecomposeA
$LN23@DecomposeA:
	mov	eax, DWORD PTR ?__LINE__Var@?1??DecomposeAffineEuler@CMatrix4x4@gen@@QBEXPAVCVector3@3@00W4ERotationOrder@3@@Z@4JA
	add	eax, 20					; 00000014H
	push	eax
	push	OFFSET ??_C@_0EI@POGHFJCD@c?3?2users?2simon?2documents?2github?2@
	push	OFFSET ??_C@_0BA@EJDDFENM@Singular?5matrix?$AA@
	lea	ecx, DWORD PTR $T2[ebp]
	call	??0CFatalException@gen@@QAE@PBD0H@Z	; gen::CFatalException::CFatalException
	push	OFFSET __TI1?AVCFatalException@gen@@
	lea	ecx, DWORD PTR $T2[ebp]
	push	ecx
	call	__CxxThrowException@8
$LN24@DecomposeA:

; 963  : 		TFloat32 invScaleX = 1.0f / scaleX;

	movss	xmm0, DWORD PTR __real@3f800000
	divss	xmm0, DWORD PTR _scaleX$24[ebp]
	movss	DWORD PTR _invScaleX$21[ebp], xmm0

; 964  : 		TFloat32 invScaleY = 1.0f / scaleY;

	movss	xmm0, DWORD PTR __real@3f800000
	divss	xmm0, DWORD PTR _scaleY$23[ebp]
	movss	DWORD PTR _invScaleY$20[ebp], xmm0

; 965  : 		TFloat32 invScaleZ = 1.0f / scaleZ;

	movss	xmm0, DWORD PTR __real@3f800000
	divss	xmm0, DWORD PTR _scaleZ$22[ebp]
	movss	DWORD PTR _invScaleZ$19[ebp], xmm0

; 966  : 
; 967  : 		TFloat32 sX, cX, sY, cY, sZ, cZ;
; 968  : 		switch (eRotOrder)

	mov	eax, DWORD PTR _eRotOrder$[ebp]
	mov	DWORD PTR tv168[ebp], eax
	cmp	DWORD PTR tv168[ebp], 5
	ja	$LN2@DecomposeA
	mov	ecx, DWORD PTR tv168[ebp]
	jmp	DWORD PTR $LN41@DecomposeA[ecx*4]
$LN20@DecomposeA:

; 969  : 		{
; 970  : 			case kZYX:
; 971  : 			{
; 972  : 				sY = e20 * invScaleX;

	mov	eax, DWORD PTR _this$[ebp]
	movss	xmm0, DWORD PTR [eax+32]
	mulss	xmm0, DWORD PTR _invScaleX$21[ebp]
	movss	DWORD PTR _sY$16[ebp], xmm0

; 973  : 				cY = Sqrt( 1.0f - sY*sY );

	movss	xmm0, DWORD PTR _sY$16[ebp]
	mulss	xmm0, DWORD PTR _sY$16[ebp]
	movss	xmm1, DWORD PTR __real@3f800000
	subss	xmm1, xmm0
	push	ecx
	movss	DWORD PTR [esp], xmm1
	call	?Sqrt@gen@@YAMM@Z			; gen::Sqrt
	add	esp, 4
	fstp	DWORD PTR tv397[ebp]
	movss	xmm0, DWORD PTR tv397[ebp]
	movss	DWORD PTR _cY$15[ebp], xmm0

; 974  : 
; 975  : 				// If no gimbal lock...
; 976  : 				if (!IsZero( cY ))

	push	ecx
	movss	xmm0, DWORD PTR _kfEpsilon
	movss	DWORD PTR [esp], xmm0
	push	ecx
	movss	xmm0, DWORD PTR _cY$15[ebp]
	movss	DWORD PTR [esp], xmm0
	call	?IsZero@gen@@YA_NMM@Z			; gen::IsZero
	add	esp, 8
	mov	BYTE PTR tv398[ebp], al
	movzx	eax, BYTE PTR tv398[ebp]
	test	eax, eax
	jne	$LN19@DecomposeA

; 977  : 				{
; 978  : 					TFloat32 invCY = 1.0f / cY;

	movss	xmm0, DWORD PTR __real@3f800000
	divss	xmm0, DWORD PTR _cY$15[ebp]
	movss	DWORD PTR _invCY$12[ebp], xmm0

; 979  : 					sZ = -e10 * invCY * invScaleY;

	mov	eax, DWORD PTR _this$[ebp]
	movss	xmm0, DWORD PTR [eax+16]
	xorps	xmm0, DWORD PTR __xmm@80000000800000008000000080000000
	mulss	xmm0, DWORD PTR _invCY$12[ebp]
	mulss	xmm0, DWORD PTR _invScaleY$20[ebp]
	movss	DWORD PTR _sZ$14[ebp], xmm0

; 980  : 					cZ =  e00 * invCY * invScaleX;

	mov	eax, DWORD PTR _this$[ebp]
	movss	xmm0, DWORD PTR [eax]
	mulss	xmm0, DWORD PTR _invCY$12[ebp]
	mulss	xmm0, DWORD PTR _invScaleX$21[ebp]
	movss	DWORD PTR _cZ$13[ebp], xmm0

; 981  : 					sX = -e21 * invCY * invScaleZ;

	mov	eax, DWORD PTR _this$[ebp]
	movss	xmm0, DWORD PTR [eax+36]
	xorps	xmm0, DWORD PTR __xmm@80000000800000008000000080000000
	mulss	xmm0, DWORD PTR _invCY$12[ebp]
	mulss	xmm0, DWORD PTR _invScaleZ$19[ebp]
	movss	DWORD PTR _sX$18[ebp], xmm0

; 982  : 					cX =  e22 * invCY * invScaleZ;

	mov	eax, DWORD PTR _this$[ebp]
	movss	xmm0, DWORD PTR [eax+40]
	mulss	xmm0, DWORD PTR _invCY$12[ebp]
	mulss	xmm0, DWORD PTR _invScaleZ$19[ebp]
	movss	DWORD PTR _cX$17[ebp], xmm0

; 983  : 				}
; 984  : 				else

	jmp	SHORT $LN18@DecomposeA
$LN19@DecomposeA:

; 985  : 				{
; 986  : 					// Gimbal lock - force Z angle to 0
; 987  : 					sZ = 0.0f;

	movss	xmm0, DWORD PTR __real@00000000
	movss	DWORD PTR _sZ$14[ebp], xmm0

; 988  : 					cZ = 1.0f;

	movss	xmm0, DWORD PTR __real@3f800000
	movss	DWORD PTR _cZ$13[ebp], xmm0

; 989  : 					sX = e12 * invScaleY;

	mov	eax, DWORD PTR _this$[ebp]
	movss	xmm0, DWORD PTR [eax+24]
	mulss	xmm0, DWORD PTR _invScaleY$20[ebp]
	movss	DWORD PTR _sX$18[ebp], xmm0

; 990  : 					cX = e11 * invScaleY;

	mov	eax, DWORD PTR _this$[ebp]
	movss	xmm0, DWORD PTR [eax+20]
	mulss	xmm0, DWORD PTR _invScaleY$20[ebp]
	movss	DWORD PTR _cX$17[ebp], xmm0
$LN18@DecomposeA:

; 991  : 				}
; 992  : 				break;

	jmp	$LN21@DecomposeA
$LN17@DecomposeA:

; 993  : 			}
; 994  : 
; 995  : 			case kYZX:
; 996  : 			{
; 997  : 				sZ = -e10 * invScaleY;

	mov	eax, DWORD PTR _this$[ebp]
	movss	xmm0, DWORD PTR [eax+16]
	xorps	xmm0, DWORD PTR __xmm@80000000800000008000000080000000
	mulss	xmm0, DWORD PTR _invScaleY$20[ebp]
	movss	DWORD PTR _sZ$14[ebp], xmm0

; 998  : 				cZ = Sqrt( 1.0f - sZ*sZ );

	movss	xmm0, DWORD PTR _sZ$14[ebp]
	mulss	xmm0, DWORD PTR _sZ$14[ebp]
	movss	xmm1, DWORD PTR __real@3f800000
	subss	xmm1, xmm0
	push	ecx
	movss	DWORD PTR [esp], xmm1
	call	?Sqrt@gen@@YAMM@Z			; gen::Sqrt
	add	esp, 4
	fstp	DWORD PTR tv399[ebp]
	movss	xmm0, DWORD PTR tv399[ebp]
	movss	DWORD PTR _cZ$13[ebp], xmm0

; 999  : 
; 1000 : 				// If no gimbal lock...
; 1001 : 				if (!IsZero( cZ ))

	push	ecx
	movss	xmm0, DWORD PTR _kfEpsilon
	movss	DWORD PTR [esp], xmm0
	push	ecx
	movss	xmm0, DWORD PTR _cZ$13[ebp]
	movss	DWORD PTR [esp], xmm0
	call	?IsZero@gen@@YA_NMM@Z			; gen::IsZero
	add	esp, 8
	mov	BYTE PTR tv400[ebp], al
	movzx	eax, BYTE PTR tv400[ebp]
	test	eax, eax
	jne	$LN16@DecomposeA

; 1002 : 				{
; 1003 : 					TFloat32 invCZ = 1.0f / cZ;

	movss	xmm0, DWORD PTR __real@3f800000
	divss	xmm0, DWORD PTR _cZ$13[ebp]
	movss	DWORD PTR _invCZ$11[ebp], xmm0

; 1004 : 					sY = e20 * invCZ * invScaleZ;

	mov	eax, DWORD PTR _this$[ebp]
	movss	xmm0, DWORD PTR [eax+32]
	mulss	xmm0, DWORD PTR _invCZ$11[ebp]
	mulss	xmm0, DWORD PTR _invScaleZ$19[ebp]
	movss	DWORD PTR _sY$16[ebp], xmm0

; 1005 : 					cY = e00 * invCZ * invScaleX;

	mov	eax, DWORD PTR _this$[ebp]
	movss	xmm0, DWORD PTR [eax]
	mulss	xmm0, DWORD PTR _invCZ$11[ebp]
	mulss	xmm0, DWORD PTR _invScaleX$21[ebp]
	movss	DWORD PTR _cY$15[ebp], xmm0

; 1006 : 					sX = e12 * invCZ * invScaleY;

	mov	eax, DWORD PTR _this$[ebp]
	movss	xmm0, DWORD PTR [eax+24]
	mulss	xmm0, DWORD PTR _invCZ$11[ebp]
	mulss	xmm0, DWORD PTR _invScaleY$20[ebp]
	movss	DWORD PTR _sX$18[ebp], xmm0

; 1007 : 					cX = e11 * invCZ * invScaleY;

	mov	eax, DWORD PTR _this$[ebp]
	movss	xmm0, DWORD PTR [eax+20]
	mulss	xmm0, DWORD PTR _invCZ$11[ebp]
	mulss	xmm0, DWORD PTR _invScaleY$20[ebp]
	movss	DWORD PTR _cX$17[ebp], xmm0

; 1008 : 				}
; 1009 : 				else

	jmp	SHORT $LN15@DecomposeA
$LN16@DecomposeA:

; 1010 : 				{
; 1011 : 					// Gimbal lock - force Y angle to 0
; 1012 : 					sY = 0.0f;

	movss	xmm0, DWORD PTR __real@00000000
	movss	DWORD PTR _sY$16[ebp], xmm0

; 1013 : 					cY = 1.0f;

	movss	xmm0, DWORD PTR __real@3f800000
	movss	DWORD PTR _cY$15[ebp], xmm0

; 1014 : 					sX = -e21 * invScaleZ;

	mov	eax, DWORD PTR _this$[ebp]
	movss	xmm0, DWORD PTR [eax+36]
	xorps	xmm0, DWORD PTR __xmm@80000000800000008000000080000000
	mulss	xmm0, DWORD PTR _invScaleZ$19[ebp]
	movss	DWORD PTR _sX$18[ebp], xmm0

; 1015 : 					cX =  e22 * invScaleZ;

	mov	eax, DWORD PTR _this$[ebp]
	movss	xmm0, DWORD PTR [eax+40]
	mulss	xmm0, DWORD PTR _invScaleZ$19[ebp]
	movss	DWORD PTR _cX$17[ebp], xmm0
$LN15@DecomposeA:

; 1016 : 				}
; 1017 : 				break;

	jmp	$LN21@DecomposeA
$LN14@DecomposeA:

; 1018 : 			}
; 1019 : 
; 1020 : 			case kXZY:
; 1021 : 			{
; 1022 : 				sZ = e01 * invScaleX;

	mov	eax, DWORD PTR _this$[ebp]
	movss	xmm0, DWORD PTR [eax+4]
	mulss	xmm0, DWORD PTR _invScaleX$21[ebp]
	movss	DWORD PTR _sZ$14[ebp], xmm0

; 1023 : 				cZ = Sqrt( 1.0f - sZ*sZ );

	movss	xmm0, DWORD PTR _sZ$14[ebp]
	mulss	xmm0, DWORD PTR _sZ$14[ebp]
	movss	xmm1, DWORD PTR __real@3f800000
	subss	xmm1, xmm0
	push	ecx
	movss	DWORD PTR [esp], xmm1
	call	?Sqrt@gen@@YAMM@Z			; gen::Sqrt
	add	esp, 4
	fstp	DWORD PTR tv401[ebp]
	movss	xmm0, DWORD PTR tv401[ebp]
	movss	DWORD PTR _cZ$13[ebp], xmm0

; 1024 : 
; 1025 : 				// If no gimbal lock...
; 1026 : 				if (!IsZero( cZ ))

	push	ecx
	movss	xmm0, DWORD PTR _kfEpsilon
	movss	DWORD PTR [esp], xmm0
	push	ecx
	movss	xmm0, DWORD PTR _cZ$13[ebp]
	movss	DWORD PTR [esp], xmm0
	call	?IsZero@gen@@YA_NMM@Z			; gen::IsZero
	add	esp, 8
	mov	BYTE PTR tv402[ebp], al
	movzx	eax, BYTE PTR tv402[ebp]
	test	eax, eax
	jne	$LN13@DecomposeA

; 1027 : 				{
; 1028 : 					TFloat32 invCZ = 1.0f / cZ;

	movss	xmm0, DWORD PTR __real@3f800000
	divss	xmm0, DWORD PTR _cZ$13[ebp]
	movss	DWORD PTR _invCZ$10[ebp], xmm0

; 1029 : 					sX = -e21 * invCZ * invScaleZ;

	mov	eax, DWORD PTR _this$[ebp]
	movss	xmm0, DWORD PTR [eax+36]
	xorps	xmm0, DWORD PTR __xmm@80000000800000008000000080000000
	mulss	xmm0, DWORD PTR _invCZ$10[ebp]
	mulss	xmm0, DWORD PTR _invScaleZ$19[ebp]
	movss	DWORD PTR _sX$18[ebp], xmm0

; 1030 : 					cX =  e11 * invCZ * invScaleY;

	mov	eax, DWORD PTR _this$[ebp]
	movss	xmm0, DWORD PTR [eax+20]
	mulss	xmm0, DWORD PTR _invCZ$10[ebp]
	mulss	xmm0, DWORD PTR _invScaleY$20[ebp]
	movss	DWORD PTR _cX$17[ebp], xmm0

; 1031 : 					sY = -e02 * invCZ * invScaleX;

	mov	eax, DWORD PTR _this$[ebp]
	movss	xmm0, DWORD PTR [eax+8]
	xorps	xmm0, DWORD PTR __xmm@80000000800000008000000080000000
	mulss	xmm0, DWORD PTR _invCZ$10[ebp]
	mulss	xmm0, DWORD PTR _invScaleX$21[ebp]
	movss	DWORD PTR _sY$16[ebp], xmm0

; 1032 : 					cY =  e00 * invCZ * invScaleX;

	mov	eax, DWORD PTR _this$[ebp]
	movss	xmm0, DWORD PTR [eax]
	mulss	xmm0, DWORD PTR _invCZ$10[ebp]
	mulss	xmm0, DWORD PTR _invScaleX$21[ebp]
	movss	DWORD PTR _cY$15[ebp], xmm0

; 1033 : 				}
; 1034 : 				else

	jmp	SHORT $LN12@DecomposeA
$LN13@DecomposeA:

; 1035 : 				{
; 1036 : 					// Gimbal lock - force X angle to 0
; 1037 : 					sX = 0.0f;

	movss	xmm0, DWORD PTR __real@00000000
	movss	DWORD PTR _sX$18[ebp], xmm0

; 1038 : 					cX = 1.0f;

	movss	xmm0, DWORD PTR __real@3f800000
	movss	DWORD PTR _cX$17[ebp], xmm0

; 1039 : 					sY = e20 * invScaleZ;

	mov	eax, DWORD PTR _this$[ebp]
	movss	xmm0, DWORD PTR [eax+32]
	mulss	xmm0, DWORD PTR _invScaleZ$19[ebp]
	movss	DWORD PTR _sY$16[ebp], xmm0

; 1040 : 					cY = e22 * invScaleZ;

	mov	eax, DWORD PTR _this$[ebp]
	movss	xmm0, DWORD PTR [eax+40]
	mulss	xmm0, DWORD PTR _invScaleZ$19[ebp]
	movss	DWORD PTR _cY$15[ebp], xmm0
$LN12@DecomposeA:

; 1041 : 				}
; 1042 : 				break;

	jmp	$LN21@DecomposeA
$LN11@DecomposeA:

; 1043 : 			}
; 1044 : 
; 1045 : 			case kZXY:
; 1046 : 			{
; 1047 : 				sX = -e21 * invScaleZ;

	mov	eax, DWORD PTR _this$[ebp]
	movss	xmm0, DWORD PTR [eax+36]
	xorps	xmm0, DWORD PTR __xmm@80000000800000008000000080000000
	mulss	xmm0, DWORD PTR _invScaleZ$19[ebp]
	movss	DWORD PTR _sX$18[ebp], xmm0

; 1048 : 				cX = Sqrt( 1.0f - sX*sX );

	movss	xmm0, DWORD PTR _sX$18[ebp]
	mulss	xmm0, DWORD PTR _sX$18[ebp]
	movss	xmm1, DWORD PTR __real@3f800000
	subss	xmm1, xmm0
	push	ecx
	movss	DWORD PTR [esp], xmm1
	call	?Sqrt@gen@@YAMM@Z			; gen::Sqrt
	add	esp, 4
	fstp	DWORD PTR tv403[ebp]
	movss	xmm0, DWORD PTR tv403[ebp]
	movss	DWORD PTR _cX$17[ebp], xmm0

; 1049 : 
; 1050 : 				// If no gimbal lock...
; 1051 : 				if (!IsZero( cX ))

	push	ecx
	movss	xmm0, DWORD PTR _kfEpsilon
	movss	DWORD PTR [esp], xmm0
	push	ecx
	movss	xmm0, DWORD PTR _cX$17[ebp]
	movss	DWORD PTR [esp], xmm0
	call	?IsZero@gen@@YA_NMM@Z			; gen::IsZero
	add	esp, 8
	mov	BYTE PTR tv404[ebp], al
	movzx	eax, BYTE PTR tv404[ebp]
	test	eax, eax
	jne	$LN10@DecomposeA

; 1052 : 				{
; 1053 : 					TFloat32 invCX = 1.0f / cX;

	movss	xmm0, DWORD PTR __real@3f800000
	divss	xmm0, DWORD PTR _cX$17[ebp]
	movss	DWORD PTR _invCX$9[ebp], xmm0

; 1054 : 					sZ = e01 * invCX * invScaleX;

	mov	eax, DWORD PTR _this$[ebp]
	movss	xmm0, DWORD PTR [eax+4]
	mulss	xmm0, DWORD PTR _invCX$9[ebp]
	mulss	xmm0, DWORD PTR _invScaleX$21[ebp]
	movss	DWORD PTR _sZ$14[ebp], xmm0

; 1055 : 					cZ = e11 * invCX * invScaleY;

	mov	eax, DWORD PTR _this$[ebp]
	movss	xmm0, DWORD PTR [eax+20]
	mulss	xmm0, DWORD PTR _invCX$9[ebp]
	mulss	xmm0, DWORD PTR _invScaleY$20[ebp]
	movss	DWORD PTR _cZ$13[ebp], xmm0

; 1056 : 					sY = e20 * invCX * invScaleZ;

	mov	eax, DWORD PTR _this$[ebp]
	movss	xmm0, DWORD PTR [eax+32]
	mulss	xmm0, DWORD PTR _invCX$9[ebp]
	mulss	xmm0, DWORD PTR _invScaleZ$19[ebp]
	movss	DWORD PTR _sY$16[ebp], xmm0

; 1057 : 					cY = e22 * invCX * invScaleZ;

	mov	eax, DWORD PTR _this$[ebp]
	movss	xmm0, DWORD PTR [eax+40]
	mulss	xmm0, DWORD PTR _invCX$9[ebp]
	mulss	xmm0, DWORD PTR _invScaleZ$19[ebp]
	movss	DWORD PTR _cY$15[ebp], xmm0

; 1058 : 				}
; 1059 : 				else

	jmp	SHORT $LN9@DecomposeA
$LN10@DecomposeA:

; 1060 : 				{
; 1061 : 					// Gimbal lock - force Z angle to 0
; 1062 : 					sZ = 0.0f;

	movss	xmm0, DWORD PTR __real@00000000
	movss	DWORD PTR _sZ$14[ebp], xmm0

; 1063 : 					cZ = 1.0f;

	movss	xmm0, DWORD PTR __real@3f800000
	movss	DWORD PTR _cZ$13[ebp], xmm0

; 1064 : 					sY = -e02 * invScaleX;

	mov	eax, DWORD PTR _this$[ebp]
	movss	xmm0, DWORD PTR [eax+8]
	xorps	xmm0, DWORD PTR __xmm@80000000800000008000000080000000
	mulss	xmm0, DWORD PTR _invScaleX$21[ebp]
	movss	DWORD PTR _sY$16[ebp], xmm0

; 1065 : 					cY =  e00 * invScaleX;

	mov	eax, DWORD PTR _this$[ebp]
	movss	xmm0, DWORD PTR [eax]
	mulss	xmm0, DWORD PTR _invScaleX$21[ebp]
	movss	DWORD PTR _cY$15[ebp], xmm0
$LN9@DecomposeA:

; 1066 : 				}
; 1067 : 				break;

	jmp	$LN21@DecomposeA
$LN8@DecomposeA:

; 1068 : 			}
; 1069 : 
; 1070 : 			case kYXZ:
; 1071 : 			{
; 1072 : 				sX = e12 * invScaleY;

	mov	eax, DWORD PTR _this$[ebp]
	movss	xmm0, DWORD PTR [eax+24]
	mulss	xmm0, DWORD PTR _invScaleY$20[ebp]
	movss	DWORD PTR _sX$18[ebp], xmm0

; 1073 : 				cX = Sqrt( 1.0f - sX*sX );

	movss	xmm0, DWORD PTR _sX$18[ebp]
	mulss	xmm0, DWORD PTR _sX$18[ebp]
	movss	xmm1, DWORD PTR __real@3f800000
	subss	xmm1, xmm0
	push	ecx
	movss	DWORD PTR [esp], xmm1
	call	?Sqrt@gen@@YAMM@Z			; gen::Sqrt
	add	esp, 4
	fstp	DWORD PTR tv405[ebp]
	movss	xmm0, DWORD PTR tv405[ebp]
	movss	DWORD PTR _cX$17[ebp], xmm0

; 1074 : 
; 1075 : 				// If no gimbal lock...
; 1076 : 				if (!IsZero( cX ))

	push	ecx
	movss	xmm0, DWORD PTR _kfEpsilon
	movss	DWORD PTR [esp], xmm0
	push	ecx
	movss	xmm0, DWORD PTR _cX$17[ebp]
	movss	DWORD PTR [esp], xmm0
	call	?IsZero@gen@@YA_NMM@Z			; gen::IsZero
	add	esp, 8
	mov	BYTE PTR tv406[ebp], al
	movzx	eax, BYTE PTR tv406[ebp]
	test	eax, eax
	jne	$LN7@DecomposeA

; 1077 : 				{
; 1078 : 					TFloat32 invCX = 1.0f / cX;

	movss	xmm0, DWORD PTR __real@3f800000
	divss	xmm0, DWORD PTR _cX$17[ebp]
	movss	DWORD PTR _invCX$8[ebp], xmm0

; 1079 : 					sY = -e02 * invCX * invScaleX;

	mov	eax, DWORD PTR _this$[ebp]
	movss	xmm0, DWORD PTR [eax+8]
	xorps	xmm0, DWORD PTR __xmm@80000000800000008000000080000000
	mulss	xmm0, DWORD PTR _invCX$8[ebp]
	mulss	xmm0, DWORD PTR _invScaleX$21[ebp]
	movss	DWORD PTR _sY$16[ebp], xmm0

; 1080 : 					cY =  e22 * invCX * invScaleZ;

	mov	eax, DWORD PTR _this$[ebp]
	movss	xmm0, DWORD PTR [eax+40]
	mulss	xmm0, DWORD PTR _invCX$8[ebp]
	mulss	xmm0, DWORD PTR _invScaleZ$19[ebp]
	movss	DWORD PTR _cY$15[ebp], xmm0

; 1081 : 					sZ = -e10 * invCX * invScaleY;

	mov	eax, DWORD PTR _this$[ebp]
	movss	xmm0, DWORD PTR [eax+16]
	xorps	xmm0, DWORD PTR __xmm@80000000800000008000000080000000
	mulss	xmm0, DWORD PTR _invCX$8[ebp]
	mulss	xmm0, DWORD PTR _invScaleY$20[ebp]
	movss	DWORD PTR _sZ$14[ebp], xmm0

; 1082 : 					cZ =  e11 * invCX * invScaleY;

	mov	eax, DWORD PTR _this$[ebp]
	movss	xmm0, DWORD PTR [eax+20]
	mulss	xmm0, DWORD PTR _invCX$8[ebp]
	mulss	xmm0, DWORD PTR _invScaleY$20[ebp]
	movss	DWORD PTR _cZ$13[ebp], xmm0

; 1083 : 				}
; 1084 : 				else

	jmp	SHORT $LN6@DecomposeA
$LN7@DecomposeA:

; 1085 : 				{
; 1086 : 					// Gimbal lock - force Y angle to 0
; 1087 : 					sY = 0.0f;

	movss	xmm0, DWORD PTR __real@00000000
	movss	DWORD PTR _sY$16[ebp], xmm0

; 1088 : 					cY = 1.0f;

	movss	xmm0, DWORD PTR __real@3f800000
	movss	DWORD PTR _cY$15[ebp], xmm0

; 1089 : 					sZ = e01 * invScaleX;

	mov	eax, DWORD PTR _this$[ebp]
	movss	xmm0, DWORD PTR [eax+4]
	mulss	xmm0, DWORD PTR _invScaleX$21[ebp]
	movss	DWORD PTR _sZ$14[ebp], xmm0

; 1090 : 					cZ = e00 * invScaleX;

	mov	eax, DWORD PTR _this$[ebp]
	movss	xmm0, DWORD PTR [eax]
	mulss	xmm0, DWORD PTR _invScaleX$21[ebp]
	movss	DWORD PTR _cZ$13[ebp], xmm0
$LN6@DecomposeA:

; 1091 : 				}
; 1092 : 				break;

	jmp	$LN21@DecomposeA
$LN5@DecomposeA:

; 1093 : 			}
; 1094 : 
; 1095 : 			case kXYZ:
; 1096 : 			{
; 1097 : 				sY = -e02 * invScaleX;

	mov	eax, DWORD PTR _this$[ebp]
	movss	xmm0, DWORD PTR [eax+8]
	xorps	xmm0, DWORD PTR __xmm@80000000800000008000000080000000
	mulss	xmm0, DWORD PTR _invScaleX$21[ebp]
	movss	DWORD PTR _sY$16[ebp], xmm0

; 1098 : 				cY = Sqrt( 1.0f - sY*sY );

	movss	xmm0, DWORD PTR _sY$16[ebp]
	mulss	xmm0, DWORD PTR _sY$16[ebp]
	movss	xmm1, DWORD PTR __real@3f800000
	subss	xmm1, xmm0
	push	ecx
	movss	DWORD PTR [esp], xmm1
	call	?Sqrt@gen@@YAMM@Z			; gen::Sqrt
	add	esp, 4
	fstp	DWORD PTR tv407[ebp]
	movss	xmm0, DWORD PTR tv407[ebp]
	movss	DWORD PTR _cY$15[ebp], xmm0

; 1099 : 
; 1100 : 				// If no gimbal lock...
; 1101 : 				if (!IsZero( cY ))

	push	ecx
	movss	xmm0, DWORD PTR _kfEpsilon
	movss	DWORD PTR [esp], xmm0
	push	ecx
	movss	xmm0, DWORD PTR _cY$15[ebp]
	movss	DWORD PTR [esp], xmm0
	call	?IsZero@gen@@YA_NMM@Z			; gen::IsZero
	add	esp, 8
	mov	BYTE PTR tv408[ebp], al
	movzx	eax, BYTE PTR tv408[ebp]
	test	eax, eax
	jne	$LN4@DecomposeA

; 1102 : 				{
; 1103 : 					TFloat32 invCY = 1.0f / cY;

	movss	xmm0, DWORD PTR __real@3f800000
	divss	xmm0, DWORD PTR _cY$15[ebp]
	movss	DWORD PTR _invCY$7[ebp], xmm0

; 1104 : 					sX = e12 * invCY * invScaleY;

	mov	eax, DWORD PTR _this$[ebp]
	movss	xmm0, DWORD PTR [eax+24]
	mulss	xmm0, DWORD PTR _invCY$7[ebp]
	mulss	xmm0, DWORD PTR _invScaleY$20[ebp]
	movss	DWORD PTR _sX$18[ebp], xmm0

; 1105 : 					cX = e22 * invCY * invScaleZ;

	mov	eax, DWORD PTR _this$[ebp]
	movss	xmm0, DWORD PTR [eax+40]
	mulss	xmm0, DWORD PTR _invCY$7[ebp]
	mulss	xmm0, DWORD PTR _invScaleZ$19[ebp]
	movss	DWORD PTR _cX$17[ebp], xmm0

; 1106 : 					sZ = e01 * invCY * invScaleX;

	mov	eax, DWORD PTR _this$[ebp]
	movss	xmm0, DWORD PTR [eax+4]
	mulss	xmm0, DWORD PTR _invCY$7[ebp]
	mulss	xmm0, DWORD PTR _invScaleX$21[ebp]
	movss	DWORD PTR _sZ$14[ebp], xmm0

; 1107 : 					cZ = e00 * invCY * invScaleX;

	mov	eax, DWORD PTR _this$[ebp]
	movss	xmm0, DWORD PTR [eax]
	mulss	xmm0, DWORD PTR _invCY$7[ebp]
	mulss	xmm0, DWORD PTR _invScaleX$21[ebp]
	movss	DWORD PTR _cZ$13[ebp], xmm0

; 1108 : 				}
; 1109 : 				else

	jmp	SHORT $LN3@DecomposeA
$LN4@DecomposeA:

; 1110 : 				{
; 1111 : 					// Gimbal lock - force X angle to 0
; 1112 : 					sX = 0.0f;

	movss	xmm0, DWORD PTR __real@00000000
	movss	DWORD PTR _sX$18[ebp], xmm0

; 1113 : 					cX = 1.0f;

	movss	xmm0, DWORD PTR __real@3f800000
	movss	DWORD PTR _cX$17[ebp], xmm0

; 1114 : 					sZ = -e10 * invScaleY;

	mov	eax, DWORD PTR _this$[ebp]
	movss	xmm0, DWORD PTR [eax+16]
	xorps	xmm0, DWORD PTR __xmm@80000000800000008000000080000000
	mulss	xmm0, DWORD PTR _invScaleY$20[ebp]
	movss	DWORD PTR _sZ$14[ebp], xmm0

; 1115 : 					cZ =  e11 * invScaleY;

	mov	eax, DWORD PTR _this$[ebp]
	movss	xmm0, DWORD PTR [eax+20]
	mulss	xmm0, DWORD PTR _invScaleY$20[ebp]
	movss	DWORD PTR _cZ$13[ebp], xmm0
$LN3@DecomposeA:

; 1116 : 				}
; 1117 : 				break;

	jmp	SHORT $LN21@DecomposeA
$LN2@DecomposeA:

; 1118 : 			}
; 1119 : 
; 1120 : 			default:
; 1121 : 				GEN_ERROR( "Invalid parameter" );

	mov	eax, DWORD PTR ?__LINE__Var@?1??DecomposeAffineEuler@CMatrix4x4@gen@@QBEXPAVCVector3@3@00W4ERotationOrder@3@@Z@4JA
	add	eax, 179				; 000000b3H
	push	eax
	push	OFFSET ??_C@_0EI@POGHFJCD@c?3?2users?2simon?2documents?2github?2@
	push	OFFSET ??_C@_0BC@DBAKKFEN@Invalid?5parameter?$AA@
	lea	ecx, DWORD PTR $T3[ebp]
	call	??0CFatalException@gen@@QAE@PBD0H@Z	; gen::CFatalException::CFatalException
	push	OFFSET __TI1?AVCFatalException@gen@@
	lea	ecx, DWORD PTR $T3[ebp]
	push	ecx
	call	__CxxThrowException@8
$LN21@DecomposeA:

; 1122 : 		}
; 1123 : 
; 1124 : 		pAngles->x = ATan( sX, cX );

	push	ecx
	movss	xmm0, DWORD PTR _cX$17[ebp]
	movss	DWORD PTR [esp], xmm0
	push	ecx
	movss	xmm0, DWORD PTR _sX$18[ebp]
	movss	DWORD PTR [esp], xmm0
	call	?ATan@gen@@YAMMM@Z			; gen::ATan
	add	esp, 8
	fstp	DWORD PTR tv409[ebp]
	mov	eax, DWORD PTR _pAngles$[ebp]
	movss	xmm0, DWORD PTR tv409[ebp]
	movss	DWORD PTR [eax], xmm0

; 1125 : 		pAngles->y = ATan( sY, cY );

	push	ecx
	movss	xmm0, DWORD PTR _cY$15[ebp]
	movss	DWORD PTR [esp], xmm0
	push	ecx
	movss	xmm0, DWORD PTR _sY$16[ebp]
	movss	DWORD PTR [esp], xmm0
	call	?ATan@gen@@YAMMM@Z			; gen::ATan
	add	esp, 8
	fstp	DWORD PTR tv410[ebp]
	mov	eax, DWORD PTR _pAngles$[ebp]
	movss	xmm0, DWORD PTR tv410[ebp]
	movss	DWORD PTR [eax+4], xmm0

; 1126 : 		pAngles->z = ATan( sZ, cZ );

	push	ecx
	movss	xmm0, DWORD PTR _cZ$13[ebp]
	movss	DWORD PTR [esp], xmm0
	push	ecx
	movss	xmm0, DWORD PTR _sZ$14[ebp]
	movss	DWORD PTR [esp], xmm0
	call	?ATan@gen@@YAMMM@Z			; gen::ATan
	add	esp, 8
	fstp	DWORD PTR tv411[ebp]
	mov	eax, DWORD PTR _pAngles$[ebp]
	movss	xmm0, DWORD PTR tv411[ebp]
	movss	DWORD PTR [eax+8], xmm0
$LN25@DecomposeA:

; 1127 : 	}
; 1128 : 
; 1129 : 	// Return scale if required
; 1130 : 	if (pScale)

	cmp	DWORD PTR _pScale$[ebp], 0
	je	SHORT $LN1@DecomposeA

; 1131 : 	{
; 1132 : 		pScale->x = scaleX;

	mov	eax, DWORD PTR _pScale$[ebp]
	movss	xmm0, DWORD PTR _scaleX$24[ebp]
	movss	DWORD PTR [eax], xmm0

; 1133 : 		pScale->y = scaleY;

	mov	eax, DWORD PTR _pScale$[ebp]
	movss	xmm0, DWORD PTR _scaleY$23[ebp]
	movss	DWORD PTR [eax+4], xmm0

; 1134 : 		pScale->z = scaleZ;

	mov	eax, DWORD PTR _pScale$[ebp]
	movss	xmm0, DWORD PTR _scaleZ$22[ebp]
	movss	DWORD PTR [eax+8], xmm0
$LN1@DecomposeA:
	jmp	SHORT $LN30@DecomposeA
__catch$?DecomposeAffineEuler@CMatrix4x4@gen@@QBEXPAVCVector3@2@00W4ERotationOrder@2@@Z$0:

; 1135 : 	}
; 1136 : 
; 1137 : 	GEN_ENDGUARD;

	push	0
	call	?ObjectName@gen@@YAPBDXZ		; gen::ObjectName
	push	eax
	push	OFFSET ??_C@_0CG@HIGNFPPJ@gen?3?3CMatrix4x4?3?3DecomposeAffine@
	mov	ecx, DWORD PTR _e$6[ebp]
	call	?AppendToCallStack@CFatalException@gen@@QAEXPBD0_N@Z ; gen::CFatalException::AppendToCallStack
	mov	eax, DWORD PTR _e$6[ebp]
	push	eax
	lea	ecx, DWORD PTR $T4[ebp]
	call	??0CFatalException@gen@@QAE@ABV01@@Z
	push	OFFSET __TI1?AVCFatalException@gen@@
	lea	ecx, DWORD PTR $T4[ebp]
	push	ecx
	call	__CxxThrowException@8
	mov	eax, $LN34@DecomposeA
	ret	0
__catch$?DecomposeAffineEuler@CMatrix4x4@gen@@QBEXPAVCVector3@2@00W4ERotationOrder@2@@Z$1:
	call	?ObjectName@gen@@YAPBDXZ		; gen::ObjectName
	push	eax
	push	OFFSET ??_C@_0CG@HIGNFPPJ@gen?3?3CMatrix4x4?3?3DecomposeAffine@
	push	OFFSET ??_C@_0EI@POGHFJCD@c?3?2users?2simon?2documents?2github?2@
	lea	ecx, DWORD PTR $T5[ebp]
	call	??0CFatalException@gen@@QAE@PBD00@Z	; gen::CFatalException::CFatalException
	push	OFFSET __TI1?AVCFatalException@gen@@
	lea	eax, DWORD PTR $T5[ebp]
	push	eax
	call	__CxxThrowException@8
	mov	eax, $LN36@DecomposeA
	ret	0
$LN30@DecomposeA:
	mov	DWORD PTR __$EHRec$[ebp+12], -1
	jmp	SHORT $LN35@DecomposeA
$LN36@DecomposeA:
	mov	DWORD PTR __$EHRec$[ebp+12], -1
	jmp	SHORT $LN33@DecomposeA
$LN35@DecomposeA:
	jmp	SHORT $LN33@DecomposeA
$LN34@DecomposeA:
	mov	DWORD PTR __$EHRec$[ebp+12], -1
$LN33@DecomposeA:
$LN28@DecomposeA:

; 1138 : }

	push	edx
	mov	ecx, ebp
	push	eax
	lea	edx, DWORD PTR $LN40@DecomposeA
	call	@_RTC_CheckStackVars@8
	pop	eax
	pop	edx
	mov	ecx, DWORD PTR __$EHRec$[ebp+4]
	mov	DWORD PTR fs:0, ecx
	pop	ecx
	pop	edi
	pop	esi
	pop	ebx
	mov	ecx, DWORD PTR __$ArrayPad$[ebp]
	xor	ecx, ebp
	call	@__security_check_cookie@4
	add	esp, 840				; 00000348H
	cmp	ebp, esp
	call	__RTC_CheckEsp
	mov	esp, ebp
	pop	ebp
	ret	16					; 00000010H
	npad	1
$LN40@DecomposeA:
	DD	1
	DD	$LN39@DecomposeA
$LN39@DecomposeA:
	DD	-256					; ffffff00H
	DD	4
	DD	$LN37@DecomposeA
$LN37@DecomposeA:
	DB	101					; 00000065H
	DB	0
	npad	2
$LN41@DecomposeA:
	DD	$LN5@DecomposeA
	DD	$LN14@DecomposeA
	DD	$LN17@DecomposeA
	DD	$LN8@DecomposeA
	DD	$LN11@DecomposeA
	DD	$LN20@DecomposeA
_TEXT	ENDS
;	COMDAT text$x
text$x	SEGMENT
__ehhandler$?DecomposeAffineEuler@CMatrix4x4@gen@@QBEXPAVCVector3@2@00W4ERotationOrder@2@@Z:
	mov	edx, DWORD PTR [esp+8]
	lea	eax, DWORD PTR [edx+12]
	mov	ecx, DWORD PTR [edx-844]
	xor	ecx, eax
	call	@__security_check_cookie@4
	mov	ecx, DWORD PTR [edx-8]
	xor	ecx, eax
	call	@__security_check_cookie@4
	mov	eax, OFFSET __ehfuncinfo$?DecomposeAffineEuler@CMatrix4x4@gen@@QBEXPAVCVector3@2@00W4ERotationOrder@2@@Z
	jmp	___CxxFrameHandler3
text$x	ENDS
?DecomposeAffineEuler@CMatrix4x4@gen@@QBEXPAVCVector3@2@00W4ERotationOrder@2@@Z ENDP ; gen::CMatrix4x4::DecomposeAffineEuler
; Function compile flags: /Odtp /RTCsu /ZI
; File c:\users\simon\documents\github\uclan-sparta\import\math\cmatrix4x4.cpp
;	COMDAT ?MakeAffineAxisAngle@CMatrix4x4@gen@@QAEXABVCVector3@2@M00@Z
_TEXT	SEGMENT
_this$ = -8						; size = 4
_axis$ = 8						; size = 4
_fAngle$ = 12						; size = 4
_position$ = 16						; size = 4
_scale$ = 20						; size = 4
?MakeAffineAxisAngle@CMatrix4x4@gen@@QAEXABVCVector3@2@M00@Z PROC ; gen::CMatrix4x4::MakeAffineAxisAngle, COMDAT
; _this$ = ecx

; 908  : {

	push	ebp
	mov	ebp, esp
	sub	esp, 204				; 000000ccH
	push	ebx
	push	esi
	push	edi
	push	ecx
	lea	edi, DWORD PTR [ebp-204]
	mov	ecx, 51					; 00000033H
	mov	eax, -858993460				; ccccccccH
	rep stosd
	pop	ecx
	mov	DWORD PTR _this$[ebp], ecx

; 909  : 	// First build rotation matrix
; 910  : 	MakeRotation( axis, fAngle );

	push	ecx
	movss	xmm0, DWORD PTR _fAngle$[ebp]
	movss	DWORD PTR [esp], xmm0
	mov	eax, DWORD PTR _axis$[ebp]
	push	eax
	mov	ecx, DWORD PTR _this$[ebp]
	call	?MakeRotation@CMatrix4x4@gen@@QAEXABVCVector3@2@M@Z ; gen::CMatrix4x4::MakeRotation

; 911  : 
; 912  : 	// Scale matrix
; 913  : 	e00 *= scale.x;

	mov	eax, DWORD PTR _this$[ebp]
	mov	ecx, DWORD PTR _scale$[ebp]
	movss	xmm0, DWORD PTR [eax]
	mulss	xmm0, DWORD PTR [ecx]
	mov	edx, DWORD PTR _this$[ebp]
	movss	DWORD PTR [edx], xmm0

; 914  : 	e01 *= scale.x;

	mov	eax, DWORD PTR _this$[ebp]
	mov	ecx, DWORD PTR _scale$[ebp]
	movss	xmm0, DWORD PTR [eax+4]
	mulss	xmm0, DWORD PTR [ecx]
	mov	edx, DWORD PTR _this$[ebp]
	movss	DWORD PTR [edx+4], xmm0

; 915  : 	e02 *= scale.x;

	mov	eax, DWORD PTR _this$[ebp]
	mov	ecx, DWORD PTR _scale$[ebp]
	movss	xmm0, DWORD PTR [eax+8]
	mulss	xmm0, DWORD PTR [ecx]
	mov	edx, DWORD PTR _this$[ebp]
	movss	DWORD PTR [edx+8], xmm0

; 916  : 
; 917  : 	e10 *= scale.y;

	mov	eax, DWORD PTR _this$[ebp]
	mov	ecx, DWORD PTR _scale$[ebp]
	movss	xmm0, DWORD PTR [eax+16]
	mulss	xmm0, DWORD PTR [ecx+4]
	mov	edx, DWORD PTR _this$[ebp]
	movss	DWORD PTR [edx+16], xmm0

; 918  : 	e11 *= scale.y;

	mov	eax, DWORD PTR _this$[ebp]
	mov	ecx, DWORD PTR _scale$[ebp]
	movss	xmm0, DWORD PTR [eax+20]
	mulss	xmm0, DWORD PTR [ecx+4]
	mov	edx, DWORD PTR _this$[ebp]
	movss	DWORD PTR [edx+20], xmm0

; 919  : 	e12 *= scale.y;

	mov	eax, DWORD PTR _this$[ebp]
	mov	ecx, DWORD PTR _scale$[ebp]
	movss	xmm0, DWORD PTR [eax+24]
	mulss	xmm0, DWORD PTR [ecx+4]
	mov	edx, DWORD PTR _this$[ebp]
	movss	DWORD PTR [edx+24], xmm0

; 920  : 
; 921  : 	e20 *= scale.z;

	mov	eax, DWORD PTR _this$[ebp]
	mov	ecx, DWORD PTR _scale$[ebp]
	movss	xmm0, DWORD PTR [eax+32]
	mulss	xmm0, DWORD PTR [ecx+8]
	mov	edx, DWORD PTR _this$[ebp]
	movss	DWORD PTR [edx+32], xmm0

; 922  : 	e21 *= scale.z;

	mov	eax, DWORD PTR _this$[ebp]
	mov	ecx, DWORD PTR _scale$[ebp]
	movss	xmm0, DWORD PTR [eax+36]
	mulss	xmm0, DWORD PTR [ecx+8]
	mov	edx, DWORD PTR _this$[ebp]
	movss	DWORD PTR [edx+36], xmm0

; 923  : 	e22 *= scale.z;

	mov	eax, DWORD PTR _this$[ebp]
	mov	ecx, DWORD PTR _scale$[ebp]
	movss	xmm0, DWORD PTR [eax+40]
	mulss	xmm0, DWORD PTR [ecx+8]
	mov	edx, DWORD PTR _this$[ebp]
	movss	DWORD PTR [edx+40], xmm0

; 924  : 
; 925  : 	// Put position (translation) in bottom row
; 926  : 	e30 = position.x;

	mov	eax, DWORD PTR _this$[ebp]
	mov	ecx, DWORD PTR _position$[ebp]
	mov	edx, DWORD PTR [ecx]
	mov	DWORD PTR [eax+48], edx

; 927  : 	e31 = position.y;

	mov	eax, DWORD PTR _this$[ebp]
	mov	ecx, DWORD PTR _position$[ebp]
	mov	edx, DWORD PTR [ecx+4]
	mov	DWORD PTR [eax+52], edx

; 928  : 	e32 = position.z;

	mov	eax, DWORD PTR _this$[ebp]
	mov	ecx, DWORD PTR _position$[ebp]
	mov	edx, DWORD PTR [ecx+8]
	mov	DWORD PTR [eax+56], edx

; 929  : }

	pop	edi
	pop	esi
	pop	ebx
	add	esp, 204				; 000000ccH
	cmp	ebp, esp
	call	__RTC_CheckEsp
	mov	esp, ebp
	pop	ebp
	ret	16					; 00000010H
?MakeAffineAxisAngle@CMatrix4x4@gen@@QAEXABVCVector3@2@M00@Z ENDP ; gen::CMatrix4x4::MakeAffineAxisAngle
_TEXT	ENDS
; Function compile flags: /Odtp /RTCsu /ZI
; File c:\users\simon\documents\github\uclan-sparta\import\math\cmatrix4x4.cpp
;	COMDAT ?MakeAffineQuaternion@CMatrix4x4@gen@@QAEXABVCQuaternion@2@ABVCVector3@2@1@Z
_TEXT	SEGMENT
_wz$ = -116						; size = 4
_wy$ = -104						; size = 4
_wx$ = -92						; size = 4
_zx$ = -80						; size = 4
_yz$ = -68						; size = 4
_xy$ = -56						; size = 4
_zz$ = -44						; size = 4
_yy$ = -32						; size = 4
_xx$ = -20						; size = 4
_this$ = -8						; size = 4
_quat$ = 8						; size = 4
_position$ = 12						; size = 4
_scale$ = 16						; size = 4
?MakeAffineQuaternion@CMatrix4x4@gen@@QAEXABVCQuaternion@2@ABVCVector3@2@1@Z PROC ; gen::CMatrix4x4::MakeAffineQuaternion, COMDAT
; _this$ = ecx

; 860  : {

	push	ebp
	mov	ebp, esp
	sub	esp, 312				; 00000138H
	push	ebx
	push	esi
	push	edi
	push	ecx
	lea	edi, DWORD PTR [ebp-312]
	mov	ecx, 78					; 0000004eH
	mov	eax, -858993460				; ccccccccH
	rep stosd
	pop	ecx
	mov	DWORD PTR _this$[ebp], ecx

; 861  : 	// Efficiently precalculate some values from the quaternion
; 862  : 	TFloat32 xx = 2*quat.x;

	mov	eax, DWORD PTR _quat$[ebp]
	movss	xmm0, DWORD PTR __real@40000000
	mulss	xmm0, DWORD PTR [eax+4]
	movss	DWORD PTR _xx$[ebp], xmm0

; 863  : 	TFloat32 yy = 2*quat.y;

	mov	eax, DWORD PTR _quat$[ebp]
	movss	xmm0, DWORD PTR __real@40000000
	mulss	xmm0, DWORD PTR [eax+8]
	movss	DWORD PTR _yy$[ebp], xmm0

; 864  : 	TFloat32 zz = 2*quat.z;

	mov	eax, DWORD PTR _quat$[ebp]
	movss	xmm0, DWORD PTR __real@40000000
	mulss	xmm0, DWORD PTR [eax+12]
	movss	DWORD PTR _zz$[ebp], xmm0

; 865  : 	TFloat32 xy = xx*quat.y;

	mov	eax, DWORD PTR _quat$[ebp]
	movss	xmm0, DWORD PTR _xx$[ebp]
	mulss	xmm0, DWORD PTR [eax+8]
	movss	DWORD PTR _xy$[ebp], xmm0

; 866  : 	TFloat32 yz = yy*quat.z;

	mov	eax, DWORD PTR _quat$[ebp]
	movss	xmm0, DWORD PTR _yy$[ebp]
	mulss	xmm0, DWORD PTR [eax+12]
	movss	DWORD PTR _yz$[ebp], xmm0

; 867  : 	TFloat32 zx = zz*quat.x;

	mov	eax, DWORD PTR _quat$[ebp]
	movss	xmm0, DWORD PTR _zz$[ebp]
	mulss	xmm0, DWORD PTR [eax+4]
	movss	DWORD PTR _zx$[ebp], xmm0

; 868  : 	TFloat32 wx = quat.w*xx;

	mov	eax, DWORD PTR _quat$[ebp]
	movss	xmm0, DWORD PTR [eax]
	mulss	xmm0, DWORD PTR _xx$[ebp]
	movss	DWORD PTR _wx$[ebp], xmm0

; 869  : 	TFloat32 wy = quat.w*yy;

	mov	eax, DWORD PTR _quat$[ebp]
	movss	xmm0, DWORD PTR [eax]
	mulss	xmm0, DWORD PTR _yy$[ebp]
	movss	DWORD PTR _wy$[ebp], xmm0

; 870  : 	TFloat32 wz = quat.w*zz;

	mov	eax, DWORD PTR _quat$[ebp]
	movss	xmm0, DWORD PTR [eax]
	mulss	xmm0, DWORD PTR _zz$[ebp]
	movss	DWORD PTR _wz$[ebp], xmm0

; 871  : 	xx *= quat.x;

	mov	eax, DWORD PTR _quat$[ebp]
	movss	xmm0, DWORD PTR _xx$[ebp]
	mulss	xmm0, DWORD PTR [eax+4]
	movss	DWORD PTR _xx$[ebp], xmm0

; 872  : 	yy *= quat.y;

	mov	eax, DWORD PTR _quat$[ebp]
	movss	xmm0, DWORD PTR _yy$[ebp]
	mulss	xmm0, DWORD PTR [eax+8]
	movss	DWORD PTR _yy$[ebp], xmm0

; 873  : 	zz *= quat.z;

	mov	eax, DWORD PTR _quat$[ebp]
	movss	xmm0, DWORD PTR _zz$[ebp]
	mulss	xmm0, DWORD PTR [eax+12]
	movss	DWORD PTR _zz$[ebp], xmm0

; 874  : 
; 875  : 	// Fill upper 3x3 matrix, combining scaling with rotation values from the quaternion
; 876  : 	e00  = scale.x * (1 - yy - zz);

	movss	xmm0, DWORD PTR __real@3f800000
	subss	xmm0, DWORD PTR _yy$[ebp]
	subss	xmm0, DWORD PTR _zz$[ebp]
	mov	eax, DWORD PTR _scale$[ebp]
	mulss	xmm0, DWORD PTR [eax]
	mov	ecx, DWORD PTR _this$[ebp]
	movss	DWORD PTR [ecx], xmm0

; 877  : 	e01  = scale.x * (xy + wz);

	movss	xmm0, DWORD PTR _xy$[ebp]
	addss	xmm0, DWORD PTR _wz$[ebp]
	mov	eax, DWORD PTR _scale$[ebp]
	mulss	xmm0, DWORD PTR [eax]
	mov	ecx, DWORD PTR _this$[ebp]
	movss	DWORD PTR [ecx+4], xmm0

; 878  : 	e02  = scale.x * (zx - wy);

	movss	xmm0, DWORD PTR _zx$[ebp]
	subss	xmm0, DWORD PTR _wy$[ebp]
	mov	eax, DWORD PTR _scale$[ebp]
	mulss	xmm0, DWORD PTR [eax]
	mov	ecx, DWORD PTR _this$[ebp]
	movss	DWORD PTR [ecx+8], xmm0

; 879  : 	e03  = 0.0f; // Add 0's in fourth column

	mov	eax, DWORD PTR _this$[ebp]
	movss	xmm0, DWORD PTR __real@00000000
	movss	DWORD PTR [eax+12], xmm0

; 880  : 
; 881  : 	e10  = scale.y * (xy - wz);

	movss	xmm0, DWORD PTR _xy$[ebp]
	subss	xmm0, DWORD PTR _wz$[ebp]
	mov	eax, DWORD PTR _scale$[ebp]
	mulss	xmm0, DWORD PTR [eax+4]
	mov	ecx, DWORD PTR _this$[ebp]
	movss	DWORD PTR [ecx+16], xmm0

; 882  : 	e11  = scale.y * (1 - xx - zz);

	movss	xmm0, DWORD PTR __real@3f800000
	subss	xmm0, DWORD PTR _xx$[ebp]
	subss	xmm0, DWORD PTR _zz$[ebp]
	mov	eax, DWORD PTR _scale$[ebp]
	mulss	xmm0, DWORD PTR [eax+4]
	mov	ecx, DWORD PTR _this$[ebp]
	movss	DWORD PTR [ecx+20], xmm0

; 883  : 	e12  = scale.y * (yz + wx);

	movss	xmm0, DWORD PTR _yz$[ebp]
	addss	xmm0, DWORD PTR _wx$[ebp]
	mov	eax, DWORD PTR _scale$[ebp]
	mulss	xmm0, DWORD PTR [eax+4]
	mov	ecx, DWORD PTR _this$[ebp]
	movss	DWORD PTR [ecx+24], xmm0

; 884  : 	e13  = 0.0f;

	mov	eax, DWORD PTR _this$[ebp]
	movss	xmm0, DWORD PTR __real@00000000
	movss	DWORD PTR [eax+28], xmm0

; 885  : 
; 886  : 	e20  = scale.z * (zx + wy);

	movss	xmm0, DWORD PTR _zx$[ebp]
	addss	xmm0, DWORD PTR _wy$[ebp]
	mov	eax, DWORD PTR _scale$[ebp]
	mulss	xmm0, DWORD PTR [eax+8]
	mov	ecx, DWORD PTR _this$[ebp]
	movss	DWORD PTR [ecx+32], xmm0

; 887  : 	e21  = scale.z * (yz - wx);

	movss	xmm0, DWORD PTR _yz$[ebp]
	subss	xmm0, DWORD PTR _wx$[ebp]
	mov	eax, DWORD PTR _scale$[ebp]
	mulss	xmm0, DWORD PTR [eax+8]
	mov	ecx, DWORD PTR _this$[ebp]
	movss	DWORD PTR [ecx+36], xmm0

; 888  : 	e22 = scale.z * (1 - xx - yy);

	movss	xmm0, DWORD PTR __real@3f800000
	subss	xmm0, DWORD PTR _xx$[ebp]
	subss	xmm0, DWORD PTR _yy$[ebp]
	mov	eax, DWORD PTR _scale$[ebp]
	mulss	xmm0, DWORD PTR [eax+8]
	mov	ecx, DWORD PTR _this$[ebp]
	movss	DWORD PTR [ecx+40], xmm0

; 889  : 	e23 = 0.0f;

	mov	eax, DWORD PTR _this$[ebp]
	movss	xmm0, DWORD PTR __real@00000000
	movss	DWORD PTR [eax+44], xmm0

; 890  : 
; 891  : 	// Put position (translation) in bottom row
; 892  : 	e30 = position.x;

	mov	eax, DWORD PTR _this$[ebp]
	mov	ecx, DWORD PTR _position$[ebp]
	mov	edx, DWORD PTR [ecx]
	mov	DWORD PTR [eax+48], edx

; 893  : 	e31 = position.y;

	mov	eax, DWORD PTR _this$[ebp]
	mov	ecx, DWORD PTR _position$[ebp]
	mov	edx, DWORD PTR [ecx+4]
	mov	DWORD PTR [eax+52], edx

; 894  : 	e32 = position.z;

	mov	eax, DWORD PTR _this$[ebp]
	mov	ecx, DWORD PTR _position$[ebp]
	mov	edx, DWORD PTR [ecx+8]
	mov	DWORD PTR [eax+56], edx

; 895  : 	e33 = 1.0f;

	mov	eax, DWORD PTR _this$[ebp]
	movss	xmm0, DWORD PTR __real@3f800000
	movss	DWORD PTR [eax+60], xmm0

; 896  : }

	pop	edi
	pop	esi
	pop	ebx
	mov	esp, ebp
	pop	ebp
	ret	12					; 0000000cH
?MakeAffineQuaternion@CMatrix4x4@gen@@QAEXABVCQuaternion@2@ABVCVector3@2@1@Z ENDP ; gen::CMatrix4x4::MakeAffineQuaternion
_TEXT	ENDS
; Function compile flags: /Odtp /RTCsu /ZI
; File c:\users\simon\documents\github\uclan-sparta\import\math\cmatrix4x4.cpp
;	COMDAT ?MakeAffineEuler@CMatrix4x4@gen@@QAEXABVCVector3@2@0W4ERotationOrder@2@0@Z
_TEXT	SEGMENT
_this$ = -8						; size = 4
_position$ = 8						; size = 4
_angles$ = 12						; size = 4
_eRotOrder$ = 16					; size = 4
_scale$ = 20						; size = 4
?MakeAffineEuler@CMatrix4x4@gen@@QAEXABVCVector3@2@0W4ERotationOrder@2@0@Z PROC ; gen::CMatrix4x4::MakeAffineEuler, COMDAT
; _this$ = ecx

; 828  : {

	push	ebp
	mov	ebp, esp
	sub	esp, 216				; 000000d8H
	push	ebx
	push	esi
	push	edi
	push	ecx
	lea	edi, DWORD PTR [ebp-216]
	mov	ecx, 54					; 00000036H
	mov	eax, -858993460				; ccccccccH
	rep stosd
	pop	ecx
	mov	DWORD PTR _this$[ebp], ecx

; 829  : 	// First build rotation matrix
; 830  : 	MakeRotation( angles, eRotOrder );

	mov	eax, DWORD PTR _eRotOrder$[ebp]
	push	eax
	sub	esp, 12					; 0000000cH
	mov	ecx, esp
	mov	edx, DWORD PTR _angles$[ebp]
	push	edx
	call	??0CVector3@gen@@QAE@ABV01@@Z		; gen::CVector3::CVector3
	mov	ecx, DWORD PTR _this$[ebp]
	call	?MakeRotation@CMatrix4x4@gen@@QAEXVCVector3@2@W4ERotationOrder@2@@Z ; gen::CMatrix4x4::MakeRotation

; 831  : 
; 832  : 	// Scale matrix
; 833  : 	e00 *= scale.x;

	mov	eax, DWORD PTR _this$[ebp]
	mov	ecx, DWORD PTR _scale$[ebp]
	movss	xmm0, DWORD PTR [eax]
	mulss	xmm0, DWORD PTR [ecx]
	mov	edx, DWORD PTR _this$[ebp]
	movss	DWORD PTR [edx], xmm0

; 834  : 	e01 *= scale.x;

	mov	eax, DWORD PTR _this$[ebp]
	mov	ecx, DWORD PTR _scale$[ebp]
	movss	xmm0, DWORD PTR [eax+4]
	mulss	xmm0, DWORD PTR [ecx]
	mov	edx, DWORD PTR _this$[ebp]
	movss	DWORD PTR [edx+4], xmm0

; 835  : 	e02 *= scale.x;

	mov	eax, DWORD PTR _this$[ebp]
	mov	ecx, DWORD PTR _scale$[ebp]
	movss	xmm0, DWORD PTR [eax+8]
	mulss	xmm0, DWORD PTR [ecx]
	mov	edx, DWORD PTR _this$[ebp]
	movss	DWORD PTR [edx+8], xmm0

; 836  : 
; 837  : 	e10 *= scale.y;

	mov	eax, DWORD PTR _this$[ebp]
	mov	ecx, DWORD PTR _scale$[ebp]
	movss	xmm0, DWORD PTR [eax+16]
	mulss	xmm0, DWORD PTR [ecx+4]
	mov	edx, DWORD PTR _this$[ebp]
	movss	DWORD PTR [edx+16], xmm0

; 838  : 	e11 *= scale.y;

	mov	eax, DWORD PTR _this$[ebp]
	mov	ecx, DWORD PTR _scale$[ebp]
	movss	xmm0, DWORD PTR [eax+20]
	mulss	xmm0, DWORD PTR [ecx+4]
	mov	edx, DWORD PTR _this$[ebp]
	movss	DWORD PTR [edx+20], xmm0

; 839  : 	e12 *= scale.y;

	mov	eax, DWORD PTR _this$[ebp]
	mov	ecx, DWORD PTR _scale$[ebp]
	movss	xmm0, DWORD PTR [eax+24]
	mulss	xmm0, DWORD PTR [ecx+4]
	mov	edx, DWORD PTR _this$[ebp]
	movss	DWORD PTR [edx+24], xmm0

; 840  : 
; 841  : 	e20 *= scale.z;

	mov	eax, DWORD PTR _this$[ebp]
	mov	ecx, DWORD PTR _scale$[ebp]
	movss	xmm0, DWORD PTR [eax+32]
	mulss	xmm0, DWORD PTR [ecx+8]
	mov	edx, DWORD PTR _this$[ebp]
	movss	DWORD PTR [edx+32], xmm0

; 842  : 	e21 *= scale.z;

	mov	eax, DWORD PTR _this$[ebp]
	mov	ecx, DWORD PTR _scale$[ebp]
	movss	xmm0, DWORD PTR [eax+36]
	mulss	xmm0, DWORD PTR [ecx+8]
	mov	edx, DWORD PTR _this$[ebp]
	movss	DWORD PTR [edx+36], xmm0

; 843  : 	e22 *= scale.z;

	mov	eax, DWORD PTR _this$[ebp]
	mov	ecx, DWORD PTR _scale$[ebp]
	movss	xmm0, DWORD PTR [eax+40]
	mulss	xmm0, DWORD PTR [ecx+8]
	mov	edx, DWORD PTR _this$[ebp]
	movss	DWORD PTR [edx+40], xmm0

; 844  : 
; 845  : 	// Put position (translation) in bottom row
; 846  : 	e30 = position.x;

	mov	eax, DWORD PTR _this$[ebp]
	mov	ecx, DWORD PTR _position$[ebp]
	mov	edx, DWORD PTR [ecx]
	mov	DWORD PTR [eax+48], edx

; 847  : 	e31 = position.y;

	mov	eax, DWORD PTR _this$[ebp]
	mov	ecx, DWORD PTR _position$[ebp]
	mov	edx, DWORD PTR [ecx+4]
	mov	DWORD PTR [eax+52], edx

; 848  : 	e32 = position.z;

	mov	eax, DWORD PTR _this$[ebp]
	mov	ecx, DWORD PTR _position$[ebp]
	mov	edx, DWORD PTR [ecx+8]
	mov	DWORD PTR [eax+56], edx

; 849  : }

	pop	edi
	pop	esi
	pop	ebx
	add	esp, 216				; 000000d8H
	cmp	ebp, esp
	call	__RTC_CheckEsp
	mov	esp, ebp
	pop	ebp
	ret	16					; 00000010H
?MakeAffineEuler@CMatrix4x4@gen@@QAEXABVCVector3@2@0W4ERotationOrder@2@0@Z ENDP ; gen::CMatrix4x4::MakeAffineEuler
_TEXT	ENDS
; Function compile flags: /Odtp /RTCsu /ZI
; File c:\users\simon\documents\github\uclan-sparta\import\math\cmatrix4x4.h
;	COMDAT ??ACMatrix4x4@gen@@QBEABVCVector4@1@I@Z
_TEXT	SEGMENT
_this$ = -8						; size = 4
_iRow$ = 8						; size = 4
??ACMatrix4x4@gen@@QBEABVCVector4@1@I@Z PROC		; gen::CMatrix4x4::operator[], COMDAT
; _this$ = ecx

; 307  : 	{

	push	ebp
	mov	ebp, esp
	sub	esp, 204				; 000000ccH
	push	ebx
	push	esi
	push	edi
	push	ecx
	lea	edi, DWORD PTR [ebp-204]
	mov	ecx, 51					; 00000033H
	mov	eax, -858993460				; ccccccccH
	rep stosd
	pop	ecx
	mov	DWORD PTR _this$[ebp], ecx

; 308  : 		return *reinterpret_cast<const CVector4*>(&e00 + iRow * 4);

	mov	eax, DWORD PTR _iRow$[ebp]
	shl	eax, 2
	mov	ecx, DWORD PTR _this$[ebp]
	lea	eax, DWORD PTR [ecx+eax*4]

; 309  : 	}

	pop	edi
	pop	esi
	pop	ebx
	mov	esp, ebp
	pop	ebp
	ret	4
??ACMatrix4x4@gen@@QBEABVCVector4@1@I@Z ENDP		; gen::CMatrix4x4::operator[]
_TEXT	ENDS
; Function compile flags: /Odtp /RTCsu /ZI
; File c:\users\simon\documents\github\uclan-sparta\import\math\cmatrix4x4.h
;	COMDAT ??ACMatrix4x4@gen@@QAEAAVCVector4@1@I@Z
_TEXT	SEGMENT
_this$ = -8						; size = 4
_iRow$ = 8						; size = 4
??ACMatrix4x4@gen@@QAEAAVCVector4@1@I@Z PROC		; gen::CMatrix4x4::operator[], COMDAT
; _this$ = ecx

; 300  : 	{

	push	ebp
	mov	ebp, esp
	sub	esp, 204				; 000000ccH
	push	ebx
	push	esi
	push	edi
	push	ecx
	lea	edi, DWORD PTR [ebp-204]
	mov	ecx, 51					; 00000033H
	mov	eax, -858993460				; ccccccccH
	rep stosd
	pop	ecx
	mov	DWORD PTR _this$[ebp], ecx

; 301  : 		return *reinterpret_cast<CVector4*>(&e00 + iRow * 4);

	mov	eax, DWORD PTR _iRow$[ebp]
	shl	eax, 2
	mov	ecx, DWORD PTR _this$[ebp]
	lea	eax, DWORD PTR [ecx+eax*4]

; 302  : 	}

	pop	edi
	pop	esi
	pop	ebx
	mov	esp, ebp
	pop	ebp
	ret	4
??ACMatrix4x4@gen@@QAEAAVCVector4@1@I@Z ENDP		; gen::CMatrix4x4::operator[]
_TEXT	ENDS
; Function compile flags: /Odtp /RTCsu /ZI
; File c:\users\simon\documents\github\uclan-sparta\import\math\cmatrix4x4.cpp
;	COMDAT ?SetColumns@CMatrix4x4@gen@@QAEXABVCVector3@2@000@Z
_TEXT	SEGMENT
_this$ = -8						; size = 4
_v0$ = 8						; size = 4
_v1$ = 12						; size = 4
_v2$ = 16						; size = 4
_v3$ = 20						; size = 4
?SetColumns@CMatrix4x4@gen@@QAEXABVCVector3@2@000@Z PROC ; gen::CMatrix4x4::SetColumns, COMDAT
; _this$ = ecx

; 790  : {

	push	ebp
	mov	ebp, esp
	sub	esp, 204				; 000000ccH
	push	ebx
	push	esi
	push	edi
	push	ecx
	lea	edi, DWORD PTR [ebp-204]
	mov	ecx, 51					; 00000033H
	mov	eax, -858993460				; ccccccccH
	rep stosd
	pop	ecx
	mov	DWORD PTR _this$[ebp], ecx

; 791  : 	e00 = v0.x;

	mov	eax, DWORD PTR _this$[ebp]
	mov	ecx, DWORD PTR _v0$[ebp]
	mov	edx, DWORD PTR [ecx]
	mov	DWORD PTR [eax], edx

; 792  : 	e10 = v0.y;

	mov	eax, DWORD PTR _this$[ebp]
	mov	ecx, DWORD PTR _v0$[ebp]
	mov	edx, DWORD PTR [ecx+4]
	mov	DWORD PTR [eax+16], edx

; 793  : 	e20 = v0.z;

	mov	eax, DWORD PTR _this$[ebp]
	mov	ecx, DWORD PTR _v0$[ebp]
	mov	edx, DWORD PTR [ecx+8]
	mov	DWORD PTR [eax+32], edx

; 794  : 
; 795  : 	e01 = v1.x;

	mov	eax, DWORD PTR _this$[ebp]
	mov	ecx, DWORD PTR _v1$[ebp]
	mov	edx, DWORD PTR [ecx]
	mov	DWORD PTR [eax+4], edx

; 796  : 	e11 = v1.y;

	mov	eax, DWORD PTR _this$[ebp]
	mov	ecx, DWORD PTR _v1$[ebp]
	mov	edx, DWORD PTR [ecx+4]
	mov	DWORD PTR [eax+20], edx

; 797  : 	e21 = v1.z;

	mov	eax, DWORD PTR _this$[ebp]
	mov	ecx, DWORD PTR _v1$[ebp]
	mov	edx, DWORD PTR [ecx+8]
	mov	DWORD PTR [eax+36], edx

; 798  : 
; 799  : 	e02 = v2.x;

	mov	eax, DWORD PTR _this$[ebp]
	mov	ecx, DWORD PTR _v2$[ebp]
	mov	edx, DWORD PTR [ecx]
	mov	DWORD PTR [eax+8], edx

; 800  : 	e12 = v2.y;

	mov	eax, DWORD PTR _this$[ebp]
	mov	ecx, DWORD PTR _v2$[ebp]
	mov	edx, DWORD PTR [ecx+4]
	mov	DWORD PTR [eax+24], edx

; 801  : 	e22 = v2.z;

	mov	eax, DWORD PTR _this$[ebp]
	mov	ecx, DWORD PTR _v2$[ebp]
	mov	edx, DWORD PTR [ecx+8]
	mov	DWORD PTR [eax+40], edx

; 802  : 
; 803  : 	e03 = v3.x;

	mov	eax, DWORD PTR _this$[ebp]
	mov	ecx, DWORD PTR _v3$[ebp]
	mov	edx, DWORD PTR [ecx]
	mov	DWORD PTR [eax+12], edx

; 804  : 	e13 = v3.y;

	mov	eax, DWORD PTR _this$[ebp]
	mov	ecx, DWORD PTR _v3$[ebp]
	mov	edx, DWORD PTR [ecx+4]
	mov	DWORD PTR [eax+28], edx

; 805  : 	e23 = v3.z;

	mov	eax, DWORD PTR _this$[ebp]
	mov	ecx, DWORD PTR _v3$[ebp]
	mov	edx, DWORD PTR [ecx+8]
	mov	DWORD PTR [eax+44], edx

; 806  : 
; 807  : 	e30 = 0.0f;

	mov	eax, DWORD PTR _this$[ebp]
	movss	xmm0, DWORD PTR __real@00000000
	movss	DWORD PTR [eax+48], xmm0

; 808  : 	e31 = 0.0f;

	mov	eax, DWORD PTR _this$[ebp]
	movss	xmm0, DWORD PTR __real@00000000
	movss	DWORD PTR [eax+52], xmm0

; 809  : 	e32 = 0.0f;

	mov	eax, DWORD PTR _this$[ebp]
	movss	xmm0, DWORD PTR __real@00000000
	movss	DWORD PTR [eax+56], xmm0

; 810  : 	e33 = 1.0f;

	mov	eax, DWORD PTR _this$[ebp]
	movss	xmm0, DWORD PTR __real@3f800000
	movss	DWORD PTR [eax+60], xmm0

; 811  : }

	pop	edi
	pop	esi
	pop	ebx
	mov	esp, ebp
	pop	ebp
	ret	16					; 00000010H
?SetColumns@CMatrix4x4@gen@@QAEXABVCVector3@2@000@Z ENDP ; gen::CMatrix4x4::SetColumns
_TEXT	ENDS
; Function compile flags: /Odtp /RTCsu /ZI
; File c:\users\simon\documents\github\uclan-sparta\import\math\cmatrix4x4.cpp
;	COMDAT ?SetColumns@CMatrix4x4@gen@@QAEXABVCVector4@2@000@Z
_TEXT	SEGMENT
_this$ = -8						; size = 4
_v0$ = 8						; size = 4
_v1$ = 12						; size = 4
_v2$ = 16						; size = 4
_v3$ = 20						; size = 4
?SetColumns@CMatrix4x4@gen@@QAEXABVCVector4@2@000@Z PROC ; gen::CMatrix4x4::SetColumns, COMDAT
; _this$ = ecx

; 759  : {

	push	ebp
	mov	ebp, esp
	sub	esp, 204				; 000000ccH
	push	ebx
	push	esi
	push	edi
	push	ecx
	lea	edi, DWORD PTR [ebp-204]
	mov	ecx, 51					; 00000033H
	mov	eax, -858993460				; ccccccccH
	rep stosd
	pop	ecx
	mov	DWORD PTR _this$[ebp], ecx

; 760  : 	e00 = v0.x;

	mov	eax, DWORD PTR _this$[ebp]
	mov	ecx, DWORD PTR _v0$[ebp]
	mov	edx, DWORD PTR [ecx]
	mov	DWORD PTR [eax], edx

; 761  : 	e10 = v0.y;

	mov	eax, DWORD PTR _this$[ebp]
	mov	ecx, DWORD PTR _v0$[ebp]
	mov	edx, DWORD PTR [ecx+4]
	mov	DWORD PTR [eax+16], edx

; 762  : 	e20 = v0.z;

	mov	eax, DWORD PTR _this$[ebp]
	mov	ecx, DWORD PTR _v0$[ebp]
	mov	edx, DWORD PTR [ecx+8]
	mov	DWORD PTR [eax+32], edx

; 763  : 	e30 = v0.w;

	mov	eax, DWORD PTR _this$[ebp]
	mov	ecx, DWORD PTR _v0$[ebp]
	mov	edx, DWORD PTR [ecx+12]
	mov	DWORD PTR [eax+48], edx

; 764  : 
; 765  : 	e01 = v1.x;

	mov	eax, DWORD PTR _this$[ebp]
	mov	ecx, DWORD PTR _v1$[ebp]
	mov	edx, DWORD PTR [ecx]
	mov	DWORD PTR [eax+4], edx

; 766  : 	e11 = v1.y;

	mov	eax, DWORD PTR _this$[ebp]
	mov	ecx, DWORD PTR _v1$[ebp]
	mov	edx, DWORD PTR [ecx+4]
	mov	DWORD PTR [eax+20], edx

; 767  : 	e21 = v1.z;

	mov	eax, DWORD PTR _this$[ebp]
	mov	ecx, DWORD PTR _v1$[ebp]
	mov	edx, DWORD PTR [ecx+8]
	mov	DWORD PTR [eax+36], edx

; 768  : 	e31 = v1.w;

	mov	eax, DWORD PTR _this$[ebp]
	mov	ecx, DWORD PTR _v1$[ebp]
	mov	edx, DWORD PTR [ecx+12]
	mov	DWORD PTR [eax+52], edx

; 769  : 
; 770  : 	e02 = v2.x;

	mov	eax, DWORD PTR _this$[ebp]
	mov	ecx, DWORD PTR _v2$[ebp]
	mov	edx, DWORD PTR [ecx]
	mov	DWORD PTR [eax+8], edx

; 771  : 	e12 = v2.y;

	mov	eax, DWORD PTR _this$[ebp]
	mov	ecx, DWORD PTR _v2$[ebp]
	mov	edx, DWORD PTR [ecx+4]
	mov	DWORD PTR [eax+24], edx

; 772  : 	e22 = v2.z;

	mov	eax, DWORD PTR _this$[ebp]
	mov	ecx, DWORD PTR _v2$[ebp]
	mov	edx, DWORD PTR [ecx+8]
	mov	DWORD PTR [eax+40], edx

; 773  : 	e32 = v2.w;

	mov	eax, DWORD PTR _this$[ebp]
	mov	ecx, DWORD PTR _v2$[ebp]
	mov	edx, DWORD PTR [ecx+12]
	mov	DWORD PTR [eax+56], edx

; 774  : 
; 775  : 	e03 = v3.x;

	mov	eax, DWORD PTR _this$[ebp]
	mov	ecx, DWORD PTR _v3$[ebp]
	mov	edx, DWORD PTR [ecx]
	mov	DWORD PTR [eax+12], edx

; 776  : 	e13 = v3.y;

	mov	eax, DWORD PTR _this$[ebp]
	mov	ecx, DWORD PTR _v3$[ebp]
	mov	edx, DWORD PTR [ecx+4]
	mov	DWORD PTR [eax+28], edx

; 777  : 	e23 = v3.z;

	mov	eax, DWORD PTR _this$[ebp]
	mov	ecx, DWORD PTR _v3$[ebp]
	mov	edx, DWORD PTR [ecx+8]
	mov	DWORD PTR [eax+44], edx

; 778  : 	e33 = v3.w;

	mov	eax, DWORD PTR _this$[ebp]
	mov	ecx, DWORD PTR _v3$[ebp]
	mov	edx, DWORD PTR [ecx+12]
	mov	DWORD PTR [eax+60], edx

; 779  : }

	pop	edi
	pop	esi
	pop	ebx
	mov	esp, ebp
	pop	ebp
	ret	16					; 00000010H
?SetColumns@CMatrix4x4@gen@@QAEXABVCVector4@2@000@Z ENDP ; gen::CMatrix4x4::SetColumns
_TEXT	ENDS
; Function compile flags: /Odtp /RTCsu /ZI
; File c:\users\simon\documents\github\uclan-sparta\import\math\cmatrix4x4.cpp
;	COMDAT ?SetRows@CMatrix4x4@gen@@QAEXABVCVector3@2@000@Z
_TEXT	SEGMENT
_this$ = -8						; size = 4
_v0$ = 8						; size = 4
_v1$ = 12						; size = 4
_v2$ = 16						; size = 4
_v3$ = 20						; size = 4
?SetRows@CMatrix4x4@gen@@QAEXABVCVector3@2@000@Z PROC	; gen::CMatrix4x4::SetRows, COMDAT
; _this$ = ecx

; 728  : {

	push	ebp
	mov	ebp, esp
	sub	esp, 204				; 000000ccH
	push	ebx
	push	esi
	push	edi
	push	ecx
	lea	edi, DWORD PTR [ebp-204]
	mov	ecx, 51					; 00000033H
	mov	eax, -858993460				; ccccccccH
	rep stosd
	pop	ecx
	mov	DWORD PTR _this$[ebp], ecx

; 729  : 	e00 = v0.x;

	mov	eax, DWORD PTR _this$[ebp]
	mov	ecx, DWORD PTR _v0$[ebp]
	mov	edx, DWORD PTR [ecx]
	mov	DWORD PTR [eax], edx

; 730  : 	e01 = v0.y;

	mov	eax, DWORD PTR _this$[ebp]
	mov	ecx, DWORD PTR _v0$[ebp]
	mov	edx, DWORD PTR [ecx+4]
	mov	DWORD PTR [eax+4], edx

; 731  : 	e02 = v0.z;

	mov	eax, DWORD PTR _this$[ebp]
	mov	ecx, DWORD PTR _v0$[ebp]
	mov	edx, DWORD PTR [ecx+8]
	mov	DWORD PTR [eax+8], edx

; 732  : 	e03 = 0.0f;

	mov	eax, DWORD PTR _this$[ebp]
	movss	xmm0, DWORD PTR __real@00000000
	movss	DWORD PTR [eax+12], xmm0

; 733  : 
; 734  : 	e10 = v1.x;

	mov	eax, DWORD PTR _this$[ebp]
	mov	ecx, DWORD PTR _v1$[ebp]
	mov	edx, DWORD PTR [ecx]
	mov	DWORD PTR [eax+16], edx

; 735  : 	e11 = v1.y;

	mov	eax, DWORD PTR _this$[ebp]
	mov	ecx, DWORD PTR _v1$[ebp]
	mov	edx, DWORD PTR [ecx+4]
	mov	DWORD PTR [eax+20], edx

; 736  : 	e12 = v1.z;

	mov	eax, DWORD PTR _this$[ebp]
	mov	ecx, DWORD PTR _v1$[ebp]
	mov	edx, DWORD PTR [ecx+8]
	mov	DWORD PTR [eax+24], edx

; 737  : 	e13 = 0.0f;

	mov	eax, DWORD PTR _this$[ebp]
	movss	xmm0, DWORD PTR __real@00000000
	movss	DWORD PTR [eax+28], xmm0

; 738  : 
; 739  : 	e20 = v2.x;

	mov	eax, DWORD PTR _this$[ebp]
	mov	ecx, DWORD PTR _v2$[ebp]
	mov	edx, DWORD PTR [ecx]
	mov	DWORD PTR [eax+32], edx

; 740  : 	e21 = v2.y;

	mov	eax, DWORD PTR _this$[ebp]
	mov	ecx, DWORD PTR _v2$[ebp]
	mov	edx, DWORD PTR [ecx+4]
	mov	DWORD PTR [eax+36], edx

; 741  : 	e22 = v2.z;

	mov	eax, DWORD PTR _this$[ebp]
	mov	ecx, DWORD PTR _v2$[ebp]
	mov	edx, DWORD PTR [ecx+8]
	mov	DWORD PTR [eax+40], edx

; 742  : 	e23 = 0.0f;

	mov	eax, DWORD PTR _this$[ebp]
	movss	xmm0, DWORD PTR __real@00000000
	movss	DWORD PTR [eax+44], xmm0

; 743  : 
; 744  : 	e30 = v3.x;

	mov	eax, DWORD PTR _this$[ebp]
	mov	ecx, DWORD PTR _v3$[ebp]
	mov	edx, DWORD PTR [ecx]
	mov	DWORD PTR [eax+48], edx

; 745  : 	e31 = v3.y;

	mov	eax, DWORD PTR _this$[ebp]
	mov	ecx, DWORD PTR _v3$[ebp]
	mov	edx, DWORD PTR [ecx+4]
	mov	DWORD PTR [eax+52], edx

; 746  : 	e32 = v3.z;

	mov	eax, DWORD PTR _this$[ebp]
	mov	ecx, DWORD PTR _v3$[ebp]
	mov	edx, DWORD PTR [ecx+8]
	mov	DWORD PTR [eax+56], edx

; 747  : 	e33 = 1.0f;

	mov	eax, DWORD PTR _this$[ebp]
	movss	xmm0, DWORD PTR __real@3f800000
	movss	DWORD PTR [eax+60], xmm0

; 748  : }

	pop	edi
	pop	esi
	pop	ebx
	mov	esp, ebp
	pop	ebp
	ret	16					; 00000010H
?SetRows@CMatrix4x4@gen@@QAEXABVCVector3@2@000@Z ENDP	; gen::CMatrix4x4::SetRows
_TEXT	ENDS
; Function compile flags: /Odtp /RTCsu /ZI
; File c:\users\simon\documents\github\uclan-sparta\import\math\cmatrix4x4.cpp
;	COMDAT ?SetRows@CMatrix4x4@gen@@QAEXABVCVector4@2@000@Z
_TEXT	SEGMENT
_this$ = -8						; size = 4
_v0$ = 8						; size = 4
_v1$ = 12						; size = 4
_v2$ = 16						; size = 4
_v3$ = 20						; size = 4
?SetRows@CMatrix4x4@gen@@QAEXABVCVector4@2@000@Z PROC	; gen::CMatrix4x4::SetRows, COMDAT
; _this$ = ecx

; 697  : {

	push	ebp
	mov	ebp, esp
	sub	esp, 204				; 000000ccH
	push	ebx
	push	esi
	push	edi
	push	ecx
	lea	edi, DWORD PTR [ebp-204]
	mov	ecx, 51					; 00000033H
	mov	eax, -858993460				; ccccccccH
	rep stosd
	pop	ecx
	mov	DWORD PTR _this$[ebp], ecx

; 698  : 	e00 = v0.x;

	mov	eax, DWORD PTR _this$[ebp]
	mov	ecx, DWORD PTR _v0$[ebp]
	mov	edx, DWORD PTR [ecx]
	mov	DWORD PTR [eax], edx

; 699  : 	e01 = v0.y;

	mov	eax, DWORD PTR _this$[ebp]
	mov	ecx, DWORD PTR _v0$[ebp]
	mov	edx, DWORD PTR [ecx+4]
	mov	DWORD PTR [eax+4], edx

; 700  : 	e02 = v0.z;

	mov	eax, DWORD PTR _this$[ebp]
	mov	ecx, DWORD PTR _v0$[ebp]
	mov	edx, DWORD PTR [ecx+8]
	mov	DWORD PTR [eax+8], edx

; 701  : 	e03 = v0.w;

	mov	eax, DWORD PTR _this$[ebp]
	mov	ecx, DWORD PTR _v0$[ebp]
	mov	edx, DWORD PTR [ecx+12]
	mov	DWORD PTR [eax+12], edx

; 702  : 
; 703  : 	e10 = v1.x;

	mov	eax, DWORD PTR _this$[ebp]
	mov	ecx, DWORD PTR _v1$[ebp]
	mov	edx, DWORD PTR [ecx]
	mov	DWORD PTR [eax+16], edx

; 704  : 	e11 = v1.y;

	mov	eax, DWORD PTR _this$[ebp]
	mov	ecx, DWORD PTR _v1$[ebp]
	mov	edx, DWORD PTR [ecx+4]
	mov	DWORD PTR [eax+20], edx

; 705  : 	e12 = v1.z;

	mov	eax, DWORD PTR _this$[ebp]
	mov	ecx, DWORD PTR _v1$[ebp]
	mov	edx, DWORD PTR [ecx+8]
	mov	DWORD PTR [eax+24], edx

; 706  : 	e13 = v1.w;

	mov	eax, DWORD PTR _this$[ebp]
	mov	ecx, DWORD PTR _v1$[ebp]
	mov	edx, DWORD PTR [ecx+12]
	mov	DWORD PTR [eax+28], edx

; 707  : 
; 708  : 	e20 = v2.x;

	mov	eax, DWORD PTR _this$[ebp]
	mov	ecx, DWORD PTR _v2$[ebp]
	mov	edx, DWORD PTR [ecx]
	mov	DWORD PTR [eax+32], edx

; 709  : 	e21 = v2.y;

	mov	eax, DWORD PTR _this$[ebp]
	mov	ecx, DWORD PTR _v2$[ebp]
	mov	edx, DWORD PTR [ecx+4]
	mov	DWORD PTR [eax+36], edx

; 710  : 	e22 = v2.z;

	mov	eax, DWORD PTR _this$[ebp]
	mov	ecx, DWORD PTR _v2$[ebp]
	mov	edx, DWORD PTR [ecx+8]
	mov	DWORD PTR [eax+40], edx

; 711  : 	e23 = v2.w;

	mov	eax, DWORD PTR _this$[ebp]
	mov	ecx, DWORD PTR _v2$[ebp]
	mov	edx, DWORD PTR [ecx+12]
	mov	DWORD PTR [eax+44], edx

; 712  : 
; 713  : 	e30 = v3.x;

	mov	eax, DWORD PTR _this$[ebp]
	mov	ecx, DWORD PTR _v3$[ebp]
	mov	edx, DWORD PTR [ecx]
	mov	DWORD PTR [eax+48], edx

; 714  : 	e31 = v3.y;

	mov	eax, DWORD PTR _this$[ebp]
	mov	ecx, DWORD PTR _v3$[ebp]
	mov	edx, DWORD PTR [ecx+4]
	mov	DWORD PTR [eax+52], edx

; 715  : 	e32 = v3.z;

	mov	eax, DWORD PTR _this$[ebp]
	mov	ecx, DWORD PTR _v3$[ebp]
	mov	edx, DWORD PTR [ecx+8]
	mov	DWORD PTR [eax+56], edx

; 716  : 	e33 = v3.w;

	mov	eax, DWORD PTR _this$[ebp]
	mov	ecx, DWORD PTR _v3$[ebp]
	mov	edx, DWORD PTR [ecx+12]
	mov	DWORD PTR [eax+60], edx

; 717  : }

	pop	edi
	pop	esi
	pop	ebx
	mov	esp, ebp
	pop	ebp
	ret	16					; 00000010H
?SetRows@CMatrix4x4@gen@@QAEXABVCVector4@2@000@Z ENDP	; gen::CMatrix4x4::SetRows
_TEXT	ENDS
; Function compile flags: /Odtp /RTCsu /ZI
; File c:\users\simon\documents\github\uclan-sparta\import\math\cmatrix4x4.cpp
;	COMDAT ?SetColumn@CMatrix4x4@gen@@QAEXIABVCVector3@2@@Z
_TEXT	SEGMENT
$T2 = -532						; size = 88
$T3 = -436						; size = 88
$T4 = -340						; size = 88
_e$5 = -52						; size = 4
_pfElts$6 = -40						; size = 4
_this$ = -28						; size = 4
__$ArrayPad$ = -20					; size = 4
__$EHRec$ = -16						; size = 16
_iCol$ = 8						; size = 4
_v$ = 12						; size = 4
?SetColumn@CMatrix4x4@gen@@QAEXIABVCVector3@2@@Z PROC	; gen::CMatrix4x4::SetColumn, COMDAT
; _this$ = ecx

; 676  : {

	push	ebp
	mov	ebp, esp
	push	-1
	push	__ehhandler$?SetColumn@CMatrix4x4@gen@@QAEXIABVCVector3@2@@Z
	mov	eax, DWORD PTR fs:0
	push	eax
	push	ecx
	sub	esp, 520				; 00000208H
	push	ebx
	push	esi
	push	edi
	push	ecx
	lea	edi, DWORD PTR [ebp-536]
	mov	ecx, 130				; 00000082H
	mov	eax, -858993460				; ccccccccH
	rep stosd
	pop	ecx
	mov	eax, DWORD PTR ___security_cookie
	xor	eax, ebp
	mov	DWORD PTR __$ArrayPad$[ebp], eax
	push	eax
	lea	eax, DWORD PTR __$EHRec$[ebp+4]
	mov	DWORD PTR fs:0, eax
	mov	DWORD PTR __$EHRec$[ebp], esp
	mov	DWORD PTR _this$[ebp], ecx

; 677  : 	GEN_GUARD_OPT;

	mov	DWORD PTR __$EHRec$[ebp+12], 0

; 678  : 	GEN_ASSERT_OPT( iCol < 4, "Invalid parameter" );

	cmp	DWORD PTR _iCol$[ebp], 4
	jb	SHORT $LN1@SetColumn
	mov	eax, DWORD PTR ?__LINE__Var@?1??SetColumn@CMatrix4x4@gen@@QAEXIABVCVector3@3@@Z@4JA
	add	eax, 2
	push	eax
	push	OFFSET ??_C@_0EI@POGHFJCD@c?3?2users?2simon?2documents?2github?2@
	push	OFFSET ??_C@_0BC@DBAKKFEN@Invalid?5parameter?$AA@
	lea	ecx, DWORD PTR $T2[ebp]
	call	??0CFatalException@gen@@QAE@PBD0H@Z	; gen::CFatalException::CFatalException
	push	OFFSET __TI1?AVCFatalException@gen@@
	lea	ecx, DWORD PTR $T2[ebp]
	push	ecx
	call	__CxxThrowException@8
$LN1@SetColumn:

; 679  : 
; 680  : 	TFloat32* pfElts = &e00 + iCol;

	mov	eax, DWORD PTR _iCol$[ebp]
	mov	ecx, DWORD PTR _this$[ebp]
	lea	edx, DWORD PTR [ecx+eax*4]
	mov	DWORD PTR _pfElts$6[ebp], edx

; 681  : 	pfElts[0] = v.x;

	mov	eax, 4
	imul	ecx, eax, 0
	mov	edx, DWORD PTR _pfElts$6[ebp]
	mov	eax, DWORD PTR _v$[ebp]
	mov	eax, DWORD PTR [eax]
	mov	DWORD PTR [edx+ecx], eax

; 682  : 	pfElts[4] = v.y;

	mov	eax, 4
	shl	eax, 2
	mov	ecx, DWORD PTR _pfElts$6[ebp]
	mov	edx, DWORD PTR _v$[ebp]
	mov	edx, DWORD PTR [edx+4]
	mov	DWORD PTR [ecx+eax], edx

; 683  : 	pfElts[8] = v.z;

	mov	eax, 4
	shl	eax, 3
	mov	ecx, DWORD PTR _pfElts$6[ebp]
	mov	edx, DWORD PTR _v$[ebp]
	mov	edx, DWORD PTR [edx+8]
	mov	DWORD PTR [ecx+eax], edx
	jmp	SHORT $LN5@SetColumn
__catch$?SetColumn@CMatrix4x4@gen@@QAEXIABVCVector3@2@@Z$0:

; 684  : 
; 685  : 	GEN_ENDGUARD_OPT;

	push	0
	call	?ObjectName@gen@@YAPBDXZ		; gen::ObjectName
	push	eax
	push	OFFSET ??_C@_0BL@LGANNJAP@gen?3?3CMatrix4x4?3?3SetColumn?$AA@
	mov	ecx, DWORD PTR _e$5[ebp]
	call	?AppendToCallStack@CFatalException@gen@@QAEXPBD0_N@Z ; gen::CFatalException::AppendToCallStack
	mov	eax, DWORD PTR _e$5[ebp]
	push	eax
	lea	ecx, DWORD PTR $T3[ebp]
	call	??0CFatalException@gen@@QAE@ABV01@@Z
	push	OFFSET __TI1?AVCFatalException@gen@@
	lea	ecx, DWORD PTR $T3[ebp]
	push	ecx
	call	__CxxThrowException@8
	mov	eax, $LN9@SetColumn
	ret	0
__catch$?SetColumn@CMatrix4x4@gen@@QAEXIABVCVector3@2@@Z$1:
	call	?ObjectName@gen@@YAPBDXZ		; gen::ObjectName
	push	eax
	push	OFFSET ??_C@_0BL@LGANNJAP@gen?3?3CMatrix4x4?3?3SetColumn?$AA@
	push	OFFSET ??_C@_0EI@POGHFJCD@c?3?2users?2simon?2documents?2github?2@
	lea	ecx, DWORD PTR $T4[ebp]
	call	??0CFatalException@gen@@QAE@PBD00@Z	; gen::CFatalException::CFatalException
	push	OFFSET __TI1?AVCFatalException@gen@@
	lea	eax, DWORD PTR $T4[ebp]
	push	eax
	call	__CxxThrowException@8
	mov	eax, $LN11@SetColumn
	ret	0
$LN5@SetColumn:
	mov	DWORD PTR __$EHRec$[ebp+12], -1
	jmp	SHORT $LN10@SetColumn
$LN11@SetColumn:
	mov	DWORD PTR __$EHRec$[ebp+12], -1
	jmp	SHORT $LN8@SetColumn
$LN10@SetColumn:
	jmp	SHORT $LN8@SetColumn
$LN9@SetColumn:
	mov	DWORD PTR __$EHRec$[ebp+12], -1
$LN8@SetColumn:
$LN3@SetColumn:

; 686  : }

	push	edx
	mov	ecx, ebp
	push	eax
	lea	edx, DWORD PTR $LN15@SetColumn
	call	@_RTC_CheckStackVars@8
	pop	eax
	pop	edx
	mov	ecx, DWORD PTR __$EHRec$[ebp+4]
	mov	DWORD PTR fs:0, ecx
	pop	ecx
	pop	edi
	pop	esi
	pop	ebx
	mov	ecx, DWORD PTR __$ArrayPad$[ebp]
	xor	ecx, ebp
	call	@__security_check_cookie@4
	add	esp, 536				; 00000218H
	cmp	ebp, esp
	call	__RTC_CheckEsp
	mov	esp, ebp
	pop	ebp
	ret	8
	npad	2
$LN15@SetColumn:
	DD	1
	DD	$LN14@SetColumn
$LN14@SetColumn:
	DD	-52					; ffffffccH
	DD	4
	DD	$LN12@SetColumn
$LN12@SetColumn:
	DB	101					; 00000065H
	DB	0
_TEXT	ENDS
;	COMDAT text$x
text$x	SEGMENT
__ehhandler$?SetColumn@CMatrix4x4@gen@@QAEXIABVCVector3@2@@Z:
	mov	edx, DWORD PTR [esp+8]
	lea	eax, DWORD PTR [edx+12]
	mov	ecx, DWORD PTR [edx-540]
	xor	ecx, eax
	call	@__security_check_cookie@4
	mov	ecx, DWORD PTR [edx-8]
	xor	ecx, eax
	call	@__security_check_cookie@4
	mov	eax, OFFSET __ehfuncinfo$?SetColumn@CMatrix4x4@gen@@QAEXIABVCVector3@2@@Z
	jmp	___CxxFrameHandler3
text$x	ENDS
?SetColumn@CMatrix4x4@gen@@QAEXIABVCVector3@2@@Z ENDP	; gen::CMatrix4x4::SetColumn
; Function compile flags: /Odtp /RTCsu /ZI
; File c:\users\simon\documents\github\uclan-sparta\import\math\cmatrix4x4.cpp
;	COMDAT ?SetColumn@CMatrix4x4@gen@@QAEXIABVCVector4@2@@Z
_TEXT	SEGMENT
$T2 = -532						; size = 88
$T3 = -436						; size = 88
$T4 = -340						; size = 88
_e$5 = -52						; size = 4
_pfElts$6 = -40						; size = 4
_this$ = -28						; size = 4
__$ArrayPad$ = -20					; size = 4
__$EHRec$ = -16						; size = 16
_iCol$ = 8						; size = 4
_v$ = 12						; size = 4
?SetColumn@CMatrix4x4@gen@@QAEXIABVCVector4@2@@Z PROC	; gen::CMatrix4x4::SetColumn, COMDAT
; _this$ = ecx

; 657  : {

	push	ebp
	mov	ebp, esp
	push	-1
	push	__ehhandler$?SetColumn@CMatrix4x4@gen@@QAEXIABVCVector4@2@@Z
	mov	eax, DWORD PTR fs:0
	push	eax
	push	ecx
	sub	esp, 520				; 00000208H
	push	ebx
	push	esi
	push	edi
	push	ecx
	lea	edi, DWORD PTR [ebp-536]
	mov	ecx, 130				; 00000082H
	mov	eax, -858993460				; ccccccccH
	rep stosd
	pop	ecx
	mov	eax, DWORD PTR ___security_cookie
	xor	eax, ebp
	mov	DWORD PTR __$ArrayPad$[ebp], eax
	push	eax
	lea	eax, DWORD PTR __$EHRec$[ebp+4]
	mov	DWORD PTR fs:0, eax
	mov	DWORD PTR __$EHRec$[ebp], esp
	mov	DWORD PTR _this$[ebp], ecx

; 658  : 	GEN_GUARD_OPT;

	mov	DWORD PTR __$EHRec$[ebp+12], 0

; 659  : 	GEN_ASSERT_OPT( iCol < 4, "Invalid parameter" );

	cmp	DWORD PTR _iCol$[ebp], 4
	jb	SHORT $LN1@SetColumn
	mov	eax, DWORD PTR ?__LINE__Var@?1??SetColumn@CMatrix4x4@gen@@QAEXIABVCVector4@3@@Z@4JA
	add	eax, 2
	push	eax
	push	OFFSET ??_C@_0EI@POGHFJCD@c?3?2users?2simon?2documents?2github?2@
	push	OFFSET ??_C@_0BC@DBAKKFEN@Invalid?5parameter?$AA@
	lea	ecx, DWORD PTR $T2[ebp]
	call	??0CFatalException@gen@@QAE@PBD0H@Z	; gen::CFatalException::CFatalException
	push	OFFSET __TI1?AVCFatalException@gen@@
	lea	ecx, DWORD PTR $T2[ebp]
	push	ecx
	call	__CxxThrowException@8
$LN1@SetColumn:

; 660  : 
; 661  : 	TFloat32* pfElts = &e00 + iCol;

	mov	eax, DWORD PTR _iCol$[ebp]
	mov	ecx, DWORD PTR _this$[ebp]
	lea	edx, DWORD PTR [ecx+eax*4]
	mov	DWORD PTR _pfElts$6[ebp], edx

; 662  : 	pfElts[0] = v.x;

	mov	eax, 4
	imul	ecx, eax, 0
	mov	edx, DWORD PTR _pfElts$6[ebp]
	mov	eax, DWORD PTR _v$[ebp]
	mov	eax, DWORD PTR [eax]
	mov	DWORD PTR [edx+ecx], eax

; 663  : 	pfElts[4] = v.y;

	mov	eax, 4
	shl	eax, 2
	mov	ecx, DWORD PTR _pfElts$6[ebp]
	mov	edx, DWORD PTR _v$[ebp]
	mov	edx, DWORD PTR [edx+4]
	mov	DWORD PTR [ecx+eax], edx

; 664  : 	pfElts[8] = v.z;

	mov	eax, 4
	shl	eax, 3
	mov	ecx, DWORD PTR _pfElts$6[ebp]
	mov	edx, DWORD PTR _v$[ebp]
	mov	edx, DWORD PTR [edx+8]
	mov	DWORD PTR [ecx+eax], edx

; 665  : 	pfElts[12] = v.w;

	mov	eax, 4
	imul	ecx, eax, 12
	mov	edx, DWORD PTR _pfElts$6[ebp]
	mov	eax, DWORD PTR _v$[ebp]
	mov	eax, DWORD PTR [eax+12]
	mov	DWORD PTR [edx+ecx], eax
	jmp	SHORT $LN5@SetColumn
__catch$?SetColumn@CMatrix4x4@gen@@QAEXIABVCVector4@2@@Z$0:

; 666  : 
; 667  : 	GEN_ENDGUARD_OPT;

	push	0
	call	?ObjectName@gen@@YAPBDXZ		; gen::ObjectName
	push	eax
	push	OFFSET ??_C@_0BL@LGANNJAP@gen?3?3CMatrix4x4?3?3SetColumn?$AA@
	mov	ecx, DWORD PTR _e$5[ebp]
	call	?AppendToCallStack@CFatalException@gen@@QAEXPBD0_N@Z ; gen::CFatalException::AppendToCallStack
	mov	eax, DWORD PTR _e$5[ebp]
	push	eax
	lea	ecx, DWORD PTR $T3[ebp]
	call	??0CFatalException@gen@@QAE@ABV01@@Z
	push	OFFSET __TI1?AVCFatalException@gen@@
	lea	ecx, DWORD PTR $T3[ebp]
	push	ecx
	call	__CxxThrowException@8
	mov	eax, $LN9@SetColumn
	ret	0
__catch$?SetColumn@CMatrix4x4@gen@@QAEXIABVCVector4@2@@Z$1:
	call	?ObjectName@gen@@YAPBDXZ		; gen::ObjectName
	push	eax
	push	OFFSET ??_C@_0BL@LGANNJAP@gen?3?3CMatrix4x4?3?3SetColumn?$AA@
	push	OFFSET ??_C@_0EI@POGHFJCD@c?3?2users?2simon?2documents?2github?2@
	lea	ecx, DWORD PTR $T4[ebp]
	call	??0CFatalException@gen@@QAE@PBD00@Z	; gen::CFatalException::CFatalException
	push	OFFSET __TI1?AVCFatalException@gen@@
	lea	eax, DWORD PTR $T4[ebp]
	push	eax
	call	__CxxThrowException@8
	mov	eax, $LN11@SetColumn
	ret	0
$LN5@SetColumn:
	mov	DWORD PTR __$EHRec$[ebp+12], -1
	jmp	SHORT $LN10@SetColumn
$LN11@SetColumn:
	mov	DWORD PTR __$EHRec$[ebp+12], -1
	jmp	SHORT $LN8@SetColumn
$LN10@SetColumn:
	jmp	SHORT $LN8@SetColumn
$LN9@SetColumn:
	mov	DWORD PTR __$EHRec$[ebp+12], -1
$LN8@SetColumn:
$LN3@SetColumn:

; 668  : }

	push	edx
	mov	ecx, ebp
	push	eax
	lea	edx, DWORD PTR $LN15@SetColumn
	call	@_RTC_CheckStackVars@8
	pop	eax
	pop	edx
	mov	ecx, DWORD PTR __$EHRec$[ebp+4]
	mov	DWORD PTR fs:0, ecx
	pop	ecx
	pop	edi
	pop	esi
	pop	ebx
	mov	ecx, DWORD PTR __$ArrayPad$[ebp]
	xor	ecx, ebp
	call	@__security_check_cookie@4
	add	esp, 536				; 00000218H
	cmp	ebp, esp
	call	__RTC_CheckEsp
	mov	esp, ebp
	pop	ebp
	ret	8
	npad	2
$LN15@SetColumn:
	DD	1
	DD	$LN14@SetColumn
$LN14@SetColumn:
	DD	-52					; ffffffccH
	DD	4
	DD	$LN12@SetColumn
$LN12@SetColumn:
	DB	101					; 00000065H
	DB	0
_TEXT	ENDS
;	COMDAT text$x
text$x	SEGMENT
__ehhandler$?SetColumn@CMatrix4x4@gen@@QAEXIABVCVector4@2@@Z:
	mov	edx, DWORD PTR [esp+8]
	lea	eax, DWORD PTR [edx+12]
	mov	ecx, DWORD PTR [edx-540]
	xor	ecx, eax
	call	@__security_check_cookie@4
	mov	ecx, DWORD PTR [edx-8]
	xor	ecx, eax
	call	@__security_check_cookie@4
	mov	eax, OFFSET __ehfuncinfo$?SetColumn@CMatrix4x4@gen@@QAEXIABVCVector4@2@@Z
	jmp	___CxxFrameHandler3
text$x	ENDS
?SetColumn@CMatrix4x4@gen@@QAEXIABVCVector4@2@@Z ENDP	; gen::CMatrix4x4::SetColumn
; Function compile flags: /Odtp /RTCsu /ZI
; File c:\users\simon\documents\github\uclan-sparta\import\math\cmatrix4x4.cpp
;	COMDAT ?SetRow@CMatrix4x4@gen@@QAEXIABVCVector3@2@@Z
_TEXT	SEGMENT
$T2 = -532						; size = 88
$T3 = -436						; size = 88
$T4 = -340						; size = 88
_e$5 = -52						; size = 4
_pfElts$6 = -40						; size = 4
_this$ = -28						; size = 4
__$ArrayPad$ = -20					; size = 4
__$EHRec$ = -16						; size = 16
_iRow$ = 8						; size = 4
_v$ = 12						; size = 4
?SetRow@CMatrix4x4@gen@@QAEXIABVCVector3@2@@Z PROC	; gen::CMatrix4x4::SetRow, COMDAT
; _this$ = ecx

; 638  : {

	push	ebp
	mov	ebp, esp
	push	-1
	push	__ehhandler$?SetRow@CMatrix4x4@gen@@QAEXIABVCVector3@2@@Z
	mov	eax, DWORD PTR fs:0
	push	eax
	push	ecx
	sub	esp, 520				; 00000208H
	push	ebx
	push	esi
	push	edi
	push	ecx
	lea	edi, DWORD PTR [ebp-536]
	mov	ecx, 130				; 00000082H
	mov	eax, -858993460				; ccccccccH
	rep stosd
	pop	ecx
	mov	eax, DWORD PTR ___security_cookie
	xor	eax, ebp
	mov	DWORD PTR __$ArrayPad$[ebp], eax
	push	eax
	lea	eax, DWORD PTR __$EHRec$[ebp+4]
	mov	DWORD PTR fs:0, eax
	mov	DWORD PTR __$EHRec$[ebp], esp
	mov	DWORD PTR _this$[ebp], ecx

; 639  : 	GEN_GUARD_OPT;

	mov	DWORD PTR __$EHRec$[ebp+12], 0

; 640  : 	GEN_ASSERT_OPT( iRow < 4, "Invalid parameter" );

	cmp	DWORD PTR _iRow$[ebp], 4
	jb	SHORT $LN1@SetRow
	mov	eax, DWORD PTR ?__LINE__Var@?1??SetRow@CMatrix4x4@gen@@QAEXIABVCVector3@3@@Z@4JA
	add	eax, 2
	push	eax
	push	OFFSET ??_C@_0EI@POGHFJCD@c?3?2users?2simon?2documents?2github?2@
	push	OFFSET ??_C@_0BC@DBAKKFEN@Invalid?5parameter?$AA@
	lea	ecx, DWORD PTR $T2[ebp]
	call	??0CFatalException@gen@@QAE@PBD0H@Z	; gen::CFatalException::CFatalException
	push	OFFSET __TI1?AVCFatalException@gen@@
	lea	ecx, DWORD PTR $T2[ebp]
	push	ecx
	call	__CxxThrowException@8
$LN1@SetRow:

; 641  : 
; 642  : 	TFloat32* pfElts = &e00 + iRow * 4;

	mov	eax, DWORD PTR _iRow$[ebp]
	shl	eax, 2
	mov	ecx, DWORD PTR _this$[ebp]
	lea	edx, DWORD PTR [ecx+eax*4]
	mov	DWORD PTR _pfElts$6[ebp], edx

; 643  : 	pfElts[0] = v.x;

	mov	eax, 4
	imul	ecx, eax, 0
	mov	edx, DWORD PTR _pfElts$6[ebp]
	mov	eax, DWORD PTR _v$[ebp]
	mov	eax, DWORD PTR [eax]
	mov	DWORD PTR [edx+ecx], eax

; 644  : 	pfElts[1] = v.y;

	mov	eax, 4
	shl	eax, 0
	mov	ecx, DWORD PTR _pfElts$6[ebp]
	mov	edx, DWORD PTR _v$[ebp]
	mov	edx, DWORD PTR [edx+4]
	mov	DWORD PTR [ecx+eax], edx

; 645  : 	pfElts[2] = v.z;

	mov	eax, 4
	shl	eax, 1
	mov	ecx, DWORD PTR _pfElts$6[ebp]
	mov	edx, DWORD PTR _v$[ebp]
	mov	edx, DWORD PTR [edx+8]
	mov	DWORD PTR [ecx+eax], edx
	jmp	SHORT $LN5@SetRow
__catch$?SetRow@CMatrix4x4@gen@@QAEXIABVCVector3@2@@Z$0:

; 646  : 
; 647  : 	GEN_ENDGUARD_OPT;

	push	0
	call	?ObjectName@gen@@YAPBDXZ		; gen::ObjectName
	push	eax
	push	OFFSET ??_C@_0BI@LNNDOFPI@gen?3?3CMatrix4x4?3?3SetRow?$AA@
	mov	ecx, DWORD PTR _e$5[ebp]
	call	?AppendToCallStack@CFatalException@gen@@QAEXPBD0_N@Z ; gen::CFatalException::AppendToCallStack
	mov	eax, DWORD PTR _e$5[ebp]
	push	eax
	lea	ecx, DWORD PTR $T3[ebp]
	call	??0CFatalException@gen@@QAE@ABV01@@Z
	push	OFFSET __TI1?AVCFatalException@gen@@
	lea	ecx, DWORD PTR $T3[ebp]
	push	ecx
	call	__CxxThrowException@8
	mov	eax, $LN9@SetRow
	ret	0
__catch$?SetRow@CMatrix4x4@gen@@QAEXIABVCVector3@2@@Z$1:
	call	?ObjectName@gen@@YAPBDXZ		; gen::ObjectName
	push	eax
	push	OFFSET ??_C@_0BI@LNNDOFPI@gen?3?3CMatrix4x4?3?3SetRow?$AA@
	push	OFFSET ??_C@_0EI@POGHFJCD@c?3?2users?2simon?2documents?2github?2@
	lea	ecx, DWORD PTR $T4[ebp]
	call	??0CFatalException@gen@@QAE@PBD00@Z	; gen::CFatalException::CFatalException
	push	OFFSET __TI1?AVCFatalException@gen@@
	lea	eax, DWORD PTR $T4[ebp]
	push	eax
	call	__CxxThrowException@8
	mov	eax, $LN11@SetRow
	ret	0
$LN5@SetRow:
	mov	DWORD PTR __$EHRec$[ebp+12], -1
	jmp	SHORT $LN10@SetRow
$LN11@SetRow:
	mov	DWORD PTR __$EHRec$[ebp+12], -1
	jmp	SHORT $LN8@SetRow
$LN10@SetRow:
	jmp	SHORT $LN8@SetRow
$LN9@SetRow:
	mov	DWORD PTR __$EHRec$[ebp+12], -1
$LN8@SetRow:
$LN3@SetRow:

; 648  : }

	push	edx
	mov	ecx, ebp
	push	eax
	lea	edx, DWORD PTR $LN15@SetRow
	call	@_RTC_CheckStackVars@8
	pop	eax
	pop	edx
	mov	ecx, DWORD PTR __$EHRec$[ebp+4]
	mov	DWORD PTR fs:0, ecx
	pop	ecx
	pop	edi
	pop	esi
	pop	ebx
	mov	ecx, DWORD PTR __$ArrayPad$[ebp]
	xor	ecx, ebp
	call	@__security_check_cookie@4
	add	esp, 536				; 00000218H
	cmp	ebp, esp
	call	__RTC_CheckEsp
	mov	esp, ebp
	pop	ebp
	ret	8
$LN15@SetRow:
	DD	1
	DD	$LN14@SetRow
$LN14@SetRow:
	DD	-52					; ffffffccH
	DD	4
	DD	$LN12@SetRow
$LN12@SetRow:
	DB	101					; 00000065H
	DB	0
_TEXT	ENDS
;	COMDAT text$x
text$x	SEGMENT
__ehhandler$?SetRow@CMatrix4x4@gen@@QAEXIABVCVector3@2@@Z:
	mov	edx, DWORD PTR [esp+8]
	lea	eax, DWORD PTR [edx+12]
	mov	ecx, DWORD PTR [edx-540]
	xor	ecx, eax
	call	@__security_check_cookie@4
	mov	ecx, DWORD PTR [edx-8]
	xor	ecx, eax
	call	@__security_check_cookie@4
	mov	eax, OFFSET __ehfuncinfo$?SetRow@CMatrix4x4@gen@@QAEXIABVCVector3@2@@Z
	jmp	___CxxFrameHandler3
text$x	ENDS
?SetRow@CMatrix4x4@gen@@QAEXIABVCVector3@2@@Z ENDP	; gen::CMatrix4x4::SetRow
; Function compile flags: /Odtp /RTCsu /ZI
; File c:\users\simon\documents\github\uclan-sparta\import\math\cmatrix4x4.cpp
;	COMDAT ?SetRow@CMatrix4x4@gen@@QAEXIABVCVector4@2@@Z
_TEXT	SEGMENT
$T2 = -532						; size = 88
$T3 = -436						; size = 88
$T4 = -340						; size = 88
_e$5 = -52						; size = 4
_pfElts$6 = -40						; size = 4
_this$ = -28						; size = 4
__$ArrayPad$ = -20					; size = 4
__$EHRec$ = -16						; size = 16
_iRow$ = 8						; size = 4
_v$ = 12						; size = 4
?SetRow@CMatrix4x4@gen@@QAEXIABVCVector4@2@@Z PROC	; gen::CMatrix4x4::SetRow, COMDAT
; _this$ = ecx

; 619  : {

	push	ebp
	mov	ebp, esp
	push	-1
	push	__ehhandler$?SetRow@CMatrix4x4@gen@@QAEXIABVCVector4@2@@Z
	mov	eax, DWORD PTR fs:0
	push	eax
	push	ecx
	sub	esp, 520				; 00000208H
	push	ebx
	push	esi
	push	edi
	push	ecx
	lea	edi, DWORD PTR [ebp-536]
	mov	ecx, 130				; 00000082H
	mov	eax, -858993460				; ccccccccH
	rep stosd
	pop	ecx
	mov	eax, DWORD PTR ___security_cookie
	xor	eax, ebp
	mov	DWORD PTR __$ArrayPad$[ebp], eax
	push	eax
	lea	eax, DWORD PTR __$EHRec$[ebp+4]
	mov	DWORD PTR fs:0, eax
	mov	DWORD PTR __$EHRec$[ebp], esp
	mov	DWORD PTR _this$[ebp], ecx

; 620  : 	GEN_GUARD_OPT;

	mov	DWORD PTR __$EHRec$[ebp+12], 0

; 621  : 	GEN_ASSERT_OPT( iRow < 4, "Invalid parameter" );

	cmp	DWORD PTR _iRow$[ebp], 4
	jb	SHORT $LN1@SetRow
	mov	eax, DWORD PTR ?__LINE__Var@?1??SetRow@CMatrix4x4@gen@@QAEXIABVCVector4@3@@Z@4JA
	add	eax, 2
	push	eax
	push	OFFSET ??_C@_0EI@POGHFJCD@c?3?2users?2simon?2documents?2github?2@
	push	OFFSET ??_C@_0BC@DBAKKFEN@Invalid?5parameter?$AA@
	lea	ecx, DWORD PTR $T2[ebp]
	call	??0CFatalException@gen@@QAE@PBD0H@Z	; gen::CFatalException::CFatalException
	push	OFFSET __TI1?AVCFatalException@gen@@
	lea	ecx, DWORD PTR $T2[ebp]
	push	ecx
	call	__CxxThrowException@8
$LN1@SetRow:

; 622  : 
; 623  : 	TFloat32* pfElts = &e00 + iRow * 4;

	mov	eax, DWORD PTR _iRow$[ebp]
	shl	eax, 2
	mov	ecx, DWORD PTR _this$[ebp]
	lea	edx, DWORD PTR [ecx+eax*4]
	mov	DWORD PTR _pfElts$6[ebp], edx

; 624  : 	pfElts[0] = v.x;

	mov	eax, 4
	imul	ecx, eax, 0
	mov	edx, DWORD PTR _pfElts$6[ebp]
	mov	eax, DWORD PTR _v$[ebp]
	mov	eax, DWORD PTR [eax]
	mov	DWORD PTR [edx+ecx], eax

; 625  : 	pfElts[1] = v.y;

	mov	eax, 4
	shl	eax, 0
	mov	ecx, DWORD PTR _pfElts$6[ebp]
	mov	edx, DWORD PTR _v$[ebp]
	mov	edx, DWORD PTR [edx+4]
	mov	DWORD PTR [ecx+eax], edx

; 626  : 	pfElts[2] = v.z;

	mov	eax, 4
	shl	eax, 1
	mov	ecx, DWORD PTR _pfElts$6[ebp]
	mov	edx, DWORD PTR _v$[ebp]
	mov	edx, DWORD PTR [edx+8]
	mov	DWORD PTR [ecx+eax], edx

; 627  : 	pfElts[3] = v.w;

	mov	eax, 4
	imul	ecx, eax, 3
	mov	edx, DWORD PTR _pfElts$6[ebp]
	mov	eax, DWORD PTR _v$[ebp]
	mov	eax, DWORD PTR [eax+12]
	mov	DWORD PTR [edx+ecx], eax
	jmp	SHORT $LN5@SetRow
__catch$?SetRow@CMatrix4x4@gen@@QAEXIABVCVector4@2@@Z$0:

; 628  : 
; 629  : 	GEN_ENDGUARD_OPT;

	push	0
	call	?ObjectName@gen@@YAPBDXZ		; gen::ObjectName
	push	eax
	push	OFFSET ??_C@_0BI@LNNDOFPI@gen?3?3CMatrix4x4?3?3SetRow?$AA@
	mov	ecx, DWORD PTR _e$5[ebp]
	call	?AppendToCallStack@CFatalException@gen@@QAEXPBD0_N@Z ; gen::CFatalException::AppendToCallStack
	mov	eax, DWORD PTR _e$5[ebp]
	push	eax
	lea	ecx, DWORD PTR $T3[ebp]
	call	??0CFatalException@gen@@QAE@ABV01@@Z
	push	OFFSET __TI1?AVCFatalException@gen@@
	lea	ecx, DWORD PTR $T3[ebp]
	push	ecx
	call	__CxxThrowException@8
	mov	eax, $LN9@SetRow
	ret	0
__catch$?SetRow@CMatrix4x4@gen@@QAEXIABVCVector4@2@@Z$1:
	call	?ObjectName@gen@@YAPBDXZ		; gen::ObjectName
	push	eax
	push	OFFSET ??_C@_0BI@LNNDOFPI@gen?3?3CMatrix4x4?3?3SetRow?$AA@
	push	OFFSET ??_C@_0EI@POGHFJCD@c?3?2users?2simon?2documents?2github?2@
	lea	ecx, DWORD PTR $T4[ebp]
	call	??0CFatalException@gen@@QAE@PBD00@Z	; gen::CFatalException::CFatalException
	push	OFFSET __TI1?AVCFatalException@gen@@
	lea	eax, DWORD PTR $T4[ebp]
	push	eax
	call	__CxxThrowException@8
	mov	eax, $LN11@SetRow
	ret	0
$LN5@SetRow:
	mov	DWORD PTR __$EHRec$[ebp+12], -1
	jmp	SHORT $LN10@SetRow
$LN11@SetRow:
	mov	DWORD PTR __$EHRec$[ebp+12], -1
	jmp	SHORT $LN8@SetRow
$LN10@SetRow:
	jmp	SHORT $LN8@SetRow
$LN9@SetRow:
	mov	DWORD PTR __$EHRec$[ebp+12], -1
$LN8@SetRow:
$LN3@SetRow:

; 630  : }

	push	edx
	mov	ecx, ebp
	push	eax
	lea	edx, DWORD PTR $LN15@SetRow
	call	@_RTC_CheckStackVars@8
	pop	eax
	pop	edx
	mov	ecx, DWORD PTR __$EHRec$[ebp+4]
	mov	DWORD PTR fs:0, ecx
	pop	ecx
	pop	edi
	pop	esi
	pop	ebx
	mov	ecx, DWORD PTR __$ArrayPad$[ebp]
	xor	ecx, ebp
	call	@__security_check_cookie@4
	add	esp, 536				; 00000218H
	cmp	ebp, esp
	call	__RTC_CheckEsp
	mov	esp, ebp
	pop	ebp
	ret	8
$LN15@SetRow:
	DD	1
	DD	$LN14@SetRow
$LN14@SetRow:
	DD	-52					; ffffffccH
	DD	4
	DD	$LN12@SetRow
$LN12@SetRow:
	DB	101					; 00000065H
	DB	0
_TEXT	ENDS
;	COMDAT text$x
text$x	SEGMENT
__ehhandler$?SetRow@CMatrix4x4@gen@@QAEXIABVCVector4@2@@Z:
	mov	edx, DWORD PTR [esp+8]
	lea	eax, DWORD PTR [edx+12]
	mov	ecx, DWORD PTR [edx-540]
	xor	ecx, eax
	call	@__security_check_cookie@4
	mov	ecx, DWORD PTR [edx-8]
	xor	ecx, eax
	call	@__security_check_cookie@4
	mov	eax, OFFSET __ehfuncinfo$?SetRow@CMatrix4x4@gen@@QAEXIABVCVector4@2@@Z
	jmp	___CxxFrameHandler3
text$x	ENDS
?SetRow@CMatrix4x4@gen@@QAEXIABVCVector4@2@@Z ENDP	; gen::CMatrix4x4::SetRow
; Function compile flags: /Odtp /RTCsu /ZI
; File c:\users\simon\documents\github\uclan-sparta\import\math\cmatrix4x4.cpp
;	COMDAT ?GetColumn@CMatrix4x4@gen@@QBE?AVCVector4@2@I@Z
_TEXT	SEGMENT
$T2 = -532						; size = 88
$T3 = -436						; size = 88
$T4 = -340						; size = 88
_e$5 = -52						; size = 4
_pfElts$6 = -40						; size = 4
_this$ = -28						; size = 4
__$ArrayPad$ = -20					; size = 4
__$EHRec$ = -16						; size = 16
___$ReturnUdt$ = 8					; size = 4
_iCol$ = 12						; size = 4
?GetColumn@CMatrix4x4@gen@@QBE?AVCVector4@2@I@Z PROC	; gen::CMatrix4x4::GetColumn, COMDAT
; _this$ = ecx

; 602  : {

	push	ebp
	mov	ebp, esp
	push	-1
	push	__ehhandler$?GetColumn@CMatrix4x4@gen@@QBE?AVCVector4@2@I@Z
	mov	eax, DWORD PTR fs:0
	push	eax
	push	ecx
	sub	esp, 520				; 00000208H
	push	ebx
	push	esi
	push	edi
	push	ecx
	lea	edi, DWORD PTR [ebp-536]
	mov	ecx, 130				; 00000082H
	mov	eax, -858993460				; ccccccccH
	rep stosd
	pop	ecx
	mov	eax, DWORD PTR ___security_cookie
	xor	eax, ebp
	mov	DWORD PTR __$ArrayPad$[ebp], eax
	push	eax
	lea	eax, DWORD PTR __$EHRec$[ebp+4]
	mov	DWORD PTR fs:0, eax
	mov	DWORD PTR __$EHRec$[ebp], esp
	mov	DWORD PTR _this$[ebp], ecx

; 603  : 	GEN_GUARD_OPT;

	mov	DWORD PTR __$EHRec$[ebp+12], 0

; 604  : 	GEN_ASSERT_OPT( iCol < 4, "Invalid parameter" );

	cmp	DWORD PTR _iCol$[ebp], 4
	jb	SHORT $LN1@GetColumn
	mov	eax, DWORD PTR ?__LINE__Var@?1??GetColumn@CMatrix4x4@gen@@QBE?AVCVector4@3@I@Z@4JA
	add	eax, 2
	push	eax
	push	OFFSET ??_C@_0EI@POGHFJCD@c?3?2users?2simon?2documents?2github?2@
	push	OFFSET ??_C@_0BC@DBAKKFEN@Invalid?5parameter?$AA@
	lea	ecx, DWORD PTR $T2[ebp]
	call	??0CFatalException@gen@@QAE@PBD0H@Z	; gen::CFatalException::CFatalException
	push	OFFSET __TI1?AVCFatalException@gen@@
	lea	ecx, DWORD PTR $T2[ebp]
	push	ecx
	call	__CxxThrowException@8
$LN1@GetColumn:

; 605  : 
; 606  : 	const TFloat32* pfElts = &e00 + iCol;

	mov	eax, DWORD PTR _iCol$[ebp]
	mov	ecx, DWORD PTR _this$[ebp]
	lea	edx, DWORD PTR [ecx+eax*4]
	mov	DWORD PTR _pfElts$6[ebp], edx

; 607  : 	return CVector4( pfElts[0], pfElts[4], pfElts[8], pfElts[12] );

	mov	eax, 4
	imul	ecx, eax, 12
	mov	edx, DWORD PTR _pfElts$6[ebp]
	push	ecx
	movss	xmm0, DWORD PTR [edx+ecx]
	movss	DWORD PTR [esp], xmm0
	mov	eax, 4
	shl	eax, 3
	mov	ecx, DWORD PTR _pfElts$6[ebp]
	push	ecx
	movss	xmm0, DWORD PTR [ecx+eax]
	movss	DWORD PTR [esp], xmm0
	mov	edx, 4
	shl	edx, 2
	mov	eax, DWORD PTR _pfElts$6[ebp]
	push	ecx
	movss	xmm0, DWORD PTR [eax+edx]
	movss	DWORD PTR [esp], xmm0
	mov	ecx, 4
	imul	edx, ecx, 0
	mov	eax, DWORD PTR _pfElts$6[ebp]
	push	ecx
	movss	xmm0, DWORD PTR [eax+edx]
	movss	DWORD PTR [esp], xmm0
	mov	ecx, DWORD PTR ___$ReturnUdt$[ebp]
	call	??0CVector4@gen@@QAE@MMMM@Z		; gen::CVector4::CVector4
	mov	eax, DWORD PTR ___$ReturnUdt$[ebp]
	jmp	$LN8@GetColumn
__catch$?GetColumn@CMatrix4x4@gen@@QBE?AVCVector4@2@I@Z$0:

; 608  : 
; 609  : 	GEN_ENDGUARD_OPT;

	push	0
	call	?ObjectName@gen@@YAPBDXZ		; gen::ObjectName
	push	eax
	push	OFFSET ??_C@_0BL@JIEIPIJN@gen?3?3CMatrix4x4?3?3GetColumn?$AA@
	mov	ecx, DWORD PTR _e$5[ebp]
	call	?AppendToCallStack@CFatalException@gen@@QAEXPBD0_N@Z ; gen::CFatalException::AppendToCallStack
	mov	eax, DWORD PTR _e$5[ebp]
	push	eax
	lea	ecx, DWORD PTR $T3[ebp]
	call	??0CFatalException@gen@@QAE@ABV01@@Z
	push	OFFSET __TI1?AVCFatalException@gen@@
	lea	ecx, DWORD PTR $T3[ebp]
	push	ecx
	call	__CxxThrowException@8
	mov	eax, $LN9@GetColumn
	ret	0
__catch$?GetColumn@CMatrix4x4@gen@@QBE?AVCVector4@2@I@Z$1:
	call	?ObjectName@gen@@YAPBDXZ		; gen::ObjectName
	push	eax
	push	OFFSET ??_C@_0BL@JIEIPIJN@gen?3?3CMatrix4x4?3?3GetColumn?$AA@
	push	OFFSET ??_C@_0EI@POGHFJCD@c?3?2users?2simon?2documents?2github?2@
	lea	ecx, DWORD PTR $T4[ebp]
	call	??0CFatalException@gen@@QAE@PBD00@Z	; gen::CFatalException::CFatalException
	push	OFFSET __TI1?AVCFatalException@gen@@
	lea	eax, DWORD PTR $T4[ebp]
	push	eax
	call	__CxxThrowException@8
	mov	eax, $LN11@GetColumn
	ret	0
	mov	DWORD PTR __$EHRec$[ebp+12], -1
	jmp	SHORT $LN10@GetColumn
$LN11@GetColumn:
	mov	DWORD PTR __$EHRec$[ebp+12], -1
	jmp	SHORT $LN8@GetColumn
$LN10@GetColumn:
	jmp	SHORT $LN8@GetColumn
$LN9@GetColumn:
	mov	DWORD PTR __$EHRec$[ebp+12], -1
$LN8@GetColumn:

; 610  : }

	push	edx
	mov	ecx, ebp
	push	eax
	lea	edx, DWORD PTR $LN15@GetColumn
	call	@_RTC_CheckStackVars@8
	pop	eax
	pop	edx
	mov	ecx, DWORD PTR __$EHRec$[ebp+4]
	mov	DWORD PTR fs:0, ecx
	pop	ecx
	pop	edi
	pop	esi
	pop	ebx
	mov	ecx, DWORD PTR __$ArrayPad$[ebp]
	xor	ecx, ebp
	call	@__security_check_cookie@4
	add	esp, 536				; 00000218H
	cmp	ebp, esp
	call	__RTC_CheckEsp
	mov	esp, ebp
	pop	ebp
	ret	8
	npad	3
$LN15@GetColumn:
	DD	1
	DD	$LN14@GetColumn
$LN14@GetColumn:
	DD	-52					; ffffffccH
	DD	4
	DD	$LN12@GetColumn
$LN12@GetColumn:
	DB	101					; 00000065H
	DB	0
_TEXT	ENDS
;	COMDAT text$x
text$x	SEGMENT
__ehhandler$?GetColumn@CMatrix4x4@gen@@QBE?AVCVector4@2@I@Z:
	mov	edx, DWORD PTR [esp+8]
	lea	eax, DWORD PTR [edx+12]
	mov	ecx, DWORD PTR [edx-540]
	xor	ecx, eax
	call	@__security_check_cookie@4
	mov	ecx, DWORD PTR [edx-8]
	xor	ecx, eax
	call	@__security_check_cookie@4
	mov	eax, OFFSET __ehfuncinfo$?GetColumn@CMatrix4x4@gen@@QBE?AVCVector4@2@I@Z
	jmp	___CxxFrameHandler3
text$x	ENDS
?GetColumn@CMatrix4x4@gen@@QBE?AVCVector4@2@I@Z ENDP	; gen::CMatrix4x4::GetColumn
; Function compile flags: /Odtp /RTCsu /ZI
; File c:\users\simon\documents\github\uclan-sparta\import\math\cmatrix4x4.cpp
;	COMDAT ?GetRow@CMatrix4x4@gen@@QBE?AVCVector4@2@I@Z
_TEXT	SEGMENT
$T2 = -520						; size = 88
$T3 = -424						; size = 88
$T4 = -328						; size = 88
_e$5 = -40						; size = 4
_this$ = -28						; size = 4
__$ArrayPad$ = -20					; size = 4
__$EHRec$ = -16						; size = 16
___$ReturnUdt$ = 8					; size = 4
_iRow$ = 12						; size = 4
?GetRow@CMatrix4x4@gen@@QBE?AVCVector4@2@I@Z PROC	; gen::CMatrix4x4::GetRow, COMDAT
; _this$ = ecx

; 591  : {

	push	ebp
	mov	ebp, esp
	push	-1
	push	__ehhandler$?GetRow@CMatrix4x4@gen@@QBE?AVCVector4@2@I@Z
	mov	eax, DWORD PTR fs:0
	push	eax
	push	ecx
	sub	esp, 508				; 000001fcH
	push	ebx
	push	esi
	push	edi
	push	ecx
	lea	edi, DWORD PTR [ebp-524]
	mov	ecx, 127				; 0000007fH
	mov	eax, -858993460				; ccccccccH
	rep stosd
	pop	ecx
	mov	eax, DWORD PTR ___security_cookie
	xor	eax, ebp
	mov	DWORD PTR __$ArrayPad$[ebp], eax
	push	eax
	lea	eax, DWORD PTR __$EHRec$[ebp+4]
	mov	DWORD PTR fs:0, eax
	mov	DWORD PTR __$EHRec$[ebp], esp
	mov	DWORD PTR _this$[ebp], ecx

; 592  : 	GEN_GUARD_OPT;

	mov	DWORD PTR __$EHRec$[ebp+12], 0

; 593  : 	GEN_ASSERT_OPT( iRow < 4, "Invalid parameter" );

	cmp	DWORD PTR _iRow$[ebp], 4
	jb	SHORT $LN1@GetRow
	mov	eax, DWORD PTR ?__LINE__Var@?1??GetRow@CMatrix4x4@gen@@QBE?AVCVector4@3@I@Z@4JA
	add	eax, 2
	push	eax
	push	OFFSET ??_C@_0EI@POGHFJCD@c?3?2users?2simon?2documents?2github?2@
	push	OFFSET ??_C@_0BC@DBAKKFEN@Invalid?5parameter?$AA@
	lea	ecx, DWORD PTR $T2[ebp]
	call	??0CFatalException@gen@@QAE@PBD0H@Z	; gen::CFatalException::CFatalException
	push	OFFSET __TI1?AVCFatalException@gen@@
	lea	ecx, DWORD PTR $T2[ebp]
	push	ecx
	call	__CxxThrowException@8
$LN1@GetRow:

; 594  : 
; 595  : 	return CVector4( &e00 + iRow * 4 );

	mov	eax, DWORD PTR _iRow$[ebp]
	shl	eax, 2
	mov	ecx, DWORD PTR _this$[ebp]
	lea	edx, DWORD PTR [ecx+eax*4]
	push	edx
	mov	ecx, DWORD PTR ___$ReturnUdt$[ebp]
	call	??0CVector4@gen@@QAE@PBM@Z		; gen::CVector4::CVector4
	mov	eax, DWORD PTR ___$ReturnUdt$[ebp]
	jmp	$LN4@GetRow
__catch$?GetRow@CMatrix4x4@gen@@QBE?AVCVector4@2@I@Z$0:

; 596  : 
; 597  : 	GEN_ENDGUARD_OPT;

	push	0
	call	?ObjectName@gen@@YAPBDXZ		; gen::ObjectName
	push	eax
	push	OFFSET ??_C@_0BI@COECFNCF@gen?3?3CMatrix4x4?3?3GetRow?$AA@
	mov	ecx, DWORD PTR _e$5[ebp]
	call	?AppendToCallStack@CFatalException@gen@@QAEXPBD0_N@Z ; gen::CFatalException::AppendToCallStack
	mov	eax, DWORD PTR _e$5[ebp]
	push	eax
	lea	ecx, DWORD PTR $T3[ebp]
	call	??0CFatalException@gen@@QAE@ABV01@@Z
	push	OFFSET __TI1?AVCFatalException@gen@@
	lea	ecx, DWORD PTR $T3[ebp]
	push	ecx
	call	__CxxThrowException@8
	mov	eax, $LN9@GetRow
	ret	0
__catch$?GetRow@CMatrix4x4@gen@@QBE?AVCVector4@2@I@Z$1:
	call	?ObjectName@gen@@YAPBDXZ		; gen::ObjectName
	push	eax
	push	OFFSET ??_C@_0BI@COECFNCF@gen?3?3CMatrix4x4?3?3GetRow?$AA@
	push	OFFSET ??_C@_0EI@POGHFJCD@c?3?2users?2simon?2documents?2github?2@
	lea	ecx, DWORD PTR $T4[ebp]
	call	??0CFatalException@gen@@QAE@PBD00@Z	; gen::CFatalException::CFatalException
	push	OFFSET __TI1?AVCFatalException@gen@@
	lea	eax, DWORD PTR $T4[ebp]
	push	eax
	call	__CxxThrowException@8
	mov	eax, $LN11@GetRow
	ret	0
	mov	DWORD PTR __$EHRec$[ebp+12], -1
	jmp	SHORT $LN10@GetRow
$LN11@GetRow:
	mov	DWORD PTR __$EHRec$[ebp+12], -1
	jmp	SHORT $LN4@GetRow
$LN10@GetRow:
	jmp	SHORT $LN4@GetRow
$LN9@GetRow:
	mov	DWORD PTR __$EHRec$[ebp+12], -1
$LN4@GetRow:

; 598  : }

	push	edx
	mov	ecx, ebp
	push	eax
	lea	edx, DWORD PTR $LN15@GetRow
	call	@_RTC_CheckStackVars@8
	pop	eax
	pop	edx
	mov	ecx, DWORD PTR __$EHRec$[ebp+4]
	mov	DWORD PTR fs:0, ecx
	pop	ecx
	pop	edi
	pop	esi
	pop	ebx
	mov	ecx, DWORD PTR __$ArrayPad$[ebp]
	xor	ecx, ebp
	call	@__security_check_cookie@4
	add	esp, 524				; 0000020cH
	cmp	ebp, esp
	call	__RTC_CheckEsp
	mov	esp, ebp
	pop	ebp
	ret	8
	npad	2
$LN15@GetRow:
	DD	1
	DD	$LN14@GetRow
$LN14@GetRow:
	DD	-40					; ffffffd8H
	DD	4
	DD	$LN12@GetRow
$LN12@GetRow:
	DB	101					; 00000065H
	DB	0
_TEXT	ENDS
;	COMDAT text$x
text$x	SEGMENT
__ehhandler$?GetRow@CMatrix4x4@gen@@QBE?AVCVector4@2@I@Z:
	mov	edx, DWORD PTR [esp+8]
	lea	eax, DWORD PTR [edx+12]
	mov	ecx, DWORD PTR [edx-528]
	xor	ecx, eax
	call	@__security_check_cookie@4
	mov	ecx, DWORD PTR [edx-8]
	xor	ecx, eax
	call	@__security_check_cookie@4
	mov	eax, OFFSET __ehfuncinfo$?GetRow@CMatrix4x4@gen@@QBE?AVCVector4@2@I@Z
	jmp	___CxxFrameHandler3
text$x	ENDS
?GetRow@CMatrix4x4@gen@@QBE?AVCVector4@2@I@Z ENDP	; gen::CMatrix4x4::GetRow
; Function compile flags: /Odtp /RTCsu /ZI
; File c:\users\simon\documents\github\uclan-sparta\import\math\cmatrix4x4.cpp
;	COMDAT ?Set@CMatrix4x4@gen@@QAEXPBM_N@Z
_TEXT	SEGMENT
$T2 = -520						; size = 88
$T3 = -424						; size = 88
$T4 = -328						; size = 88
_e$5 = -40						; size = 4
_this$ = -28						; size = 4
__$ArrayPad$ = -20					; size = 4
__$EHRec$ = -16						; size = 16
_pfElts$ = 8						; size = 4
_bRows$ = 12						; size = 1
?Set@CMatrix4x4@gen@@QAEXPBM_N@Z PROC			; gen::CMatrix4x4::Set, COMDAT
; _this$ = ecx

; 532  : {

	push	ebp
	mov	ebp, esp
	push	-1
	push	__ehhandler$?Set@CMatrix4x4@gen@@QAEXPBM_N@Z
	mov	eax, DWORD PTR fs:0
	push	eax
	push	ecx
	sub	esp, 508				; 000001fcH
	push	ebx
	push	esi
	push	edi
	push	ecx
	lea	edi, DWORD PTR [ebp-524]
	mov	ecx, 127				; 0000007fH
	mov	eax, -858993460				; ccccccccH
	rep stosd
	pop	ecx
	mov	eax, DWORD PTR ___security_cookie
	xor	eax, ebp
	mov	DWORD PTR __$ArrayPad$[ebp], eax
	push	eax
	lea	eax, DWORD PTR __$EHRec$[ebp+4]
	mov	DWORD PTR fs:0, eax
	mov	DWORD PTR __$EHRec$[ebp], esp
	mov	DWORD PTR _this$[ebp], ecx

; 533  : 	GEN_GUARD_OPT;

	mov	DWORD PTR __$EHRec$[ebp+12], 0

; 534  : 	GEN_ASSERT_OPT( pfElts, "Invalid parameter" );

	cmp	DWORD PTR _pfElts$[ebp], 0
	jne	SHORT $LN3@Set
	mov	eax, DWORD PTR ?__LINE__Var@?1??Set@CMatrix4x4@gen@@QAEXPBM_N@Z@4JA
	add	eax, 2
	push	eax
	push	OFFSET ??_C@_0EI@POGHFJCD@c?3?2users?2simon?2documents?2github?2@
	push	OFFSET ??_C@_0BC@DBAKKFEN@Invalid?5parameter?$AA@
	lea	ecx, DWORD PTR $T2[ebp]
	call	??0CFatalException@gen@@QAE@PBD0H@Z	; gen::CFatalException::CFatalException
	push	OFFSET __TI1?AVCFatalException@gen@@
	lea	ecx, DWORD PTR $T2[ebp]
	push	ecx
	call	__CxxThrowException@8
$LN3@Set:

; 535  : 
; 536  : 	if (bRows)

	movzx	eax, BYTE PTR _bRows$[ebp]
	test	eax, eax
	je	$LN2@Set

; 537  : 	{
; 538  : 		e00 = pfElts[0];

	mov	eax, 4
	imul	ecx, eax, 0
	mov	edx, DWORD PTR _this$[ebp]
	mov	eax, DWORD PTR _pfElts$[ebp]
	mov	ecx, DWORD PTR [eax+ecx]
	mov	DWORD PTR [edx], ecx

; 539  : 		e01 = pfElts[1];

	mov	eax, 4
	shl	eax, 0
	mov	ecx, DWORD PTR _this$[ebp]
	mov	edx, DWORD PTR _pfElts$[ebp]
	mov	eax, DWORD PTR [edx+eax]
	mov	DWORD PTR [ecx+4], eax

; 540  : 		e02 = pfElts[2];

	mov	eax, 4
	shl	eax, 1
	mov	ecx, DWORD PTR _this$[ebp]
	mov	edx, DWORD PTR _pfElts$[ebp]
	mov	eax, DWORD PTR [edx+eax]
	mov	DWORD PTR [ecx+8], eax

; 541  : 		e03 = pfElts[3];

	mov	eax, 4
	imul	ecx, eax, 3
	mov	edx, DWORD PTR _this$[ebp]
	mov	eax, DWORD PTR _pfElts$[ebp]
	mov	ecx, DWORD PTR [eax+ecx]
	mov	DWORD PTR [edx+12], ecx

; 542  : 
; 543  : 		e10 = pfElts[4];

	mov	eax, 4
	shl	eax, 2
	mov	ecx, DWORD PTR _this$[ebp]
	mov	edx, DWORD PTR _pfElts$[ebp]
	mov	eax, DWORD PTR [edx+eax]
	mov	DWORD PTR [ecx+16], eax

; 544  : 		e11 = pfElts[5];

	mov	eax, 4
	imul	ecx, eax, 5
	mov	edx, DWORD PTR _this$[ebp]
	mov	eax, DWORD PTR _pfElts$[ebp]
	mov	ecx, DWORD PTR [eax+ecx]
	mov	DWORD PTR [edx+20], ecx

; 545  : 		e12 = pfElts[6];

	mov	eax, 4
	imul	ecx, eax, 6
	mov	edx, DWORD PTR _this$[ebp]
	mov	eax, DWORD PTR _pfElts$[ebp]
	mov	ecx, DWORD PTR [eax+ecx]
	mov	DWORD PTR [edx+24], ecx

; 546  : 		e13 = pfElts[7];

	mov	eax, 4
	imul	ecx, eax, 7
	mov	edx, DWORD PTR _this$[ebp]
	mov	eax, DWORD PTR _pfElts$[ebp]
	mov	ecx, DWORD PTR [eax+ecx]
	mov	DWORD PTR [edx+28], ecx

; 547  : 
; 548  : 		e20 = pfElts[8];

	mov	eax, 4
	shl	eax, 3
	mov	ecx, DWORD PTR _this$[ebp]
	mov	edx, DWORD PTR _pfElts$[ebp]
	mov	eax, DWORD PTR [edx+eax]
	mov	DWORD PTR [ecx+32], eax

; 549  : 		e21 = pfElts[9];

	mov	eax, 4
	imul	ecx, eax, 9
	mov	edx, DWORD PTR _this$[ebp]
	mov	eax, DWORD PTR _pfElts$[ebp]
	mov	ecx, DWORD PTR [eax+ecx]
	mov	DWORD PTR [edx+36], ecx

; 550  : 		e22 = pfElts[10];

	mov	eax, 4
	imul	ecx, eax, 10
	mov	edx, DWORD PTR _this$[ebp]
	mov	eax, DWORD PTR _pfElts$[ebp]
	mov	ecx, DWORD PTR [eax+ecx]
	mov	DWORD PTR [edx+40], ecx

; 551  : 		e23 = pfElts[11];

	mov	eax, 4
	imul	ecx, eax, 11
	mov	edx, DWORD PTR _this$[ebp]
	mov	eax, DWORD PTR _pfElts$[ebp]
	mov	ecx, DWORD PTR [eax+ecx]
	mov	DWORD PTR [edx+44], ecx

; 552  : 
; 553  : 		e30 = pfElts[12];

	mov	eax, 4
	imul	ecx, eax, 12
	mov	edx, DWORD PTR _this$[ebp]
	mov	eax, DWORD PTR _pfElts$[ebp]
	mov	ecx, DWORD PTR [eax+ecx]
	mov	DWORD PTR [edx+48], ecx

; 554  : 		e31 = pfElts[13];

	mov	eax, 4
	imul	ecx, eax, 13
	mov	edx, DWORD PTR _this$[ebp]
	mov	eax, DWORD PTR _pfElts$[ebp]
	mov	ecx, DWORD PTR [eax+ecx]
	mov	DWORD PTR [edx+52], ecx

; 555  : 		e32 = pfElts[14];

	mov	eax, 4
	imul	ecx, eax, 14
	mov	edx, DWORD PTR _this$[ebp]
	mov	eax, DWORD PTR _pfElts$[ebp]
	mov	ecx, DWORD PTR [eax+ecx]
	mov	DWORD PTR [edx+56], ecx

; 556  : 		e33 = pfElts[15];

	mov	eax, 4
	imul	ecx, eax, 15
	mov	edx, DWORD PTR _this$[ebp]
	mov	eax, DWORD PTR _pfElts$[ebp]
	mov	ecx, DWORD PTR [eax+ecx]
	mov	DWORD PTR [edx+60], ecx

; 557  : 	}
; 558  : 	else

	jmp	$LN1@Set
$LN2@Set:

; 559  : 	{
; 560  : 		e00 = pfElts[0];

	mov	eax, 4
	imul	ecx, eax, 0
	mov	edx, DWORD PTR _this$[ebp]
	mov	eax, DWORD PTR _pfElts$[ebp]
	mov	ecx, DWORD PTR [eax+ecx]
	mov	DWORD PTR [edx], ecx

; 561  : 		e10 = pfElts[1];

	mov	eax, 4
	shl	eax, 0
	mov	ecx, DWORD PTR _this$[ebp]
	mov	edx, DWORD PTR _pfElts$[ebp]
	mov	eax, DWORD PTR [edx+eax]
	mov	DWORD PTR [ecx+16], eax

; 562  : 		e20 = pfElts[2];

	mov	eax, 4
	shl	eax, 1
	mov	ecx, DWORD PTR _this$[ebp]
	mov	edx, DWORD PTR _pfElts$[ebp]
	mov	eax, DWORD PTR [edx+eax]
	mov	DWORD PTR [ecx+32], eax

; 563  : 		e30 = pfElts[3];

	mov	eax, 4
	imul	ecx, eax, 3
	mov	edx, DWORD PTR _this$[ebp]
	mov	eax, DWORD PTR _pfElts$[ebp]
	mov	ecx, DWORD PTR [eax+ecx]
	mov	DWORD PTR [edx+48], ecx

; 564  : 
; 565  : 		e01 = pfElts[4];

	mov	eax, 4
	shl	eax, 2
	mov	ecx, DWORD PTR _this$[ebp]
	mov	edx, DWORD PTR _pfElts$[ebp]
	mov	eax, DWORD PTR [edx+eax]
	mov	DWORD PTR [ecx+4], eax

; 566  : 		e11 = pfElts[5];

	mov	eax, 4
	imul	ecx, eax, 5
	mov	edx, DWORD PTR _this$[ebp]
	mov	eax, DWORD PTR _pfElts$[ebp]
	mov	ecx, DWORD PTR [eax+ecx]
	mov	DWORD PTR [edx+20], ecx

; 567  : 		e21 = pfElts[6];

	mov	eax, 4
	imul	ecx, eax, 6
	mov	edx, DWORD PTR _this$[ebp]
	mov	eax, DWORD PTR _pfElts$[ebp]
	mov	ecx, DWORD PTR [eax+ecx]
	mov	DWORD PTR [edx+36], ecx

; 568  : 		e31 = pfElts[7];

	mov	eax, 4
	imul	ecx, eax, 7
	mov	edx, DWORD PTR _this$[ebp]
	mov	eax, DWORD PTR _pfElts$[ebp]
	mov	ecx, DWORD PTR [eax+ecx]
	mov	DWORD PTR [edx+52], ecx

; 569  : 
; 570  : 		e02 = pfElts[8];

	mov	eax, 4
	shl	eax, 3
	mov	ecx, DWORD PTR _this$[ebp]
	mov	edx, DWORD PTR _pfElts$[ebp]
	mov	eax, DWORD PTR [edx+eax]
	mov	DWORD PTR [ecx+8], eax

; 571  : 		e12 = pfElts[9];

	mov	eax, 4
	imul	ecx, eax, 9
	mov	edx, DWORD PTR _this$[ebp]
	mov	eax, DWORD PTR _pfElts$[ebp]
	mov	ecx, DWORD PTR [eax+ecx]
	mov	DWORD PTR [edx+24], ecx

; 572  : 		e22 = pfElts[10];

	mov	eax, 4
	imul	ecx, eax, 10
	mov	edx, DWORD PTR _this$[ebp]
	mov	eax, DWORD PTR _pfElts$[ebp]
	mov	ecx, DWORD PTR [eax+ecx]
	mov	DWORD PTR [edx+40], ecx

; 573  : 		e32 = pfElts[11];

	mov	eax, 4
	imul	ecx, eax, 11
	mov	edx, DWORD PTR _this$[ebp]
	mov	eax, DWORD PTR _pfElts$[ebp]
	mov	ecx, DWORD PTR [eax+ecx]
	mov	DWORD PTR [edx+56], ecx

; 574  : 
; 575  : 		e03 = pfElts[12];

	mov	eax, 4
	imul	ecx, eax, 12
	mov	edx, DWORD PTR _this$[ebp]
	mov	eax, DWORD PTR _pfElts$[ebp]
	mov	ecx, DWORD PTR [eax+ecx]
	mov	DWORD PTR [edx+12], ecx

; 576  : 		e13 = pfElts[13];

	mov	eax, 4
	imul	ecx, eax, 13
	mov	edx, DWORD PTR _this$[ebp]
	mov	eax, DWORD PTR _pfElts$[ebp]
	mov	ecx, DWORD PTR [eax+ecx]
	mov	DWORD PTR [edx+28], ecx

; 577  : 		e23 = pfElts[14];

	mov	eax, 4
	imul	ecx, eax, 14
	mov	edx, DWORD PTR _this$[ebp]
	mov	eax, DWORD PTR _pfElts$[ebp]
	mov	ecx, DWORD PTR [eax+ecx]
	mov	DWORD PTR [edx+44], ecx

; 578  : 		e33 = pfElts[15];

	mov	eax, 4
	imul	ecx, eax, 15
	mov	edx, DWORD PTR _this$[ebp]
	mov	eax, DWORD PTR _pfElts$[ebp]
	mov	ecx, DWORD PTR [eax+ecx]
	mov	DWORD PTR [edx+60], ecx
$LN1@Set:
	jmp	SHORT $LN7@Set
__catch$?Set@CMatrix4x4@gen@@QAEXPBM_N@Z$0:

; 579  : 	}
; 580  : 
; 581  : 	GEN_ENDGUARD_OPT;

	push	0
	call	?ObjectName@gen@@YAPBDXZ		; gen::ObjectName
	push	eax
	push	OFFSET ??_C@_0BF@LLJNGHHJ@gen?3?3CMatrix4x4?3?3Set?$AA@
	mov	ecx, DWORD PTR _e$5[ebp]
	call	?AppendToCallStack@CFatalException@gen@@QAEXPBD0_N@Z ; gen::CFatalException::AppendToCallStack
	mov	eax, DWORD PTR _e$5[ebp]
	push	eax
	lea	ecx, DWORD PTR $T3[ebp]
	call	??0CFatalException@gen@@QAE@ABV01@@Z
	push	OFFSET __TI1?AVCFatalException@gen@@
	lea	ecx, DWORD PTR $T3[ebp]
	push	ecx
	call	__CxxThrowException@8
	mov	eax, $LN11@Set
	ret	0
__catch$?Set@CMatrix4x4@gen@@QAEXPBM_N@Z$1:
	call	?ObjectName@gen@@YAPBDXZ		; gen::ObjectName
	push	eax
	push	OFFSET ??_C@_0BF@LLJNGHHJ@gen?3?3CMatrix4x4?3?3Set?$AA@
	push	OFFSET ??_C@_0EI@POGHFJCD@c?3?2users?2simon?2documents?2github?2@
	lea	ecx, DWORD PTR $T4[ebp]
	call	??0CFatalException@gen@@QAE@PBD00@Z	; gen::CFatalException::CFatalException
	push	OFFSET __TI1?AVCFatalException@gen@@
	lea	eax, DWORD PTR $T4[ebp]
	push	eax
	call	__CxxThrowException@8
	mov	eax, $LN13@Set
	ret	0
$LN7@Set:
	mov	DWORD PTR __$EHRec$[ebp+12], -1
	jmp	SHORT $LN12@Set
$LN13@Set:
	mov	DWORD PTR __$EHRec$[ebp+12], -1
	jmp	SHORT $LN10@Set
$LN12@Set:
	jmp	SHORT $LN10@Set
$LN11@Set:
	mov	DWORD PTR __$EHRec$[ebp+12], -1
$LN10@Set:
$LN5@Set:

; 582  : }

	push	edx
	mov	ecx, ebp
	push	eax
	lea	edx, DWORD PTR $LN17@Set
	call	@_RTC_CheckStackVars@8
	pop	eax
	pop	edx
	mov	ecx, DWORD PTR __$EHRec$[ebp+4]
	mov	DWORD PTR fs:0, ecx
	pop	ecx
	pop	edi
	pop	esi
	pop	ebx
	mov	ecx, DWORD PTR __$ArrayPad$[ebp]
	xor	ecx, ebp
	call	@__security_check_cookie@4
	add	esp, 524				; 0000020cH
	cmp	ebp, esp
	call	__RTC_CheckEsp
	mov	esp, ebp
	pop	ebp
	ret	8
$LN17@Set:
	DD	1
	DD	$LN16@Set
$LN16@Set:
	DD	-40					; ffffffd8H
	DD	4
	DD	$LN14@Set
$LN14@Set:
	DB	101					; 00000065H
	DB	0
_TEXT	ENDS
;	COMDAT text$x
text$x	SEGMENT
__ehhandler$?Set@CMatrix4x4@gen@@QAEXPBM_N@Z:
	mov	edx, DWORD PTR [esp+8]
	lea	eax, DWORD PTR [edx+12]
	mov	ecx, DWORD PTR [edx-528]
	xor	ecx, eax
	call	@__security_check_cookie@4
	mov	ecx, DWORD PTR [edx-8]
	xor	ecx, eax
	call	@__security_check_cookie@4
	mov	eax, OFFSET __ehfuncinfo$?Set@CMatrix4x4@gen@@QAEXPBM_N@Z
	jmp	___CxxFrameHandler3
text$x	ENDS
?Set@CMatrix4x4@gen@@QAEXPBM_N@Z ENDP			; gen::CMatrix4x4::Set
; Function compile flags: /Odtp /RTCsu /ZI
; File c:\users\simon\documents\github\uclan-sparta\import\math\cmatrix4x4.cpp
;	COMDAT ?Set@CMatrix4x4@gen@@QAEXMMMMMMMMMMMMMMMM@Z
_TEXT	SEGMENT
_this$ = -8						; size = 4
_elt00$ = 8						; size = 4
_elt01$ = 12						; size = 4
_elt02$ = 16						; size = 4
_elt03$ = 20						; size = 4
_elt10$ = 24						; size = 4
_elt11$ = 28						; size = 4
_elt12$ = 32						; size = 4
_elt13$ = 36						; size = 4
_elt20$ = 40						; size = 4
_elt21$ = 44						; size = 4
_elt22$ = 48						; size = 4
_elt23$ = 52						; size = 4
_elt30$ = 56						; size = 4
_elt31$ = 60						; size = 4
_elt32$ = 64						; size = 4
_elt33$ = 68						; size = 4
?Set@CMatrix4x4@gen@@QAEXMMMMMMMMMMMMMMMM@Z PROC	; gen::CMatrix4x4::Set, COMDAT
; _this$ = ecx

; 504  : {

	push	ebp
	mov	ebp, esp
	sub	esp, 204				; 000000ccH
	push	ebx
	push	esi
	push	edi
	push	ecx
	lea	edi, DWORD PTR [ebp-204]
	mov	ecx, 51					; 00000033H
	mov	eax, -858993460				; ccccccccH
	rep stosd
	pop	ecx
	mov	DWORD PTR _this$[ebp], ecx

; 505  : 	e00 = elt00;

	mov	eax, DWORD PTR _this$[ebp]
	movss	xmm0, DWORD PTR _elt00$[ebp]
	movss	DWORD PTR [eax], xmm0

; 506  : 	e01 = elt01;

	mov	eax, DWORD PTR _this$[ebp]
	movss	xmm0, DWORD PTR _elt01$[ebp]
	movss	DWORD PTR [eax+4], xmm0

; 507  : 	e02 = elt02;

	mov	eax, DWORD PTR _this$[ebp]
	movss	xmm0, DWORD PTR _elt02$[ebp]
	movss	DWORD PTR [eax+8], xmm0

; 508  : 	e03 = elt03;

	mov	eax, DWORD PTR _this$[ebp]
	movss	xmm0, DWORD PTR _elt03$[ebp]
	movss	DWORD PTR [eax+12], xmm0

; 509  : 
; 510  : 	e10 = elt10;

	mov	eax, DWORD PTR _this$[ebp]
	movss	xmm0, DWORD PTR _elt10$[ebp]
	movss	DWORD PTR [eax+16], xmm0

; 511  : 	e11 = elt11;

	mov	eax, DWORD PTR _this$[ebp]
	movss	xmm0, DWORD PTR _elt11$[ebp]
	movss	DWORD PTR [eax+20], xmm0

; 512  : 	e12 = elt12;

	mov	eax, DWORD PTR _this$[ebp]
	movss	xmm0, DWORD PTR _elt12$[ebp]
	movss	DWORD PTR [eax+24], xmm0

; 513  : 	e13 = elt13;

	mov	eax, DWORD PTR _this$[ebp]
	movss	xmm0, DWORD PTR _elt13$[ebp]
	movss	DWORD PTR [eax+28], xmm0

; 514  : 
; 515  : 	e20 = elt20;

	mov	eax, DWORD PTR _this$[ebp]
	movss	xmm0, DWORD PTR _elt20$[ebp]
	movss	DWORD PTR [eax+32], xmm0

; 516  : 	e21 = elt21;

	mov	eax, DWORD PTR _this$[ebp]
	movss	xmm0, DWORD PTR _elt21$[ebp]
	movss	DWORD PTR [eax+36], xmm0

; 517  : 	e22 = elt22;

	mov	eax, DWORD PTR _this$[ebp]
	movss	xmm0, DWORD PTR _elt22$[ebp]
	movss	DWORD PTR [eax+40], xmm0

; 518  : 	e23 = elt23;

	mov	eax, DWORD PTR _this$[ebp]
	movss	xmm0, DWORD PTR _elt23$[ebp]
	movss	DWORD PTR [eax+44], xmm0

; 519  : 
; 520  : 	e30 = elt30;

	mov	eax, DWORD PTR _this$[ebp]
	movss	xmm0, DWORD PTR _elt30$[ebp]
	movss	DWORD PTR [eax+48], xmm0

; 521  : 	e31 = elt31;

	mov	eax, DWORD PTR _this$[ebp]
	movss	xmm0, DWORD PTR _elt31$[ebp]
	movss	DWORD PTR [eax+52], xmm0

; 522  : 	e32 = elt32;

	mov	eax, DWORD PTR _this$[ebp]
	movss	xmm0, DWORD PTR _elt32$[ebp]
	movss	DWORD PTR [eax+56], xmm0

; 523  : 	e33 = elt33;

	mov	eax, DWORD PTR _this$[ebp]
	movss	xmm0, DWORD PTR _elt33$[ebp]
	movss	DWORD PTR [eax+60], xmm0

; 524  : }

	pop	edi
	pop	esi
	pop	ebx
	mov	esp, ebp
	pop	ebp
	ret	64					; 00000040H
?Set@CMatrix4x4@gen@@QAEXMMMMMMMMMMMMMMMM@Z ENDP	; gen::CMatrix4x4::Set
_TEXT	ENDS
; Function compile flags: /Odtp /RTCsu /ZI
; File c:\users\simon\documents\github\uclan-sparta\import\math\cmatrix4x4.cpp
;	COMDAT ??4CMatrix4x4@gen@@QAEAAV01@ABV01@@Z
_TEXT	SEGMENT
_this$ = -8						; size = 4
_m$ = 8							; size = 4
??4CMatrix4x4@gen@@QAEAAV01@ABV01@@Z PROC		; gen::CMatrix4x4::operator=, COMDAT
; _this$ = ecx

; 465  : {

	push	ebp
	mov	ebp, esp
	sub	esp, 204				; 000000ccH
	push	ebx
	push	esi
	push	edi
	push	ecx
	lea	edi, DWORD PTR [ebp-204]
	mov	ecx, 51					; 00000033H
	mov	eax, -858993460				; ccccccccH
	rep stosd
	pop	ecx
	mov	DWORD PTR _this$[ebp], ecx

; 466  : 	if ( this != &m )

	mov	eax, DWORD PTR _this$[ebp]
	cmp	eax, DWORD PTR _m$[ebp]
	je	$LN1@operator

; 467  : 	{
; 468  : 		e00 = m.e00;

	mov	eax, DWORD PTR _this$[ebp]
	mov	ecx, DWORD PTR _m$[ebp]
	mov	edx, DWORD PTR [ecx]
	mov	DWORD PTR [eax], edx

; 469  : 		e01 = m.e01;

	mov	eax, DWORD PTR _this$[ebp]
	mov	ecx, DWORD PTR _m$[ebp]
	mov	edx, DWORD PTR [ecx+4]
	mov	DWORD PTR [eax+4], edx

; 470  : 		e02 = m.e02;

	mov	eax, DWORD PTR _this$[ebp]
	mov	ecx, DWORD PTR _m$[ebp]
	mov	edx, DWORD PTR [ecx+8]
	mov	DWORD PTR [eax+8], edx

; 471  : 		e03 = m.e03;

	mov	eax, DWORD PTR _this$[ebp]
	mov	ecx, DWORD PTR _m$[ebp]
	mov	edx, DWORD PTR [ecx+12]
	mov	DWORD PTR [eax+12], edx

; 472  : 
; 473  : 		e10 = m.e10;

	mov	eax, DWORD PTR _this$[ebp]
	mov	ecx, DWORD PTR _m$[ebp]
	mov	edx, DWORD PTR [ecx+16]
	mov	DWORD PTR [eax+16], edx

; 474  : 		e11 = m.e11;

	mov	eax, DWORD PTR _this$[ebp]
	mov	ecx, DWORD PTR _m$[ebp]
	mov	edx, DWORD PTR [ecx+20]
	mov	DWORD PTR [eax+20], edx

; 475  : 		e12 = m.e12;

	mov	eax, DWORD PTR _this$[ebp]
	mov	ecx, DWORD PTR _m$[ebp]
	mov	edx, DWORD PTR [ecx+24]
	mov	DWORD PTR [eax+24], edx

; 476  : 		e13 = m.e13;

	mov	eax, DWORD PTR _this$[ebp]
	mov	ecx, DWORD PTR _m$[ebp]
	mov	edx, DWORD PTR [ecx+28]
	mov	DWORD PTR [eax+28], edx

; 477  : 
; 478  : 		e20 = m.e20;

	mov	eax, DWORD PTR _this$[ebp]
	mov	ecx, DWORD PTR _m$[ebp]
	mov	edx, DWORD PTR [ecx+32]
	mov	DWORD PTR [eax+32], edx

; 479  : 		e21 = m.e21;

	mov	eax, DWORD PTR _this$[ebp]
	mov	ecx, DWORD PTR _m$[ebp]
	mov	edx, DWORD PTR [ecx+36]
	mov	DWORD PTR [eax+36], edx

; 480  : 		e22 = m.e22;

	mov	eax, DWORD PTR _this$[ebp]
	mov	ecx, DWORD PTR _m$[ebp]
	mov	edx, DWORD PTR [ecx+40]
	mov	DWORD PTR [eax+40], edx

; 481  : 		e23 = m.e23;

	mov	eax, DWORD PTR _this$[ebp]
	mov	ecx, DWORD PTR _m$[ebp]
	mov	edx, DWORD PTR [ecx+44]
	mov	DWORD PTR [eax+44], edx

; 482  : 
; 483  : 		e30 = m.e30;

	mov	eax, DWORD PTR _this$[ebp]
	mov	ecx, DWORD PTR _m$[ebp]
	mov	edx, DWORD PTR [ecx+48]
	mov	DWORD PTR [eax+48], edx

; 484  : 		e31 = m.e31;

	mov	eax, DWORD PTR _this$[ebp]
	mov	ecx, DWORD PTR _m$[ebp]
	mov	edx, DWORD PTR [ecx+52]
	mov	DWORD PTR [eax+52], edx

; 485  : 		e32 = m.e32;

	mov	eax, DWORD PTR _this$[ebp]
	mov	ecx, DWORD PTR _m$[ebp]
	mov	edx, DWORD PTR [ecx+56]
	mov	DWORD PTR [eax+56], edx

; 486  : 		e33 = m.e33;

	mov	eax, DWORD PTR _this$[ebp]
	mov	ecx, DWORD PTR _m$[ebp]
	mov	edx, DWORD PTR [ecx+60]
	mov	DWORD PTR [eax+60], edx
$LN1@operator:

; 487  : 	}
; 488  : 	return *this;

	mov	eax, DWORD PTR _this$[ebp]

; 489  : }

	pop	edi
	pop	esi
	pop	ebx
	mov	esp, ebp
	pop	ebp
	ret	4
??4CMatrix4x4@gen@@QAEAAV01@ABV01@@Z ENDP		; gen::CMatrix4x4::operator=
_TEXT	ENDS
; Function compile flags: /Odtp /RTCsu /ZI
; File c:\users\simon\documents\github\uclan-sparta\import\math\cmatrix4x4.cpp
;	COMDAT ??0CMatrix4x4@gen@@QAE@ABV01@@Z
_TEXT	SEGMENT
_this$ = -8						; size = 4
_m$ = 8							; size = 4
??0CMatrix4x4@gen@@QAE@ABV01@@Z PROC			; gen::CMatrix4x4::CMatrix4x4, COMDAT
; _this$ = ecx

; 441  : {

	push	ebp
	mov	ebp, esp
	sub	esp, 204				; 000000ccH
	push	ebx
	push	esi
	push	edi
	push	ecx
	lea	edi, DWORD PTR [ebp-204]
	mov	ecx, 51					; 00000033H
	mov	eax, -858993460				; ccccccccH
	rep stosd
	pop	ecx
	mov	DWORD PTR _this$[ebp], ecx

; 442  : 	e00 = m.e00;

	mov	eax, DWORD PTR _this$[ebp]
	mov	ecx, DWORD PTR _m$[ebp]
	mov	edx, DWORD PTR [ecx]
	mov	DWORD PTR [eax], edx

; 443  : 	e01 = m.e01;

	mov	eax, DWORD PTR _this$[ebp]
	mov	ecx, DWORD PTR _m$[ebp]
	mov	edx, DWORD PTR [ecx+4]
	mov	DWORD PTR [eax+4], edx

; 444  : 	e02 = m.e02;

	mov	eax, DWORD PTR _this$[ebp]
	mov	ecx, DWORD PTR _m$[ebp]
	mov	edx, DWORD PTR [ecx+8]
	mov	DWORD PTR [eax+8], edx

; 445  : 	e03 = m.e03;

	mov	eax, DWORD PTR _this$[ebp]
	mov	ecx, DWORD PTR _m$[ebp]
	mov	edx, DWORD PTR [ecx+12]
	mov	DWORD PTR [eax+12], edx

; 446  : 
; 447  : 	e10 = m.e10;

	mov	eax, DWORD PTR _this$[ebp]
	mov	ecx, DWORD PTR _m$[ebp]
	mov	edx, DWORD PTR [ecx+16]
	mov	DWORD PTR [eax+16], edx

; 448  : 	e11 = m.e11;

	mov	eax, DWORD PTR _this$[ebp]
	mov	ecx, DWORD PTR _m$[ebp]
	mov	edx, DWORD PTR [ecx+20]
	mov	DWORD PTR [eax+20], edx

; 449  : 	e12 = m.e12;

	mov	eax, DWORD PTR _this$[ebp]
	mov	ecx, DWORD PTR _m$[ebp]
	mov	edx, DWORD PTR [ecx+24]
	mov	DWORD PTR [eax+24], edx

; 450  : 	e13 = m.e13;

	mov	eax, DWORD PTR _this$[ebp]
	mov	ecx, DWORD PTR _m$[ebp]
	mov	edx, DWORD PTR [ecx+28]
	mov	DWORD PTR [eax+28], edx

; 451  : 
; 452  : 	e20 = m.e20;

	mov	eax, DWORD PTR _this$[ebp]
	mov	ecx, DWORD PTR _m$[ebp]
	mov	edx, DWORD PTR [ecx+32]
	mov	DWORD PTR [eax+32], edx

; 453  : 	e21 = m.e21;

	mov	eax, DWORD PTR _this$[ebp]
	mov	ecx, DWORD PTR _m$[ebp]
	mov	edx, DWORD PTR [ecx+36]
	mov	DWORD PTR [eax+36], edx

; 454  : 	e22 = m.e22;

	mov	eax, DWORD PTR _this$[ebp]
	mov	ecx, DWORD PTR _m$[ebp]
	mov	edx, DWORD PTR [ecx+40]
	mov	DWORD PTR [eax+40], edx

; 455  : 	e23 = m.e23;

	mov	eax, DWORD PTR _this$[ebp]
	mov	ecx, DWORD PTR _m$[ebp]
	mov	edx, DWORD PTR [ecx+44]
	mov	DWORD PTR [eax+44], edx

; 456  : 
; 457  : 	e30 = m.e30;

	mov	eax, DWORD PTR _this$[ebp]
	mov	ecx, DWORD PTR _m$[ebp]
	mov	edx, DWORD PTR [ecx+48]
	mov	DWORD PTR [eax+48], edx

; 458  : 	e31 = m.e31;

	mov	eax, DWORD PTR _this$[ebp]
	mov	ecx, DWORD PTR _m$[ebp]
	mov	edx, DWORD PTR [ecx+52]
	mov	DWORD PTR [eax+52], edx

; 459  : 	e32 = m.e32;

	mov	eax, DWORD PTR _this$[ebp]
	mov	ecx, DWORD PTR _m$[ebp]
	mov	edx, DWORD PTR [ecx+56]
	mov	DWORD PTR [eax+56], edx

; 460  : 	e33 = m.e33;

	mov	eax, DWORD PTR _this$[ebp]
	mov	ecx, DWORD PTR _m$[ebp]
	mov	edx, DWORD PTR [ecx+60]
	mov	DWORD PTR [eax+60], edx

; 461  : }

	mov	eax, DWORD PTR _this$[ebp]
	pop	edi
	pop	esi
	pop	ebx
	mov	esp, ebp
	pop	ebp
	ret	4
??0CMatrix4x4@gen@@QAE@ABV01@@Z ENDP			; gen::CMatrix4x4::CMatrix4x4
_TEXT	ENDS
; Function compile flags: /Odtp /RTCsu /ZI
; File c:\users\simon\documents\github\uclan-sparta\import\math\cmatrix4x4.cpp
;	COMDAT ??0CMatrix4x4@gen@@QAE@ABVCMatrix3x3@1@ABVCVector3@1@@Z
_TEXT	SEGMENT
_this$ = -8						; size = 4
_m$ = 8							; size = 4
_position$ = 12						; size = 4
??0CMatrix4x4@gen@@QAE@ABVCMatrix3x3@1@ABVCVector3@1@@Z PROC ; gen::CMatrix4x4::CMatrix4x4, COMDAT
; _this$ = ecx

; 414  : {

	push	ebp
	mov	ebp, esp
	sub	esp, 204				; 000000ccH
	push	ebx
	push	esi
	push	edi
	push	ecx
	lea	edi, DWORD PTR [ebp-204]
	mov	ecx, 51					; 00000033H
	mov	eax, -858993460				; ccccccccH
	rep stosd
	pop	ecx
	mov	DWORD PTR _this$[ebp], ecx

; 415  : 	// Copy 3x3 elements, adding extra identity elements
; 416  : 	e00 = m.e00;

	mov	eax, DWORD PTR _this$[ebp]
	mov	ecx, DWORD PTR _m$[ebp]
	mov	edx, DWORD PTR [ecx]
	mov	DWORD PTR [eax], edx

; 417  : 	e01 = m.e01;

	mov	eax, DWORD PTR _this$[ebp]
	mov	ecx, DWORD PTR _m$[ebp]
	mov	edx, DWORD PTR [ecx+4]
	mov	DWORD PTR [eax+4], edx

; 418  : 	e02 = m.e02;

	mov	eax, DWORD PTR _this$[ebp]
	mov	ecx, DWORD PTR _m$[ebp]
	mov	edx, DWORD PTR [ecx+8]
	mov	DWORD PTR [eax+8], edx

; 419  : 	e03 = 0.0f;

	mov	eax, DWORD PTR _this$[ebp]
	movss	xmm0, DWORD PTR __real@00000000
	movss	DWORD PTR [eax+12], xmm0

; 420  : 
; 421  : 	e10 = m.e10;

	mov	eax, DWORD PTR _this$[ebp]
	mov	ecx, DWORD PTR _m$[ebp]
	mov	edx, DWORD PTR [ecx+12]
	mov	DWORD PTR [eax+16], edx

; 422  : 	e11 = m.e11;

	mov	eax, DWORD PTR _this$[ebp]
	mov	ecx, DWORD PTR _m$[ebp]
	mov	edx, DWORD PTR [ecx+16]
	mov	DWORD PTR [eax+20], edx

; 423  : 	e12 = m.e12;

	mov	eax, DWORD PTR _this$[ebp]
	mov	ecx, DWORD PTR _m$[ebp]
	mov	edx, DWORD PTR [ecx+20]
	mov	DWORD PTR [eax+24], edx

; 424  : 	e13 = 0.0f;

	mov	eax, DWORD PTR _this$[ebp]
	movss	xmm0, DWORD PTR __real@00000000
	movss	DWORD PTR [eax+28], xmm0

; 425  : 
; 426  : 	e20 = m.e20;

	mov	eax, DWORD PTR _this$[ebp]
	mov	ecx, DWORD PTR _m$[ebp]
	mov	edx, DWORD PTR [ecx+24]
	mov	DWORD PTR [eax+32], edx

; 427  : 	e21 = m.e21;

	mov	eax, DWORD PTR _this$[ebp]
	mov	ecx, DWORD PTR _m$[ebp]
	mov	edx, DWORD PTR [ecx+28]
	mov	DWORD PTR [eax+36], edx

; 428  : 	e22 = m.e22;

	mov	eax, DWORD PTR _this$[ebp]
	mov	ecx, DWORD PTR _m$[ebp]
	mov	edx, DWORD PTR [ecx+32]
	mov	DWORD PTR [eax+40], edx

; 429  : 	e23 = 0.0f;

	mov	eax, DWORD PTR _this$[ebp]
	movss	xmm0, DWORD PTR __real@00000000
	movss	DWORD PTR [eax+44], xmm0

; 430  : 
; 431  : 	// Put position (translation) in bottom row
; 432  : 	e30 = position.x;

	mov	eax, DWORD PTR _this$[ebp]
	mov	ecx, DWORD PTR _position$[ebp]
	mov	edx, DWORD PTR [ecx]
	mov	DWORD PTR [eax+48], edx

; 433  : 	e31 = position.y;

	mov	eax, DWORD PTR _this$[ebp]
	mov	ecx, DWORD PTR _position$[ebp]
	mov	edx, DWORD PTR [ecx+4]
	mov	DWORD PTR [eax+52], edx

; 434  : 	e32 = position.z;

	mov	eax, DWORD PTR _this$[ebp]
	mov	ecx, DWORD PTR _position$[ebp]
	mov	edx, DWORD PTR [ecx+8]
	mov	DWORD PTR [eax+56], edx

; 435  : 	e33 = 1.0f;

	mov	eax, DWORD PTR _this$[ebp]
	movss	xmm0, DWORD PTR __real@3f800000
	movss	DWORD PTR [eax+60], xmm0

; 436  : }

	mov	eax, DWORD PTR _this$[ebp]
	pop	edi
	pop	esi
	pop	ebx
	mov	esp, ebp
	pop	ebp
	ret	8
??0CMatrix4x4@gen@@QAE@ABVCMatrix3x3@1@ABVCVector3@1@@Z ENDP ; gen::CMatrix4x4::CMatrix4x4
_TEXT	ENDS
; Function compile flags: /Odtp /RTCsu /ZI
; File c:\users\simon\documents\github\uclan-sparta\import\math\cmatrix4x4.cpp
;	COMDAT ??0CMatrix4x4@gen@@QAE@ABVCMatrix2x2@1@ABVCVector2@1@@Z
_TEXT	SEGMENT
_this$ = -8						; size = 4
_m$ = 8							; size = 4
_position$ = 12						; size = 4
??0CMatrix4x4@gen@@QAE@ABVCMatrix2x2@1@ABVCVector2@1@@Z PROC ; gen::CMatrix4x4::CMatrix4x4, COMDAT
; _this$ = ecx

; 383  : {

	push	ebp
	mov	ebp, esp
	sub	esp, 204				; 000000ccH
	push	ebx
	push	esi
	push	edi
	push	ecx
	lea	edi, DWORD PTR [ebp-204]
	mov	ecx, 51					; 00000033H
	mov	eax, -858993460				; ccccccccH
	rep stosd
	pop	ecx
	mov	DWORD PTR _this$[ebp], ecx

; 384  : 	// Copy 2x2 elements, adding extra identity elements
; 385  : 	e00 = m.e00;

	mov	eax, DWORD PTR _this$[ebp]
	mov	ecx, DWORD PTR _m$[ebp]
	mov	edx, DWORD PTR [ecx]
	mov	DWORD PTR [eax], edx

; 386  : 	e01 = m.e01;

	mov	eax, DWORD PTR _this$[ebp]
	mov	ecx, DWORD PTR _m$[ebp]
	mov	edx, DWORD PTR [ecx+4]
	mov	DWORD PTR [eax+4], edx

; 387  : 	e02 = 0.0f;

	mov	eax, DWORD PTR _this$[ebp]
	movss	xmm0, DWORD PTR __real@00000000
	movss	DWORD PTR [eax+8], xmm0

; 388  : 	e03 = 0.0f;

	mov	eax, DWORD PTR _this$[ebp]
	movss	xmm0, DWORD PTR __real@00000000
	movss	DWORD PTR [eax+12], xmm0

; 389  : 
; 390  : 	e10 = m.e10;

	mov	eax, DWORD PTR _this$[ebp]
	mov	ecx, DWORD PTR _m$[ebp]
	mov	edx, DWORD PTR [ecx+8]
	mov	DWORD PTR [eax+16], edx

; 391  : 	e11 = m.e11;

	mov	eax, DWORD PTR _this$[ebp]
	mov	ecx, DWORD PTR _m$[ebp]
	mov	edx, DWORD PTR [ecx+12]
	mov	DWORD PTR [eax+20], edx

; 392  : 	e12 = 0.0f;

	mov	eax, DWORD PTR _this$[ebp]
	movss	xmm0, DWORD PTR __real@00000000
	movss	DWORD PTR [eax+24], xmm0

; 393  : 	e13 = 0.0f;

	mov	eax, DWORD PTR _this$[ebp]
	movss	xmm0, DWORD PTR __real@00000000
	movss	DWORD PTR [eax+28], xmm0

; 394  : 
; 395  : 	e20 = 0.0f;

	mov	eax, DWORD PTR _this$[ebp]
	movss	xmm0, DWORD PTR __real@00000000
	movss	DWORD PTR [eax+32], xmm0

; 396  : 	e21 = 0.0f;

	mov	eax, DWORD PTR _this$[ebp]
	movss	xmm0, DWORD PTR __real@00000000
	movss	DWORD PTR [eax+36], xmm0

; 397  : 	e22 = 1.0f;

	mov	eax, DWORD PTR _this$[ebp]
	movss	xmm0, DWORD PTR __real@3f800000
	movss	DWORD PTR [eax+40], xmm0

; 398  : 	e23 = 0.0f;

	mov	eax, DWORD PTR _this$[ebp]
	movss	xmm0, DWORD PTR __real@00000000
	movss	DWORD PTR [eax+44], xmm0

; 399  : 
; 400  : 	// Put position (translation) in bottom row
; 401  : 	e30 = position.x;

	mov	eax, DWORD PTR _this$[ebp]
	mov	ecx, DWORD PTR _position$[ebp]
	mov	edx, DWORD PTR [ecx]
	mov	DWORD PTR [eax+48], edx

; 402  : 	e31 = position.y;

	mov	eax, DWORD PTR _this$[ebp]
	mov	ecx, DWORD PTR _position$[ebp]
	mov	edx, DWORD PTR [ecx+4]
	mov	DWORD PTR [eax+52], edx

; 403  : 	e32 = 0.0f;

	mov	eax, DWORD PTR _this$[ebp]
	movss	xmm0, DWORD PTR __real@00000000
	movss	DWORD PTR [eax+56], xmm0

; 404  : 	e33 = 1.0f;

	mov	eax, DWORD PTR _this$[ebp]
	movss	xmm0, DWORD PTR __real@3f800000
	movss	DWORD PTR [eax+60], xmm0

; 405  : }

	mov	eax, DWORD PTR _this$[ebp]
	pop	edi
	pop	esi
	pop	ebx
	mov	esp, ebp
	pop	ebp
	ret	8
??0CMatrix4x4@gen@@QAE@ABVCMatrix2x2@1@ABVCVector2@1@@Z ENDP ; gen::CMatrix4x4::CMatrix4x4
_TEXT	ENDS
; Function compile flags: /Odtp /RTCsu /ZI
; File c:\users\simon\documents\github\uclan-sparta\import\math\cmatrix4x4.cpp
;	COMDAT ??0CMatrix4x4@gen@@QAE@ABVCVector3@1@M00@Z
_TEXT	SEGMENT
_this$ = -8						; size = 4
_axis$ = 8						; size = 4
_fAngle$ = 12						; size = 4
_position$ = 16						; size = 4
_scale$ = 20						; size = 4
??0CMatrix4x4@gen@@QAE@ABVCVector3@1@M00@Z PROC		; gen::CMatrix4x4::CMatrix4x4, COMDAT
; _this$ = ecx

; 352  : {

	push	ebp
	mov	ebp, esp
	sub	esp, 204				; 000000ccH
	push	ebx
	push	esi
	push	edi
	push	ecx
	lea	edi, DWORD PTR [ebp-204]
	mov	ecx, 51					; 00000033H
	mov	eax, -858993460				; ccccccccH
	rep stosd
	pop	ecx
	mov	DWORD PTR _this$[ebp], ecx

; 353  : 	// First build rotation matrix
; 354  : 	MakeRotation( axis, fAngle );

	push	ecx
	movss	xmm0, DWORD PTR _fAngle$[ebp]
	movss	DWORD PTR [esp], xmm0
	mov	eax, DWORD PTR _axis$[ebp]
	push	eax
	mov	ecx, DWORD PTR _this$[ebp]
	call	?MakeRotation@CMatrix4x4@gen@@QAEXABVCVector3@2@M@Z ; gen::CMatrix4x4::MakeRotation

; 355  : 
; 356  : 	// Scale matrix
; 357  : 	e00 *= scale.x;

	mov	eax, DWORD PTR _this$[ebp]
	mov	ecx, DWORD PTR _scale$[ebp]
	movss	xmm0, DWORD PTR [eax]
	mulss	xmm0, DWORD PTR [ecx]
	mov	edx, DWORD PTR _this$[ebp]
	movss	DWORD PTR [edx], xmm0

; 358  : 	e01 *= scale.x;

	mov	eax, DWORD PTR _this$[ebp]
	mov	ecx, DWORD PTR _scale$[ebp]
	movss	xmm0, DWORD PTR [eax+4]
	mulss	xmm0, DWORD PTR [ecx]
	mov	edx, DWORD PTR _this$[ebp]
	movss	DWORD PTR [edx+4], xmm0

; 359  : 	e02 *= scale.x;

	mov	eax, DWORD PTR _this$[ebp]
	mov	ecx, DWORD PTR _scale$[ebp]
	movss	xmm0, DWORD PTR [eax+8]
	mulss	xmm0, DWORD PTR [ecx]
	mov	edx, DWORD PTR _this$[ebp]
	movss	DWORD PTR [edx+8], xmm0

; 360  : 
; 361  : 	e10 *= scale.y;

	mov	eax, DWORD PTR _this$[ebp]
	mov	ecx, DWORD PTR _scale$[ebp]
	movss	xmm0, DWORD PTR [eax+16]
	mulss	xmm0, DWORD PTR [ecx+4]
	mov	edx, DWORD PTR _this$[ebp]
	movss	DWORD PTR [edx+16], xmm0

; 362  : 	e11 *= scale.y;

	mov	eax, DWORD PTR _this$[ebp]
	mov	ecx, DWORD PTR _scale$[ebp]
	movss	xmm0, DWORD PTR [eax+20]
	mulss	xmm0, DWORD PTR [ecx+4]
	mov	edx, DWORD PTR _this$[ebp]
	movss	DWORD PTR [edx+20], xmm0

; 363  : 	e12 *= scale.y;

	mov	eax, DWORD PTR _this$[ebp]
	mov	ecx, DWORD PTR _scale$[ebp]
	movss	xmm0, DWORD PTR [eax+24]
	mulss	xmm0, DWORD PTR [ecx+4]
	mov	edx, DWORD PTR _this$[ebp]
	movss	DWORD PTR [edx+24], xmm0

; 364  : 
; 365  : 	e20 *= scale.z;

	mov	eax, DWORD PTR _this$[ebp]
	mov	ecx, DWORD PTR _scale$[ebp]
	movss	xmm0, DWORD PTR [eax+32]
	mulss	xmm0, DWORD PTR [ecx+8]
	mov	edx, DWORD PTR _this$[ebp]
	movss	DWORD PTR [edx+32], xmm0

; 366  : 	e21 *= scale.z;

	mov	eax, DWORD PTR _this$[ebp]
	mov	ecx, DWORD PTR _scale$[ebp]
	movss	xmm0, DWORD PTR [eax+36]
	mulss	xmm0, DWORD PTR [ecx+8]
	mov	edx, DWORD PTR _this$[ebp]
	movss	DWORD PTR [edx+36], xmm0

; 367  : 	e22 *= scale.z;

	mov	eax, DWORD PTR _this$[ebp]
	mov	ecx, DWORD PTR _scale$[ebp]
	movss	xmm0, DWORD PTR [eax+40]
	mulss	xmm0, DWORD PTR [ecx+8]
	mov	edx, DWORD PTR _this$[ebp]
	movss	DWORD PTR [edx+40], xmm0

; 368  : 
; 369  : 	// Put position (translation) in bottom row
; 370  : 	e30 = position.x;

	mov	eax, DWORD PTR _this$[ebp]
	mov	ecx, DWORD PTR _position$[ebp]
	mov	edx, DWORD PTR [ecx]
	mov	DWORD PTR [eax+48], edx

; 371  : 	e31 = position.y;

	mov	eax, DWORD PTR _this$[ebp]
	mov	ecx, DWORD PTR _position$[ebp]
	mov	edx, DWORD PTR [ecx+4]
	mov	DWORD PTR [eax+52], edx

; 372  : 	e32 = position.z;

	mov	eax, DWORD PTR _this$[ebp]
	mov	ecx, DWORD PTR _position$[ebp]
	mov	edx, DWORD PTR [ecx+8]
	mov	DWORD PTR [eax+56], edx

; 373  : }

	mov	eax, DWORD PTR _this$[ebp]
	pop	edi
	pop	esi
	pop	ebx
	add	esp, 204				; 000000ccH
	cmp	ebp, esp
	call	__RTC_CheckEsp
	mov	esp, ebp
	pop	ebp
	ret	16					; 00000010H
??0CMatrix4x4@gen@@QAE@ABVCVector3@1@M00@Z ENDP		; gen::CMatrix4x4::CMatrix4x4
_TEXT	ENDS
; Function compile flags: /Odtp /RTCsu /ZI
; File c:\users\simon\documents\github\uclan-sparta\import\math\cmatrix4x4.cpp
;	COMDAT ??0CMatrix4x4@gen@@QAE@ABVCQuaternion@1@ABVCVector3@1@1@Z
_TEXT	SEGMENT
_wz$ = -116						; size = 4
_wy$ = -104						; size = 4
_wx$ = -92						; size = 4
_zx$ = -80						; size = 4
_yz$ = -68						; size = 4
_xy$ = -56						; size = 4
_zz$ = -44						; size = 4
_yy$ = -32						; size = 4
_xx$ = -20						; size = 4
_this$ = -8						; size = 4
_quat$ = 8						; size = 4
_position$ = 12						; size = 4
_scale$ = 16						; size = 4
??0CMatrix4x4@gen@@QAE@ABVCQuaternion@1@ABVCVector3@1@1@Z PROC ; gen::CMatrix4x4::CMatrix4x4, COMDAT
; _this$ = ecx

; 304  : {

	push	ebp
	mov	ebp, esp
	sub	esp, 312				; 00000138H
	push	ebx
	push	esi
	push	edi
	push	ecx
	lea	edi, DWORD PTR [ebp-312]
	mov	ecx, 78					; 0000004eH
	mov	eax, -858993460				; ccccccccH
	rep stosd
	pop	ecx
	mov	DWORD PTR _this$[ebp], ecx

; 305  : 	// Efficiently precalculate some values from the quaternion
; 306  : 	TFloat32 xx = 2*quat.x;

	mov	eax, DWORD PTR _quat$[ebp]
	movss	xmm0, DWORD PTR __real@40000000
	mulss	xmm0, DWORD PTR [eax+4]
	movss	DWORD PTR _xx$[ebp], xmm0

; 307  : 	TFloat32 yy = 2*quat.y;

	mov	eax, DWORD PTR _quat$[ebp]
	movss	xmm0, DWORD PTR __real@40000000
	mulss	xmm0, DWORD PTR [eax+8]
	movss	DWORD PTR _yy$[ebp], xmm0

; 308  : 	TFloat32 zz = 2*quat.z;

	mov	eax, DWORD PTR _quat$[ebp]
	movss	xmm0, DWORD PTR __real@40000000
	mulss	xmm0, DWORD PTR [eax+12]
	movss	DWORD PTR _zz$[ebp], xmm0

; 309  : 	TFloat32 xy = xx*quat.y;

	mov	eax, DWORD PTR _quat$[ebp]
	movss	xmm0, DWORD PTR _xx$[ebp]
	mulss	xmm0, DWORD PTR [eax+8]
	movss	DWORD PTR _xy$[ebp], xmm0

; 310  : 	TFloat32 yz = yy*quat.z;

	mov	eax, DWORD PTR _quat$[ebp]
	movss	xmm0, DWORD PTR _yy$[ebp]
	mulss	xmm0, DWORD PTR [eax+12]
	movss	DWORD PTR _yz$[ebp], xmm0

; 311  : 	TFloat32 zx = zz*quat.x;

	mov	eax, DWORD PTR _quat$[ebp]
	movss	xmm0, DWORD PTR _zz$[ebp]
	mulss	xmm0, DWORD PTR [eax+4]
	movss	DWORD PTR _zx$[ebp], xmm0

; 312  : 	TFloat32 wx = quat.w*xx;

	mov	eax, DWORD PTR _quat$[ebp]
	movss	xmm0, DWORD PTR [eax]
	mulss	xmm0, DWORD PTR _xx$[ebp]
	movss	DWORD PTR _wx$[ebp], xmm0

; 313  : 	TFloat32 wy = quat.w*yy;

	mov	eax, DWORD PTR _quat$[ebp]
	movss	xmm0, DWORD PTR [eax]
	mulss	xmm0, DWORD PTR _yy$[ebp]
	movss	DWORD PTR _wy$[ebp], xmm0

; 314  : 	TFloat32 wz = quat.w*zz;

	mov	eax, DWORD PTR _quat$[ebp]
	movss	xmm0, DWORD PTR [eax]
	mulss	xmm0, DWORD PTR _zz$[ebp]
	movss	DWORD PTR _wz$[ebp], xmm0

; 315  : 	xx *= quat.x;

	mov	eax, DWORD PTR _quat$[ebp]
	movss	xmm0, DWORD PTR _xx$[ebp]
	mulss	xmm0, DWORD PTR [eax+4]
	movss	DWORD PTR _xx$[ebp], xmm0

; 316  : 	yy *= quat.y;

	mov	eax, DWORD PTR _quat$[ebp]
	movss	xmm0, DWORD PTR _yy$[ebp]
	mulss	xmm0, DWORD PTR [eax+8]
	movss	DWORD PTR _yy$[ebp], xmm0

; 317  : 	zz *= quat.z;

	mov	eax, DWORD PTR _quat$[ebp]
	movss	xmm0, DWORD PTR _zz$[ebp]
	mulss	xmm0, DWORD PTR [eax+12]
	movss	DWORD PTR _zz$[ebp], xmm0

; 318  : 
; 319  : 	// Fill upper 3x3 matrix, combining scaling with rotation values from the quaternion
; 320  : 	e00  = scale.x * (1 - yy - zz);

	movss	xmm0, DWORD PTR __real@3f800000
	subss	xmm0, DWORD PTR _yy$[ebp]
	subss	xmm0, DWORD PTR _zz$[ebp]
	mov	eax, DWORD PTR _scale$[ebp]
	mulss	xmm0, DWORD PTR [eax]
	mov	ecx, DWORD PTR _this$[ebp]
	movss	DWORD PTR [ecx], xmm0

; 321  : 	e01  = scale.x * (xy + wz);

	movss	xmm0, DWORD PTR _xy$[ebp]
	addss	xmm0, DWORD PTR _wz$[ebp]
	mov	eax, DWORD PTR _scale$[ebp]
	mulss	xmm0, DWORD PTR [eax]
	mov	ecx, DWORD PTR _this$[ebp]
	movss	DWORD PTR [ecx+4], xmm0

; 322  : 	e02  = scale.x * (zx - wy);

	movss	xmm0, DWORD PTR _zx$[ebp]
	subss	xmm0, DWORD PTR _wy$[ebp]
	mov	eax, DWORD PTR _scale$[ebp]
	mulss	xmm0, DWORD PTR [eax]
	mov	ecx, DWORD PTR _this$[ebp]
	movss	DWORD PTR [ecx+8], xmm0

; 323  : 	e03  = 0.0f; // Add 0's in fourth column

	mov	eax, DWORD PTR _this$[ebp]
	movss	xmm0, DWORD PTR __real@00000000
	movss	DWORD PTR [eax+12], xmm0

; 324  : 
; 325  : 	e10  = scale.y * (xy - wz);

	movss	xmm0, DWORD PTR _xy$[ebp]
	subss	xmm0, DWORD PTR _wz$[ebp]
	mov	eax, DWORD PTR _scale$[ebp]
	mulss	xmm0, DWORD PTR [eax+4]
	mov	ecx, DWORD PTR _this$[ebp]
	movss	DWORD PTR [ecx+16], xmm0

; 326  : 	e11  = scale.y * (1 - xx - zz);

	movss	xmm0, DWORD PTR __real@3f800000
	subss	xmm0, DWORD PTR _xx$[ebp]
	subss	xmm0, DWORD PTR _zz$[ebp]
	mov	eax, DWORD PTR _scale$[ebp]
	mulss	xmm0, DWORD PTR [eax+4]
	mov	ecx, DWORD PTR _this$[ebp]
	movss	DWORD PTR [ecx+20], xmm0

; 327  : 	e12  = scale.y * (yz + wx);

	movss	xmm0, DWORD PTR _yz$[ebp]
	addss	xmm0, DWORD PTR _wx$[ebp]
	mov	eax, DWORD PTR _scale$[ebp]
	mulss	xmm0, DWORD PTR [eax+4]
	mov	ecx, DWORD PTR _this$[ebp]
	movss	DWORD PTR [ecx+24], xmm0

; 328  : 	e13  = 0.0f;

	mov	eax, DWORD PTR _this$[ebp]
	movss	xmm0, DWORD PTR __real@00000000
	movss	DWORD PTR [eax+28], xmm0

; 329  : 
; 330  : 	e20  = scale.z * (zx + wy);

	movss	xmm0, DWORD PTR _zx$[ebp]
	addss	xmm0, DWORD PTR _wy$[ebp]
	mov	eax, DWORD PTR _scale$[ebp]
	mulss	xmm0, DWORD PTR [eax+8]
	mov	ecx, DWORD PTR _this$[ebp]
	movss	DWORD PTR [ecx+32], xmm0

; 331  : 	e21  = scale.z * (yz - wx);

	movss	xmm0, DWORD PTR _yz$[ebp]
	subss	xmm0, DWORD PTR _wx$[ebp]
	mov	eax, DWORD PTR _scale$[ebp]
	mulss	xmm0, DWORD PTR [eax+8]
	mov	ecx, DWORD PTR _this$[ebp]
	movss	DWORD PTR [ecx+36], xmm0

; 332  : 	e22 = scale.z * (1 - xx - yy);

	movss	xmm0, DWORD PTR __real@3f800000
	subss	xmm0, DWORD PTR _xx$[ebp]
	subss	xmm0, DWORD PTR _yy$[ebp]
	mov	eax, DWORD PTR _scale$[ebp]
	mulss	xmm0, DWORD PTR [eax+8]
	mov	ecx, DWORD PTR _this$[ebp]
	movss	DWORD PTR [ecx+40], xmm0

; 333  : 	e23 = 0.0f;

	mov	eax, DWORD PTR _this$[ebp]
	movss	xmm0, DWORD PTR __real@00000000
	movss	DWORD PTR [eax+44], xmm0

; 334  : 
; 335  : 	// Put position (translation) in bottom row
; 336  : 	e30 = position.x;

	mov	eax, DWORD PTR _this$[ebp]
	mov	ecx, DWORD PTR _position$[ebp]
	mov	edx, DWORD PTR [ecx]
	mov	DWORD PTR [eax+48], edx

; 337  : 	e31 = position.y;

	mov	eax, DWORD PTR _this$[ebp]
	mov	ecx, DWORD PTR _position$[ebp]
	mov	edx, DWORD PTR [ecx+4]
	mov	DWORD PTR [eax+52], edx

; 338  : 	e32 = position.z;

	mov	eax, DWORD PTR _this$[ebp]
	mov	ecx, DWORD PTR _position$[ebp]
	mov	edx, DWORD PTR [ecx+8]
	mov	DWORD PTR [eax+56], edx

; 339  : 	e33 = 1.0f;

	mov	eax, DWORD PTR _this$[ebp]
	movss	xmm0, DWORD PTR __real@3f800000
	movss	DWORD PTR [eax+60], xmm0

; 340  : }

	mov	eax, DWORD PTR _this$[ebp]
	pop	edi
	pop	esi
	pop	ebx
	mov	esp, ebp
	pop	ebp
	ret	12					; 0000000cH
??0CMatrix4x4@gen@@QAE@ABVCQuaternion@1@ABVCVector3@1@1@Z ENDP ; gen::CMatrix4x4::CMatrix4x4
_TEXT	ENDS
; Function compile flags: /Odtp /RTCsu /ZI
; File c:\users\simon\documents\github\uclan-sparta\import\math\cmatrix4x4.cpp
;	COMDAT ??0CMatrix4x4@gen@@QAE@ABVCVector3@1@0W4ERotationOrder@1@0@Z
_TEXT	SEGMENT
_this$ = -8						; size = 4
_position$ = 8						; size = 4
_angles$ = 12						; size = 4
_eRotOrder$ = 16					; size = 4
_scale$ = 20						; size = 4
??0CMatrix4x4@gen@@QAE@ABVCVector3@1@0W4ERotationOrder@1@0@Z PROC ; gen::CMatrix4x4::CMatrix4x4, COMDAT
; _this$ = ecx

; 272  : {

	push	ebp
	mov	ebp, esp
	sub	esp, 216				; 000000d8H
	push	ebx
	push	esi
	push	edi
	push	ecx
	lea	edi, DWORD PTR [ebp-216]
	mov	ecx, 54					; 00000036H
	mov	eax, -858993460				; ccccccccH
	rep stosd
	pop	ecx
	mov	DWORD PTR _this$[ebp], ecx

; 273  : 	// First build rotation matrix
; 274  : 	MakeRotation( angles, eRotOrder );

	mov	eax, DWORD PTR _eRotOrder$[ebp]
	push	eax
	sub	esp, 12					; 0000000cH
	mov	ecx, esp
	mov	edx, DWORD PTR _angles$[ebp]
	push	edx
	call	??0CVector3@gen@@QAE@ABV01@@Z		; gen::CVector3::CVector3
	mov	ecx, DWORD PTR _this$[ebp]
	call	?MakeRotation@CMatrix4x4@gen@@QAEXVCVector3@2@W4ERotationOrder@2@@Z ; gen::CMatrix4x4::MakeRotation

; 275  : 
; 276  : 	// Scale matrix
; 277  : 	e00 *= scale.x;

	mov	eax, DWORD PTR _this$[ebp]
	mov	ecx, DWORD PTR _scale$[ebp]
	movss	xmm0, DWORD PTR [eax]
	mulss	xmm0, DWORD PTR [ecx]
	mov	edx, DWORD PTR _this$[ebp]
	movss	DWORD PTR [edx], xmm0

; 278  : 	e01 *= scale.x;

	mov	eax, DWORD PTR _this$[ebp]
	mov	ecx, DWORD PTR _scale$[ebp]
	movss	xmm0, DWORD PTR [eax+4]
	mulss	xmm0, DWORD PTR [ecx]
	mov	edx, DWORD PTR _this$[ebp]
	movss	DWORD PTR [edx+4], xmm0

; 279  : 	e02 *= scale.x;

	mov	eax, DWORD PTR _this$[ebp]
	mov	ecx, DWORD PTR _scale$[ebp]
	movss	xmm0, DWORD PTR [eax+8]
	mulss	xmm0, DWORD PTR [ecx]
	mov	edx, DWORD PTR _this$[ebp]
	movss	DWORD PTR [edx+8], xmm0

; 280  : 
; 281  : 	e10 *= scale.y;

	mov	eax, DWORD PTR _this$[ebp]
	mov	ecx, DWORD PTR _scale$[ebp]
	movss	xmm0, DWORD PTR [eax+16]
	mulss	xmm0, DWORD PTR [ecx+4]
	mov	edx, DWORD PTR _this$[ebp]
	movss	DWORD PTR [edx+16], xmm0

; 282  : 	e11 *= scale.y;

	mov	eax, DWORD PTR _this$[ebp]
	mov	ecx, DWORD PTR _scale$[ebp]
	movss	xmm0, DWORD PTR [eax+20]
	mulss	xmm0, DWORD PTR [ecx+4]
	mov	edx, DWORD PTR _this$[ebp]
	movss	DWORD PTR [edx+20], xmm0

; 283  : 	e12 *= scale.y;

	mov	eax, DWORD PTR _this$[ebp]
	mov	ecx, DWORD PTR _scale$[ebp]
	movss	xmm0, DWORD PTR [eax+24]
	mulss	xmm0, DWORD PTR [ecx+4]
	mov	edx, DWORD PTR _this$[ebp]
	movss	DWORD PTR [edx+24], xmm0

; 284  : 
; 285  : 	e20 *= scale.z;

	mov	eax, DWORD PTR _this$[ebp]
	mov	ecx, DWORD PTR _scale$[ebp]
	movss	xmm0, DWORD PTR [eax+32]
	mulss	xmm0, DWORD PTR [ecx+8]
	mov	edx, DWORD PTR _this$[ebp]
	movss	DWORD PTR [edx+32], xmm0

; 286  : 	e21 *= scale.z;

	mov	eax, DWORD PTR _this$[ebp]
	mov	ecx, DWORD PTR _scale$[ebp]
	movss	xmm0, DWORD PTR [eax+36]
	mulss	xmm0, DWORD PTR [ecx+8]
	mov	edx, DWORD PTR _this$[ebp]
	movss	DWORD PTR [edx+36], xmm0

; 287  : 	e22 *= scale.z;

	mov	eax, DWORD PTR _this$[ebp]
	mov	ecx, DWORD PTR _scale$[ebp]
	movss	xmm0, DWORD PTR [eax+40]
	mulss	xmm0, DWORD PTR [ecx+8]
	mov	edx, DWORD PTR _this$[ebp]
	movss	DWORD PTR [edx+40], xmm0

; 288  : 
; 289  : 	// Put position (translation) in bottom row
; 290  : 	e30 = position.x;

	mov	eax, DWORD PTR _this$[ebp]
	mov	ecx, DWORD PTR _position$[ebp]
	mov	edx, DWORD PTR [ecx]
	mov	DWORD PTR [eax+48], edx

; 291  : 	e31 = position.y;

	mov	eax, DWORD PTR _this$[ebp]
	mov	ecx, DWORD PTR _position$[ebp]
	mov	edx, DWORD PTR [ecx+4]
	mov	DWORD PTR [eax+52], edx

; 292  : 	e32 = position.z;

	mov	eax, DWORD PTR _this$[ebp]
	mov	ecx, DWORD PTR _position$[ebp]
	mov	edx, DWORD PTR [ecx+8]
	mov	DWORD PTR [eax+56], edx

; 293  : }

	mov	eax, DWORD PTR _this$[ebp]
	pop	edi
	pop	esi
	pop	ebx
	add	esp, 216				; 000000d8H
	cmp	ebp, esp
	call	__RTC_CheckEsp
	mov	esp, ebp
	pop	ebp
	ret	16					; 00000010H
??0CMatrix4x4@gen@@QAE@ABVCVector3@1@0W4ERotationOrder@1@0@Z ENDP ; gen::CMatrix4x4::CMatrix4x4
_TEXT	ENDS
; Function compile flags: /Odtp /RTCsu /ZI
; File c:\users\simon\documents\github\uclan-sparta\import\math\cmatrix4x4.cpp
;	COMDAT ??0CMatrix4x4@gen@@QAE@ABVCVector3@1@@Z
_TEXT	SEGMENT
_this$ = -8						; size = 4
_position$ = 8						; size = 4
??0CMatrix4x4@gen@@QAE@ABVCVector3@1@@Z PROC		; gen::CMatrix4x4::CMatrix4x4, COMDAT
; _this$ = ecx

; 238  : {

	push	ebp
	mov	ebp, esp
	sub	esp, 204				; 000000ccH
	push	ebx
	push	esi
	push	edi
	push	ecx
	lea	edi, DWORD PTR [ebp-204]
	mov	ecx, 51					; 00000033H
	mov	eax, -858993460				; ccccccccH
	rep stosd
	pop	ecx
	mov	DWORD PTR _this$[ebp], ecx

; 239  : 	// Take most elements from identity
; 240  : 	e00 = 1.0f;

	mov	eax, DWORD PTR _this$[ebp]
	movss	xmm0, DWORD PTR __real@3f800000
	movss	DWORD PTR [eax], xmm0

; 241  : 	e01 = 0.0f;

	mov	eax, DWORD PTR _this$[ebp]
	movss	xmm0, DWORD PTR __real@00000000
	movss	DWORD PTR [eax+4], xmm0

; 242  : 	e02 = 0.0f;

	mov	eax, DWORD PTR _this$[ebp]
	movss	xmm0, DWORD PTR __real@00000000
	movss	DWORD PTR [eax+8], xmm0

; 243  : 	e03 = 0.0f;

	mov	eax, DWORD PTR _this$[ebp]
	movss	xmm0, DWORD PTR __real@00000000
	movss	DWORD PTR [eax+12], xmm0

; 244  : 
; 245  : 	e10 = 0.0f;

	mov	eax, DWORD PTR _this$[ebp]
	movss	xmm0, DWORD PTR __real@00000000
	movss	DWORD PTR [eax+16], xmm0

; 246  : 	e11 = 1.0f;

	mov	eax, DWORD PTR _this$[ebp]
	movss	xmm0, DWORD PTR __real@3f800000
	movss	DWORD PTR [eax+20], xmm0

; 247  : 	e12 = 0.0f;

	mov	eax, DWORD PTR _this$[ebp]
	movss	xmm0, DWORD PTR __real@00000000
	movss	DWORD PTR [eax+24], xmm0

; 248  : 	e13 = 0.0f;

	mov	eax, DWORD PTR _this$[ebp]
	movss	xmm0, DWORD PTR __real@00000000
	movss	DWORD PTR [eax+28], xmm0

; 249  : 
; 250  : 	e20 = 0.0f;

	mov	eax, DWORD PTR _this$[ebp]
	movss	xmm0, DWORD PTR __real@00000000
	movss	DWORD PTR [eax+32], xmm0

; 251  : 	e21 = 0.0f;

	mov	eax, DWORD PTR _this$[ebp]
	movss	xmm0, DWORD PTR __real@00000000
	movss	DWORD PTR [eax+36], xmm0

; 252  : 	e22 = 1.0f;

	mov	eax, DWORD PTR _this$[ebp]
	movss	xmm0, DWORD PTR __real@3f800000
	movss	DWORD PTR [eax+40], xmm0

; 253  : 	e23 = 0.0f;

	mov	eax, DWORD PTR _this$[ebp]
	movss	xmm0, DWORD PTR __real@00000000
	movss	DWORD PTR [eax+44], xmm0

; 254  : 
; 255  : 	// Put position (translation) in bottom row
; 256  : 	e30 = position.x;

	mov	eax, DWORD PTR _this$[ebp]
	mov	ecx, DWORD PTR _position$[ebp]
	mov	edx, DWORD PTR [ecx]
	mov	DWORD PTR [eax+48], edx

; 257  : 	e31 = position.y;

	mov	eax, DWORD PTR _this$[ebp]
	mov	ecx, DWORD PTR _position$[ebp]
	mov	edx, DWORD PTR [ecx+4]
	mov	DWORD PTR [eax+52], edx

; 258  : 	e32 = position.z;

	mov	eax, DWORD PTR _this$[ebp]
	mov	ecx, DWORD PTR _position$[ebp]
	mov	edx, DWORD PTR [ecx+8]
	mov	DWORD PTR [eax+56], edx

; 259  : 	e33 = 1.0f;

	mov	eax, DWORD PTR _this$[ebp]
	movss	xmm0, DWORD PTR __real@3f800000
	movss	DWORD PTR [eax+60], xmm0

; 260  : }

	mov	eax, DWORD PTR _this$[ebp]
	pop	edi
	pop	esi
	pop	ebx
	mov	esp, ebp
	pop	ebp
	ret	4
??0CMatrix4x4@gen@@QAE@ABVCVector3@1@@Z ENDP		; gen::CMatrix4x4::CMatrix4x4
_TEXT	ENDS
; Function compile flags: /Odtp /RTCsu /ZI
; File c:\users\simon\documents\github\uclan-sparta\import\math\cmatrix4x4.cpp
;	COMDAT ??0CMatrix4x4@gen@@QAE@ABVCVector3@1@000_N@Z
_TEXT	SEGMENT
_this$ = -8						; size = 4
_v0$ = 8						; size = 4
_v1$ = 12						; size = 4
_v2$ = 16						; size = 4
_v3$ = 20						; size = 4
_bRows$ = 24						; size = 1
??0CMatrix4x4@gen@@QAE@ABVCVector3@1@000_N@Z PROC	; gen::CMatrix4x4::CMatrix4x4, COMDAT
; _this$ = ecx

; 188  : {

	push	ebp
	mov	ebp, esp
	sub	esp, 204				; 000000ccH
	push	ebx
	push	esi
	push	edi
	push	ecx
	lea	edi, DWORD PTR [ebp-204]
	mov	ecx, 51					; 00000033H
	mov	eax, -858993460				; ccccccccH
	rep stosd
	pop	ecx
	mov	DWORD PTR _this$[ebp], ecx

; 189  : 	if (bRows)

	movzx	eax, BYTE PTR _bRows$[ebp]
	test	eax, eax
	je	$LN2@CMatrix4x4

; 190  : 	{
; 191  : 		e00 = v0.x;

	mov	eax, DWORD PTR _this$[ebp]
	mov	ecx, DWORD PTR _v0$[ebp]
	mov	edx, DWORD PTR [ecx]
	mov	DWORD PTR [eax], edx

; 192  : 		e01 = v0.y;

	mov	eax, DWORD PTR _this$[ebp]
	mov	ecx, DWORD PTR _v0$[ebp]
	mov	edx, DWORD PTR [ecx+4]
	mov	DWORD PTR [eax+4], edx

; 193  : 		e02 = v0.z;

	mov	eax, DWORD PTR _this$[ebp]
	mov	ecx, DWORD PTR _v0$[ebp]
	mov	edx, DWORD PTR [ecx+8]
	mov	DWORD PTR [eax+8], edx

; 194  : 		e03 = 0.0f;

	mov	eax, DWORD PTR _this$[ebp]
	movss	xmm0, DWORD PTR __real@00000000
	movss	DWORD PTR [eax+12], xmm0

; 195  : 
; 196  : 		e10 = v1.x;

	mov	eax, DWORD PTR _this$[ebp]
	mov	ecx, DWORD PTR _v1$[ebp]
	mov	edx, DWORD PTR [ecx]
	mov	DWORD PTR [eax+16], edx

; 197  : 		e11 = v1.y;

	mov	eax, DWORD PTR _this$[ebp]
	mov	ecx, DWORD PTR _v1$[ebp]
	mov	edx, DWORD PTR [ecx+4]
	mov	DWORD PTR [eax+20], edx

; 198  : 		e12 = v1.z;

	mov	eax, DWORD PTR _this$[ebp]
	mov	ecx, DWORD PTR _v1$[ebp]
	mov	edx, DWORD PTR [ecx+8]
	mov	DWORD PTR [eax+24], edx

; 199  : 		e13 = 0.0f;

	mov	eax, DWORD PTR _this$[ebp]
	movss	xmm0, DWORD PTR __real@00000000
	movss	DWORD PTR [eax+28], xmm0

; 200  : 
; 201  : 		e20 = v2.x;

	mov	eax, DWORD PTR _this$[ebp]
	mov	ecx, DWORD PTR _v2$[ebp]
	mov	edx, DWORD PTR [ecx]
	mov	DWORD PTR [eax+32], edx

; 202  : 		e21 = v2.y;

	mov	eax, DWORD PTR _this$[ebp]
	mov	ecx, DWORD PTR _v2$[ebp]
	mov	edx, DWORD PTR [ecx+4]
	mov	DWORD PTR [eax+36], edx

; 203  : 		e22 = v2.z;

	mov	eax, DWORD PTR _this$[ebp]
	mov	ecx, DWORD PTR _v2$[ebp]
	mov	edx, DWORD PTR [ecx+8]
	mov	DWORD PTR [eax+40], edx

; 204  : 		e23 = 0.0f;

	mov	eax, DWORD PTR _this$[ebp]
	movss	xmm0, DWORD PTR __real@00000000
	movss	DWORD PTR [eax+44], xmm0

; 205  : 
; 206  : 		e30 = v3.x;

	mov	eax, DWORD PTR _this$[ebp]
	mov	ecx, DWORD PTR _v3$[ebp]
	mov	edx, DWORD PTR [ecx]
	mov	DWORD PTR [eax+48], edx

; 207  : 		e31 = v3.y;

	mov	eax, DWORD PTR _this$[ebp]
	mov	ecx, DWORD PTR _v3$[ebp]
	mov	edx, DWORD PTR [ecx+4]
	mov	DWORD PTR [eax+52], edx

; 208  : 		e32 = v3.z;

	mov	eax, DWORD PTR _this$[ebp]
	mov	ecx, DWORD PTR _v3$[ebp]
	mov	edx, DWORD PTR [ecx+8]
	mov	DWORD PTR [eax+56], edx

; 209  : 		e33 = 1.0f;

	mov	eax, DWORD PTR _this$[ebp]
	movss	xmm0, DWORD PTR __real@3f800000
	movss	DWORD PTR [eax+60], xmm0

; 210  : 	}
; 211  : 	else

	jmp	$LN1@CMatrix4x4
$LN2@CMatrix4x4:

; 212  : 	{
; 213  : 		e00 = v0.x;

	mov	eax, DWORD PTR _this$[ebp]
	mov	ecx, DWORD PTR _v0$[ebp]
	mov	edx, DWORD PTR [ecx]
	mov	DWORD PTR [eax], edx

; 214  : 		e10 = v0.y;

	mov	eax, DWORD PTR _this$[ebp]
	mov	ecx, DWORD PTR _v0$[ebp]
	mov	edx, DWORD PTR [ecx+4]
	mov	DWORD PTR [eax+16], edx

; 215  : 		e20 = v0.z;

	mov	eax, DWORD PTR _this$[ebp]
	mov	ecx, DWORD PTR _v0$[ebp]
	mov	edx, DWORD PTR [ecx+8]
	mov	DWORD PTR [eax+32], edx

; 216  : 
; 217  : 		e01 = v1.x;

	mov	eax, DWORD PTR _this$[ebp]
	mov	ecx, DWORD PTR _v1$[ebp]
	mov	edx, DWORD PTR [ecx]
	mov	DWORD PTR [eax+4], edx

; 218  : 		e11 = v1.y;

	mov	eax, DWORD PTR _this$[ebp]
	mov	ecx, DWORD PTR _v1$[ebp]
	mov	edx, DWORD PTR [ecx+4]
	mov	DWORD PTR [eax+20], edx

; 219  : 		e21 = v1.z;

	mov	eax, DWORD PTR _this$[ebp]
	mov	ecx, DWORD PTR _v1$[ebp]
	mov	edx, DWORD PTR [ecx+8]
	mov	DWORD PTR [eax+36], edx

; 220  : 
; 221  : 		e02 = v2.x;

	mov	eax, DWORD PTR _this$[ebp]
	mov	ecx, DWORD PTR _v2$[ebp]
	mov	edx, DWORD PTR [ecx]
	mov	DWORD PTR [eax+8], edx

; 222  : 		e12 = v2.y;

	mov	eax, DWORD PTR _this$[ebp]
	mov	ecx, DWORD PTR _v2$[ebp]
	mov	edx, DWORD PTR [ecx+4]
	mov	DWORD PTR [eax+24], edx

; 223  : 		e22 = v2.z;

	mov	eax, DWORD PTR _this$[ebp]
	mov	ecx, DWORD PTR _v2$[ebp]
	mov	edx, DWORD PTR [ecx+8]
	mov	DWORD PTR [eax+40], edx

; 224  : 
; 225  : 		e03 = v3.x;

	mov	eax, DWORD PTR _this$[ebp]
	mov	ecx, DWORD PTR _v3$[ebp]
	mov	edx, DWORD PTR [ecx]
	mov	DWORD PTR [eax+12], edx

; 226  : 		e13 = v3.y;

	mov	eax, DWORD PTR _this$[ebp]
	mov	ecx, DWORD PTR _v3$[ebp]
	mov	edx, DWORD PTR [ecx+4]
	mov	DWORD PTR [eax+28], edx

; 227  : 		e23 = v3.z;

	mov	eax, DWORD PTR _this$[ebp]
	mov	ecx, DWORD PTR _v3$[ebp]
	mov	edx, DWORD PTR [ecx+8]
	mov	DWORD PTR [eax+44], edx

; 228  : 
; 229  : 		e30 = 0.0f;

	mov	eax, DWORD PTR _this$[ebp]
	movss	xmm0, DWORD PTR __real@00000000
	movss	DWORD PTR [eax+48], xmm0

; 230  : 		e31 = 0.0f;

	mov	eax, DWORD PTR _this$[ebp]
	movss	xmm0, DWORD PTR __real@00000000
	movss	DWORD PTR [eax+52], xmm0

; 231  : 		e32 = 0.0f;

	mov	eax, DWORD PTR _this$[ebp]
	movss	xmm0, DWORD PTR __real@00000000
	movss	DWORD PTR [eax+56], xmm0

; 232  : 		e33 = 1.0f;

	mov	eax, DWORD PTR _this$[ebp]
	movss	xmm0, DWORD PTR __real@3f800000
	movss	DWORD PTR [eax+60], xmm0
$LN1@CMatrix4x4:

; 233  : 	}
; 234  : }

	mov	eax, DWORD PTR _this$[ebp]
	pop	edi
	pop	esi
	pop	ebx
	mov	esp, ebp
	pop	ebp
	ret	20					; 00000014H
??0CMatrix4x4@gen@@QAE@ABVCVector3@1@000_N@Z ENDP	; gen::CMatrix4x4::CMatrix4x4
_TEXT	ENDS
; Function compile flags: /Odtp /RTCsu /ZI
; File c:\users\simon\documents\github\uclan-sparta\import\math\cmatrix4x4.cpp
;	COMDAT ??0CMatrix4x4@gen@@QAE@ABVCVector4@1@000_N@Z
_TEXT	SEGMENT
_this$ = -8						; size = 4
_v0$ = 8						; size = 4
_v1$ = 12						; size = 4
_v2$ = 16						; size = 4
_v3$ = 20						; size = 4
_bRows$ = 24						; size = 1
??0CMatrix4x4@gen@@QAE@ABVCVector4@1@000_N@Z PROC	; gen::CMatrix4x4::CMatrix4x4, COMDAT
; _this$ = ecx

; 131  : {

	push	ebp
	mov	ebp, esp
	sub	esp, 204				; 000000ccH
	push	ebx
	push	esi
	push	edi
	push	ecx
	lea	edi, DWORD PTR [ebp-204]
	mov	ecx, 51					; 00000033H
	mov	eax, -858993460				; ccccccccH
	rep stosd
	pop	ecx
	mov	DWORD PTR _this$[ebp], ecx

; 132  : 	if (bRows)

	movzx	eax, BYTE PTR _bRows$[ebp]
	test	eax, eax
	je	$LN2@CMatrix4x4

; 133  : 	{
; 134  : 		e00 = v0.x;

	mov	eax, DWORD PTR _this$[ebp]
	mov	ecx, DWORD PTR _v0$[ebp]
	mov	edx, DWORD PTR [ecx]
	mov	DWORD PTR [eax], edx

; 135  : 		e01 = v0.y;

	mov	eax, DWORD PTR _this$[ebp]
	mov	ecx, DWORD PTR _v0$[ebp]
	mov	edx, DWORD PTR [ecx+4]
	mov	DWORD PTR [eax+4], edx

; 136  : 		e02 = v0.z;

	mov	eax, DWORD PTR _this$[ebp]
	mov	ecx, DWORD PTR _v0$[ebp]
	mov	edx, DWORD PTR [ecx+8]
	mov	DWORD PTR [eax+8], edx

; 137  : 		e03 = v0.w;

	mov	eax, DWORD PTR _this$[ebp]
	mov	ecx, DWORD PTR _v0$[ebp]
	mov	edx, DWORD PTR [ecx+12]
	mov	DWORD PTR [eax+12], edx

; 138  : 
; 139  : 		e10 = v1.x;

	mov	eax, DWORD PTR _this$[ebp]
	mov	ecx, DWORD PTR _v1$[ebp]
	mov	edx, DWORD PTR [ecx]
	mov	DWORD PTR [eax+16], edx

; 140  : 		e11 = v1.y;

	mov	eax, DWORD PTR _this$[ebp]
	mov	ecx, DWORD PTR _v1$[ebp]
	mov	edx, DWORD PTR [ecx+4]
	mov	DWORD PTR [eax+20], edx

; 141  : 		e12 = v1.z;

	mov	eax, DWORD PTR _this$[ebp]
	mov	ecx, DWORD PTR _v1$[ebp]
	mov	edx, DWORD PTR [ecx+8]
	mov	DWORD PTR [eax+24], edx

; 142  : 		e13 = v1.w;

	mov	eax, DWORD PTR _this$[ebp]
	mov	ecx, DWORD PTR _v1$[ebp]
	mov	edx, DWORD PTR [ecx+12]
	mov	DWORD PTR [eax+28], edx

; 143  : 
; 144  : 		e20 = v2.x;

	mov	eax, DWORD PTR _this$[ebp]
	mov	ecx, DWORD PTR _v2$[ebp]
	mov	edx, DWORD PTR [ecx]
	mov	DWORD PTR [eax+32], edx

; 145  : 		e21 = v2.y;

	mov	eax, DWORD PTR _this$[ebp]
	mov	ecx, DWORD PTR _v2$[ebp]
	mov	edx, DWORD PTR [ecx+4]
	mov	DWORD PTR [eax+36], edx

; 146  : 		e22 = v2.z;

	mov	eax, DWORD PTR _this$[ebp]
	mov	ecx, DWORD PTR _v2$[ebp]
	mov	edx, DWORD PTR [ecx+8]
	mov	DWORD PTR [eax+40], edx

; 147  : 		e23 = v2.w;

	mov	eax, DWORD PTR _this$[ebp]
	mov	ecx, DWORD PTR _v2$[ebp]
	mov	edx, DWORD PTR [ecx+12]
	mov	DWORD PTR [eax+44], edx

; 148  : 
; 149  : 		e30 = v3.x;

	mov	eax, DWORD PTR _this$[ebp]
	mov	ecx, DWORD PTR _v3$[ebp]
	mov	edx, DWORD PTR [ecx]
	mov	DWORD PTR [eax+48], edx

; 150  : 		e31 = v3.y;

	mov	eax, DWORD PTR _this$[ebp]
	mov	ecx, DWORD PTR _v3$[ebp]
	mov	edx, DWORD PTR [ecx+4]
	mov	DWORD PTR [eax+52], edx

; 151  : 		e32 = v3.z;

	mov	eax, DWORD PTR _this$[ebp]
	mov	ecx, DWORD PTR _v3$[ebp]
	mov	edx, DWORD PTR [ecx+8]
	mov	DWORD PTR [eax+56], edx

; 152  : 		e33 = v3.w;

	mov	eax, DWORD PTR _this$[ebp]
	mov	ecx, DWORD PTR _v3$[ebp]
	mov	edx, DWORD PTR [ecx+12]
	mov	DWORD PTR [eax+60], edx

; 153  : 	}
; 154  : 	else

	jmp	$LN1@CMatrix4x4
$LN2@CMatrix4x4:

; 155  : 	{
; 156  : 		e00 = v0.x;

	mov	eax, DWORD PTR _this$[ebp]
	mov	ecx, DWORD PTR _v0$[ebp]
	mov	edx, DWORD PTR [ecx]
	mov	DWORD PTR [eax], edx

; 157  : 		e10 = v0.y;

	mov	eax, DWORD PTR _this$[ebp]
	mov	ecx, DWORD PTR _v0$[ebp]
	mov	edx, DWORD PTR [ecx+4]
	mov	DWORD PTR [eax+16], edx

; 158  : 		e20 = v0.z;

	mov	eax, DWORD PTR _this$[ebp]
	mov	ecx, DWORD PTR _v0$[ebp]
	mov	edx, DWORD PTR [ecx+8]
	mov	DWORD PTR [eax+32], edx

; 159  : 		e30 = v0.w;

	mov	eax, DWORD PTR _this$[ebp]
	mov	ecx, DWORD PTR _v0$[ebp]
	mov	edx, DWORD PTR [ecx+12]
	mov	DWORD PTR [eax+48], edx

; 160  : 
; 161  : 		e01 = v1.x;

	mov	eax, DWORD PTR _this$[ebp]
	mov	ecx, DWORD PTR _v1$[ebp]
	mov	edx, DWORD PTR [ecx]
	mov	DWORD PTR [eax+4], edx

; 162  : 		e11 = v1.y;

	mov	eax, DWORD PTR _this$[ebp]
	mov	ecx, DWORD PTR _v1$[ebp]
	mov	edx, DWORD PTR [ecx+4]
	mov	DWORD PTR [eax+20], edx

; 163  : 		e21 = v1.z;

	mov	eax, DWORD PTR _this$[ebp]
	mov	ecx, DWORD PTR _v1$[ebp]
	mov	edx, DWORD PTR [ecx+8]
	mov	DWORD PTR [eax+36], edx

; 164  : 		e31 = v1.w;

	mov	eax, DWORD PTR _this$[ebp]
	mov	ecx, DWORD PTR _v1$[ebp]
	mov	edx, DWORD PTR [ecx+12]
	mov	DWORD PTR [eax+52], edx

; 165  : 
; 166  : 		e02 = v2.x;

	mov	eax, DWORD PTR _this$[ebp]
	mov	ecx, DWORD PTR _v2$[ebp]
	mov	edx, DWORD PTR [ecx]
	mov	DWORD PTR [eax+8], edx

; 167  : 		e12 = v2.y;

	mov	eax, DWORD PTR _this$[ebp]
	mov	ecx, DWORD PTR _v2$[ebp]
	mov	edx, DWORD PTR [ecx+4]
	mov	DWORD PTR [eax+24], edx

; 168  : 		e22 = v2.z;

	mov	eax, DWORD PTR _this$[ebp]
	mov	ecx, DWORD PTR _v2$[ebp]
	mov	edx, DWORD PTR [ecx+8]
	mov	DWORD PTR [eax+40], edx

; 169  : 		e32 = v2.w;

	mov	eax, DWORD PTR _this$[ebp]
	mov	ecx, DWORD PTR _v2$[ebp]
	mov	edx, DWORD PTR [ecx+12]
	mov	DWORD PTR [eax+56], edx

; 170  : 
; 171  : 		e03 = v3.x;

	mov	eax, DWORD PTR _this$[ebp]
	mov	ecx, DWORD PTR _v3$[ebp]
	mov	edx, DWORD PTR [ecx]
	mov	DWORD PTR [eax+12], edx

; 172  : 		e13 = v3.y;

	mov	eax, DWORD PTR _this$[ebp]
	mov	ecx, DWORD PTR _v3$[ebp]
	mov	edx, DWORD PTR [ecx+4]
	mov	DWORD PTR [eax+28], edx

; 173  : 		e23 = v3.z;

	mov	eax, DWORD PTR _this$[ebp]
	mov	ecx, DWORD PTR _v3$[ebp]
	mov	edx, DWORD PTR [ecx+8]
	mov	DWORD PTR [eax+44], edx

; 174  : 		e33 = v3.w;

	mov	eax, DWORD PTR _this$[ebp]
	mov	ecx, DWORD PTR _v3$[ebp]
	mov	edx, DWORD PTR [ecx+12]
	mov	DWORD PTR [eax+60], edx
$LN1@CMatrix4x4:

; 175  : 	}
; 176  : }

	mov	eax, DWORD PTR _this$[ebp]
	pop	edi
	pop	esi
	pop	ebx
	mov	esp, ebp
	pop	ebp
	ret	20					; 00000014H
??0CMatrix4x4@gen@@QAE@ABVCVector4@1@000_N@Z ENDP	; gen::CMatrix4x4::CMatrix4x4
_TEXT	ENDS
; Function compile flags: /Odtp /RTCsu /ZI
; File c:\users\simon\documents\github\uclan-sparta\import\math\cmatrix4x4.cpp
;	COMDAT ??0CMatrix4x4@gen@@QAE@PBM_N@Z
_TEXT	SEGMENT
$T2 = -520						; size = 88
$T3 = -424						; size = 88
$T4 = -328						; size = 88
_e$5 = -40						; size = 4
_this$ = -28						; size = 4
__$ArrayPad$ = -20					; size = 4
__$EHRec$ = -16						; size = 16
_pfElts$ = 8						; size = 4
_bRows$ = 12						; size = 1
??0CMatrix4x4@gen@@QAE@PBM_N@Z PROC			; gen::CMatrix4x4::CMatrix4x4, COMDAT
; _this$ = ecx

; 70   : {

	push	ebp
	mov	ebp, esp
	push	-1
	push	__ehhandler$??0CMatrix4x4@gen@@QAE@PBM_N@Z
	mov	eax, DWORD PTR fs:0
	push	eax
	push	ecx
	sub	esp, 508				; 000001fcH
	push	ebx
	push	esi
	push	edi
	push	ecx
	lea	edi, DWORD PTR [ebp-524]
	mov	ecx, 127				; 0000007fH
	mov	eax, -858993460				; ccccccccH
	rep stosd
	pop	ecx
	mov	eax, DWORD PTR ___security_cookie
	xor	eax, ebp
	mov	DWORD PTR __$ArrayPad$[ebp], eax
	push	eax
	lea	eax, DWORD PTR __$EHRec$[ebp+4]
	mov	DWORD PTR fs:0, eax
	mov	DWORD PTR __$EHRec$[ebp], esp
	mov	DWORD PTR _this$[ebp], ecx

; 71   : 	GEN_GUARD_OPT;

	mov	DWORD PTR __$EHRec$[ebp+12], 0

; 72   : 	GEN_ASSERT_OPT( pfElts, "Invalid parameter" );

	cmp	DWORD PTR _pfElts$[ebp], 0
	jne	SHORT $LN3@CMatrix4x4
	mov	eax, DWORD PTR ?__LINE__Var@?1???0CMatrix4x4@gen@@QAE@PBM_N@Z@4JA
	add	eax, 2
	push	eax
	push	OFFSET ??_C@_0EI@POGHFJCD@c?3?2users?2simon?2documents?2github?2@
	push	OFFSET ??_C@_0BC@DBAKKFEN@Invalid?5parameter?$AA@
	lea	ecx, DWORD PTR $T2[ebp]
	call	??0CFatalException@gen@@QAE@PBD0H@Z	; gen::CFatalException::CFatalException
	push	OFFSET __TI1?AVCFatalException@gen@@
	lea	ecx, DWORD PTR $T2[ebp]
	push	ecx
	call	__CxxThrowException@8
$LN3@CMatrix4x4:

; 73   : 
; 74   : 	if (bRows)

	movzx	eax, BYTE PTR _bRows$[ebp]
	test	eax, eax
	je	$LN2@CMatrix4x4

; 75   : 	{
; 76   : 		e00 = pfElts[0];

	mov	eax, 4
	imul	ecx, eax, 0
	mov	edx, DWORD PTR _this$[ebp]
	mov	eax, DWORD PTR _pfElts$[ebp]
	mov	ecx, DWORD PTR [eax+ecx]
	mov	DWORD PTR [edx], ecx

; 77   : 		e01 = pfElts[1];

	mov	eax, 4
	shl	eax, 0
	mov	ecx, DWORD PTR _this$[ebp]
	mov	edx, DWORD PTR _pfElts$[ebp]
	mov	eax, DWORD PTR [edx+eax]
	mov	DWORD PTR [ecx+4], eax

; 78   : 		e02 = pfElts[2];

	mov	eax, 4
	shl	eax, 1
	mov	ecx, DWORD PTR _this$[ebp]
	mov	edx, DWORD PTR _pfElts$[ebp]
	mov	eax, DWORD PTR [edx+eax]
	mov	DWORD PTR [ecx+8], eax

; 79   : 		e03 = pfElts[3];

	mov	eax, 4
	imul	ecx, eax, 3
	mov	edx, DWORD PTR _this$[ebp]
	mov	eax, DWORD PTR _pfElts$[ebp]
	mov	ecx, DWORD PTR [eax+ecx]
	mov	DWORD PTR [edx+12], ecx

; 80   : 
; 81   : 		e10 = pfElts[4];

	mov	eax, 4
	shl	eax, 2
	mov	ecx, DWORD PTR _this$[ebp]
	mov	edx, DWORD PTR _pfElts$[ebp]
	mov	eax, DWORD PTR [edx+eax]
	mov	DWORD PTR [ecx+16], eax

; 82   : 		e11 = pfElts[5];

	mov	eax, 4
	imul	ecx, eax, 5
	mov	edx, DWORD PTR _this$[ebp]
	mov	eax, DWORD PTR _pfElts$[ebp]
	mov	ecx, DWORD PTR [eax+ecx]
	mov	DWORD PTR [edx+20], ecx

; 83   : 		e12 = pfElts[6];

	mov	eax, 4
	imul	ecx, eax, 6
	mov	edx, DWORD PTR _this$[ebp]
	mov	eax, DWORD PTR _pfElts$[ebp]
	mov	ecx, DWORD PTR [eax+ecx]
	mov	DWORD PTR [edx+24], ecx

; 84   : 		e13 = pfElts[7];

	mov	eax, 4
	imul	ecx, eax, 7
	mov	edx, DWORD PTR _this$[ebp]
	mov	eax, DWORD PTR _pfElts$[ebp]
	mov	ecx, DWORD PTR [eax+ecx]
	mov	DWORD PTR [edx+28], ecx

; 85   : 
; 86   : 		e20 = pfElts[8];

	mov	eax, 4
	shl	eax, 3
	mov	ecx, DWORD PTR _this$[ebp]
	mov	edx, DWORD PTR _pfElts$[ebp]
	mov	eax, DWORD PTR [edx+eax]
	mov	DWORD PTR [ecx+32], eax

; 87   : 		e21 = pfElts[9];

	mov	eax, 4
	imul	ecx, eax, 9
	mov	edx, DWORD PTR _this$[ebp]
	mov	eax, DWORD PTR _pfElts$[ebp]
	mov	ecx, DWORD PTR [eax+ecx]
	mov	DWORD PTR [edx+36], ecx

; 88   : 		e22 = pfElts[10];

	mov	eax, 4
	imul	ecx, eax, 10
	mov	edx, DWORD PTR _this$[ebp]
	mov	eax, DWORD PTR _pfElts$[ebp]
	mov	ecx, DWORD PTR [eax+ecx]
	mov	DWORD PTR [edx+40], ecx

; 89   : 		e23 = pfElts[11];

	mov	eax, 4
	imul	ecx, eax, 11
	mov	edx, DWORD PTR _this$[ebp]
	mov	eax, DWORD PTR _pfElts$[ebp]
	mov	ecx, DWORD PTR [eax+ecx]
	mov	DWORD PTR [edx+44], ecx

; 90   : 
; 91   : 		e30 = pfElts[12];

	mov	eax, 4
	imul	ecx, eax, 12
	mov	edx, DWORD PTR _this$[ebp]
	mov	eax, DWORD PTR _pfElts$[ebp]
	mov	ecx, DWORD PTR [eax+ecx]
	mov	DWORD PTR [edx+48], ecx

; 92   : 		e31 = pfElts[13];

	mov	eax, 4
	imul	ecx, eax, 13
	mov	edx, DWORD PTR _this$[ebp]
	mov	eax, DWORD PTR _pfElts$[ebp]
	mov	ecx, DWORD PTR [eax+ecx]
	mov	DWORD PTR [edx+52], ecx

; 93   : 		e32 = pfElts[14];

	mov	eax, 4
	imul	ecx, eax, 14
	mov	edx, DWORD PTR _this$[ebp]
	mov	eax, DWORD PTR _pfElts$[ebp]
	mov	ecx, DWORD PTR [eax+ecx]
	mov	DWORD PTR [edx+56], ecx

; 94   : 		e33 = pfElts[15];

	mov	eax, 4
	imul	ecx, eax, 15
	mov	edx, DWORD PTR _this$[ebp]
	mov	eax, DWORD PTR _pfElts$[ebp]
	mov	ecx, DWORD PTR [eax+ecx]
	mov	DWORD PTR [edx+60], ecx

; 95   : 	}
; 96   : 	else

	jmp	$LN1@CMatrix4x4
$LN2@CMatrix4x4:

; 97   : 	{
; 98   : 		e00 = pfElts[0];

	mov	eax, 4
	imul	ecx, eax, 0
	mov	edx, DWORD PTR _this$[ebp]
	mov	eax, DWORD PTR _pfElts$[ebp]
	mov	ecx, DWORD PTR [eax+ecx]
	mov	DWORD PTR [edx], ecx

; 99   : 		e10 = pfElts[1];

	mov	eax, 4
	shl	eax, 0
	mov	ecx, DWORD PTR _this$[ebp]
	mov	edx, DWORD PTR _pfElts$[ebp]
	mov	eax, DWORD PTR [edx+eax]
	mov	DWORD PTR [ecx+16], eax

; 100  : 		e20 = pfElts[2];

	mov	eax, 4
	shl	eax, 1
	mov	ecx, DWORD PTR _this$[ebp]
	mov	edx, DWORD PTR _pfElts$[ebp]
	mov	eax, DWORD PTR [edx+eax]
	mov	DWORD PTR [ecx+32], eax

; 101  : 		e30 = pfElts[3];

	mov	eax, 4
	imul	ecx, eax, 3
	mov	edx, DWORD PTR _this$[ebp]
	mov	eax, DWORD PTR _pfElts$[ebp]
	mov	ecx, DWORD PTR [eax+ecx]
	mov	DWORD PTR [edx+48], ecx

; 102  : 
; 103  : 		e01 = pfElts[4];

	mov	eax, 4
	shl	eax, 2
	mov	ecx, DWORD PTR _this$[ebp]
	mov	edx, DWORD PTR _pfElts$[ebp]
	mov	eax, DWORD PTR [edx+eax]
	mov	DWORD PTR [ecx+4], eax

; 104  : 		e11 = pfElts[5];

	mov	eax, 4
	imul	ecx, eax, 5
	mov	edx, DWORD PTR _this$[ebp]
	mov	eax, DWORD PTR _pfElts$[ebp]
	mov	ecx, DWORD PTR [eax+ecx]
	mov	DWORD PTR [edx+20], ecx

; 105  : 		e21 = pfElts[6];

	mov	eax, 4
	imul	ecx, eax, 6
	mov	edx, DWORD PTR _this$[ebp]
	mov	eax, DWORD PTR _pfElts$[ebp]
	mov	ecx, DWORD PTR [eax+ecx]
	mov	DWORD PTR [edx+36], ecx

; 106  : 		e31 = pfElts[7];

	mov	eax, 4
	imul	ecx, eax, 7
	mov	edx, DWORD PTR _this$[ebp]
	mov	eax, DWORD PTR _pfElts$[ebp]
	mov	ecx, DWORD PTR [eax+ecx]
	mov	DWORD PTR [edx+52], ecx

; 107  : 
; 108  : 		e02 = pfElts[8];

	mov	eax, 4
	shl	eax, 3
	mov	ecx, DWORD PTR _this$[ebp]
	mov	edx, DWORD PTR _pfElts$[ebp]
	mov	eax, DWORD PTR [edx+eax]
	mov	DWORD PTR [ecx+8], eax

; 109  : 		e12 = pfElts[9];

	mov	eax, 4
	imul	ecx, eax, 9
	mov	edx, DWORD PTR _this$[ebp]
	mov	eax, DWORD PTR _pfElts$[ebp]
	mov	ecx, DWORD PTR [eax+ecx]
	mov	DWORD PTR [edx+24], ecx

; 110  : 		e22 = pfElts[10];

	mov	eax, 4
	imul	ecx, eax, 10
	mov	edx, DWORD PTR _this$[ebp]
	mov	eax, DWORD PTR _pfElts$[ebp]
	mov	ecx, DWORD PTR [eax+ecx]
	mov	DWORD PTR [edx+40], ecx

; 111  : 		e32 = pfElts[11];

	mov	eax, 4
	imul	ecx, eax, 11
	mov	edx, DWORD PTR _this$[ebp]
	mov	eax, DWORD PTR _pfElts$[ebp]
	mov	ecx, DWORD PTR [eax+ecx]
	mov	DWORD PTR [edx+56], ecx

; 112  : 
; 113  : 		e03 = pfElts[12];

	mov	eax, 4
	imul	ecx, eax, 12
	mov	edx, DWORD PTR _this$[ebp]
	mov	eax, DWORD PTR _pfElts$[ebp]
	mov	ecx, DWORD PTR [eax+ecx]
	mov	DWORD PTR [edx+12], ecx

; 114  : 		e13 = pfElts[13];

	mov	eax, 4
	imul	ecx, eax, 13
	mov	edx, DWORD PTR _this$[ebp]
	mov	eax, DWORD PTR _pfElts$[ebp]
	mov	ecx, DWORD PTR [eax+ecx]
	mov	DWORD PTR [edx+28], ecx

; 115  : 		e23 = pfElts[14];

	mov	eax, 4
	imul	ecx, eax, 14
	mov	edx, DWORD PTR _this$[ebp]
	mov	eax, DWORD PTR _pfElts$[ebp]
	mov	ecx, DWORD PTR [eax+ecx]
	mov	DWORD PTR [edx+44], ecx

; 116  : 		e33 = pfElts[15];

	mov	eax, 4
	imul	ecx, eax, 15
	mov	edx, DWORD PTR _this$[ebp]
	mov	eax, DWORD PTR _pfElts$[ebp]
	mov	ecx, DWORD PTR [eax+ecx]
	mov	DWORD PTR [edx+60], ecx
$LN1@CMatrix4x4:
	jmp	SHORT $LN7@CMatrix4x4
__catch$??0CMatrix4x4@gen@@QAE@PBM_N@Z$0:

; 117  : 	}
; 118  : 
; 119  : 	GEN_ENDGUARD_OPT;

	push	0
	call	?ObjectName@gen@@YAPBDXZ		; gen::ObjectName
	push	eax
	push	OFFSET ??_C@_0BM@LAPKAOOM@gen?3?3CMatrix4x4?3?3CMatrix4x4?$AA@
	mov	ecx, DWORD PTR _e$5[ebp]
	call	?AppendToCallStack@CFatalException@gen@@QAEXPBD0_N@Z ; gen::CFatalException::AppendToCallStack
	mov	eax, DWORD PTR _e$5[ebp]
	push	eax
	lea	ecx, DWORD PTR $T3[ebp]
	call	??0CFatalException@gen@@QAE@ABV01@@Z
	push	OFFSET __TI1?AVCFatalException@gen@@
	lea	ecx, DWORD PTR $T3[ebp]
	push	ecx
	call	__CxxThrowException@8
	mov	eax, $LN11@CMatrix4x4
	ret	0
__catch$??0CMatrix4x4@gen@@QAE@PBM_N@Z$1:
	call	?ObjectName@gen@@YAPBDXZ		; gen::ObjectName
	push	eax
	push	OFFSET ??_C@_0BM@LAPKAOOM@gen?3?3CMatrix4x4?3?3CMatrix4x4?$AA@
	push	OFFSET ??_C@_0EI@POGHFJCD@c?3?2users?2simon?2documents?2github?2@
	lea	ecx, DWORD PTR $T4[ebp]
	call	??0CFatalException@gen@@QAE@PBD00@Z	; gen::CFatalException::CFatalException
	push	OFFSET __TI1?AVCFatalException@gen@@
	lea	eax, DWORD PTR $T4[ebp]
	push	eax
	call	__CxxThrowException@8
	mov	eax, $LN13@CMatrix4x4
	ret	0
$LN7@CMatrix4x4:
	mov	DWORD PTR __$EHRec$[ebp+12], -1
	jmp	SHORT $LN12@CMatrix4x4
$LN13@CMatrix4x4:
	mov	DWORD PTR __$EHRec$[ebp+12], -1
	jmp	SHORT $LN10@CMatrix4x4
$LN12@CMatrix4x4:
	jmp	SHORT $LN10@CMatrix4x4
$LN11@CMatrix4x4:
	mov	DWORD PTR __$EHRec$[ebp+12], -1
$LN10@CMatrix4x4:

; 120  : }

	mov	eax, DWORD PTR _this$[ebp]
$LN6@CMatrix4x4:
	push	edx
	mov	ecx, ebp
	push	eax
	lea	edx, DWORD PTR $LN17@CMatrix4x4
	call	@_RTC_CheckStackVars@8
	pop	eax
	pop	edx
	mov	ecx, DWORD PTR __$EHRec$[ebp+4]
	mov	DWORD PTR fs:0, ecx
	pop	ecx
	pop	edi
	pop	esi
	pop	ebx
	mov	ecx, DWORD PTR __$ArrayPad$[ebp]
	xor	ecx, ebp
	call	@__security_check_cookie@4
	add	esp, 524				; 0000020cH
	cmp	ebp, esp
	call	__RTC_CheckEsp
	mov	esp, ebp
	pop	ebp
	ret	8
	npad	1
$LN17@CMatrix4x4:
	DD	1
	DD	$LN16@CMatrix4x4
$LN16@CMatrix4x4:
	DD	-40					; ffffffd8H
	DD	4
	DD	$LN14@CMatrix4x4
$LN14@CMatrix4x4:
	DB	101					; 00000065H
	DB	0
_TEXT	ENDS
;	COMDAT text$x
text$x	SEGMENT
__ehhandler$??0CMatrix4x4@gen@@QAE@PBM_N@Z:
	mov	edx, DWORD PTR [esp+8]
	lea	eax, DWORD PTR [edx+12]
	mov	ecx, DWORD PTR [edx-528]
	xor	ecx, eax
	call	@__security_check_cookie@4
	mov	ecx, DWORD PTR [edx-8]
	xor	ecx, eax
	call	@__security_check_cookie@4
	mov	eax, OFFSET __ehfuncinfo$??0CMatrix4x4@gen@@QAE@PBM_N@Z
	jmp	___CxxFrameHandler3
text$x	ENDS
??0CMatrix4x4@gen@@QAE@PBM_N@Z ENDP			; gen::CMatrix4x4::CMatrix4x4
; Function compile flags: /Odtp /RTCsu /ZI
; File c:\users\simon\documents\github\uclan-sparta\import\math\cmatrix4x4.cpp
;	COMDAT ??0CMatrix4x4@gen@@QAE@MMMMMMMMMMMMMMMM@Z
_TEXT	SEGMENT
_this$ = -8						; size = 4
_elt00$ = 8						; size = 4
_elt01$ = 12						; size = 4
_elt02$ = 16						; size = 4
_elt03$ = 20						; size = 4
_elt10$ = 24						; size = 4
_elt11$ = 28						; size = 4
_elt12$ = 32						; size = 4
_elt13$ = 36						; size = 4
_elt20$ = 40						; size = 4
_elt21$ = 44						; size = 4
_elt22$ = 48						; size = 4
_elt23$ = 52						; size = 4
_elt30$ = 56						; size = 4
_elt31$ = 60						; size = 4
_elt32$ = 64						; size = 4
_elt33$ = 68						; size = 4
??0CMatrix4x4@gen@@QAE@MMMMMMMMMMMMMMMM@Z PROC		; gen::CMatrix4x4::CMatrix4x4, COMDAT
; _this$ = ecx

; 42   : {

	push	ebp
	mov	ebp, esp
	sub	esp, 204				; 000000ccH
	push	ebx
	push	esi
	push	edi
	push	ecx
	lea	edi, DWORD PTR [ebp-204]
	mov	ecx, 51					; 00000033H
	mov	eax, -858993460				; ccccccccH
	rep stosd
	pop	ecx
	mov	DWORD PTR _this$[ebp], ecx

; 43   : 	e00 = elt00;

	mov	eax, DWORD PTR _this$[ebp]
	movss	xmm0, DWORD PTR _elt00$[ebp]
	movss	DWORD PTR [eax], xmm0

; 44   : 	e01 = elt01;

	mov	eax, DWORD PTR _this$[ebp]
	movss	xmm0, DWORD PTR _elt01$[ebp]
	movss	DWORD PTR [eax+4], xmm0

; 45   : 	e02 = elt02;

	mov	eax, DWORD PTR _this$[ebp]
	movss	xmm0, DWORD PTR _elt02$[ebp]
	movss	DWORD PTR [eax+8], xmm0

; 46   : 	e03 = elt03;

	mov	eax, DWORD PTR _this$[ebp]
	movss	xmm0, DWORD PTR _elt03$[ebp]
	movss	DWORD PTR [eax+12], xmm0

; 47   : 
; 48   : 	e10 = elt10;

	mov	eax, DWORD PTR _this$[ebp]
	movss	xmm0, DWORD PTR _elt10$[ebp]
	movss	DWORD PTR [eax+16], xmm0

; 49   : 	e11 = elt11;

	mov	eax, DWORD PTR _this$[ebp]
	movss	xmm0, DWORD PTR _elt11$[ebp]
	movss	DWORD PTR [eax+20], xmm0

; 50   : 	e12 = elt12;

	mov	eax, DWORD PTR _this$[ebp]
	movss	xmm0, DWORD PTR _elt12$[ebp]
	movss	DWORD PTR [eax+24], xmm0

; 51   : 	e13 = elt13;

	mov	eax, DWORD PTR _this$[ebp]
	movss	xmm0, DWORD PTR _elt13$[ebp]
	movss	DWORD PTR [eax+28], xmm0

; 52   : 
; 53   : 	e20 = elt20;

	mov	eax, DWORD PTR _this$[ebp]
	movss	xmm0, DWORD PTR _elt20$[ebp]
	movss	DWORD PTR [eax+32], xmm0

; 54   : 	e21 = elt21;

	mov	eax, DWORD PTR _this$[ebp]
	movss	xmm0, DWORD PTR _elt21$[ebp]
	movss	DWORD PTR [eax+36], xmm0

; 55   : 	e22 = elt22;

	mov	eax, DWORD PTR _this$[ebp]
	movss	xmm0, DWORD PTR _elt22$[ebp]
	movss	DWORD PTR [eax+40], xmm0

; 56   : 	e23 = elt23;

	mov	eax, DWORD PTR _this$[ebp]
	movss	xmm0, DWORD PTR _elt23$[ebp]
	movss	DWORD PTR [eax+44], xmm0

; 57   : 
; 58   : 	e30 = elt30;

	mov	eax, DWORD PTR _this$[ebp]
	movss	xmm0, DWORD PTR _elt30$[ebp]
	movss	DWORD PTR [eax+48], xmm0

; 59   : 	e31 = elt31;

	mov	eax, DWORD PTR _this$[ebp]
	movss	xmm0, DWORD PTR _elt31$[ebp]
	movss	DWORD PTR [eax+52], xmm0

; 60   : 	e32 = elt32;

	mov	eax, DWORD PTR _this$[ebp]
	movss	xmm0, DWORD PTR _elt32$[ebp]
	movss	DWORD PTR [eax+56], xmm0

; 61   : 	e33 = elt33;

	mov	eax, DWORD PTR _this$[ebp]
	movss	xmm0, DWORD PTR _elt33$[ebp]
	movss	DWORD PTR [eax+60], xmm0

; 62   : }

	mov	eax, DWORD PTR _this$[ebp]
	pop	edi
	pop	esi
	pop	ebx
	mov	esp, ebp
	pop	ebp
	ret	64					; 00000040H
??0CMatrix4x4@gen@@QAE@MMMMMMMMMMMMMMMM@Z ENDP		; gen::CMatrix4x4::CMatrix4x4
_TEXT	ENDS
; Function compile flags: /Odtp /RTCsu /ZI
; File c:\users\simon\documents\github\uclan-sparta\import\math\cmatrix4x4.h
;	COMDAT ??0CMatrix4x4@gen@@QAE@XZ
_TEXT	SEGMENT
_this$ = -8						; size = 4
??0CMatrix4x4@gen@@QAE@XZ PROC				; gen::CMatrix4x4::CMatrix4x4, COMDAT
; _this$ = ecx

; 82   : 	CMatrix4x4() {}

	push	ebp
	mov	ebp, esp
	sub	esp, 204				; 000000ccH
	push	ebx
	push	esi
	push	edi
	push	ecx
	lea	edi, DWORD PTR [ebp-204]
	mov	ecx, 51					; 00000033H
	mov	eax, -858993460				; ccccccccH
	rep stosd
	pop	ecx
	mov	DWORD PTR _this$[ebp], ecx
	mov	eax, DWORD PTR _this$[ebp]
	pop	edi
	pop	esi
	pop	ebx
	mov	esp, ebp
	pop	ebp
	ret	0
??0CMatrix4x4@gen@@QAE@XZ ENDP				; gen::CMatrix4x4::CMatrix4x4
_TEXT	ENDS
; Function compile flags: /Odtp /RTCsu /ZI
; File c:\users\simon\documents\github\uclan-sparta\import\math\cvector3.h
;	COMDAT ?Cross@gen@@YA?AVCVector3@1@ABV21@0@Z
_TEXT	SEGMENT
___$ReturnUdt$ = 8					; size = 4
_v1$ = 12						; size = 4
_v2$ = 16						; size = 4
?Cross@gen@@YA?AVCVector3@1@ABV21@0@Z PROC		; gen::Cross, COMDAT

; 463  : {

	push	ebp
	mov	ebp, esp
	sub	esp, 192				; 000000c0H
	push	ebx
	push	esi
	push	edi
	lea	edi, DWORD PTR [ebp-192]
	mov	ecx, 48					; 00000030H
	mov	eax, -858993460				; ccccccccH
	rep stosd

; 464  : 	return CVector3(v1.y*v2.z - v1.z*v2.y, v1.z*v2.x - v1.x*v2.z, v1.x*v2.y - v1.y*v2.x);

	mov	eax, DWORD PTR _v1$[ebp]
	mov	ecx, DWORD PTR _v2$[ebp]
	movss	xmm0, DWORD PTR [eax]
	mulss	xmm0, DWORD PTR [ecx+4]
	mov	edx, DWORD PTR _v1$[ebp]
	mov	eax, DWORD PTR _v2$[ebp]
	movss	xmm1, DWORD PTR [edx+4]
	mulss	xmm1, DWORD PTR [eax]
	subss	xmm0, xmm1
	push	ecx
	movss	DWORD PTR [esp], xmm0
	mov	ecx, DWORD PTR _v1$[ebp]
	mov	edx, DWORD PTR _v2$[ebp]
	movss	xmm0, DWORD PTR [ecx+8]
	mulss	xmm0, DWORD PTR [edx]
	mov	eax, DWORD PTR _v1$[ebp]
	mov	ecx, DWORD PTR _v2$[ebp]
	movss	xmm1, DWORD PTR [eax]
	mulss	xmm1, DWORD PTR [ecx+8]
	subss	xmm0, xmm1
	push	ecx
	movss	DWORD PTR [esp], xmm0
	mov	edx, DWORD PTR _v1$[ebp]
	mov	eax, DWORD PTR _v2$[ebp]
	movss	xmm0, DWORD PTR [edx+4]
	mulss	xmm0, DWORD PTR [eax+8]
	mov	ecx, DWORD PTR _v1$[ebp]
	mov	edx, DWORD PTR _v2$[ebp]
	movss	xmm1, DWORD PTR [ecx+8]
	mulss	xmm1, DWORD PTR [edx+4]
	subss	xmm0, xmm1
	push	ecx
	movss	DWORD PTR [esp], xmm0
	mov	ecx, DWORD PTR ___$ReturnUdt$[ebp]
	call	??0CVector3@gen@@QAE@MMM@Z		; gen::CVector3::CVector3
	mov	eax, DWORD PTR ___$ReturnUdt$[ebp]

; 465  : }

	pop	edi
	pop	esi
	pop	ebx
	add	esp, 192				; 000000c0H
	cmp	ebp, esp
	call	__RTC_CheckEsp
	mov	esp, ebp
	pop	ebp
	ret	0
?Cross@gen@@YA?AVCVector3@1@ABV21@0@Z ENDP		; gen::Cross
_TEXT	ENDS
; Function compile flags: /Odtp /RTCsu /ZI
; File c:\users\simon\documents\github\uclan-sparta\import\math\cvector3.h
;	COMDAT ??Dgen@@YA?AVCVector3@0@ABV10@M@Z
_TEXT	SEGMENT
___$ReturnUdt$ = 8					; size = 4
_v$ = 12						; size = 4
_s$ = 16						; size = 4
??Dgen@@YA?AVCVector3@0@ABV10@M@Z PROC			; gen::operator*, COMDAT

; 414  : {

	push	ebp
	mov	ebp, esp
	sub	esp, 192				; 000000c0H
	push	ebx
	push	esi
	push	edi
	lea	edi, DWORD PTR [ebp-192]
	mov	ecx, 48					; 00000030H
	mov	eax, -858993460				; ccccccccH
	rep stosd

; 415  : 	return CVector3(v.x*s, v.y*s, v.z*s);

	mov	eax, DWORD PTR _v$[ebp]
	movss	xmm0, DWORD PTR [eax+8]
	mulss	xmm0, DWORD PTR _s$[ebp]
	push	ecx
	movss	DWORD PTR [esp], xmm0
	mov	ecx, DWORD PTR _v$[ebp]
	movss	xmm0, DWORD PTR [ecx+4]
	mulss	xmm0, DWORD PTR _s$[ebp]
	push	ecx
	movss	DWORD PTR [esp], xmm0
	mov	edx, DWORD PTR _v$[ebp]
	movss	xmm0, DWORD PTR [edx]
	mulss	xmm0, DWORD PTR _s$[ebp]
	push	ecx
	movss	DWORD PTR [esp], xmm0
	mov	ecx, DWORD PTR ___$ReturnUdt$[ebp]
	call	??0CVector3@gen@@QAE@MMM@Z		; gen::CVector3::CVector3
	mov	eax, DWORD PTR ___$ReturnUdt$[ebp]

; 416  : }

	pop	edi
	pop	esi
	pop	ebx
	add	esp, 192				; 000000c0H
	cmp	ebp, esp
	call	__RTC_CheckEsp
	mov	esp, ebp
	pop	ebp
	ret	0
??Dgen@@YA?AVCVector3@0@ABV10@M@Z ENDP			; gen::operator*
_TEXT	ENDS
; Function compile flags: /Odtp /RTCsu /ZI
; File c:\users\simon\documents\github\uclan-sparta\import\math\cvector3.h
;	COMDAT ??Ggen@@YA?AVCVector3@0@ABV10@@Z
_TEXT	SEGMENT
___$ReturnUdt$ = 8					; size = 4
_v$ = 12						; size = 4
??Ggen@@YA?AVCVector3@0@ABV10@@Z PROC			; gen::operator-, COMDAT

; 400  : {

	push	ebp
	mov	ebp, esp
	sub	esp, 192				; 000000c0H
	push	ebx
	push	esi
	push	edi
	lea	edi, DWORD PTR [ebp-192]
	mov	ecx, 48					; 00000030H
	mov	eax, -858993460				; ccccccccH
	rep stosd

; 401  : 	return CVector3(-v.x, -v.y, -v.z);

	mov	eax, DWORD PTR _v$[ebp]
	movss	xmm0, DWORD PTR [eax+8]
	xorps	xmm0, DWORD PTR __xmm@80000000800000008000000080000000
	push	ecx
	movss	DWORD PTR [esp], xmm0
	mov	ecx, DWORD PTR _v$[ebp]
	movss	xmm0, DWORD PTR [ecx+4]
	xorps	xmm0, DWORD PTR __xmm@80000000800000008000000080000000
	push	ecx
	movss	DWORD PTR [esp], xmm0
	mov	edx, DWORD PTR _v$[ebp]
	movss	xmm0, DWORD PTR [edx]
	xorps	xmm0, DWORD PTR __xmm@80000000800000008000000080000000
	push	ecx
	movss	DWORD PTR [esp], xmm0
	mov	ecx, DWORD PTR ___$ReturnUdt$[ebp]
	call	??0CVector3@gen@@QAE@MMM@Z		; gen::CVector3::CVector3
	mov	eax, DWORD PTR ___$ReturnUdt$[ebp]

; 402  : }

	pop	edi
	pop	esi
	pop	ebx
	add	esp, 192				; 000000c0H
	cmp	ebp, esp
	call	__RTC_CheckEsp
	mov	esp, ebp
	pop	ebp
	ret	0
??Ggen@@YA?AVCVector3@0@ABV10@@Z ENDP			; gen::operator-
_TEXT	ENDS
; Function compile flags: /Odtp /RTCsu /ZI
; File c:\users\simon\documents\github\uclan-sparta\import\math\cvector3.h
;	COMDAT ??Ggen@@YA?AVCVector3@0@ABV10@0@Z
_TEXT	SEGMENT
___$ReturnUdt$ = 8					; size = 4
_v1$ = 12						; size = 4
_v2$ = 16						; size = 4
??Ggen@@YA?AVCVector3@0@ABV10@0@Z PROC			; gen::operator-, COMDAT

; 388  : {

	push	ebp
	mov	ebp, esp
	sub	esp, 192				; 000000c0H
	push	ebx
	push	esi
	push	edi
	lea	edi, DWORD PTR [ebp-192]
	mov	ecx, 48					; 00000030H
	mov	eax, -858993460				; ccccccccH
	rep stosd

; 389  : 	return CVector3(v1.x - v2.x, v1.y - v2.y, v1.z - v2.z);

	mov	eax, DWORD PTR _v1$[ebp]
	mov	ecx, DWORD PTR _v2$[ebp]
	movss	xmm0, DWORD PTR [eax+8]
	subss	xmm0, DWORD PTR [ecx+8]
	push	ecx
	movss	DWORD PTR [esp], xmm0
	mov	edx, DWORD PTR _v1$[ebp]
	mov	eax, DWORD PTR _v2$[ebp]
	movss	xmm0, DWORD PTR [edx+4]
	subss	xmm0, DWORD PTR [eax+4]
	push	ecx
	movss	DWORD PTR [esp], xmm0
	mov	ecx, DWORD PTR _v1$[ebp]
	mov	edx, DWORD PTR _v2$[ebp]
	movss	xmm0, DWORD PTR [ecx]
	subss	xmm0, DWORD PTR [edx]
	push	ecx
	movss	DWORD PTR [esp], xmm0
	mov	ecx, DWORD PTR ___$ReturnUdt$[ebp]
	call	??0CVector3@gen@@QAE@MMM@Z		; gen::CVector3::CVector3
	mov	eax, DWORD PTR ___$ReturnUdt$[ebp]

; 390  : }

	pop	edi
	pop	esi
	pop	ebx
	add	esp, 192				; 000000c0H
	cmp	ebp, esp
	call	__RTC_CheckEsp
	mov	esp, ebp
	pop	ebp
	ret	0
??Ggen@@YA?AVCVector3@0@ABV10@0@Z ENDP			; gen::operator-
_TEXT	ENDS
; Function compile flags: /Odtp /RTCsu /ZI
; File c:\users\simon\documents\github\uclan-sparta\import\math\cvector3.h
;	COMDAT ?IsZero@CVector3@gen@@QBE_NXZ
_TEXT	SEGMENT
_this$ = -8						; size = 4
?IsZero@CVector3@gen@@QBE_NXZ PROC			; gen::CVector3::IsZero, COMDAT
; _this$ = ecx

; 181  : 	{

	push	ebp
	mov	ebp, esp
	sub	esp, 204				; 000000ccH
	push	ebx
	push	esi
	push	edi
	push	ecx
	lea	edi, DWORD PTR [ebp-204]
	mov	ecx, 51					; 00000033H
	mov	eax, -858993460				; ccccccccH
	rep stosd
	pop	ecx
	mov	DWORD PTR _this$[ebp], ecx

; 182  : 		return gen::IsZero( x*x + y*y + z*z );

	push	ecx
	movss	xmm0, DWORD PTR _kfEpsilon
	movss	DWORD PTR [esp], xmm0
	mov	eax, DWORD PTR _this$[ebp]
	mov	ecx, DWORD PTR _this$[ebp]
	movss	xmm0, DWORD PTR [eax]
	mulss	xmm0, DWORD PTR [ecx]
	mov	edx, DWORD PTR _this$[ebp]
	mov	eax, DWORD PTR _this$[ebp]
	movss	xmm1, DWORD PTR [edx+4]
	mulss	xmm1, DWORD PTR [eax+4]
	addss	xmm0, xmm1
	mov	ecx, DWORD PTR _this$[ebp]
	mov	edx, DWORD PTR _this$[ebp]
	movss	xmm1, DWORD PTR [ecx+8]
	mulss	xmm1, DWORD PTR [edx+8]
	addss	xmm0, xmm1
	push	ecx
	movss	DWORD PTR [esp], xmm0
	call	?IsZero@gen@@YA_NMM@Z			; gen::IsZero
	add	esp, 8

; 183  : 	}

	pop	edi
	pop	esi
	pop	ebx
	add	esp, 204				; 000000ccH
	cmp	ebp, esp
	call	__RTC_CheckEsp
	mov	esp, ebp
	pop	ebp
	ret	0
?IsZero@CVector3@gen@@QBE_NXZ ENDP			; gen::CVector3::IsZero
_TEXT	ENDS
; Function compile flags: /Odtp /RTCsu /ZI
; File c:\users\simon\documents\github\uclan-sparta\import\math\cvector3.h
;	COMDAT ?Set@CVector3@gen@@QAEXMMM@Z
_TEXT	SEGMENT
_this$ = -8						; size = 4
_xIn$ = 8						; size = 4
_yIn$ = 12						; size = 4
_zIn$ = 16						; size = 4
?Set@CVector3@gen@@QAEXMMM@Z PROC			; gen::CVector3::Set, COMDAT
; _this$ = ecx

; 121  : 	{

	push	ebp
	mov	ebp, esp
	sub	esp, 204				; 000000ccH
	push	ebx
	push	esi
	push	edi
	push	ecx
	lea	edi, DWORD PTR [ebp-204]
	mov	ecx, 51					; 00000033H
	mov	eax, -858993460				; ccccccccH
	rep stosd
	pop	ecx
	mov	DWORD PTR _this$[ebp], ecx

; 122  : 		x = xIn;

	mov	eax, DWORD PTR _this$[ebp]
	movss	xmm0, DWORD PTR _xIn$[ebp]
	movss	DWORD PTR [eax], xmm0

; 123  : 		y = yIn;

	mov	eax, DWORD PTR _this$[ebp]
	movss	xmm0, DWORD PTR _yIn$[ebp]
	movss	DWORD PTR [eax+4], xmm0

; 124  : 		z = zIn;

	mov	eax, DWORD PTR _this$[ebp]
	movss	xmm0, DWORD PTR _zIn$[ebp]
	movss	DWORD PTR [eax+8], xmm0

; 125  : 	}

	pop	edi
	pop	esi
	pop	ebx
	mov	esp, ebp
	pop	ebp
	ret	12					; 0000000cH
?Set@CVector3@gen@@QAEXMMM@Z ENDP			; gen::CVector3::Set
_TEXT	ENDS
; Function compile flags: /Odtp /RTCsu /ZI
; File c:\users\simon\documents\github\uclan-sparta\import\math\cvector3.h
;	COMDAT ??4CVector3@gen@@QAEAAV01@ABV01@@Z
_TEXT	SEGMENT
_this$ = -8						; size = 4
_v$ = 8							; size = 4
??4CVector3@gen@@QAEAAV01@ABV01@@Z PROC			; gen::CVector3::operator=, COMDAT
; _this$ = ecx

; 99   : 	{

	push	ebp
	mov	ebp, esp
	sub	esp, 204				; 000000ccH
	push	ebx
	push	esi
	push	edi
	push	ecx
	lea	edi, DWORD PTR [ebp-204]
	mov	ecx, 51					; 00000033H
	mov	eax, -858993460				; ccccccccH
	rep stosd
	pop	ecx
	mov	DWORD PTR _this$[ebp], ecx

; 100  : 		if ( this != &v )

	mov	eax, DWORD PTR _this$[ebp]
	cmp	eax, DWORD PTR _v$[ebp]
	je	SHORT $LN1@operator

; 101  : 		{
; 102  : 			x = v.x;

	mov	eax, DWORD PTR _this$[ebp]
	mov	ecx, DWORD PTR _v$[ebp]
	mov	edx, DWORD PTR [ecx]
	mov	DWORD PTR [eax], edx

; 103  : 			y = v.y;

	mov	eax, DWORD PTR _this$[ebp]
	mov	ecx, DWORD PTR _v$[ebp]
	mov	edx, DWORD PTR [ecx+4]
	mov	DWORD PTR [eax+4], edx

; 104  : 			z = v.z;

	mov	eax, DWORD PTR _this$[ebp]
	mov	ecx, DWORD PTR _v$[ebp]
	mov	edx, DWORD PTR [ecx+8]
	mov	DWORD PTR [eax+8], edx
$LN1@operator:

; 105  : 		}
; 106  : 		return *this;

	mov	eax, DWORD PTR _this$[ebp]

; 107  : 	}

	pop	edi
	pop	esi
	pop	ebx
	mov	esp, ebp
	pop	ebp
	ret	4
??4CVector3@gen@@QAEAAV01@ABV01@@Z ENDP			; gen::CVector3::operator=
_TEXT	ENDS
; Function compile flags: /Odtp /RTCsu /ZI
; File c:\users\simon\documents\github\uclan-sparta\import\math\cvector3.h
;	COMDAT ??0CVector3@gen@@QAE@ABV01@@Z
_TEXT	SEGMENT
_this$ = -8						; size = 4
_v$ = 8							; size = 4
??0CVector3@gen@@QAE@ABV01@@Z PROC			; gen::CVector3::CVector3, COMDAT
; _this$ = ecx

; 95   : 	{}

	push	ebp
	mov	ebp, esp
	sub	esp, 204				; 000000ccH
	push	ebx
	push	esi
	push	edi
	push	ecx
	lea	edi, DWORD PTR [ebp-204]
	mov	ecx, 51					; 00000033H
	mov	eax, -858993460				; ccccccccH
	rep stosd
	pop	ecx
	mov	DWORD PTR _this$[ebp], ecx
	mov	eax, DWORD PTR _this$[ebp]
	mov	ecx, DWORD PTR _v$[ebp]
	mov	edx, DWORD PTR [ecx]
	mov	DWORD PTR [eax], edx
	mov	eax, DWORD PTR _this$[ebp]
	mov	ecx, DWORD PTR _v$[ebp]
	mov	edx, DWORD PTR [ecx+4]
	mov	DWORD PTR [eax+4], edx
	mov	eax, DWORD PTR _this$[ebp]
	mov	ecx, DWORD PTR _v$[ebp]
	mov	edx, DWORD PTR [ecx+8]
	mov	DWORD PTR [eax+8], edx
	mov	eax, DWORD PTR _this$[ebp]
	pop	edi
	pop	esi
	pop	ebx
	mov	esp, ebp
	pop	ebp
	ret	4
??0CVector3@gen@@QAE@ABV01@@Z ENDP			; gen::CVector3::CVector3
_TEXT	ENDS
; Function compile flags: /Odtp /RTCsu /ZI
; File c:\users\simon\documents\github\uclan-sparta\import\math\cvector3.h
;	COMDAT ??0CVector3@gen@@QAE@MMM@Z
_TEXT	SEGMENT
_this$ = -8						; size = 4
_xIn$ = 8						; size = 4
_yIn$ = 12						; size = 4
_zIn$ = 16						; size = 4
??0CVector3@gen@@QAE@MMM@Z PROC				; gen::CVector3::CVector3, COMDAT
; _this$ = ecx

; 51   : 	{}

	push	ebp
	mov	ebp, esp
	sub	esp, 204				; 000000ccH
	push	ebx
	push	esi
	push	edi
	push	ecx
	lea	edi, DWORD PTR [ebp-204]
	mov	ecx, 51					; 00000033H
	mov	eax, -858993460				; ccccccccH
	rep stosd
	pop	ecx
	mov	DWORD PTR _this$[ebp], ecx
	mov	eax, DWORD PTR _this$[ebp]
	movss	xmm0, DWORD PTR _xIn$[ebp]
	movss	DWORD PTR [eax], xmm0
	mov	eax, DWORD PTR _this$[ebp]
	movss	xmm0, DWORD PTR _yIn$[ebp]
	movss	DWORD PTR [eax+4], xmm0
	mov	eax, DWORD PTR _this$[ebp]
	movss	xmm0, DWORD PTR _zIn$[ebp]
	movss	DWORD PTR [eax+8], xmm0
	mov	eax, DWORD PTR _this$[ebp]
	pop	edi
	pop	esi
	pop	ebx
	mov	esp, ebp
	pop	ebp
	ret	12					; 0000000cH
??0CVector3@gen@@QAE@MMM@Z ENDP				; gen::CVector3::CVector3
_TEXT	ENDS
; Function compile flags: /Odtp /RTCsu /ZI
; File c:\users\simon\documents\github\uclan-sparta\import\math\cvector3.h
;	COMDAT ??0CVector3@gen@@QAE@XZ
_TEXT	SEGMENT
_this$ = -8						; size = 4
??0CVector3@gen@@QAE@XZ PROC				; gen::CVector3::CVector3, COMDAT
; _this$ = ecx

; 42   : 	CVector3() {}

	push	ebp
	mov	ebp, esp
	sub	esp, 204				; 000000ccH
	push	ebx
	push	esi
	push	edi
	push	ecx
	lea	edi, DWORD PTR [ebp-204]
	mov	ecx, 51					; 00000033H
	mov	eax, -858993460				; ccccccccH
	rep stosd
	pop	ecx
	mov	DWORD PTR _this$[ebp], ecx
	mov	eax, DWORD PTR _this$[ebp]
	pop	edi
	pop	esi
	pop	ebx
	mov	esp, ebp
	pop	ebp
	ret	0
??0CVector3@gen@@QAE@XZ ENDP				; gen::CVector3::CVector3
_TEXT	ENDS
; Function compile flags: /Odtp /RTCsu /ZI
; File c:\users\simon\documents\github\uclan-sparta\import\math\basemath.h
;	COMDAT ?AreEqual@gen@@YA_NMMI@Z
_TEXT	SEGMENT
tv72 = -220						; size = 4
_yInt$ = -20						; size = 4
_xInt$ = -8						; size = 4
_x$ = 8							; size = 4
_y$ = 12						; size = 4
_iEpsilonFrac$ = 16					; size = 4
?AreEqual@gen@@YA_NMMI@Z PROC				; gen::AreEqual, COMDAT

; 403  : {

	push	ebp
	mov	ebp, esp
	sub	esp, 220				; 000000dcH
	push	ebx
	push	esi
	push	edi
	lea	edi, DWORD PTR [ebp-220]
	mov	ecx, 55					; 00000037H
	mov	eax, -858993460				; ccccccccH
	rep stosd

; 404  : 	// Reinterpret 32-bit float as 32-bit unsigned int
; 405  :     TInt32 xInt = *(TInt32*)&x;

	mov	eax, DWORD PTR _x$[ebp]
	mov	DWORD PTR _xInt$[ebp], eax

; 406  :     if (xInt < 0)

	cmp	DWORD PTR _xInt$[ebp], 0
	jge	SHORT $LN2@AreEqual

; 407  : 	{
; 408  : 		// Reorder negative values so we can use integer comparison
; 409  :         xInt = 0x80000000 - xInt;

	mov	eax, -2147483648			; 80000000H
	sub	eax, DWORD PTR _xInt$[ebp]
	mov	DWORD PTR _xInt$[ebp], eax
$LN2@AreEqual:

; 410  : 	}
; 411  : 
; 412  : 	// Same with second value
; 413  :     TInt32 yInt = *(TInt32*)&y;

	mov	eax, DWORD PTR _y$[ebp]
	mov	DWORD PTR _yInt$[ebp], eax

; 414  :     if (yInt < 0)

	cmp	DWORD PTR _yInt$[ebp], 0
	jge	SHORT $LN1@AreEqual

; 415  : 	{
; 416  :         yInt = 0x80000000 - yInt;

	mov	eax, -2147483648			; 80000000H
	sub	eax, DWORD PTR _yInt$[ebp]
	mov	DWORD PTR _yInt$[ebp], eax
$LN1@AreEqual:

; 417  : 	}
; 418  : 
; 419  : 	// Values are equal if integer representations are near enough
; 420  :     return Abs( xInt - yInt ) < iEpsilonFrac;

	mov	eax, DWORD PTR _xInt$[ebp]
	sub	eax, DWORD PTR _yInt$[ebp]
	push	eax
	call	?Abs@gen@@YAIH@Z			; gen::Abs
	add	esp, 4
	cmp	eax, DWORD PTR _iEpsilonFrac$[ebp]
	jae	SHORT $LN5@AreEqual
	mov	DWORD PTR tv72[ebp], 1
	jmp	SHORT $LN6@AreEqual
$LN5@AreEqual:
	mov	DWORD PTR tv72[ebp], 0
$LN6@AreEqual:
	mov	al, BYTE PTR tv72[ebp]

; 421  : }

	pop	edi
	pop	esi
	pop	ebx
	add	esp, 220				; 000000dcH
	cmp	ebp, esp
	call	__RTC_CheckEsp
	mov	esp, ebp
	pop	ebp
	ret	0
?AreEqual@gen@@YA_NMMI@Z ENDP				; gen::AreEqual
_TEXT	ENDS
; Function compile flags: /Odtp /RTCsu /ZI
; File c:\users\simon\documents\github\uclan-sparta\import\math\basemath.h
;	COMDAT ?IsZero@gen@@YA_NMM@Z
_TEXT	SEGMENT
tv67 = -200						; size = 4
tv74 = -196						; size = 4
_x$ = 8							; size = 4
_fEpsilon$ = 12						; size = 4
?IsZero@gen@@YA_NMM@Z PROC				; gen::IsZero, COMDAT

; 291  : {

	push	ebp
	mov	ebp, esp
	sub	esp, 200				; 000000c8H
	push	ebx
	push	esi
	push	edi
	lea	edi, DWORD PTR [ebp-200]
	mov	ecx, 50					; 00000032H
	mov	eax, -858993460				; ccccccccH
	rep stosd

; 292  : 	return Abs( x ) < fEpsilon;

	push	ecx
	movss	xmm0, DWORD PTR _x$[ebp]
	movss	DWORD PTR [esp], xmm0
	call	?Abs@gen@@YAMM@Z			; gen::Abs
	add	esp, 4
	fstp	DWORD PTR tv74[ebp]
	movss	xmm0, DWORD PTR _fEpsilon$[ebp]
	comiss	xmm0, DWORD PTR tv74[ebp]
	jbe	SHORT $LN3@IsZero
	mov	DWORD PTR tv67[ebp], 1
	jmp	SHORT $LN4@IsZero
$LN3@IsZero:
	mov	DWORD PTR tv67[ebp], 0
$LN4@IsZero:
	mov	al, BYTE PTR tv67[ebp]

; 293  : }

	pop	edi
	pop	esi
	pop	ebx
	add	esp, 200				; 000000c8H
	cmp	ebp, esp
	call	__RTC_CheckEsp
	mov	esp, ebp
	pop	ebp
	ret	0
?IsZero@gen@@YA_NMM@Z ENDP				; gen::IsZero
_TEXT	ENDS
; Function compile flags: /Odtp /RTCsu /ZI
; File c:\users\simon\documents\github\uclan-sparta\import\math\basemath.h
;	COMDAT ?SinCos@gen@@YAXMPAM0@Z
_TEXT	SEGMENT
_x$ = 8							; size = 4
_pSin$ = 12						; size = 4
_pCos$ = 16						; size = 4
?SinCos@gen@@YAXMPAM0@Z PROC				; gen::SinCos, COMDAT

; 192  : {

	push	ebp
	mov	ebp, esp
	sub	esp, 192				; 000000c0H
	push	ebx
	push	esi
	push	edi
	lea	edi, DWORD PTR [ebp-192]
	mov	ecx, 48					; 00000030H
	mov	eax, -858993460				; ccccccccH
	rep stosd

; 193  :     *pSin = Sin( x );

	push	ecx
	movss	xmm0, DWORD PTR _x$[ebp]
	movss	DWORD PTR [esp], xmm0
	call	?Sin@gen@@YAMM@Z			; gen::Sin
	add	esp, 4
	mov	eax, DWORD PTR _pSin$[ebp]
	fstp	DWORD PTR [eax]

; 194  :     *pCos = Cos( x );

	push	ecx
	movss	xmm0, DWORD PTR _x$[ebp]
	movss	DWORD PTR [esp], xmm0
	call	?Cos@gen@@YAMM@Z			; gen::Cos
	add	esp, 4
	mov	eax, DWORD PTR _pCos$[ebp]
	fstp	DWORD PTR [eax]

; 195  : }

	pop	edi
	pop	esi
	pop	ebx
	add	esp, 192				; 000000c0H
	cmp	ebp, esp
	call	__RTC_CheckEsp
	mov	esp, ebp
	pop	ebp
	ret	0
?SinCos@gen@@YAXMPAM0@Z ENDP				; gen::SinCos
_TEXT	ENDS
; Function compile flags: /Odtp /RTCsu /ZI
; File c:\users\simon\documents\github\uclan-sparta\import\math\basemath.h
;	COMDAT ?InvSqrt@gen@@YAMM@Z
_TEXT	SEGMENT
tv139 = -520						; size = 4
tv93 = -516						; size = 4
$T2 = -508						; size = 88
$T3 = -412						; size = 88
$T4 = -316						; size = 88
_e$5 = -28						; size = 4
__$ArrayPad$ = -20					; size = 4
__$EHRec$ = -16						; size = 16
_x$ = 8							; size = 4
?InvSqrt@gen@@YAMM@Z PROC				; gen::InvSqrt, COMDAT

; 158  : {

	push	ebp
	mov	ebp, esp
	push	-1
	push	__ehhandler$?InvSqrt@gen@@YAMM@Z
	mov	eax, DWORD PTR fs:0
	push	eax
	push	ecx
	sub	esp, 504				; 000001f8H
	push	ebx
	push	esi
	push	edi
	lea	edi, DWORD PTR [ebp-520]
	mov	ecx, 126				; 0000007eH
	mov	eax, -858993460				; ccccccccH
	rep stosd
	mov	eax, DWORD PTR ___security_cookie
	xor	eax, ebp
	mov	DWORD PTR __$ArrayPad$[ebp], eax
	push	eax
	lea	eax, DWORD PTR __$EHRec$[ebp+4]
	mov	DWORD PTR fs:0, eax
	mov	DWORD PTR __$EHRec$[ebp], esp

; 159  : 	GEN_GUARD_OPT;

	mov	DWORD PTR __$EHRec$[ebp+12], 0

; 160  : 	GEN_ASSERT_OPT( x != 0.0f, "Invalid parameter" );

	movss	xmm0, DWORD PTR _x$[ebp]
	ucomiss	xmm0, DWORD PTR __real@00000000
	lahf
	test	ah, 68					; 00000044H
	jp	SHORT $LN1@InvSqrt
	mov	eax, DWORD PTR ?__LINE__Var@?1??InvSqrt@gen@@YAMM@Z@4JA
	add	eax, 2
	push	eax
	push	OFFSET ??_C@_0EE@DHOCJGL@c?3?2users?2simon?2documents?2github?2@
	push	OFFSET ??_C@_0BC@DBAKKFEN@Invalid?5parameter?$AA@
	lea	ecx, DWORD PTR $T2[ebp]
	call	??0CFatalException@gen@@QAE@PBD0H@Z	; gen::CFatalException::CFatalException
	push	OFFSET __TI1?AVCFatalException@gen@@
	lea	ecx, DWORD PTR $T2[ebp]
	push	ecx
	call	__CxxThrowException@8
$LN1@InvSqrt:

; 161  : 
; 162  : 	return 1.0f / Sqrt( x );

	push	ecx
	movss	xmm0, DWORD PTR _x$[ebp]
	movss	DWORD PTR [esp], xmm0
	call	?Sqrt@gen@@YAMM@Z			; gen::Sqrt
	add	esp, 4
	fstp	DWORD PTR tv93[ebp]
	movss	xmm0, DWORD PTR __real@3f800000
	divss	xmm0, DWORD PTR tv93[ebp]
	movss	DWORD PTR tv139[ebp], xmm0
	fld	DWORD PTR tv139[ebp]
	jmp	$LN8@InvSqrt
__catch$?InvSqrt@gen@@YAMM@Z$0:

; 163  : 
; 164  : 	GEN_ENDGUARD_OPT;

	push	0
	call	?ObjectName@gen@@YAPBDXZ		; gen::ObjectName
	push	eax
	push	OFFSET ??_C@_0N@HFKAOJGM@gen?3?3InvSqrt?$AA@
	mov	ecx, DWORD PTR _e$5[ebp]
	call	?AppendToCallStack@CFatalException@gen@@QAEXPBD0_N@Z ; gen::CFatalException::AppendToCallStack
	mov	eax, DWORD PTR _e$5[ebp]
	push	eax
	lea	ecx, DWORD PTR $T3[ebp]
	call	??0CFatalException@gen@@QAE@ABV01@@Z
	push	OFFSET __TI1?AVCFatalException@gen@@
	lea	ecx, DWORD PTR $T3[ebp]
	push	ecx
	call	__CxxThrowException@8
	mov	eax, $LN9@InvSqrt
	ret	0
__catch$?InvSqrt@gen@@YAMM@Z$1:
	call	?ObjectName@gen@@YAPBDXZ		; gen::ObjectName
	push	eax
	push	OFFSET ??_C@_0N@HFKAOJGM@gen?3?3InvSqrt?$AA@
	push	OFFSET ??_C@_0EE@DHOCJGL@c?3?2users?2simon?2documents?2github?2@
	lea	ecx, DWORD PTR $T4[ebp]
	call	??0CFatalException@gen@@QAE@PBD00@Z	; gen::CFatalException::CFatalException
	push	OFFSET __TI1?AVCFatalException@gen@@
	lea	eax, DWORD PTR $T4[ebp]
	push	eax
	call	__CxxThrowException@8
	mov	eax, $LN11@InvSqrt
	ret	0
	mov	DWORD PTR __$EHRec$[ebp+12], -1
	jmp	SHORT $LN10@InvSqrt
$LN11@InvSqrt:
	mov	DWORD PTR __$EHRec$[ebp+12], -1
	jmp	SHORT $LN8@InvSqrt
$LN10@InvSqrt:
	jmp	SHORT $LN8@InvSqrt
$LN9@InvSqrt:
	mov	DWORD PTR __$EHRec$[ebp+12], -1
$LN8@InvSqrt:

; 165  : }

	push	edx
	mov	ecx, ebp
	push	eax
	lea	edx, DWORD PTR $LN15@InvSqrt
	call	@_RTC_CheckStackVars@8
	pop	eax
	pop	edx
	mov	ecx, DWORD PTR __$EHRec$[ebp+4]
	mov	DWORD PTR fs:0, ecx
	pop	ecx
	pop	edi
	pop	esi
	pop	ebx
	mov	ecx, DWORD PTR __$ArrayPad$[ebp]
	xor	ecx, ebp
	call	@__security_check_cookie@4
	add	esp, 520				; 00000208H
	cmp	ebp, esp
	call	__RTC_CheckEsp
	mov	esp, ebp
	pop	ebp
	ret	0
	npad	2
$LN15@InvSqrt:
	DD	1
	DD	$LN14@InvSqrt
$LN14@InvSqrt:
	DD	-28					; ffffffe4H
	DD	4
	DD	$LN12@InvSqrt
$LN12@InvSqrt:
	DB	101					; 00000065H
	DB	0
_TEXT	ENDS
;	COMDAT text$x
text$x	SEGMENT
__ehhandler$?InvSqrt@gen@@YAMM@Z:
	mov	edx, DWORD PTR [esp+8]
	lea	eax, DWORD PTR [edx+12]
	mov	ecx, DWORD PTR [edx-524]
	xor	ecx, eax
	call	@__security_check_cookie@4
	mov	ecx, DWORD PTR [edx-8]
	xor	ecx, eax
	call	@__security_check_cookie@4
	mov	eax, OFFSET __ehfuncinfo$?InvSqrt@gen@@YAMM@Z
	jmp	___CxxFrameHandler3
text$x	ENDS
?InvSqrt@gen@@YAMM@Z ENDP				; gen::InvSqrt
; Function compile flags: /Odtp /RTCsu /ZI
; File c:\users\simon\documents\github\uclan-sparta\import\math\basemath.h
;	COMDAT ?ATan@gen@@YAMMM@Z
_TEXT	SEGMENT
_x$ = 8							; size = 4
_y$ = 12						; size = 4
?ATan@gen@@YAMMM@Z PROC					; gen::ATan, COMDAT

; 146  : inline TFloat32 ATan( const TFloat32 x, const TFloat32 y ) { return atan2f( x, y ); }

	push	ebp
	mov	ebp, esp
	sub	esp, 192				; 000000c0H
	push	ebx
	push	esi
	push	edi
	lea	edi, DWORD PTR [ebp-192]
	mov	ecx, 48					; 00000030H
	mov	eax, -858993460				; ccccccccH
	rep stosd
	push	ecx
	movss	xmm0, DWORD PTR _y$[ebp]
	movss	DWORD PTR [esp], xmm0
	push	ecx
	movss	xmm0, DWORD PTR _x$[ebp]
	movss	DWORD PTR [esp], xmm0
	call	_atan2f
	add	esp, 8
	pop	edi
	pop	esi
	pop	ebx
	add	esp, 192				; 000000c0H
	cmp	ebp, esp
	call	__RTC_CheckEsp
	mov	esp, ebp
	pop	ebp
	ret	0
?ATan@gen@@YAMMM@Z ENDP					; gen::ATan
_TEXT	ENDS
; Function compile flags: /Odtp /RTCsu /ZI
; File c:\users\simon\documents\github\uclan-sparta\import\math\basemath.h
;	COMDAT ?ACos@gen@@YAMM@Z
_TEXT	SEGMENT
_x$ = 8							; size = 4
?ACos@gen@@YAMM@Z PROC					; gen::ACos, COMDAT

; 142  : inline TFloat32 ACos( const TFloat32 x ) { return acosf( x ); }

	push	ebp
	mov	ebp, esp
	sub	esp, 192				; 000000c0H
	push	ebx
	push	esi
	push	edi
	lea	edi, DWORD PTR [ebp-192]
	mov	ecx, 48					; 00000030H
	mov	eax, -858993460				; ccccccccH
	rep stosd
	push	ecx
	movss	xmm0, DWORD PTR _x$[ebp]
	movss	DWORD PTR [esp], xmm0
	call	_acosf
	add	esp, 4
	pop	edi
	pop	esi
	pop	ebx
	add	esp, 192				; 000000c0H
	cmp	ebp, esp
	call	__RTC_CheckEsp
	mov	esp, ebp
	pop	ebp
	ret	0
?ACos@gen@@YAMM@Z ENDP					; gen::ACos
_TEXT	ENDS
; Function compile flags: /Odtp /RTCsu /ZI
; File c:\users\simon\documents\github\uclan-sparta\import\math\basemath.h
;	COMDAT ?Cos@gen@@YAMM@Z
_TEXT	SEGMENT
_x$ = 8							; size = 4
?Cos@gen@@YAMM@Z PROC					; gen::Cos, COMDAT

; 135  : inline TFloat32 Cos( const TFloat32 x ) { return cosf( x ); }

	push	ebp
	mov	ebp, esp
	sub	esp, 192				; 000000c0H
	push	ebx
	push	esi
	push	edi
	lea	edi, DWORD PTR [ebp-192]
	mov	ecx, 48					; 00000030H
	mov	eax, -858993460				; ccccccccH
	rep stosd
	push	ecx
	movss	xmm0, DWORD PTR _x$[ebp]
	movss	DWORD PTR [esp], xmm0
	call	_cosf
	add	esp, 4
	pop	edi
	pop	esi
	pop	ebx
	add	esp, 192				; 000000c0H
	cmp	ebp, esp
	call	__RTC_CheckEsp
	mov	esp, ebp
	pop	ebp
	ret	0
?Cos@gen@@YAMM@Z ENDP					; gen::Cos
_TEXT	ENDS
; Function compile flags: /Odtp /RTCsu /ZI
; File c:\users\simon\documents\github\uclan-sparta\import\math\basemath.h
;	COMDAT ?Sin@gen@@YAMM@Z
_TEXT	SEGMENT
_x$ = 8							; size = 4
?Sin@gen@@YAMM@Z PROC					; gen::Sin, COMDAT

; 133  : inline TFloat32 Sin( const TFloat32 x ) { return sinf( x ); }

	push	ebp
	mov	ebp, esp
	sub	esp, 192				; 000000c0H
	push	ebx
	push	esi
	push	edi
	lea	edi, DWORD PTR [ebp-192]
	mov	ecx, 48					; 00000030H
	mov	eax, -858993460				; ccccccccH
	rep stosd
	push	ecx
	movss	xmm0, DWORD PTR _x$[ebp]
	movss	DWORD PTR [esp], xmm0
	call	_sinf
	add	esp, 4
	pop	edi
	pop	esi
	pop	ebx
	add	esp, 192				; 000000c0H
	cmp	ebp, esp
	call	__RTC_CheckEsp
	mov	esp, ebp
	pop	ebp
	ret	0
?Sin@gen@@YAMM@Z ENDP					; gen::Sin
_TEXT	ENDS
; Function compile flags: /Odtp /RTCsu /ZI
; File c:\users\simon\documents\github\uclan-sparta\import\math\basemath.h
;	COMDAT ?Sqrt@gen@@YAMM@Z
_TEXT	SEGMENT
_x$ = 8							; size = 4
?Sqrt@gen@@YAMM@Z PROC					; gen::Sqrt, COMDAT

; 107  : inline TFloat32 Sqrt( const TFloat32 x ) { return sqrtf( x ); }

	push	ebp
	mov	ebp, esp
	sub	esp, 192				; 000000c0H
	push	ebx
	push	esi
	push	edi
	lea	edi, DWORD PTR [ebp-192]
	mov	ecx, 48					; 00000030H
	mov	eax, -858993460				; ccccccccH
	rep stosd
	push	ecx
	movss	xmm0, DWORD PTR _x$[ebp]
	movss	DWORD PTR [esp], xmm0
	call	_sqrtf
	add	esp, 4
	pop	edi
	pop	esi
	pop	ebx
	add	esp, 192				; 000000c0H
	cmp	ebp, esp
	call	__RTC_CheckEsp
	mov	esp, ebp
	pop	ebp
	ret	0
?Sqrt@gen@@YAMM@Z ENDP					; gen::Sqrt
_TEXT	ENDS
; Function compile flags: /Odtp /RTCsu /ZI
; File c:\users\simon\documents\github\uclan-sparta\import\math\basemath.h
;	COMDAT ?Abs@gen@@YAMM@Z
_TEXT	SEGMENT
_x$ = 8							; size = 4
?Abs@gen@@YAMM@Z PROC					; gen::Abs, COMDAT

; 80   : inline TFloat32 Abs( const TFloat32 x ) { return fabsf( x ); }

	push	ebp
	mov	ebp, esp
	sub	esp, 192				; 000000c0H
	push	ebx
	push	esi
	push	edi
	lea	edi, DWORD PTR [ebp-192]
	mov	ecx, 48					; 00000030H
	mov	eax, -858993460				; ccccccccH
	rep stosd
	push	ecx
	movss	xmm0, DWORD PTR _x$[ebp]
	movss	DWORD PTR [esp], xmm0
	call	_fabsf
	add	esp, 4
	pop	edi
	pop	esi
	pop	ebx
	add	esp, 192				; 000000c0H
	cmp	ebp, esp
	call	__RTC_CheckEsp
	mov	esp, ebp
	pop	ebp
	ret	0
?Abs@gen@@YAMM@Z ENDP					; gen::Abs
_TEXT	ENDS
; Function compile flags: /Odtp /RTCsu /ZI
; File c:\users\simon\documents\github\uclan-sparta\import\math\basemath.h
;	COMDAT ?Abs@gen@@YAIH@Z
_TEXT	SEGMENT
_x$ = 8							; size = 4
?Abs@gen@@YAIH@Z PROC					; gen::Abs, COMDAT

; 78   : inline TUInt32 Abs( const TInt32 x ) { return abs( static_cast<int>(x) ); }

	push	ebp
	mov	ebp, esp
	sub	esp, 192				; 000000c0H
	push	ebx
	push	esi
	push	edi
	lea	edi, DWORD PTR [ebp-192]
	mov	ecx, 48					; 00000030H
	mov	eax, -858993460				; ccccccccH
	rep stosd
	mov	eax, DWORD PTR _x$[ebp]
	push	eax
	call	_abs
	add	esp, 4
	pop	edi
	pop	esi
	pop	ebx
	add	esp, 192				; 000000c0H
	cmp	ebp, esp
	call	__RTC_CheckEsp
	mov	esp, ebp
	pop	ebp
	ret	0
?Abs@gen@@YAIH@Z ENDP					; gen::Abs
_TEXT	ENDS
; Function compile flags: /Odtp /RTCsu /ZI
;	COMDAT ??0CFatalException@gen@@QAE@ABV01@@Z
_TEXT	SEGMENT
_this$ = -20						; size = 4
__$EHRec$ = -12						; size = 12
___that$ = 8						; size = 4
??0CFatalException@gen@@QAE@ABV01@@Z PROC		; gen::CFatalException::CFatalException, COMDAT
; _this$ = ecx
	push	ebp
	mov	ebp, esp
	push	-1
	push	__ehhandler$??0CFatalException@gen@@QAE@ABV01@@Z
	mov	eax, DWORD PTR fs:0
	push	eax
	sub	esp, 204				; 000000ccH
	push	ebx
	push	esi
	push	edi
	push	ecx
	lea	edi, DWORD PTR [ebp-216]
	mov	ecx, 51					; 00000033H
	mov	eax, -858993460				; ccccccccH
	rep stosd
	pop	ecx
	mov	eax, DWORD PTR ___security_cookie
	xor	eax, ebp
	push	eax
	lea	eax, DWORD PTR __$EHRec$[ebp]
	mov	DWORD PTR fs:0, eax
	mov	DWORD PTR _this$[ebp], ecx
	mov	eax, DWORD PTR ___that$[ebp]
	push	eax
	mov	ecx, DWORD PTR _this$[ebp]
	call	??0?$basic_string@DU?$char_traits@D@std@@V?$allocator@D@2@@std@@QAE@ABV01@@Z ; std::basic_string<char,std::char_traits<char>,std::allocator<char> >::basic_string<char,std::char_traits<char>,std::allocator<char> >
	mov	DWORD PTR __$EHRec$[ebp+8], 0
	mov	eax, DWORD PTR ___that$[ebp]
	add	eax, 28					; 0000001cH
	push	eax
	mov	ecx, DWORD PTR _this$[ebp]
	add	ecx, 28					; 0000001cH
	call	??0?$basic_string@DU?$char_traits@D@std@@V?$allocator@D@2@@std@@QAE@ABV01@@Z ; std::basic_string<char,std::char_traits<char>,std::allocator<char> >::basic_string<char,std::char_traits<char>,std::allocator<char> >
	mov	BYTE PTR __$EHRec$[ebp+8], 1
	mov	eax, DWORD PTR _this$[ebp]
	mov	ecx, DWORD PTR ___that$[ebp]
	mov	edx, DWORD PTR [ecx+56]
	mov	DWORD PTR [eax+56], edx
	mov	eax, DWORD PTR ___that$[ebp]
	add	eax, 60					; 0000003cH
	push	eax
	mov	ecx, DWORD PTR _this$[ebp]
	add	ecx, 60					; 0000003cH
	call	??0?$basic_string@DU?$char_traits@D@std@@V?$allocator@D@2@@std@@QAE@ABV01@@Z ; std::basic_string<char,std::char_traits<char>,std::allocator<char> >::basic_string<char,std::char_traits<char>,std::allocator<char> >
	mov	DWORD PTR __$EHRec$[ebp+8], -1
	mov	eax, DWORD PTR _this$[ebp]
	mov	ecx, DWORD PTR __$EHRec$[ebp]
	mov	DWORD PTR fs:0, ecx
	pop	ecx
	pop	edi
	pop	esi
	pop	ebx
	add	esp, 216				; 000000d8H
	cmp	ebp, esp
	call	__RTC_CheckEsp
	mov	esp, ebp
	pop	ebp
	ret	4
_TEXT	ENDS
;	COMDAT text$x
text$x	SEGMENT
__unwindfunclet$??0CFatalException@gen@@QAE@ABV01@@Z$0:
	mov	ecx, DWORD PTR _this$[ebp]
	jmp	??1?$basic_string@DU?$char_traits@D@std@@V?$allocator@D@2@@std@@QAE@XZ ; std::basic_string<char,std::char_traits<char>,std::allocator<char> >::~basic_string<char,std::char_traits<char>,std::allocator<char> >
__unwindfunclet$??0CFatalException@gen@@QAE@ABV01@@Z$1:
	mov	ecx, DWORD PTR _this$[ebp]
	add	ecx, 28					; 0000001cH
	jmp	??1?$basic_string@DU?$char_traits@D@std@@V?$allocator@D@2@@std@@QAE@XZ ; std::basic_string<char,std::char_traits<char>,std::allocator<char> >::~basic_string<char,std::char_traits<char>,std::allocator<char> >
__ehhandler$??0CFatalException@gen@@QAE@ABV01@@Z:
	mov	edx, DWORD PTR [esp+8]
	lea	eax, DWORD PTR [edx+12]
	mov	ecx, DWORD PTR [edx-220]
	xor	ecx, eax
	call	@__security_check_cookie@4
	mov	eax, OFFSET __ehfuncinfo$??0CFatalException@gen@@QAE@ABV01@@Z
	jmp	___CxxFrameHandler3
text$x	ENDS
??0CFatalException@gen@@QAE@ABV01@@Z ENDP		; gen::CFatalException::CFatalException
; Function compile flags: /Odtp /RTCsu /ZI
;	COMDAT ??1CFatalException@gen@@QAE@XZ
_TEXT	SEGMENT
_this$ = -8						; size = 4
??1CFatalException@gen@@QAE@XZ PROC			; gen::CFatalException::~CFatalException, COMDAT
; _this$ = ecx
	push	ebp
	mov	ebp, esp
	sub	esp, 204				; 000000ccH
	push	ebx
	push	esi
	push	edi
	push	ecx
	lea	edi, DWORD PTR [ebp-204]
	mov	ecx, 51					; 00000033H
	mov	eax, -858993460				; ccccccccH
	rep stosd
	pop	ecx
	mov	DWORD PTR _this$[ebp], ecx
	mov	ecx, DWORD PTR _this$[ebp]
	add	ecx, 60					; 0000003cH
	call	??1?$basic_string@DU?$char_traits@D@std@@V?$allocator@D@2@@std@@QAE@XZ ; std::basic_string<char,std::char_traits<char>,std::allocator<char> >::~basic_string<char,std::char_traits<char>,std::allocator<char> >
	mov	ecx, DWORD PTR _this$[ebp]
	add	ecx, 28					; 0000001cH
	call	??1?$basic_string@DU?$char_traits@D@std@@V?$allocator@D@2@@std@@QAE@XZ ; std::basic_string<char,std::char_traits<char>,std::allocator<char> >::~basic_string<char,std::char_traits<char>,std::allocator<char> >
	mov	ecx, DWORD PTR _this$[ebp]
	call	??1?$basic_string@DU?$char_traits@D@std@@V?$allocator@D@2@@std@@QAE@XZ ; std::basic_string<char,std::char_traits<char>,std::allocator<char> >::~basic_string<char,std::char_traits<char>,std::allocator<char> >
	pop	edi
	pop	esi
	pop	ebx
	add	esp, 204				; 000000ccH
	cmp	ebp, esp
	call	__RTC_CheckEsp
	mov	esp, ebp
	pop	ebp
	ret	0
??1CFatalException@gen@@QAE@XZ ENDP			; gen::CFatalException::~CFatalException
_TEXT	ENDS
; Function compile flags: /Odtp /RTCsu /ZI
; File c:\users\simon\documents\github\uclan-sparta\import\common\cfatalexception.h
;	COMDAT ??0CFatalException@gen@@QAE@PBD00@Z
_TEXT	SEGMENT
_this$ = -20						; size = 4
__$EHRec$ = -12						; size = 12
_sFileName$ = 8						; size = 4
_sFunction$ = 12					; size = 4
_sObject$ = 16						; size = 4
??0CFatalException@gen@@QAE@PBD00@Z PROC		; gen::CFatalException::CFatalException, COMDAT
; _this$ = ecx

; 51   : 	{

	push	ebp
	mov	ebp, esp
	push	-1
	push	__ehhandler$??0CFatalException@gen@@QAE@PBD00@Z
	mov	eax, DWORD PTR fs:0
	push	eax
	sub	esp, 204				; 000000ccH
	push	ebx
	push	esi
	push	edi
	push	ecx
	lea	edi, DWORD PTR [ebp-216]
	mov	ecx, 51					; 00000033H
	mov	eax, -858993460				; ccccccccH
	rep stosd
	pop	ecx
	mov	eax, DWORD PTR ___security_cookie
	xor	eax, ebp
	push	eax
	lea	eax, DWORD PTR __$EHRec$[ebp]
	mov	DWORD PTR fs:0, eax
	mov	DWORD PTR _this$[ebp], ecx
	push	OFFSET ??_C@_0BE@HBKCGNOA@Unhandled?5Exception?$AA@
	mov	ecx, DWORD PTR _this$[ebp]
	call	??0?$basic_string@DU?$char_traits@D@std@@V?$allocator@D@2@@std@@QAE@PBD@Z ; std::basic_string<char,std::char_traits<char>,std::allocator<char> >::basic_string<char,std::char_traits<char>,std::allocator<char> >
	mov	DWORD PTR __$EHRec$[ebp+8], 0
	mov	eax, DWORD PTR _sFileName$[ebp]
	push	eax
	mov	ecx, DWORD PTR _this$[ebp]
	add	ecx, 28					; 0000001cH
	call	??0?$basic_string@DU?$char_traits@D@std@@V?$allocator@D@2@@std@@QAE@PBD@Z ; std::basic_string<char,std::char_traits<char>,std::allocator<char> >::basic_string<char,std::char_traits<char>,std::allocator<char> >
	mov	BYTE PTR __$EHRec$[ebp+8], 1
	mov	eax, DWORD PTR _this$[ebp]
	mov	DWORD PTR [eax+56], -1
	push	OFFSET ??_C@_00CNPNBAHC@?$AA@
	mov	ecx, DWORD PTR _this$[ebp]
	add	ecx, 60					; 0000003cH
	call	??0?$basic_string@DU?$char_traits@D@std@@V?$allocator@D@2@@std@@QAE@PBD@Z ; std::basic_string<char,std::char_traits<char>,std::allocator<char> >::basic_string<char,std::char_traits<char>,std::allocator<char> >
	mov	BYTE PTR __$EHRec$[ebp+8], 2

; 52   : 		AppendToCallStack( sFunction, sObject );

	push	0
	mov	eax, DWORD PTR _sObject$[ebp]
	push	eax
	mov	ecx, DWORD PTR _sFunction$[ebp]
	push	ecx
	mov	ecx, DWORD PTR _this$[ebp]
	call	?AppendToCallStack@CFatalException@gen@@QAEXPBD0_N@Z ; gen::CFatalException::AppendToCallStack

; 53   : 	}

	mov	DWORD PTR __$EHRec$[ebp+8], -1
	mov	eax, DWORD PTR _this$[ebp]
	mov	ecx, DWORD PTR __$EHRec$[ebp]
	mov	DWORD PTR fs:0, ecx
	pop	ecx
	pop	edi
	pop	esi
	pop	ebx
	add	esp, 216				; 000000d8H
	cmp	ebp, esp
	call	__RTC_CheckEsp
	mov	esp, ebp
	pop	ebp
	ret	12					; 0000000cH
_TEXT	ENDS
;	COMDAT text$x
text$x	SEGMENT
__unwindfunclet$??0CFatalException@gen@@QAE@PBD00@Z$0:
	mov	ecx, DWORD PTR _this$[ebp]
	jmp	??1?$basic_string@DU?$char_traits@D@std@@V?$allocator@D@2@@std@@QAE@XZ ; std::basic_string<char,std::char_traits<char>,std::allocator<char> >::~basic_string<char,std::char_traits<char>,std::allocator<char> >
__unwindfunclet$??0CFatalException@gen@@QAE@PBD00@Z$1:
	mov	ecx, DWORD PTR _this$[ebp]
	add	ecx, 28					; 0000001cH
	jmp	??1?$basic_string@DU?$char_traits@D@std@@V?$allocator@D@2@@std@@QAE@XZ ; std::basic_string<char,std::char_traits<char>,std::allocator<char> >::~basic_string<char,std::char_traits<char>,std::allocator<char> >
__unwindfunclet$??0CFatalException@gen@@QAE@PBD00@Z$2:
	mov	ecx, DWORD PTR _this$[ebp]
	add	ecx, 60					; 0000003cH
	jmp	??1?$basic_string@DU?$char_traits@D@std@@V?$allocator@D@2@@std@@QAE@XZ ; std::basic_string<char,std::char_traits<char>,std::allocator<char> >::~basic_string<char,std::char_traits<char>,std::allocator<char> >
__ehhandler$??0CFatalException@gen@@QAE@PBD00@Z:
	mov	edx, DWORD PTR [esp+8]
	lea	eax, DWORD PTR [edx+12]
	mov	ecx, DWORD PTR [edx-220]
	xor	ecx, eax
	call	@__security_check_cookie@4
	mov	eax, OFFSET __ehfuncinfo$??0CFatalException@gen@@QAE@PBD00@Z
	jmp	___CxxFrameHandler3
text$x	ENDS
??0CFatalException@gen@@QAE@PBD00@Z ENDP		; gen::CFatalException::CFatalException
; Function compile flags: /Odtp /RTCsu /ZI
; File c:\users\simon\documents\github\uclan-sparta\import\common\cfatalexception.h
;	COMDAT ??0CFatalException@gen@@QAE@PBD0H@Z
_TEXT	SEGMENT
_this$ = -20						; size = 4
__$EHRec$ = -12						; size = 12
_sDescription$ = 8					; size = 4
_sFileName$ = 12					; size = 4
_iLineNum$ = 16						; size = 4
??0CFatalException@gen@@QAE@PBD0H@Z PROC		; gen::CFatalException::CFatalException, COMDAT
; _this$ = ecx

; 40   : 	{

	push	ebp
	mov	ebp, esp
	push	-1
	push	__ehhandler$??0CFatalException@gen@@QAE@PBD0H@Z
	mov	eax, DWORD PTR fs:0
	push	eax
	sub	esp, 204				; 000000ccH
	push	ebx
	push	esi
	push	edi
	push	ecx
	lea	edi, DWORD PTR [ebp-216]
	mov	ecx, 51					; 00000033H
	mov	eax, -858993460				; ccccccccH
	rep stosd
	pop	ecx
	mov	eax, DWORD PTR ___security_cookie
	xor	eax, ebp
	push	eax
	lea	eax, DWORD PTR __$EHRec$[ebp]
	mov	DWORD PTR fs:0, eax
	mov	DWORD PTR _this$[ebp], ecx
	mov	eax, DWORD PTR _sDescription$[ebp]
	push	eax
	mov	ecx, DWORD PTR _this$[ebp]
	call	??0?$basic_string@DU?$char_traits@D@std@@V?$allocator@D@2@@std@@QAE@PBD@Z ; std::basic_string<char,std::char_traits<char>,std::allocator<char> >::basic_string<char,std::char_traits<char>,std::allocator<char> >
	mov	DWORD PTR __$EHRec$[ebp+8], 0
	mov	eax, DWORD PTR _sFileName$[ebp]
	push	eax
	mov	ecx, DWORD PTR _this$[ebp]
	add	ecx, 28					; 0000001cH
	call	??0?$basic_string@DU?$char_traits@D@std@@V?$allocator@D@2@@std@@QAE@PBD@Z ; std::basic_string<char,std::char_traits<char>,std::allocator<char> >::basic_string<char,std::char_traits<char>,std::allocator<char> >
	mov	BYTE PTR __$EHRec$[ebp+8], 1
	mov	eax, DWORD PTR _this$[ebp]
	mov	ecx, DWORD PTR _iLineNum$[ebp]
	mov	DWORD PTR [eax+56], ecx
	push	OFFSET ??_C@_00CNPNBAHC@?$AA@
	mov	ecx, DWORD PTR _this$[ebp]
	add	ecx, 60					; 0000003cH
	call	??0?$basic_string@DU?$char_traits@D@std@@V?$allocator@D@2@@std@@QAE@PBD@Z ; std::basic_string<char,std::char_traits<char>,std::allocator<char> >::basic_string<char,std::char_traits<char>,std::allocator<char> >

; 41   : 	}

	mov	DWORD PTR __$EHRec$[ebp+8], -1
	mov	eax, DWORD PTR _this$[ebp]
	mov	ecx, DWORD PTR __$EHRec$[ebp]
	mov	DWORD PTR fs:0, ecx
	pop	ecx
	pop	edi
	pop	esi
	pop	ebx
	add	esp, 216				; 000000d8H
	cmp	ebp, esp
	call	__RTC_CheckEsp
	mov	esp, ebp
	pop	ebp
	ret	12					; 0000000cH
_TEXT	ENDS
;	COMDAT text$x
text$x	SEGMENT
__unwindfunclet$??0CFatalException@gen@@QAE@PBD0H@Z$0:
	mov	ecx, DWORD PTR _this$[ebp]
	jmp	??1?$basic_string@DU?$char_traits@D@std@@V?$allocator@D@2@@std@@QAE@XZ ; std::basic_string<char,std::char_traits<char>,std::allocator<char> >::~basic_string<char,std::char_traits<char>,std::allocator<char> >
__unwindfunclet$??0CFatalException@gen@@QAE@PBD0H@Z$1:
	mov	ecx, DWORD PTR _this$[ebp]
	add	ecx, 28					; 0000001cH
	jmp	??1?$basic_string@DU?$char_traits@D@std@@V?$allocator@D@2@@std@@QAE@XZ ; std::basic_string<char,std::char_traits<char>,std::allocator<char> >::~basic_string<char,std::char_traits<char>,std::allocator<char> >
__ehhandler$??0CFatalException@gen@@QAE@PBD0H@Z:
	mov	edx, DWORD PTR [esp+8]
	lea	eax, DWORD PTR [edx+12]
	mov	ecx, DWORD PTR [edx-220]
	xor	ecx, eax
	call	@__security_check_cookie@4
	mov	eax, OFFSET __ehfuncinfo$??0CFatalException@gen@@QAE@PBD0H@Z
	jmp	___CxxFrameHandler3
text$x	ENDS
??0CFatalException@gen@@QAE@PBD0H@Z ENDP		; gen::CFatalException::CFatalException
; Function compile flags: /Odtp /RTCsu /ZI
; File c:\users\simon\documents\github\uclan-sparta\import\common\gendefines.h
;	COMDAT ?ObjectName@gen@@YAPBDXZ
_TEXT	SEGMENT
?ObjectName@gen@@YAPBDXZ PROC				; gen::ObjectName, COMDAT

; 98   : inline const char* ObjectName() { return ""; }

	push	ebp
	mov	ebp, esp
	sub	esp, 192				; 000000c0H
	push	ebx
	push	esi
	push	edi
	lea	edi, DWORD PTR [ebp-192]
	mov	ecx, 48					; 00000030H
	mov	eax, -858993460				; ccccccccH
	rep stosd
	mov	eax, OFFSET ??_C@_00CNPNBAHC@?$AA@
	pop	edi
	pop	esi
	pop	ebx
	mov	esp, ebp
	pop	ebp
	ret	0
?ObjectName@gen@@YAPBDXZ ENDP				; gen::ObjectName
_TEXT	ENDS
; Function compile flags: /Odtp /RTCsu /ZI
;	COMDAT ??__FksNewline@gen@@YAXXZ
text$yd	SEGMENT
??__FksNewline@gen@@YAXXZ PROC				; gen::`dynamic atexit destructor for 'ksNewline'', COMDAT
	push	ebp
	mov	ebp, esp
	sub	esp, 192				; 000000c0H
	push	ebx
	push	esi
	push	edi
	lea	edi, DWORD PTR [ebp-192]
	mov	ecx, 48					; 00000030H
	mov	eax, -858993460				; ccccccccH
	rep stosd
	mov	ecx, OFFSET _ksNewline
	call	??1?$basic_string@DU?$char_traits@D@std@@V?$allocator@D@2@@std@@QAE@XZ ; std::basic_string<char,std::char_traits<char>,std::allocator<char> >::~basic_string<char,std::char_traits<char>,std::allocator<char> >
	pop	edi
	pop	esi
	pop	ebx
	add	esp, 192				; 000000c0H
	cmp	ebp, esp
	call	__RTC_CheckEsp
	mov	esp, ebp
	pop	ebp
	ret	0
??__FksNewline@gen@@YAXXZ ENDP				; gen::`dynamic atexit destructor for 'ksNewline''
text$yd	ENDS
; Function compile flags: /Odtp /RTCsu /ZI
; File c:\users\simon\documents\github\uclan-sparta\import\common\msdefines.h
;	COMDAT ??__EksNewline@gen@@YAXXZ
text$di	SEGMENT
??__EksNewline@gen@@YAXXZ PROC				; gen::`dynamic initializer for 'ksNewline'', COMDAT

; 86   : const string ksNewline = "\n";

	push	ebp
	mov	ebp, esp
	sub	esp, 192				; 000000c0H
	push	ebx
	push	esi
	push	edi
	lea	edi, DWORD PTR [ebp-192]
	mov	ecx, 48					; 00000030H
	mov	eax, -858993460				; ccccccccH
	rep stosd
	push	OFFSET ??_C@_01EEMJAFIK@?6?$AA@
	mov	ecx, OFFSET _ksNewline
	call	??0?$basic_string@DU?$char_traits@D@std@@V?$allocator@D@2@@std@@QAE@PBD@Z ; std::basic_string<char,std::char_traits<char>,std::allocator<char> >::basic_string<char,std::char_traits<char>,std::allocator<char> >
	push	OFFSET ??__FksNewline@gen@@YAXXZ	; gen::`dynamic atexit destructor for 'ksNewline''
	call	_atexit
	add	esp, 4
	pop	edi
	pop	esi
	pop	ebx
	add	esp, 192				; 000000c0H
	cmp	ebp, esp
	call	__RTC_CheckEsp
	mov	esp, ebp
	pop	ebp
	ret	0
??__EksNewline@gen@@YAXXZ ENDP				; gen::`dynamic initializer for 'ksNewline''
text$di	ENDS
; Function compile flags: /Odtp /RTCsu /ZI
;	COMDAT ??__FksPathSeparator@gen@@YAXXZ
text$yd	SEGMENT
??__FksPathSeparator@gen@@YAXXZ PROC			; gen::`dynamic atexit destructor for 'ksPathSeparator'', COMDAT
	push	ebp
	mov	ebp, esp
	sub	esp, 192				; 000000c0H
	push	ebx
	push	esi
	push	edi
	lea	edi, DWORD PTR [ebp-192]
	mov	ecx, 48					; 00000030H
	mov	eax, -858993460				; ccccccccH
	rep stosd
	mov	ecx, OFFSET _ksPathSeparator
	call	??1?$basic_string@DU?$char_traits@D@std@@V?$allocator@D@2@@std@@QAE@XZ ; std::basic_string<char,std::char_traits<char>,std::allocator<char> >::~basic_string<char,std::char_traits<char>,std::allocator<char> >
	pop	edi
	pop	esi
	pop	ebx
	add	esp, 192				; 000000c0H
	cmp	ebp, esp
	call	__RTC_CheckEsp
	mov	esp, ebp
	pop	ebp
	ret	0
??__FksPathSeparator@gen@@YAXXZ ENDP			; gen::`dynamic atexit destructor for 'ksPathSeparator''
text$yd	ENDS
; Function compile flags: /Odtp /RTCsu /ZI
; File c:\users\simon\documents\github\uclan-sparta\import\common\msdefines.h
;	COMDAT ??__EksPathSeparator@gen@@YAXXZ
text$di	SEGMENT
??__EksPathSeparator@gen@@YAXXZ PROC			; gen::`dynamic initializer for 'ksPathSeparator'', COMDAT

; 85   : const string ksPathSeparator = "\\";

	push	ebp
	mov	ebp, esp
	sub	esp, 192				; 000000c0H
	push	ebx
	push	esi
	push	edi
	lea	edi, DWORD PTR [ebp-192]
	mov	ecx, 48					; 00000030H
	mov	eax, -858993460				; ccccccccH
	rep stosd
	push	OFFSET ??_C@_01KICIPPFI@?2?$AA@
	mov	ecx, OFFSET _ksPathSeparator
	call	??0?$basic_string@DU?$char_traits@D@std@@V?$allocator@D@2@@std@@QAE@PBD@Z ; std::basic_string<char,std::char_traits<char>,std::allocator<char> >::basic_string<char,std::char_traits<char>,std::allocator<char> >
	push	OFFSET ??__FksPathSeparator@gen@@YAXXZ	; gen::`dynamic atexit destructor for 'ksPathSeparator''
	call	_atexit
	add	esp, 4
	pop	edi
	pop	esi
	pop	ebx
	add	esp, 192				; 000000c0H
	cmp	ebp, esp
	call	__RTC_CheckEsp
	mov	esp, ebp
	pop	ebp
	ret	0
??__EksPathSeparator@gen@@YAXXZ ENDP			; gen::`dynamic initializer for 'ksPathSeparator''
text$di	ENDS
; Function compile flags: /Odtp /RTCsu /ZI
;	COMDAT ??__FksCompiler@gen@@YAXXZ
text$yd	SEGMENT
??__FksCompiler@gen@@YAXXZ PROC				; gen::`dynamic atexit destructor for 'ksCompiler'', COMDAT
	push	ebp
	mov	ebp, esp
	sub	esp, 192				; 000000c0H
	push	ebx
	push	esi
	push	edi
	lea	edi, DWORD PTR [ebp-192]
	mov	ecx, 48					; 00000030H
	mov	eax, -858993460				; ccccccccH
	rep stosd
	mov	ecx, OFFSET _ksCompiler
	call	??1?$basic_string@DU?$char_traits@D@std@@V?$allocator@D@2@@std@@QAE@XZ ; std::basic_string<char,std::char_traits<char>,std::allocator<char> >::~basic_string<char,std::char_traits<char>,std::allocator<char> >
	pop	edi
	pop	esi
	pop	ebx
	add	esp, 192				; 000000c0H
	cmp	ebp, esp
	call	__RTC_CheckEsp
	mov	esp, ebp
	pop	ebp
	ret	0
??__FksCompiler@gen@@YAXXZ ENDP				; gen::`dynamic atexit destructor for 'ksCompiler''
text$yd	ENDS
; Function compile flags: /Odtp /RTCsu /ZI
; File c:\users\simon\documents\github\uclan-sparta\import\common\msdefines.h
;	COMDAT ??__EksCompiler@gen@@YAXXZ
text$di	SEGMENT
??__EksCompiler@gen@@YAXXZ PROC				; gen::`dynamic initializer for 'ksCompiler'', COMDAT

; 80   : 	static const string ksCompiler = "Visual C++ 8.0 (2005) or greater";

	push	ebp
	mov	ebp, esp
	sub	esp, 192				; 000000c0H
	push	ebx
	push	esi
	push	edi
	lea	edi, DWORD PTR [ebp-192]
	mov	ecx, 48					; 00000030H
	mov	eax, -858993460				; ccccccccH
	rep stosd
	push	OFFSET ??_C@_0CB@NBMGHEOM@Visual?5C?$CL?$CL?58?40?5?$CI2005?$CJ?5or?5greater@
	mov	ecx, OFFSET _ksCompiler
	call	??0?$basic_string@DU?$char_traits@D@std@@V?$allocator@D@2@@std@@QAE@PBD@Z ; std::basic_string<char,std::char_traits<char>,std::allocator<char> >::basic_string<char,std::char_traits<char>,std::allocator<char> >
	push	OFFSET ??__FksCompiler@gen@@YAXXZ	; gen::`dynamic atexit destructor for 'ksCompiler''
	call	_atexit
	add	esp, 4
	pop	edi
	pop	esi
	pop	ebx
	add	esp, 192				; 000000c0H
	cmp	ebp, esp
	call	__RTC_CheckEsp
	mov	esp, ebp
	pop	ebp
	ret	0
??__EksCompiler@gen@@YAXXZ ENDP				; gen::`dynamic initializer for 'ksCompiler''
text$di	ENDS
; Function compile flags: /Odtp /RTCsu /ZI
;	COMDAT ??_G_System_error_category@std@@UAEPAXI@Z
_TEXT	SEGMENT
_this$ = -8						; size = 4
___flags$ = 8						; size = 4
??_G_System_error_category@std@@UAEPAXI@Z PROC		; std::_System_error_category::`scalar deleting destructor', COMDAT
; _this$ = ecx
	push	ebp
	mov	ebp, esp
	sub	esp, 204				; 000000ccH
	push	ebx
	push	esi
	push	edi
	push	ecx
	lea	edi, DWORD PTR [ebp-204]
	mov	ecx, 51					; 00000033H
	mov	eax, -858993460				; ccccccccH
	rep stosd
	pop	ecx
	mov	DWORD PTR _this$[ebp], ecx
	mov	ecx, DWORD PTR _this$[ebp]
	call	??1_System_error_category@std@@UAE@XZ
	mov	eax, DWORD PTR ___flags$[ebp]
	and	eax, 1
	je	SHORT $LN1@scalar
	mov	eax, DWORD PTR _this$[ebp]
	push	eax
	call	??3@YAXPAX@Z				; operator delete
	add	esp, 4
$LN1@scalar:
	mov	eax, DWORD PTR _this$[ebp]
	pop	edi
	pop	esi
	pop	ebx
	add	esp, 204				; 000000ccH
	cmp	ebp, esp
	call	__RTC_CheckEsp
	mov	esp, ebp
	pop	ebp
	ret	4
??_G_System_error_category@std@@UAEPAXI@Z ENDP		; std::_System_error_category::`scalar deleting destructor'
_TEXT	ENDS
; Function compile flags: /Odtp /RTCsu /ZI
;	COMDAT ??1_System_error_category@std@@UAE@XZ
_TEXT	SEGMENT
_this$ = -8						; size = 4
??1_System_error_category@std@@UAE@XZ PROC		; std::_System_error_category::~_System_error_category, COMDAT
; _this$ = ecx
	push	ebp
	mov	ebp, esp
	sub	esp, 204				; 000000ccH
	push	ebx
	push	esi
	push	edi
	push	ecx
	lea	edi, DWORD PTR [ebp-204]
	mov	ecx, 51					; 00000033H
	mov	eax, -858993460				; ccccccccH
	rep stosd
	pop	ecx
	mov	DWORD PTR _this$[ebp], ecx
	mov	ecx, DWORD PTR _this$[ebp]
	call	??1_Generic_error_category@std@@UAE@XZ
	pop	edi
	pop	esi
	pop	ebx
	add	esp, 204				; 000000ccH
	cmp	ebp, esp
	call	__RTC_CheckEsp
	mov	esp, ebp
	pop	ebp
	ret	0
??1_System_error_category@std@@UAE@XZ ENDP		; std::_System_error_category::~_System_error_category
_TEXT	ENDS
; Function compile flags: /Odtp /RTCsu /ZI
; File c:\program files (x86)\microsoft visual studio 12.0\vc\include\system_error
;	COMDAT ?default_error_condition@_System_error_category@std@@UBE?AVerror_condition@2@H@Z
_TEXT	SEGMENT
_this$ = -8						; size = 4
___$ReturnUdt$ = 8					; size = 4
__Errval$ = 12						; size = 4
?default_error_condition@_System_error_category@std@@UBE?AVerror_condition@2@H@Z PROC ; std::_System_error_category::default_error_condition, COMDAT
; _this$ = ecx

; 614  : 		{	// make error_condition for error code (generic if possible)

	push	ebp
	mov	ebp, esp
	sub	esp, 204				; 000000ccH
	push	ebx
	push	esi
	push	edi
	push	ecx
	lea	edi, DWORD PTR [ebp-204]
	mov	ecx, 51					; 00000033H
	mov	eax, -858993460				; ccccccccH
	rep stosd
	pop	ecx
	mov	DWORD PTR _this$[ebp], ecx

; 615  : 		if (_Syserror_map(_Errval))

	mov	eax, DWORD PTR __Errval$[ebp]
	push	eax
	call	?_Syserror_map@std@@YAPBDH@Z		; std::_Syserror_map
	add	esp, 4
	test	eax, eax
	je	SHORT $LN2@default_er

; 616  : 			return (error_condition(_Errval, generic_category()));

	call	?generic_category@std@@YAABVerror_category@1@XZ ; std::generic_category
	push	eax
	mov	eax, DWORD PTR __Errval$[ebp]
	push	eax
	mov	ecx, DWORD PTR ___$ReturnUdt$[ebp]
	call	??0error_condition@std@@QAE@HABVerror_category@1@@Z ; std::error_condition::error_condition
	mov	eax, DWORD PTR ___$ReturnUdt$[ebp]
	jmp	SHORT $LN3@default_er

; 617  : 		else

	jmp	SHORT $LN3@default_er
$LN2@default_er:

; 618  : 			return (error_condition(_Errval, system_category()));

	call	?system_category@std@@YAABVerror_category@1@XZ ; std::system_category
	push	eax
	mov	eax, DWORD PTR __Errval$[ebp]
	push	eax
	mov	ecx, DWORD PTR ___$ReturnUdt$[ebp]
	call	??0error_condition@std@@QAE@HABVerror_category@1@@Z ; std::error_condition::error_condition
	mov	eax, DWORD PTR ___$ReturnUdt$[ebp]
$LN3@default_er:

; 619  : 		}

	pop	edi
	pop	esi
	pop	ebx
	add	esp, 204				; 000000ccH
	cmp	ebp, esp
	call	__RTC_CheckEsp
	mov	esp, ebp
	pop	ebp
	ret	8
?default_error_condition@_System_error_category@std@@UBE?AVerror_condition@2@H@Z ENDP ; std::_System_error_category::default_error_condition
_TEXT	ENDS
; Function compile flags: /Odtp /RTCsu /ZI
; File c:\program files (x86)\microsoft visual studio 12.0\vc\include\system_error
;	COMDAT ?message@_System_error_category@std@@UBE?AV?$basic_string@DU?$char_traits@D@std@@V?$allocator@D@2@@2@H@Z
_TEXT	SEGMENT
tv69 = -232						; size = 4
$T1 = -224						; size = 4
__Name$ = -20						; size = 4
_this$ = -8						; size = 4
___$ReturnUdt$ = 8					; size = 4
__Errcode$ = 12						; size = 4
?message@_System_error_category@std@@UBE?AV?$basic_string@DU?$char_traits@D@std@@V?$allocator@D@2@@2@H@Z PROC ; std::_System_error_category::message, COMDAT
; _this$ = ecx

; 607  : 		{	// convert to name of error

	push	ebp
	mov	ebp, esp
	sub	esp, 232				; 000000e8H
	push	ebx
	push	esi
	push	edi
	push	ecx
	lea	edi, DWORD PTR [ebp-232]
	mov	ecx, 58					; 0000003aH
	mov	eax, -858993460				; ccccccccH
	rep stosd
	pop	ecx
	mov	DWORD PTR _this$[ebp], ecx
	mov	DWORD PTR $T1[ebp], 0

; 608  : 		const char *_Name = _Winerror_map(_Errcode);

	mov	eax, DWORD PTR __Errcode$[ebp]
	push	eax
	call	?_Winerror_map@std@@YAPBDH@Z		; std::_Winerror_map
	add	esp, 4
	mov	DWORD PTR __Name$[ebp], eax

; 609  : 		return (string(_Name != 0 ? _Name : "unknown error"));

	cmp	DWORD PTR __Name$[ebp], 0
	je	SHORT $LN3@message
	mov	eax, DWORD PTR __Name$[ebp]
	mov	DWORD PTR tv69[ebp], eax
	jmp	SHORT $LN4@message
$LN3@message:
	mov	DWORD PTR tv69[ebp], OFFSET ??_C@_0O@BFJCFAAK@unknown?5error?$AA@
$LN4@message:
	mov	ecx, DWORD PTR tv69[ebp]
	push	ecx
	mov	ecx, DWORD PTR ___$ReturnUdt$[ebp]
	call	??0?$basic_string@DU?$char_traits@D@std@@V?$allocator@D@2@@std@@QAE@PBD@Z ; std::basic_string<char,std::char_traits<char>,std::allocator<char> >::basic_string<char,std::char_traits<char>,std::allocator<char> >
	mov	edx, DWORD PTR $T1[ebp]
	or	edx, 1
	mov	DWORD PTR $T1[ebp], edx
	mov	eax, DWORD PTR ___$ReturnUdt$[ebp]

; 610  : 		}

	pop	edi
	pop	esi
	pop	ebx
	add	esp, 232				; 000000e8H
	cmp	ebp, esp
	call	__RTC_CheckEsp
	mov	esp, ebp
	pop	ebp
	ret	8
?message@_System_error_category@std@@UBE?AV?$basic_string@DU?$char_traits@D@std@@V?$allocator@D@2@@2@H@Z ENDP ; std::_System_error_category::message
_TEXT	ENDS
; Function compile flags: /Odtp /RTCsu /ZI
; File c:\program files (x86)\microsoft visual studio 12.0\vc\include\system_error
;	COMDAT ?name@_System_error_category@std@@UBEPBDXZ
_TEXT	SEGMENT
_this$ = -8						; size = 4
?name@_System_error_category@std@@UBEPBDXZ PROC		; std::_System_error_category::name, COMDAT
; _this$ = ecx

; 602  : 		{	// get name of category

	push	ebp
	mov	ebp, esp
	sub	esp, 204				; 000000ccH
	push	ebx
	push	esi
	push	edi
	push	ecx
	lea	edi, DWORD PTR [ebp-204]
	mov	ecx, 51					; 00000033H
	mov	eax, -858993460				; ccccccccH
	rep stosd
	pop	ecx
	mov	DWORD PTR _this$[ebp], ecx

; 603  : 		return ("system");

	mov	eax, OFFSET ??_C@_06FHFOAHML@system?$AA@

; 604  : 		}

	pop	edi
	pop	esi
	pop	ebx
	mov	esp, ebp
	pop	ebp
	ret	0
?name@_System_error_category@std@@UBEPBDXZ ENDP		; std::_System_error_category::name
_TEXT	ENDS
; Function compile flags: /Odtp /RTCsu /ZI
; File c:\program files (x86)\microsoft visual studio 12.0\vc\include\system_error
;	COMDAT ??0_System_error_category@std@@QAE@XZ
_TEXT	SEGMENT
_this$ = -8						; size = 4
??0_System_error_category@std@@QAE@XZ PROC		; std::_System_error_category::_System_error_category, COMDAT
; _this$ = ecx

; 597  : 	_System_error_category()

	push	ebp
	mov	ebp, esp
	sub	esp, 204				; 000000ccH
	push	ebx
	push	esi
	push	edi
	push	ecx
	lea	edi, DWORD PTR [ebp-204]
	mov	ecx, 51					; 00000033H
	mov	eax, -858993460				; ccccccccH
	rep stosd
	pop	ecx
	mov	DWORD PTR _this$[ebp], ecx
	mov	ecx, DWORD PTR _this$[ebp]
	call	??0_Generic_error_category@std@@QAE@XZ	; std::_Generic_error_category::_Generic_error_category
	mov	eax, DWORD PTR _this$[ebp]
	mov	DWORD PTR [eax], OFFSET ??_7_System_error_category@std@@6B@

; 598  : 		{	// default constructor
; 599  : 		}

	mov	eax, DWORD PTR _this$[ebp]
	pop	edi
	pop	esi
	pop	ebx
	add	esp, 204				; 000000ccH
	cmp	ebp, esp
	call	__RTC_CheckEsp
	mov	esp, ebp
	pop	ebp
	ret	0
??0_System_error_category@std@@QAE@XZ ENDP		; std::_System_error_category::_System_error_category
_TEXT	ENDS
; Function compile flags: /Odtp /RTCsu /ZI
;	COMDAT ??_G_Iostream_error_category@std@@UAEPAXI@Z
_TEXT	SEGMENT
_this$ = -8						; size = 4
___flags$ = 8						; size = 4
??_G_Iostream_error_category@std@@UAEPAXI@Z PROC	; std::_Iostream_error_category::`scalar deleting destructor', COMDAT
; _this$ = ecx
	push	ebp
	mov	ebp, esp
	sub	esp, 204				; 000000ccH
	push	ebx
	push	esi
	push	edi
	push	ecx
	lea	edi, DWORD PTR [ebp-204]
	mov	ecx, 51					; 00000033H
	mov	eax, -858993460				; ccccccccH
	rep stosd
	pop	ecx
	mov	DWORD PTR _this$[ebp], ecx
	mov	ecx, DWORD PTR _this$[ebp]
	call	??1_Iostream_error_category@std@@UAE@XZ
	mov	eax, DWORD PTR ___flags$[ebp]
	and	eax, 1
	je	SHORT $LN1@scalar
	mov	eax, DWORD PTR _this$[ebp]
	push	eax
	call	??3@YAXPAX@Z				; operator delete
	add	esp, 4
$LN1@scalar:
	mov	eax, DWORD PTR _this$[ebp]
	pop	edi
	pop	esi
	pop	ebx
	add	esp, 204				; 000000ccH
	cmp	ebp, esp
	call	__RTC_CheckEsp
	mov	esp, ebp
	pop	ebp
	ret	4
??_G_Iostream_error_category@std@@UAEPAXI@Z ENDP	; std::_Iostream_error_category::`scalar deleting destructor'
_TEXT	ENDS
; Function compile flags: /Odtp /RTCsu /ZI
;	COMDAT ??1_Iostream_error_category@std@@UAE@XZ
_TEXT	SEGMENT
_this$ = -8						; size = 4
??1_Iostream_error_category@std@@UAE@XZ PROC		; std::_Iostream_error_category::~_Iostream_error_category, COMDAT
; _this$ = ecx
	push	ebp
	mov	ebp, esp
	sub	esp, 204				; 000000ccH
	push	ebx
	push	esi
	push	edi
	push	ecx
	lea	edi, DWORD PTR [ebp-204]
	mov	ecx, 51					; 00000033H
	mov	eax, -858993460				; ccccccccH
	rep stosd
	pop	ecx
	mov	DWORD PTR _this$[ebp], ecx
	mov	ecx, DWORD PTR _this$[ebp]
	call	??1_Generic_error_category@std@@UAE@XZ
	pop	edi
	pop	esi
	pop	ebx
	add	esp, 204				; 000000ccH
	cmp	ebp, esp
	call	__RTC_CheckEsp
	mov	esp, ebp
	pop	ebp
	ret	0
??1_Iostream_error_category@std@@UAE@XZ ENDP		; std::_Iostream_error_category::~_Iostream_error_category
_TEXT	ENDS
; Function compile flags: /Odtp /RTCsu /ZI
; File c:\program files (x86)\microsoft visual studio 12.0\vc\include\system_error
;	COMDAT ?message@_Iostream_error_category@std@@UBE?AV?$basic_string@DU?$char_traits@D@std@@V?$allocator@D@2@@2@H@Z
_TEXT	SEGMENT
$T1 = -212						; size = 4
_this$ = -8						; size = 4
___$ReturnUdt$ = 8					; size = 4
__Errcode$ = 12						; size = 4
?message@_Iostream_error_category@std@@UBE?AV?$basic_string@DU?$char_traits@D@std@@V?$allocator@D@2@@2@H@Z PROC ; std::_Iostream_error_category::message, COMDAT
; _this$ = ecx

; 584  : 		{	// convert to name of error

	push	ebp
	mov	ebp, esp
	sub	esp, 216				; 000000d8H
	push	ebx
	push	esi
	push	edi
	push	ecx
	lea	edi, DWORD PTR [ebp-216]
	mov	ecx, 54					; 00000036H
	mov	eax, -858993460				; ccccccccH
	rep stosd
	pop	ecx
	mov	DWORD PTR _this$[ebp], ecx
	mov	DWORD PTR $T1[ebp], 0

; 585  : 		if (_Errcode == (int)io_errc::stream)

	cmp	DWORD PTR __Errcode$[ebp], 1
	jne	SHORT $LN2@message

; 586  : 			return ("iostream stream error");

	push	OFFSET ??_C@_0BG@PADBLCHM@iostream?5stream?5error?$AA@
	mov	ecx, DWORD PTR ___$ReturnUdt$[ebp]
	call	??0?$basic_string@DU?$char_traits@D@std@@V?$allocator@D@2@@std@@QAE@PBD@Z ; std::basic_string<char,std::char_traits<char>,std::allocator<char> >::basic_string<char,std::char_traits<char>,std::allocator<char> >
	mov	eax, DWORD PTR $T1[ebp]
	or	eax, 1
	mov	DWORD PTR $T1[ebp], eax
	mov	eax, DWORD PTR ___$ReturnUdt$[ebp]
	jmp	SHORT $LN3@message

; 587  : 		else

	jmp	SHORT $LN3@message
$LN2@message:

; 588  : 			return (_Generic_error_category::message(_Errcode));

	mov	eax, DWORD PTR __Errcode$[ebp]
	push	eax
	mov	ecx, DWORD PTR ___$ReturnUdt$[ebp]
	push	ecx
	mov	ecx, DWORD PTR _this$[ebp]
	call	?message@_Generic_error_category@std@@UBE?AV?$basic_string@DU?$char_traits@D@std@@V?$allocator@D@2@@2@H@Z ; std::_Generic_error_category::message
	mov	edx, DWORD PTR $T1[ebp]
	or	edx, 1
	mov	DWORD PTR $T1[ebp], edx
	mov	eax, DWORD PTR ___$ReturnUdt$[ebp]
$LN3@message:

; 589  : 		}

	pop	edi
	pop	esi
	pop	ebx
	add	esp, 216				; 000000d8H
	cmp	ebp, esp
	call	__RTC_CheckEsp
	mov	esp, ebp
	pop	ebp
	ret	8
?message@_Iostream_error_category@std@@UBE?AV?$basic_string@DU?$char_traits@D@std@@V?$allocator@D@2@@2@H@Z ENDP ; std::_Iostream_error_category::message
_TEXT	ENDS
; Function compile flags: /Odtp /RTCsu /ZI
; File c:\program files (x86)\microsoft visual studio 12.0\vc\include\system_error
;	COMDAT ?name@_Iostream_error_category@std@@UBEPBDXZ
_TEXT	SEGMENT
_this$ = -8						; size = 4
?name@_Iostream_error_category@std@@UBEPBDXZ PROC	; std::_Iostream_error_category::name, COMDAT
; _this$ = ecx

; 579  : 		{	// get name of category

	push	ebp
	mov	ebp, esp
	sub	esp, 204				; 000000ccH
	push	ebx
	push	esi
	push	edi
	push	ecx
	lea	edi, DWORD PTR [ebp-204]
	mov	ecx, 51					; 00000033H
	mov	eax, -858993460				; ccccccccH
	rep stosd
	pop	ecx
	mov	DWORD PTR _this$[ebp], ecx

; 580  : 		return ("iostream");

	mov	eax, OFFSET ??_C@_08LLGCOLLL@iostream?$AA@

; 581  : 		}

	pop	edi
	pop	esi
	pop	ebx
	mov	esp, ebp
	pop	ebp
	ret	0
?name@_Iostream_error_category@std@@UBEPBDXZ ENDP	; std::_Iostream_error_category::name
_TEXT	ENDS
; Function compile flags: /Odtp /RTCsu /ZI
; File c:\program files (x86)\microsoft visual studio 12.0\vc\include\system_error
;	COMDAT ??0_Iostream_error_category@std@@QAE@XZ
_TEXT	SEGMENT
_this$ = -8						; size = 4
??0_Iostream_error_category@std@@QAE@XZ PROC		; std::_Iostream_error_category::_Iostream_error_category, COMDAT
; _this$ = ecx

; 574  : 	_Iostream_error_category()

	push	ebp
	mov	ebp, esp
	sub	esp, 204				; 000000ccH
	push	ebx
	push	esi
	push	edi
	push	ecx
	lea	edi, DWORD PTR [ebp-204]
	mov	ecx, 51					; 00000033H
	mov	eax, -858993460				; ccccccccH
	rep stosd
	pop	ecx
	mov	DWORD PTR _this$[ebp], ecx
	mov	ecx, DWORD PTR _this$[ebp]
	call	??0_Generic_error_category@std@@QAE@XZ	; std::_Generic_error_category::_Generic_error_category
	mov	eax, DWORD PTR _this$[ebp]
	mov	DWORD PTR [eax], OFFSET ??_7_Iostream_error_category@std@@6B@

; 575  : 		{	// default constructor
; 576  : 		}

	mov	eax, DWORD PTR _this$[ebp]
	pop	edi
	pop	esi
	pop	ebx
	add	esp, 204				; 000000ccH
	cmp	ebp, esp
	call	__RTC_CheckEsp
	mov	esp, ebp
	pop	ebp
	ret	0
??0_Iostream_error_category@std@@QAE@XZ ENDP		; std::_Iostream_error_category::_Iostream_error_category
_TEXT	ENDS
; Function compile flags: /Odtp /RTCsu /ZI
;	COMDAT ??_G_Generic_error_category@std@@UAEPAXI@Z
_TEXT	SEGMENT
_this$ = -8						; size = 4
___flags$ = 8						; size = 4
??_G_Generic_error_category@std@@UAEPAXI@Z PROC		; std::_Generic_error_category::`scalar deleting destructor', COMDAT
; _this$ = ecx
	push	ebp
	mov	ebp, esp
	sub	esp, 204				; 000000ccH
	push	ebx
	push	esi
	push	edi
	push	ecx
	lea	edi, DWORD PTR [ebp-204]
	mov	ecx, 51					; 00000033H
	mov	eax, -858993460				; ccccccccH
	rep stosd
	pop	ecx
	mov	DWORD PTR _this$[ebp], ecx
	mov	ecx, DWORD PTR _this$[ebp]
	call	??1_Generic_error_category@std@@UAE@XZ
	mov	eax, DWORD PTR ___flags$[ebp]
	and	eax, 1
	je	SHORT $LN1@scalar
	mov	eax, DWORD PTR _this$[ebp]
	push	eax
	call	??3@YAXPAX@Z				; operator delete
	add	esp, 4
$LN1@scalar:
	mov	eax, DWORD PTR _this$[ebp]
	pop	edi
	pop	esi
	pop	ebx
	add	esp, 204				; 000000ccH
	cmp	ebp, esp
	call	__RTC_CheckEsp
	mov	esp, ebp
	pop	ebp
	ret	4
??_G_Generic_error_category@std@@UAEPAXI@Z ENDP		; std::_Generic_error_category::`scalar deleting destructor'
_TEXT	ENDS
; Function compile flags: /Odtp /RTCsu /ZI
;	COMDAT ??1_Generic_error_category@std@@UAE@XZ
_TEXT	SEGMENT
_this$ = -8						; size = 4
??1_Generic_error_category@std@@UAE@XZ PROC		; std::_Generic_error_category::~_Generic_error_category, COMDAT
; _this$ = ecx
	push	ebp
	mov	ebp, esp
	sub	esp, 204				; 000000ccH
	push	ebx
	push	esi
	push	edi
	push	ecx
	lea	edi, DWORD PTR [ebp-204]
	mov	ecx, 51					; 00000033H
	mov	eax, -858993460				; ccccccccH
	rep stosd
	pop	ecx
	mov	DWORD PTR _this$[ebp], ecx
	mov	ecx, DWORD PTR _this$[ebp]
	call	??1error_category@std@@UAE@XZ		; std::error_category::~error_category
	pop	edi
	pop	esi
	pop	ebx
	add	esp, 204				; 000000ccH
	cmp	ebp, esp
	call	__RTC_CheckEsp
	mov	esp, ebp
	pop	ebp
	ret	0
??1_Generic_error_category@std@@UAE@XZ ENDP		; std::_Generic_error_category::~_Generic_error_category
_TEXT	ENDS
; Function compile flags: /Odtp /RTCsu /ZI
; File c:\program files (x86)\microsoft visual studio 12.0\vc\include\system_error
;	COMDAT ?message@_Generic_error_category@std@@UBE?AV?$basic_string@DU?$char_traits@D@std@@V?$allocator@D@2@@2@H@Z
_TEXT	SEGMENT
tv69 = -232						; size = 4
$T1 = -224						; size = 4
__Name$ = -20						; size = 4
_this$ = -8						; size = 4
___$ReturnUdt$ = 8					; size = 4
__Errcode$ = 12						; size = 4
?message@_Generic_error_category@std@@UBE?AV?$basic_string@DU?$char_traits@D@std@@V?$allocator@D@2@@2@H@Z PROC ; std::_Generic_error_category::message, COMDAT
; _this$ = ecx

; 563  : 		{	// convert to name of error

	push	ebp
	mov	ebp, esp
	sub	esp, 232				; 000000e8H
	push	ebx
	push	esi
	push	edi
	push	ecx
	lea	edi, DWORD PTR [ebp-232]
	mov	ecx, 58					; 0000003aH
	mov	eax, -858993460				; ccccccccH
	rep stosd
	pop	ecx
	mov	DWORD PTR _this$[ebp], ecx
	mov	DWORD PTR $T1[ebp], 0

; 564  : 		const char *_Name = _Syserror_map(_Errcode);

	mov	eax, DWORD PTR __Errcode$[ebp]
	push	eax
	call	?_Syserror_map@std@@YAPBDH@Z		; std::_Syserror_map
	add	esp, 4
	mov	DWORD PTR __Name$[ebp], eax

; 565  : 		return (string(_Name != 0 ? _Name : "unknown error"));

	cmp	DWORD PTR __Name$[ebp], 0
	je	SHORT $LN3@message
	mov	eax, DWORD PTR __Name$[ebp]
	mov	DWORD PTR tv69[ebp], eax
	jmp	SHORT $LN4@message
$LN3@message:
	mov	DWORD PTR tv69[ebp], OFFSET ??_C@_0O@BFJCFAAK@unknown?5error?$AA@
$LN4@message:
	mov	ecx, DWORD PTR tv69[ebp]
	push	ecx
	mov	ecx, DWORD PTR ___$ReturnUdt$[ebp]
	call	??0?$basic_string@DU?$char_traits@D@std@@V?$allocator@D@2@@std@@QAE@PBD@Z ; std::basic_string<char,std::char_traits<char>,std::allocator<char> >::basic_string<char,std::char_traits<char>,std::allocator<char> >
	mov	edx, DWORD PTR $T1[ebp]
	or	edx, 1
	mov	DWORD PTR $T1[ebp], edx
	mov	eax, DWORD PTR ___$ReturnUdt$[ebp]

; 566  : 		}

	pop	edi
	pop	esi
	pop	ebx
	add	esp, 232				; 000000e8H
	cmp	ebp, esp
	call	__RTC_CheckEsp
	mov	esp, ebp
	pop	ebp
	ret	8
?message@_Generic_error_category@std@@UBE?AV?$basic_string@DU?$char_traits@D@std@@V?$allocator@D@2@@2@H@Z ENDP ; std::_Generic_error_category::message
_TEXT	ENDS
; Function compile flags: /Odtp /RTCsu /ZI
; File c:\program files (x86)\microsoft visual studio 12.0\vc\include\system_error
;	COMDAT ?name@_Generic_error_category@std@@UBEPBDXZ
_TEXT	SEGMENT
_this$ = -8						; size = 4
?name@_Generic_error_category@std@@UBEPBDXZ PROC	; std::_Generic_error_category::name, COMDAT
; _this$ = ecx

; 558  : 		{	// get name of category

	push	ebp
	mov	ebp, esp
	sub	esp, 204				; 000000ccH
	push	ebx
	push	esi
	push	edi
	push	ecx
	lea	edi, DWORD PTR [ebp-204]
	mov	ecx, 51					; 00000033H
	mov	eax, -858993460				; ccccccccH
	rep stosd
	pop	ecx
	mov	DWORD PTR _this$[ebp], ecx

; 559  : 		return ("generic");

	mov	eax, OFFSET ??_C@_07DCLBNMLN@generic?$AA@

; 560  : 		}

	pop	edi
	pop	esi
	pop	ebx
	mov	esp, ebp
	pop	ebp
	ret	0
?name@_Generic_error_category@std@@UBEPBDXZ ENDP	; std::_Generic_error_category::name
_TEXT	ENDS
; Function compile flags: /Odtp /RTCsu /ZI
; File c:\program files (x86)\microsoft visual studio 12.0\vc\include\system_error
;	COMDAT ??0_Generic_error_category@std@@QAE@XZ
_TEXT	SEGMENT
_this$ = -8						; size = 4
??0_Generic_error_category@std@@QAE@XZ PROC		; std::_Generic_error_category::_Generic_error_category, COMDAT
; _this$ = ecx

; 553  : 	_Generic_error_category()

	push	ebp
	mov	ebp, esp
	sub	esp, 204				; 000000ccH
	push	ebx
	push	esi
	push	edi
	push	ecx
	lea	edi, DWORD PTR [ebp-204]
	mov	ecx, 51					; 00000033H
	mov	eax, -858993460				; ccccccccH
	rep stosd
	pop	ecx
	mov	DWORD PTR _this$[ebp], ecx
	mov	ecx, DWORD PTR _this$[ebp]
	call	??0error_category@std@@QAE@XZ		; std::error_category::error_category
	mov	eax, DWORD PTR _this$[ebp]
	mov	DWORD PTR [eax], OFFSET ??_7_Generic_error_category@std@@6B@

; 554  : 		{	// default constructor
; 555  : 		}

	mov	eax, DWORD PTR _this$[ebp]
	pop	edi
	pop	esi
	pop	ebx
	add	esp, 204				; 000000ccH
	cmp	ebp, esp
	call	__RTC_CheckEsp
	mov	esp, ebp
	pop	ebp
	ret	0
??0_Generic_error_category@std@@QAE@XZ ENDP		; std::_Generic_error_category::_Generic_error_category
_TEXT	ENDS
; Function compile flags: /Odtp /RTCsu /ZI
; File c:\program files (x86)\microsoft visual studio 12.0\vc\include\system_error
;	COMDAT ??8error_condition@std@@QBE_NABV01@@Z
_TEXT	SEGMENT
tv78 = -208						; size = 4
_this$ = -8						; size = 4
__Right$ = 8						; size = 4
??8error_condition@std@@QBE_NABV01@@Z PROC		; std::error_condition::operator==, COMDAT
; _this$ = ecx

; 352  : 		{	// test if *this == _Right

	push	ebp
	mov	ebp, esp
	sub	esp, 208				; 000000d0H
	push	ebx
	push	esi
	push	edi
	push	ecx
	lea	edi, DWORD PTR [ebp-208]
	mov	ecx, 52					; 00000034H
	mov	eax, -858993460				; ccccccccH
	rep stosd
	pop	ecx
	mov	DWORD PTR _this$[ebp], ecx

; 353  : 		return (category() == _Right.category()
; 354  : 			&& value() == _Right.value());

	mov	ecx, DWORD PTR __Right$[ebp]
	call	?category@error_condition@std@@QBEABVerror_category@2@XZ ; std::error_condition::category
	push	eax
	mov	ecx, DWORD PTR _this$[ebp]
	call	?category@error_condition@std@@QBEABVerror_category@2@XZ ; std::error_condition::category
	mov	ecx, eax
	call	??8error_category@std@@QBE_NABV01@@Z	; std::error_category::operator==
	movzx	eax, al
	test	eax, eax
	je	SHORT $LN3@operator
	mov	ecx, DWORD PTR _this$[ebp]
	call	?value@error_condition@std@@QBEHXZ	; std::error_condition::value
	mov	esi, eax
	mov	ecx, DWORD PTR __Right$[ebp]
	call	?value@error_condition@std@@QBEHXZ	; std::error_condition::value
	cmp	esi, eax
	jne	SHORT $LN3@operator
	mov	DWORD PTR tv78[ebp], 1
	jmp	SHORT $LN4@operator
$LN3@operator:
	mov	DWORD PTR tv78[ebp], 0
$LN4@operator:
	mov	al, BYTE PTR tv78[ebp]

; 355  : 		}

	pop	edi
	pop	esi
	pop	ebx
	add	esp, 208				; 000000d0H
	cmp	ebp, esp
	call	__RTC_CheckEsp
	mov	esp, ebp
	pop	ebp
	ret	4
??8error_condition@std@@QBE_NABV01@@Z ENDP		; std::error_condition::operator==
_TEXT	ENDS
; Function compile flags: /Odtp /RTCsu /ZI
; File c:\program files (x86)\microsoft visual studio 12.0\vc\include\system_error
;	COMDAT ?category@error_condition@std@@QBEABVerror_category@2@XZ
_TEXT	SEGMENT
_this$ = -8						; size = 4
?category@error_condition@std@@QBEABVerror_category@2@XZ PROC ; std::error_condition::category, COMDAT
; _this$ = ecx

; 337  : 		{	// get category

	push	ebp
	mov	ebp, esp
	sub	esp, 204				; 000000ccH
	push	ebx
	push	esi
	push	edi
	push	ecx
	lea	edi, DWORD PTR [ebp-204]
	mov	ecx, 51					; 00000033H
	mov	eax, -858993460				; ccccccccH
	rep stosd
	pop	ecx
	mov	DWORD PTR _this$[ebp], ecx

; 338  : 		return (*_Mycat);

	mov	eax, DWORD PTR _this$[ebp]
	mov	eax, DWORD PTR [eax+4]

; 339  : 		}

	pop	edi
	pop	esi
	pop	ebx
	mov	esp, ebp
	pop	ebp
	ret	0
?category@error_condition@std@@QBEABVerror_category@2@XZ ENDP ; std::error_condition::category
_TEXT	ENDS
; Function compile flags: /Odtp /RTCsu /ZI
; File c:\program files (x86)\microsoft visual studio 12.0\vc\include\system_error
;	COMDAT ?value@error_condition@std@@QBEHXZ
_TEXT	SEGMENT
_this$ = -8						; size = 4
?value@error_condition@std@@QBEHXZ PROC			; std::error_condition::value, COMDAT
; _this$ = ecx

; 332  : 		{	// get error code

	push	ebp
	mov	ebp, esp
	sub	esp, 204				; 000000ccH
	push	ebx
	push	esi
	push	edi
	push	ecx
	lea	edi, DWORD PTR [ebp-204]
	mov	ecx, 51					; 00000033H
	mov	eax, -858993460				; ccccccccH
	rep stosd
	pop	ecx
	mov	DWORD PTR _this$[ebp], ecx

; 333  : 		return (_Myval);

	mov	eax, DWORD PTR _this$[ebp]
	mov	eax, DWORD PTR [eax]

; 334  : 		}

	pop	edi
	pop	esi
	pop	ebx
	mov	esp, ebp
	pop	ebp
	ret	0
?value@error_condition@std@@QBEHXZ ENDP			; std::error_condition::value
_TEXT	ENDS
; Function compile flags: /Odtp /RTCsu /ZI
; File c:\program files (x86)\microsoft visual studio 12.0\vc\include\system_error
;	COMDAT ??0error_condition@std@@QAE@HABVerror_category@1@@Z
_TEXT	SEGMENT
_this$ = -8						; size = 4
__Val$ = 8						; size = 4
__Cat$ = 12						; size = 4
??0error_condition@std@@QAE@HABVerror_category@1@@Z PROC ; std::error_condition::error_condition, COMDAT
; _this$ = ecx

; 299  : 		{	// construct from error code and category

	push	ebp
	mov	ebp, esp
	sub	esp, 204				; 000000ccH
	push	ebx
	push	esi
	push	edi
	push	ecx
	lea	edi, DWORD PTR [ebp-204]
	mov	ecx, 51					; 00000033H
	mov	eax, -858993460				; ccccccccH
	rep stosd
	pop	ecx
	mov	DWORD PTR _this$[ebp], ecx
	mov	eax, DWORD PTR _this$[ebp]
	mov	ecx, DWORD PTR __Val$[ebp]
	mov	DWORD PTR [eax], ecx
	mov	eax, DWORD PTR _this$[ebp]
	mov	ecx, DWORD PTR __Cat$[ebp]
	mov	DWORD PTR [eax+4], ecx

; 300  : 		}

	mov	eax, DWORD PTR _this$[ebp]
	pop	edi
	pop	esi
	pop	ebx
	mov	esp, ebp
	pop	ebp
	ret	8
??0error_condition@std@@QAE@HABVerror_category@1@@Z ENDP ; std::error_condition::error_condition
_TEXT	ENDS
; Function compile flags: /Odtp /RTCsu /ZI
; File c:\program files (x86)\microsoft visual studio 12.0\vc\include\system_error
;	COMDAT ?category@error_code@std@@QBEABVerror_category@2@XZ
_TEXT	SEGMENT
_this$ = -8						; size = 4
?category@error_code@std@@QBEABVerror_category@2@XZ PROC ; std::error_code::category, COMDAT
; _this$ = ecx

; 246  : 		{	// get category

	push	ebp
	mov	ebp, esp
	sub	esp, 204				; 000000ccH
	push	ebx
	push	esi
	push	edi
	push	ecx
	lea	edi, DWORD PTR [ebp-204]
	mov	ecx, 51					; 00000033H
	mov	eax, -858993460				; ccccccccH
	rep stosd
	pop	ecx
	mov	DWORD PTR _this$[ebp], ecx

; 247  : 		return (*_Mycat);

	mov	eax, DWORD PTR _this$[ebp]
	mov	eax, DWORD PTR [eax+4]

; 248  : 		}

	pop	edi
	pop	esi
	pop	ebx
	mov	esp, ebp
	pop	ebp
	ret	0
?category@error_code@std@@QBEABVerror_category@2@XZ ENDP ; std::error_code::category
_TEXT	ENDS
; Function compile flags: /Odtp /RTCsu /ZI
; File c:\program files (x86)\microsoft visual studio 12.0\vc\include\system_error
;	COMDAT ?value@error_code@std@@QBEHXZ
_TEXT	SEGMENT
_this$ = -8						; size = 4
?value@error_code@std@@QBEHXZ PROC			; std::error_code::value, COMDAT
; _this$ = ecx

; 241  : 		{	// get error code

	push	ebp
	mov	ebp, esp
	sub	esp, 204				; 000000ccH
	push	ebx
	push	esi
	push	edi
	push	ecx
	lea	edi, DWORD PTR [ebp-204]
	mov	ecx, 51					; 00000033H
	mov	eax, -858993460				; ccccccccH
	rep stosd
	pop	ecx
	mov	DWORD PTR _this$[ebp], ecx

; 242  : 		return (_Myval);

	mov	eax, DWORD PTR _this$[ebp]
	mov	eax, DWORD PTR [eax]

; 243  : 		}

	pop	edi
	pop	esi
	pop	ebx
	mov	esp, ebp
	pop	ebp
	ret	0
?value@error_code@std@@QBEHXZ ENDP			; std::error_code::value
_TEXT	ENDS
; Function compile flags: /Odtp /RTCsu /ZI
;	COMDAT ??_Gerror_category@std@@UAEPAXI@Z
_TEXT	SEGMENT
_this$ = -8						; size = 4
___flags$ = 8						; size = 4
??_Gerror_category@std@@UAEPAXI@Z PROC			; std::error_category::`scalar deleting destructor', COMDAT
; _this$ = ecx
	push	ebp
	mov	ebp, esp
	sub	esp, 204				; 000000ccH
	push	ebx
	push	esi
	push	edi
	push	ecx
	lea	edi, DWORD PTR [ebp-204]
	mov	ecx, 51					; 00000033H
	mov	eax, -858993460				; ccccccccH
	rep stosd
	pop	ecx
	mov	DWORD PTR _this$[ebp], ecx
	mov	ecx, DWORD PTR _this$[ebp]
	call	??1error_category@std@@UAE@XZ		; std::error_category::~error_category
	mov	eax, DWORD PTR ___flags$[ebp]
	and	eax, 1
	je	SHORT $LN1@scalar
	mov	eax, DWORD PTR _this$[ebp]
	push	eax
	call	??3@YAXPAX@Z				; operator delete
	add	esp, 4
$LN1@scalar:
	mov	eax, DWORD PTR _this$[ebp]
	pop	edi
	pop	esi
	pop	ebx
	add	esp, 204				; 000000ccH
	cmp	ebp, esp
	call	__RTC_CheckEsp
	mov	esp, ebp
	pop	ebp
	ret	4
??_Gerror_category@std@@UAEPAXI@Z ENDP			; std::error_category::`scalar deleting destructor'
_TEXT	ENDS
; Function compile flags: /Odtp /RTCsu /ZI
; File c:\program files (x86)\microsoft visual studio 12.0\vc\include\system_error
;	COMDAT ??8error_category@std@@QBE_NABV01@@Z
_TEXT	SEGMENT
tv65 = -208						; size = 4
_this$ = -8						; size = 4
__Right$ = 8						; size = 4
??8error_category@std@@QBE_NABV01@@Z PROC		; std::error_category::operator==, COMDAT
; _this$ = ecx

; 176  : 		{	// compare categories for equality

	push	ebp
	mov	ebp, esp
	sub	esp, 208				; 000000d0H
	push	ebx
	push	esi
	push	edi
	push	ecx
	lea	edi, DWORD PTR [ebp-208]
	mov	ecx, 52					; 00000034H
	mov	eax, -858993460				; ccccccccH
	rep stosd
	pop	ecx
	mov	DWORD PTR _this$[ebp], ecx

; 177  : 		return (this == &_Right);

	mov	eax, DWORD PTR _this$[ebp]
	cmp	eax, DWORD PTR __Right$[ebp]
	jne	SHORT $LN3@operator
	mov	DWORD PTR tv65[ebp], 1
	jmp	SHORT $LN4@operator
$LN3@operator:
	mov	DWORD PTR tv65[ebp], 0
$LN4@operator:
	mov	al, BYTE PTR tv65[ebp]

; 178  : 		}

	pop	edi
	pop	esi
	pop	ebx
	mov	esp, ebp
	pop	ebp
	ret	4
??8error_category@std@@QBE_NABV01@@Z ENDP		; std::error_category::operator==
_TEXT	ENDS
; Function compile flags: /Odtp /RTCsu /ZI
; File c:\program files (x86)\microsoft visual studio 12.0\vc\include\system_error
;	COMDAT ?equivalent@error_category@std@@UBE_NABVerror_code@2@H@Z
_TEXT	SEGMENT
tv74 = -208						; size = 4
_this$ = -8						; size = 4
__Code$ = 8						; size = 4
__Errval$ = 12						; size = 4
?equivalent@error_category@std@@UBE_NABVerror_code@2@H@Z PROC ; std::error_category::equivalent, COMDAT
; _this$ = ecx

; 391  : 	{	// test if conditions same for this category

	push	ebp
	mov	ebp, esp
	sub	esp, 208				; 000000d0H
	push	ebx
	push	esi
	push	edi
	push	ecx
	lea	edi, DWORD PTR [ebp-208]
	mov	ecx, 52					; 00000034H
	mov	eax, -858993460				; ccccccccH
	rep stosd
	pop	ecx
	mov	DWORD PTR _this$[ebp], ecx

; 392  : 	return (*this == _Code.category() && _Code.value() == _Errval);

	mov	ecx, DWORD PTR __Code$[ebp]
	call	?category@error_code@std@@QBEABVerror_category@2@XZ ; std::error_code::category
	push	eax
	mov	ecx, DWORD PTR _this$[ebp]
	call	??8error_category@std@@QBE_NABV01@@Z	; std::error_category::operator==
	movzx	eax, al
	test	eax, eax
	je	SHORT $LN3@equivalent
	mov	ecx, DWORD PTR __Code$[ebp]
	call	?value@error_code@std@@QBEHXZ		; std::error_code::value
	cmp	eax, DWORD PTR __Errval$[ebp]
	jne	SHORT $LN3@equivalent
	mov	DWORD PTR tv74[ebp], 1
	jmp	SHORT $LN4@equivalent
$LN3@equivalent:
	mov	DWORD PTR tv74[ebp], 0
$LN4@equivalent:
	mov	al, BYTE PTR tv74[ebp]

; 393  : 	}

	pop	edi
	pop	esi
	pop	ebx
	add	esp, 208				; 000000d0H
	cmp	ebp, esp
	call	__RTC_CheckEsp
	mov	esp, ebp
	pop	ebp
	ret	8
?equivalent@error_category@std@@UBE_NABVerror_code@2@H@Z ENDP ; std::error_category::equivalent
_TEXT	ENDS
; Function compile flags: /Odtp /RTCsu /ZI
; File c:\program files (x86)\microsoft visual studio 12.0\vc\include\system_error
;	COMDAT ?equivalent@error_category@std@@UBE_NHABVerror_condition@2@@Z
_TEXT	SEGMENT
$T1 = -216						; size = 8
_this$ = -8						; size = 4
__Errval$ = 8						; size = 4
__Cond$ = 12						; size = 4
?equivalent@error_category@std@@UBE_NHABVerror_condition@2@@Z PROC ; std::error_category::equivalent, COMDAT
; _this$ = ecx

; 384  : 	{	// test if error code same condition

	push	ebp
	mov	ebp, esp
	sub	esp, 220				; 000000dcH
	push	ebx
	push	esi
	push	edi
	push	ecx
	lea	edi, DWORD PTR [ebp-220]
	mov	ecx, 55					; 00000037H
	mov	eax, -858993460				; ccccccccH
	rep stosd
	pop	ecx
	mov	DWORD PTR _this$[ebp], ecx

; 385  : 	return (default_error_condition(_Errval) == _Cond);

	mov	eax, DWORD PTR __Cond$[ebp]
	push	eax
	mov	esi, esp
	mov	ecx, DWORD PTR __Errval$[ebp]
	push	ecx
	lea	edx, DWORD PTR $T1[ebp]
	push	edx
	mov	eax, DWORD PTR _this$[ebp]
	mov	edx, DWORD PTR [eax]
	mov	ecx, DWORD PTR _this$[ebp]
	mov	eax, DWORD PTR [edx+12]
	call	eax
	cmp	esi, esp
	call	__RTC_CheckEsp
	mov	ecx, eax
	call	??8error_condition@std@@QBE_NABV01@@Z	; std::error_condition::operator==

; 386  : 	}

	pop	edi
	pop	esi
	pop	ebx
	add	esp, 220				; 000000dcH
	cmp	ebp, esp
	call	__RTC_CheckEsp
	mov	esp, ebp
	pop	ebp
	ret	8
?equivalent@error_category@std@@UBE_NHABVerror_condition@2@@Z ENDP ; std::error_category::equivalent
_TEXT	ENDS
; Function compile flags: /Odtp /RTCsu /ZI
; File c:\program files (x86)\microsoft visual studio 12.0\vc\include\system_error
;	COMDAT ?default_error_condition@error_category@std@@UBE?AVerror_condition@2@H@Z
_TEXT	SEGMENT
_this$ = -8						; size = 4
___$ReturnUdt$ = 8					; size = 4
__Errval$ = 12						; size = 4
?default_error_condition@error_category@std@@UBE?AVerror_condition@2@H@Z PROC ; std::error_category::default_error_condition, COMDAT
; _this$ = ecx

; 377  : 	{	// make error_condition for error code

	push	ebp
	mov	ebp, esp
	sub	esp, 204				; 000000ccH
	push	ebx
	push	esi
	push	edi
	push	ecx
	lea	edi, DWORD PTR [ebp-204]
	mov	ecx, 51					; 00000033H
	mov	eax, -858993460				; ccccccccH
	rep stosd
	pop	ecx
	mov	DWORD PTR _this$[ebp], ecx

; 378  : 	return (error_condition(_Errval, *this));

	mov	eax, DWORD PTR _this$[ebp]
	push	eax
	mov	ecx, DWORD PTR __Errval$[ebp]
	push	ecx
	mov	ecx, DWORD PTR ___$ReturnUdt$[ebp]
	call	??0error_condition@std@@QAE@HABVerror_category@1@@Z ; std::error_condition::error_condition
	mov	eax, DWORD PTR ___$ReturnUdt$[ebp]

; 379  : 	}

	pop	edi
	pop	esi
	pop	ebx
	add	esp, 204				; 000000ccH
	cmp	ebp, esp
	call	__RTC_CheckEsp
	mov	esp, ebp
	pop	ebp
	ret	8
?default_error_condition@error_category@std@@UBE?AVerror_condition@2@H@Z ENDP ; std::error_category::default_error_condition
_TEXT	ENDS
; Function compile flags: /Odtp /RTCsu /ZI
; File c:\program files (x86)\microsoft visual studio 12.0\vc\include\system_error
;	COMDAT ??1error_category@std@@UAE@XZ
_TEXT	SEGMENT
_this$ = -8						; size = 4
??1error_category@std@@UAE@XZ PROC			; std::error_category::~error_category, COMDAT
; _this$ = ecx

; 159  : 		{	// destroy the object

	push	ebp
	mov	ebp, esp
	sub	esp, 204				; 000000ccH
	push	ebx
	push	esi
	push	edi
	push	ecx
	lea	edi, DWORD PTR [ebp-204]
	mov	ecx, 51					; 00000033H
	mov	eax, -858993460				; ccccccccH
	rep stosd
	pop	ecx
	mov	DWORD PTR _this$[ebp], ecx
	mov	eax, DWORD PTR _this$[ebp]
	mov	DWORD PTR [eax], OFFSET ??_7error_category@std@@6B@

; 160  : 		}

	pop	edi
	pop	esi
	pop	ebx
	mov	esp, ebp
	pop	ebp
	ret	0
??1error_category@std@@UAE@XZ ENDP			; std::error_category::~error_category
_TEXT	ENDS
; Function compile flags: /Odtp /RTCsu /ZI
; File c:\program files (x86)\microsoft visual studio 12.0\vc\include\system_error
;	COMDAT ??0error_category@std@@QAE@XZ
_TEXT	SEGMENT
_this$ = -8						; size = 4
??0error_category@std@@QAE@XZ PROC			; std::error_category::error_category, COMDAT
; _this$ = ecx

; 154  : 	error_category()

	push	ebp
	mov	ebp, esp
	sub	esp, 204				; 000000ccH
	push	ebx
	push	esi
	push	edi
	push	ecx
	lea	edi, DWORD PTR [ebp-204]
	mov	ecx, 51					; 00000033H
	mov	eax, -858993460				; ccccccccH
	rep stosd
	pop	ecx
	mov	DWORD PTR _this$[ebp], ecx
	mov	eax, DWORD PTR _this$[ebp]
	mov	DWORD PTR [eax], OFFSET ??_7error_category@std@@6B@

; 155  : 		{	// default constructor
; 156  : 		}

	mov	eax, DWORD PTR _this$[ebp]
	pop	edi
	pop	esi
	pop	ebx
	mov	esp, ebp
	pop	ebp
	ret	0
??0error_category@std@@QAE@XZ ENDP			; std::error_category::error_category
_TEXT	ENDS
; Function compile flags: /Odtp /RTCsu /ZI
; File c:\program files (x86)\microsoft visual studio 12.0\vc\include\system_error
;	COMDAT ?system_category@std@@YAABVerror_category@1@XZ
_TEXT	SEGMENT
?system_category@std@@YAABVerror_category@1@XZ PROC	; std::system_category, COMDAT

; 652  : 	{	// get system_category

	push	ebp
	mov	ebp, esp
	sub	esp, 192				; 000000c0H
	push	ebx
	push	esi
	push	edi
	lea	edi, DWORD PTR [ebp-192]
	mov	ecx, 48					; 00000030H
	mov	eax, -858993460				; ccccccccH
	rep stosd

; 653  : 	return (_Error_objects<int>::_System_object);

	mov	eax, OFFSET ?_System_object@?$_Error_objects@H@std@@2V_System_error_category@2@A ; std::_Error_objects<int>::_System_object

; 654  : 	}

	pop	edi
	pop	esi
	pop	ebx
	mov	esp, ebp
	pop	ebp
	ret	0
?system_category@std@@YAABVerror_category@1@XZ ENDP	; std::system_category
_TEXT	ENDS
; Function compile flags: /Odtp /RTCsu /ZI
; File c:\program files (x86)\microsoft visual studio 12.0\vc\include\system_error
;	COMDAT ?generic_category@std@@YAABVerror_category@1@XZ
_TEXT	SEGMENT
?generic_category@std@@YAABVerror_category@1@XZ PROC	; std::generic_category, COMDAT

; 642  : 	{	// get generic_category

	push	ebp
	mov	ebp, esp
	sub	esp, 192				; 000000c0H
	push	ebx
	push	esi
	push	edi
	lea	edi, DWORD PTR [ebp-192]
	mov	ecx, 48					; 00000030H
	mov	eax, -858993460				; ccccccccH
	rep stosd

; 643  : 	return (_Error_objects<int>::_Generic_object);

	mov	eax, OFFSET ?_Generic_object@?$_Error_objects@H@std@@2V_Generic_error_category@2@A ; std::_Error_objects<int>::_Generic_object

; 644  : 	}

	pop	edi
	pop	esi
	pop	ebx
	mov	esp, ebp
	pop	ebp
	ret	0
?generic_category@std@@YAABVerror_category@1@XZ ENDP	; std::generic_category
_TEXT	ENDS
; Function compile flags: /Odtp /RTCsu /ZI
; File c:\program files (x86)\microsoft visual studio 12.0\vc\include\xutility
;	COMDAT ??$_Debug_pointer@D@std@@YAXPBDPB_WI@Z
_TEXT	SEGMENT
__First$ = 8						; size = 4
__File$ = 12						; size = 4
__Line$ = 16						; size = 4
??$_Debug_pointer@D@std@@YAXPBDPB_WI@Z PROC		; std::_Debug_pointer<char>, COMDAT

; 545  : 	{	// test iterator for non-singularity, const pointers

	push	ebp
	mov	ebp, esp
	sub	esp, 192				; 000000c0H
	push	ebx
	push	esi
	push	edi
	lea	edi, DWORD PTR [ebp-192]
	mov	ecx, 48					; 00000030H
	mov	eax, -858993460				; ccccccccH
	rep stosd

; 546  : 	if (_First == 0)

	cmp	DWORD PTR __First$[ebp], 0
	jne	SHORT $LN2@Debug_poin

; 547  : 		_DEBUG_ERROR2("invalid null pointer", _File, _Line);

	mov	eax, DWORD PTR __Line$[ebp]
	push	eax
	mov	ecx, DWORD PTR __File$[ebp]
	push	ecx
	push	OFFSET ??_C@_1CK@EOPGIILJ@?$AAi?$AAn?$AAv?$AAa?$AAl?$AAi?$AAd?$AA?5?$AAn?$AAu?$AAl?$AAl?$AA?5?$AAp?$AAo?$AAi?$AAn?$AAt?$AAe?$AAr?$AA?$AA@
	call	?_Debug_message@std@@YAXPB_W0I@Z	; std::_Debug_message
	add	esp, 12					; 0000000cH
$LN2@Debug_poin:

; 548  : 	}

	pop	edi
	pop	esi
	pop	ebx
	add	esp, 192				; 000000c0H
	cmp	ebp, esp
	call	__RTC_CheckEsp
	mov	esp, ebp
	pop	ebp
	ret	0
??$_Debug_pointer@D@std@@YAXPBDPB_WI@Z ENDP		; std::_Debug_pointer<char>
_TEXT	ENDS
; Function compile flags: /Odtp /RTCsu /ZI
; File c:\program files (x86)\microsoft visual studio 12.0\vc\include\xlocale
;	COMDAT ??0id@locale@std@@QAE@I@Z
_TEXT	SEGMENT
_this$ = -8						; size = 4
__Val$ = 8						; size = 4
??0id@locale@std@@QAE@I@Z PROC				; std::locale::id::id, COMDAT
; _this$ = ecx

; 74   : 			{	// construct with specified stamp value

	push	ebp
	mov	ebp, esp
	sub	esp, 204				; 000000ccH
	push	ebx
	push	esi
	push	edi
	push	ecx
	lea	edi, DWORD PTR [ebp-204]
	mov	ecx, 51					; 00000033H
	mov	eax, -858993460				; ccccccccH
	rep stosd
	pop	ecx
	mov	DWORD PTR _this$[ebp], ecx
	mov	eax, DWORD PTR _this$[ebp]
	mov	ecx, DWORD PTR __Val$[ebp]
	mov	DWORD PTR [eax], ecx

; 75   : 			}

	mov	eax, DWORD PTR _this$[ebp]
	pop	edi
	pop	esi
	pop	ebx
	mov	esp, ebp
	pop	ebp
	ret	4
??0id@locale@std@@QAE@I@Z ENDP				; std::locale::id::id
_TEXT	ENDS
; Function compile flags: /Odtp /RTCsu /ZI
; File c:\program files (x86)\microsoft visual studio 12.0\vc\include\xstring
;	COMDAT ?_Xran@?$basic_string@DU?$char_traits@D@std@@V?$allocator@D@2@@std@@QBEXXZ
_TEXT	SEGMENT
_this$ = -8						; size = 4
?_Xran@?$basic_string@DU?$char_traits@D@std@@V?$allocator@D@2@@std@@QBEXXZ PROC ; std::basic_string<char,std::char_traits<char>,std::allocator<char> >::_Xran, COMDAT
; _this$ = ecx

; 2294 : 		{	// report an out_of_range error

	push	ebp
	mov	ebp, esp
	sub	esp, 204				; 000000ccH
	push	ebx
	push	esi
	push	edi
	push	ecx
	lea	edi, DWORD PTR [ebp-204]
	mov	ecx, 51					; 00000033H
	mov	eax, -858993460				; ccccccccH
	rep stosd
	pop	ecx
	mov	DWORD PTR _this$[ebp], ecx

; 2295 : 		_Xout_of_range("invalid string position");

	push	OFFSET ??_C@_0BI@CFPLBAOH@invalid?5string?5position?$AA@
	call	?_Xout_of_range@std@@YAXPBD@Z		; std::_Xout_of_range
$LN2@Xran:

; 2296 : 		}

	pop	edi
	pop	esi
	pop	ebx
	add	esp, 204				; 000000ccH
	cmp	ebp, esp
	call	__RTC_CheckEsp
	mov	esp, ebp
	pop	ebp
	ret	0
?_Xran@?$basic_string@DU?$char_traits@D@std@@V?$allocator@D@2@@std@@QBEXXZ ENDP ; std::basic_string<char,std::char_traits<char>,std::allocator<char> >::_Xran
_TEXT	ENDS
; Function compile flags: /Odtp /RTCsu /ZI
; File c:\program files (x86)\microsoft visual studio 12.0\vc\include\xstring
;	COMDAT ?_Xlen@?$basic_string@DU?$char_traits@D@std@@V?$allocator@D@2@@std@@QBEXXZ
_TEXT	SEGMENT
_this$ = -8						; size = 4
?_Xlen@?$basic_string@DU?$char_traits@D@std@@V?$allocator@D@2@@std@@QBEXXZ PROC ; std::basic_string<char,std::char_traits<char>,std::allocator<char> >::_Xlen, COMDAT
; _this$ = ecx

; 2289 : 		{	// report a length_error

	push	ebp
	mov	ebp, esp
	sub	esp, 204				; 000000ccH
	push	ebx
	push	esi
	push	edi
	push	ecx
	lea	edi, DWORD PTR [ebp-204]
	mov	ecx, 51					; 00000033H
	mov	eax, -858993460				; ccccccccH
	rep stosd
	pop	ecx
	mov	DWORD PTR _this$[ebp], ecx

; 2290 : 		_Xlength_error("string too long");

	push	OFFSET ??_C@_0BA@JFNIOLAK@string?5too?5long?$AA@
	call	?_Xlength_error@std@@YAXPBD@Z		; std::_Xlength_error
$LN2@Xlen:

; 2291 : 		}

	pop	edi
	pop	esi
	pop	ebx
	add	esp, 204				; 000000ccH
	cmp	ebp, esp
	call	__RTC_CheckEsp
	mov	esp, ebp
	pop	ebp
	ret	0
?_Xlen@?$basic_string@DU?$char_traits@D@std@@V?$allocator@D@2@@std@@QBEXXZ ENDP ; std::basic_string<char,std::char_traits<char>,std::allocator<char> >::_Xlen
_TEXT	ENDS
; Function compile flags: /Odtp /RTCsu /ZI
; File c:\program files (x86)\microsoft visual studio 12.0\vc\include\xstring
;	COMDAT ?_Tidy@?$basic_string@DU?$char_traits@D@std@@V?$allocator@D@2@@std@@QAEX_NI@Z
_TEXT	SEGMENT
$T1 = -233						; size = 1
$T2 = -221						; size = 1
__Ptr$3 = -20						; size = 4
_this$ = -8						; size = 4
__Built$ = 8						; size = 1
__Newsize$ = 12						; size = 4
?_Tidy@?$basic_string@DU?$char_traits@D@std@@V?$allocator@D@2@@std@@QAEX_NI@Z PROC ; std::basic_string<char,std::char_traits<char>,std::allocator<char> >::_Tidy, COMDAT
; _this$ = ecx

; 2272 : 		{	// initialize buffer, deallocating any storage

	push	ebp
	mov	ebp, esp
	sub	esp, 240				; 000000f0H
	push	ebx
	push	esi
	push	edi
	push	ecx
	lea	edi, DWORD PTR [ebp-240]
	mov	ecx, 60					; 0000003cH
	mov	eax, -858993460				; ccccccccH
	rep stosd
	pop	ecx
	mov	DWORD PTR _this$[ebp], ecx

; 2273 : 		if (!_Built)

	movzx	eax, BYTE PTR __Built$[ebp]
	test	eax, eax
	jne	SHORT $LN4@Tidy
	jmp	SHORT $LN3@Tidy
$LN4@Tidy:

; 2274 : 			;
; 2275 : 		else if (this->_BUF_SIZE <= this->_Myres)

	mov	eax, DWORD PTR _this$[ebp]
	cmp	DWORD PTR [eax+24], 16			; 00000010H
	jb	SHORT $LN3@Tidy

; 2276 : 			{	// copy any leftovers to small buffer and deallocate
; 2277 : 			pointer _Ptr = this->_Bx._Ptr;

	mov	eax, DWORD PTR _this$[ebp]
	mov	ecx, DWORD PTR [eax+4]
	mov	DWORD PTR __Ptr$3[ebp], ecx

; 2278 : 			this->_Getal().destroy(&this->_Bx._Ptr);

	mov	eax, DWORD PTR _this$[ebp]
	add	eax, 4
	push	eax
	lea	ecx, DWORD PTR $T1[ebp]
	push	ecx
	mov	ecx, DWORD PTR _this$[ebp]
	call	?_Getal@?$_String_alloc@$0A@U?$_String_base_types@DV?$allocator@D@std@@@std@@@std@@QBE?AU?$_Wrap_alloc@V?$allocator@D@std@@@2@XZ ; std::_String_alloc<0,std::_String_base_types<char,std::allocator<char> > >::_Getal
	mov	ecx, eax
	call	??$destroy@PAD@?$_Wrap_alloc@V?$allocator@D@std@@@std@@QAEXPAPAD@Z ; std::_Wrap_alloc<std::allocator<char> >::destroy<char *>

; 2279 : 			if (0 < _Newsize)

	cmp	DWORD PTR __Newsize$[ebp], 0
	jbe	SHORT $LN1@Tidy

; 2280 : 				_Traits::copy(this->_Bx._Buf,
; 2281 : 					_STD addressof(*_Ptr), _Newsize);

	mov	eax, DWORD PTR __Newsize$[ebp]
	push	eax
	mov	ecx, DWORD PTR __Ptr$3[ebp]
	push	ecx
	call	??$addressof@D@std@@YAPADAAD@Z		; std::addressof<char>
	add	esp, 4
	push	eax
	mov	edx, DWORD PTR _this$[ebp]
	add	edx, 4
	push	edx
	call	?copy@?$char_traits@D@std@@SAPADPADPBDI@Z ; std::char_traits<char>::copy
	add	esp, 12					; 0000000cH
$LN1@Tidy:

; 2282 : 			this->_Getal().deallocate(_Ptr, this->_Myres + 1);

	mov	eax, DWORD PTR _this$[ebp]
	mov	ecx, DWORD PTR [eax+24]
	add	ecx, 1
	push	ecx
	mov	edx, DWORD PTR __Ptr$3[ebp]
	push	edx
	lea	eax, DWORD PTR $T2[ebp]
	push	eax
	mov	ecx, DWORD PTR _this$[ebp]
	call	?_Getal@?$_String_alloc@$0A@U?$_String_base_types@DV?$allocator@D@std@@@std@@@std@@QBE?AU?$_Wrap_alloc@V?$allocator@D@std@@@2@XZ ; std::_String_alloc<0,std::_String_base_types<char,std::allocator<char> > >::_Getal
	mov	ecx, eax
	call	?deallocate@?$_Wrap_alloc@V?$allocator@D@std@@@std@@QAEXPADI@Z ; std::_Wrap_alloc<std::allocator<char> >::deallocate
$LN3@Tidy:

; 2283 : 			}
; 2284 : 		this->_Myres = this->_BUF_SIZE - 1;

	mov	eax, DWORD PTR _this$[ebp]
	mov	DWORD PTR [eax+24], 15			; 0000000fH

; 2285 : 		_Eos(_Newsize);

	mov	eax, DWORD PTR __Newsize$[ebp]
	push	eax
	mov	ecx, DWORD PTR _this$[ebp]
	call	?_Eos@?$basic_string@DU?$char_traits@D@std@@V?$allocator@D@2@@std@@QAEXI@Z ; std::basic_string<char,std::char_traits<char>,std::allocator<char> >::_Eos

; 2286 : 		}

	pop	edi
	pop	esi
	pop	ebx
	add	esp, 240				; 000000f0H
	cmp	ebp, esp
	call	__RTC_CheckEsp
	mov	esp, ebp
	pop	ebp
	ret	8
?_Tidy@?$basic_string@DU?$char_traits@D@std@@V?$allocator@D@2@@std@@QAEX_NI@Z ENDP ; std::basic_string<char,std::char_traits<char>,std::allocator<char> >::_Tidy
_TEXT	ENDS
; Function compile flags: /Odtp /RTCsu /ZI
; File c:\program files (x86)\microsoft visual studio 12.0\vc\include\xstring
;	COMDAT ?_Inside@?$basic_string@DU?$char_traits@D@std@@V?$allocator@D@2@@std@@QAE_NPBD@Z
_TEXT	SEGMENT
_this$ = -8						; size = 4
__Ptr$ = 8						; size = 4
?_Inside@?$basic_string@DU?$char_traits@D@std@@V?$allocator@D@2@@std@@QAE_NPBD@Z PROC ; std::basic_string<char,std::char_traits<char>,std::allocator<char> >::_Inside, COMDAT
; _this$ = ecx

; 2256 : 		{	// test if _Ptr points inside string

	push	ebp
	mov	ebp, esp
	sub	esp, 204				; 000000ccH
	push	ebx
	push	esi
	push	edi
	push	ecx
	lea	edi, DWORD PTR [ebp-204]
	mov	ecx, 51					; 00000033H
	mov	eax, -858993460				; ccccccccH
	rep stosd
	pop	ecx
	mov	DWORD PTR _this$[ebp], ecx

; 2257 : 		if (_Ptr == 0 || _Ptr < this->_Myptr()
; 2258 : 			|| this->_Myptr() + this->_Mysize <= _Ptr)

	cmp	DWORD PTR __Ptr$[ebp], 0
	je	SHORT $LN2@Inside
	mov	ecx, DWORD PTR _this$[ebp]
	call	?_Myptr@?$_String_val@U?$_Simple_types@D@std@@@std@@QAEPADXZ ; std::_String_val<std::_Simple_types<char> >::_Myptr
	cmp	DWORD PTR __Ptr$[ebp], eax
	jb	SHORT $LN2@Inside
	mov	ecx, DWORD PTR _this$[ebp]
	call	?_Myptr@?$_String_val@U?$_Simple_types@D@std@@@std@@QAEPADXZ ; std::_String_val<std::_Simple_types<char> >::_Myptr
	mov	ecx, DWORD PTR _this$[ebp]
	add	eax, DWORD PTR [ecx+20]
	cmp	eax, DWORD PTR __Ptr$[ebp]
	ja	SHORT $LN3@Inside
$LN2@Inside:

; 2259 : 			return (false);	// don't ask

	xor	al, al
	jmp	SHORT $LN4@Inside

; 2260 : 		else

	jmp	SHORT $LN4@Inside
$LN3@Inside:

; 2261 : 			return (true);

	mov	al, 1
$LN4@Inside:

; 2262 : 		}

	pop	edi
	pop	esi
	pop	ebx
	add	esp, 204				; 000000ccH
	cmp	ebp, esp
	call	__RTC_CheckEsp
	mov	esp, ebp
	pop	ebp
	ret	4
?_Inside@?$basic_string@DU?$char_traits@D@std@@V?$allocator@D@2@@std@@QAE_NPBD@Z ENDP ; std::basic_string<char,std::char_traits<char>,std::allocator<char> >::_Inside
_TEXT	ENDS
; Function compile flags: /Odtp /RTCsu /ZI
; File c:\program files (x86)\microsoft visual studio 12.0\vc\include\xstring
;	COMDAT ?_Grow@?$basic_string@DU?$char_traits@D@std@@V?$allocator@D@2@@std@@QAE_NI_N@Z
_TEXT	SEGMENT
tv136 = -208						; size = 4
tv129 = -208						; size = 4
_this$ = -8						; size = 4
__Newsize$ = 8						; size = 4
__Trim$ = 12						; size = 1
?_Grow@?$basic_string@DU?$char_traits@D@std@@V?$allocator@D@2@@std@@QAE_NI_N@Z PROC ; std::basic_string<char,std::char_traits<char>,std::allocator<char> >::_Grow, COMDAT
; _this$ = ecx

; 2242 : 		{	// ensure buffer is big enough, trim to size if _Trim is true

	push	ebp
	mov	ebp, esp
	sub	esp, 208				; 000000d0H
	push	ebx
	push	esi
	push	edi
	push	ecx
	lea	edi, DWORD PTR [ebp-208]
	mov	ecx, 52					; 00000034H
	mov	eax, -858993460				; ccccccccH
	rep stosd
	pop	ecx
	mov	DWORD PTR _this$[ebp], ecx

; 2243 : 		if (max_size() < _Newsize)

	mov	ecx, DWORD PTR _this$[ebp]
	call	?max_size@?$basic_string@DU?$char_traits@D@std@@V?$allocator@D@2@@std@@QBEIXZ ; std::basic_string<char,std::char_traits<char>,std::allocator<char> >::max_size
	cmp	eax, DWORD PTR __Newsize$[ebp]
	jae	SHORT $LN6@Grow

; 2244 : 			_Xlen();	// result too long

	mov	ecx, DWORD PTR _this$[ebp]
	call	?_Xlen@?$basic_string@DU?$char_traits@D@std@@V?$allocator@D@2@@std@@QBEXXZ ; std::basic_string<char,std::char_traits<char>,std::allocator<char> >::_Xlen
$LN6@Grow:

; 2245 : 		if (this->_Myres < _Newsize)

	mov	eax, DWORD PTR _this$[ebp]
	mov	ecx, DWORD PTR [eax+24]
	cmp	ecx, DWORD PTR __Newsize$[ebp]
	jae	SHORT $LN5@Grow

; 2246 : 			_Copy(_Newsize, this->_Mysize);	// reallocate to grow

	mov	eax, DWORD PTR _this$[ebp]
	mov	ecx, DWORD PTR [eax+20]
	push	ecx
	mov	edx, DWORD PTR __Newsize$[ebp]
	push	edx
	mov	ecx, DWORD PTR _this$[ebp]
	call	?_Copy@?$basic_string@DU?$char_traits@D@std@@V?$allocator@D@2@@std@@QAEXII@Z ; std::basic_string<char,std::char_traits<char>,std::allocator<char> >::_Copy
	jmp	SHORT $LN4@Grow
$LN5@Grow:

; 2247 : 		else if (_Trim && _Newsize < this->_BUF_SIZE)

	movzx	eax, BYTE PTR __Trim$[ebp]
	test	eax, eax
	je	SHORT $LN3@Grow
	cmp	DWORD PTR __Newsize$[ebp], 16		; 00000010H
	jae	SHORT $LN3@Grow

; 2248 : 			_Tidy(true,	// copy and deallocate if trimming to small string
; 2249 : 				_Newsize < this->_Mysize ? _Newsize : this->_Mysize);

	mov	eax, DWORD PTR _this$[ebp]
	mov	ecx, DWORD PTR __Newsize$[ebp]
	cmp	ecx, DWORD PTR [eax+20]
	jae	SHORT $LN9@Grow
	mov	edx, DWORD PTR __Newsize$[ebp]
	mov	DWORD PTR tv129[ebp], edx
	jmp	SHORT $LN10@Grow
$LN9@Grow:
	mov	eax, DWORD PTR _this$[ebp]
	mov	ecx, DWORD PTR [eax+20]
	mov	DWORD PTR tv129[ebp], ecx
$LN10@Grow:
	mov	edx, DWORD PTR tv129[ebp]
	push	edx
	push	1
	mov	ecx, DWORD PTR _this$[ebp]
	call	?_Tidy@?$basic_string@DU?$char_traits@D@std@@V?$allocator@D@2@@std@@QAEX_NI@Z ; std::basic_string<char,std::char_traits<char>,std::allocator<char> >::_Tidy
	jmp	SHORT $LN4@Grow
$LN3@Grow:

; 2250 : 		else if (_Newsize == 0)

	cmp	DWORD PTR __Newsize$[ebp], 0
	jne	SHORT $LN4@Grow

; 2251 : 			_Eos(0);	// new size is zero, just null terminate

	push	0
	mov	ecx, DWORD PTR _this$[ebp]
	call	?_Eos@?$basic_string@DU?$char_traits@D@std@@V?$allocator@D@2@@std@@QAEXI@Z ; std::basic_string<char,std::char_traits<char>,std::allocator<char> >::_Eos
$LN4@Grow:

; 2252 : 		return (0 < _Newsize);	// return true only if more work to do

	cmp	DWORD PTR __Newsize$[ebp], 0
	jbe	SHORT $LN11@Grow
	mov	DWORD PTR tv136[ebp], 1
	jmp	SHORT $LN12@Grow
$LN11@Grow:
	mov	DWORD PTR tv136[ebp], 0
$LN12@Grow:
	mov	al, BYTE PTR tv136[ebp]
$LN8@Grow:

; 2253 : 		}

	pop	edi
	pop	esi
	pop	ebx
	add	esp, 208				; 000000d0H
	cmp	ebp, esp
	call	__RTC_CheckEsp
	mov	esp, ebp
	pop	ebp
	ret	8
?_Grow@?$basic_string@DU?$char_traits@D@std@@V?$allocator@D@2@@std@@QAE_NI_N@Z ENDP ; std::basic_string<char,std::char_traits<char>,std::allocator<char> >::_Grow
_TEXT	ENDS
; Function compile flags: /Odtp /RTCsu /ZI
; File c:\program files (x86)\microsoft visual studio 12.0\vc\include\xstring
;	COMDAT ?_Eos@?$basic_string@DU?$char_traits@D@std@@V?$allocator@D@2@@std@@QAEXI@Z
_TEXT	SEGMENT
$T1 = -209						; size = 1
_this$ = -8						; size = 4
__Newsize$ = 8						; size = 4
?_Eos@?$basic_string@DU?$char_traits@D@std@@V?$allocator@D@2@@std@@QAEXI@Z PROC ; std::basic_string<char,std::char_traits<char>,std::allocator<char> >::_Eos, COMDAT
; _this$ = ecx

; 2236 : 		{	// set new length and null terminator

	push	ebp
	mov	ebp, esp
	sub	esp, 216				; 000000d8H
	push	ebx
	push	esi
	push	edi
	push	ecx
	lea	edi, DWORD PTR [ebp-216]
	mov	ecx, 54					; 00000036H
	mov	eax, -858993460				; ccccccccH
	rep stosd
	pop	ecx
	mov	DWORD PTR _this$[ebp], ecx

; 2237 : 		_Traits::assign(this->_Myptr()[this->_Mysize = _Newsize], _Elem());

	mov	BYTE PTR $T1[ebp], 0
	mov	eax, DWORD PTR _this$[ebp]
	mov	ecx, DWORD PTR __Newsize$[ebp]
	mov	DWORD PTR [eax+20], ecx
	lea	edx, DWORD PTR $T1[ebp]
	push	edx
	mov	ecx, DWORD PTR _this$[ebp]
	call	?_Myptr@?$_String_val@U?$_Simple_types@D@std@@@std@@QAEPADXZ ; std::_String_val<std::_Simple_types<char> >::_Myptr
	add	eax, DWORD PTR __Newsize$[ebp]
	push	eax
	call	?assign@?$char_traits@D@std@@SAXAADABD@Z ; std::char_traits<char>::assign
	add	esp, 8

; 2238 : 		}

	pop	edi
	pop	esi
	pop	ebx
	add	esp, 216				; 000000d8H
	cmp	ebp, esp
	call	__RTC_CheckEsp
	mov	esp, ebp
	pop	ebp
	ret	4
?_Eos@?$basic_string@DU?$char_traits@D@std@@V?$allocator@D@2@@std@@QAEXI@Z ENDP ; std::basic_string<char,std::char_traits<char>,std::allocator<char> >::_Eos
_TEXT	ENDS
; Function compile flags: /Odtp /RTCsu /ZI
; File c:\program files (x86)\microsoft visual studio 12.0\vc\include\xstring
;	COMDAT ?_Copy@?$basic_string@DU?$char_traits@D@std@@V?$allocator@D@2@@std@@QAEXII@Z
_TEXT	SEGMENT
tv205 = -288						; size = 4
tv203 = -288						; size = 4
tv204 = -284						; size = 4
tv202 = -284						; size = 4
$T2 = -273						; size = 1
$T3 = -261						; size = 1
$T4 = -249						; size = 1
__Ptr$ = -48						; size = 4
__Newres$ = -36						; size = 4
_this$ = -24						; size = 4
__$EHRec$ = -16						; size = 16
__Newsize$ = 8						; size = 4
__Oldlen$ = 12						; size = 4
?_Copy@?$basic_string@DU?$char_traits@D@std@@V?$allocator@D@2@@std@@QAEXII@Z PROC ; std::basic_string<char,std::char_traits<char>,std::allocator<char> >::_Copy, COMDAT
; _this$ = ecx

; 2201 : 		{	// copy _Oldlen elements to newly allocated buffer

	push	ebp
	mov	ebp, esp
	push	-1
	push	__ehhandler$?_Copy@?$basic_string@DU?$char_traits@D@std@@V?$allocator@D@2@@std@@QAEXII@Z
	mov	eax, DWORD PTR fs:0
	push	eax
	push	ecx
	sub	esp, 272				; 00000110H
	push	ebx
	push	esi
	push	edi
	push	ecx
	lea	edi, DWORD PTR [ebp-288]
	mov	ecx, 68					; 00000044H
	mov	eax, -858993460				; ccccccccH
	rep stosd
	pop	ecx
	mov	eax, DWORD PTR ___security_cookie
	xor	eax, ebp
	push	eax
	lea	eax, DWORD PTR __$EHRec$[ebp+4]
	mov	DWORD PTR fs:0, eax
	mov	DWORD PTR __$EHRec$[ebp], esp
	mov	DWORD PTR _this$[ebp], ecx

; 2202 : 		size_type _Newres = _Newsize | this->_ALLOC_MASK;

	mov	eax, DWORD PTR __Newsize$[ebp]
	or	eax, 15					; 0000000fH
	mov	DWORD PTR __Newres$[ebp], eax

; 2203 : 		if (max_size() < _Newres)

	mov	ecx, DWORD PTR _this$[ebp]
	call	?max_size@?$basic_string@DU?$char_traits@D@std@@V?$allocator@D@2@@std@@QBEIXZ ; std::basic_string<char,std::char_traits<char>,std::allocator<char> >::max_size
	cmp	eax, DWORD PTR __Newres$[ebp]
	jae	SHORT $LN9@Copy

; 2204 : 			_Newres = _Newsize;	// undo roundup if too big

	mov	eax, DWORD PTR __Newsize$[ebp]
	mov	DWORD PTR __Newres$[ebp], eax
	jmp	SHORT $LN8@Copy
$LN9@Copy:

; 2205 : 		else if (this->_Myres / 2 <= _Newres / 3)

	mov	eax, DWORD PTR __Newres$[ebp]
	xor	edx, edx
	mov	ecx, 3
	div	ecx
	mov	edx, DWORD PTR _this$[ebp]
	mov	ecx, DWORD PTR [edx+24]
	shr	ecx, 1
	cmp	ecx, eax
	ja	SHORT $LN7@Copy
	jmp	SHORT $LN8@Copy
$LN7@Copy:

; 2206 : 			;
; 2207 : 		else if (this->_Myres <= max_size() - this->_Myres / 2)

	mov	eax, DWORD PTR _this$[ebp]
	mov	esi, DWORD PTR [eax+24]
	shr	esi, 1
	mov	ecx, DWORD PTR _this$[ebp]
	call	?max_size@?$basic_string@DU?$char_traits@D@std@@V?$allocator@D@2@@std@@QBEIXZ ; std::basic_string<char,std::char_traits<char>,std::allocator<char> >::max_size
	sub	eax, esi
	mov	ecx, DWORD PTR _this$[ebp]
	cmp	DWORD PTR [ecx+24], eax
	ja	SHORT $LN5@Copy

; 2208 : 			_Newres = this->_Myres
; 2209 : 				+ this->_Myres / 2;	// grow exponentially if possible

	mov	eax, DWORD PTR _this$[ebp]
	mov	ecx, DWORD PTR [eax+24]
	shr	ecx, 1
	mov	edx, DWORD PTR _this$[ebp]
	add	ecx, DWORD PTR [edx+24]
	mov	DWORD PTR __Newres$[ebp], ecx

; 2210 : 		else

	jmp	SHORT $LN8@Copy
$LN5@Copy:

; 2211 : 			_Newres = max_size();	// settle for max_size()

	mov	ecx, DWORD PTR _this$[ebp]
	call	?max_size@?$basic_string@DU?$char_traits@D@std@@V?$allocator@D@2@@std@@QBEIXZ ; std::basic_string<char,std::char_traits<char>,std::allocator<char> >::max_size
	mov	DWORD PTR __Newres$[ebp], eax
$LN8@Copy:

; 2212 : 
; 2213 : 		_Elem *_Ptr;
; 2214 : 		_TRY_BEGIN

	mov	DWORD PTR __$EHRec$[ebp+12], 0

; 2215 : 			_Ptr = this->_Getal().allocate(_Newres + 1);

	lea	eax, DWORD PTR $T2[ebp]
	push	eax
	mov	ecx, DWORD PTR _this$[ebp]
	call	?_Getal@?$_String_alloc@$0A@U?$_String_base_types@DV?$allocator@D@std@@@std@@@std@@QBE?AU?$_Wrap_alloc@V?$allocator@D@std@@@2@XZ ; std::_String_alloc<0,std::_String_base_types<char,std::allocator<char> > >::_Getal
	mov	DWORD PTR tv202[ebp], eax
	mov	ecx, DWORD PTR __Newres$[ebp]
	add	ecx, 1
	push	ecx
	mov	ecx, DWORD PTR tv202[ebp]
	call	?allocate@?$_Wrap_alloc@V?$allocator@D@std@@@std@@QAEPADI@Z ; std::_Wrap_alloc<std::allocator<char> >::allocate
	mov	DWORD PTR tv203[ebp], eax
	mov	edx, DWORD PTR tv203[ebp]
	mov	DWORD PTR __Ptr$[ebp], edx
	jmp	SHORT $LN12@Copy
__catch$?_Copy@?$basic_string@DU?$char_traits@D@std@@V?$allocator@D@2@@std@@QAEXII@Z$0:

; 2216 : 		_CATCH_ALL

	mov	DWORD PTR __$EHRec$[ebp], esp

; 2217 : 			_Newres = _Newsize;	// allocation failed, undo roundup and retry

	mov	eax, DWORD PTR __Newsize$[ebp]
	mov	DWORD PTR __Newres$[ebp], eax

; 2218 : 			_TRY_BEGIN

	mov	BYTE PTR __$EHRec$[ebp+12], 2

; 2219 : 				_Ptr = this->_Getal().allocate(_Newres + 1);

	lea	eax, DWORD PTR $T3[ebp]
	push	eax
	mov	ecx, DWORD PTR _this$[ebp]
	call	?_Getal@?$_String_alloc@$0A@U?$_String_base_types@DV?$allocator@D@std@@@std@@@std@@QBE?AU?$_Wrap_alloc@V?$allocator@D@std@@@2@XZ ; std::_String_alloc<0,std::_String_base_types<char,std::allocator<char> > >::_Getal
	mov	DWORD PTR tv204[ebp], eax
	mov	ecx, DWORD PTR __Newres$[ebp]
	add	ecx, 1
	push	ecx
	mov	ecx, DWORD PTR tv204[ebp]
	call	?allocate@?$_Wrap_alloc@V?$allocator@D@std@@@std@@QAEPADI@Z ; std::_Wrap_alloc<std::allocator<char> >::allocate
	mov	DWORD PTR tv205[ebp], eax
	mov	edx, DWORD PTR tv205[ebp]
	mov	DWORD PTR __Ptr$[ebp], edx
	jmp	SHORT $LN14@Copy
__catch$?_Copy@?$basic_string@DU?$char_traits@D@std@@V?$allocator@D@2@@std@@QAEXII@Z$1:

; 2220 : 			_CATCH_ALL
; 2221 : 			_Tidy(true);	// failed again, discard storage and reraise

	push	0
	push	1
	mov	ecx, DWORD PTR _this$[ebp]
	call	?_Tidy@?$basic_string@DU?$char_traits@D@std@@V?$allocator@D@2@@std@@QAEX_NI@Z ; std::basic_string<char,std::char_traits<char>,std::allocator<char> >::_Tidy

; 2222 : 			_RERAISE;

	push	0
	push	0
	call	__CxxThrowException@8

; 2223 : 			_CATCH_END

	mov	eax, $LN17@Copy
	ret	0
$LN14@Copy:
	mov	DWORD PTR __$EHRec$[ebp+12], 1
	jmp	SHORT __tryend$?_Copy@?$basic_string@DU?$char_traits@D@std@@V?$allocator@D@2@@std@@QAEXII@Z$2
$LN17@Copy:
	mov	DWORD PTR __$EHRec$[ebp+12], 1
__tryend$?_Copy@?$basic_string@DU?$char_traits@D@std@@V?$allocator@D@2@@std@@QAEXII@Z$2:

; 2224 : 		_CATCH_END

	mov	eax, $LN19@Copy
	ret	0
$LN12@Copy:
	mov	DWORD PTR __$EHRec$[ebp+12], -1
	jmp	SHORT __tryend$?_Copy@?$basic_string@DU?$char_traits@D@std@@V?$allocator@D@2@@std@@QAEXII@Z$3
$LN19@Copy:
	mov	DWORD PTR __$EHRec$[ebp+12], -1
__tryend$?_Copy@?$basic_string@DU?$char_traits@D@std@@V?$allocator@D@2@@std@@QAEXII@Z$3:

; 2225 : 
; 2226 : 		if (0 < _Oldlen)

	cmp	DWORD PTR __Oldlen$[ebp], 0
	jbe	SHORT $LN1@Copy

; 2227 : 			_Traits::copy(_Ptr, this->_Myptr(),
; 2228 : 				_Oldlen);	// copy existing elements

	mov	eax, DWORD PTR __Oldlen$[ebp]
	push	eax
	mov	ecx, DWORD PTR _this$[ebp]
	call	?_Myptr@?$_String_val@U?$_Simple_types@D@std@@@std@@QAEPADXZ ; std::_String_val<std::_Simple_types<char> >::_Myptr
	push	eax
	mov	ecx, DWORD PTR __Ptr$[ebp]
	push	ecx
	call	?copy@?$char_traits@D@std@@SAPADPADPBDI@Z ; std::char_traits<char>::copy
	add	esp, 12					; 0000000cH
$LN1@Copy:

; 2229 : 		_Tidy(true);

	push	0
	push	1
	mov	ecx, DWORD PTR _this$[ebp]
	call	?_Tidy@?$basic_string@DU?$char_traits@D@std@@V?$allocator@D@2@@std@@QAEX_NI@Z ; std::basic_string<char,std::char_traits<char>,std::allocator<char> >::_Tidy

; 2230 : 		this->_Getal().construct(&this->_Bx._Ptr, _Ptr);

	lea	eax, DWORD PTR __Ptr$[ebp]
	push	eax
	mov	ecx, DWORD PTR _this$[ebp]
	add	ecx, 4
	push	ecx
	lea	edx, DWORD PTR $T4[ebp]
	push	edx
	mov	ecx, DWORD PTR _this$[ebp]
	call	?_Getal@?$_String_alloc@$0A@U?$_String_base_types@DV?$allocator@D@std@@@std@@@std@@QBE?AU?$_Wrap_alloc@V?$allocator@D@std@@@2@XZ ; std::_String_alloc<0,std::_String_base_types<char,std::allocator<char> > >::_Getal
	mov	ecx, eax
	call	??$construct@PADAAPAD@?$_Wrap_alloc@V?$allocator@D@std@@@std@@QAEXPAPADAAPAD@Z ; std::_Wrap_alloc<std::allocator<char> >::construct<char *,char * &>

; 2231 : 		this->_Myres = _Newres;

	mov	eax, DWORD PTR _this$[ebp]
	mov	ecx, DWORD PTR __Newres$[ebp]
	mov	DWORD PTR [eax+24], ecx

; 2232 : 		_Eos(_Oldlen);

	mov	eax, DWORD PTR __Oldlen$[ebp]
	push	eax
	mov	ecx, DWORD PTR _this$[ebp]
	call	?_Eos@?$basic_string@DU?$char_traits@D@std@@V?$allocator@D@2@@std@@QAEXI@Z ; std::basic_string<char,std::char_traits<char>,std::allocator<char> >::_Eos
$LN11@Copy:

; 2233 : 		}

	push	edx
	mov	ecx, ebp
	push	eax
	lea	edx, DWORD PTR $LN23@Copy
	call	@_RTC_CheckStackVars@8
	pop	eax
	pop	edx
	mov	ecx, DWORD PTR __$EHRec$[ebp+4]
	mov	DWORD PTR fs:0, ecx
	pop	ecx
	pop	edi
	pop	esi
	pop	ebx
	add	esp, 288				; 00000120H
	cmp	ebp, esp
	call	__RTC_CheckEsp
	mov	esp, ebp
	pop	ebp
	ret	8
	npad	2
$LN23@Copy:
	DD	1
	DD	$LN22@Copy
$LN22@Copy:
	DD	-48					; ffffffd0H
	DD	4
	DD	$LN20@Copy
$LN20@Copy:
	DB	95					; 0000005fH
	DB	80					; 00000050H
	DB	116					; 00000074H
	DB	114					; 00000072H
	DB	0
_TEXT	ENDS
;	COMDAT text$x
text$x	SEGMENT
__ehhandler$?_Copy@?$basic_string@DU?$char_traits@D@std@@V?$allocator@D@2@@std@@QAEXII@Z:
	mov	edx, DWORD PTR [esp+8]
	lea	eax, DWORD PTR [edx+12]
	mov	ecx, DWORD PTR [edx-292]
	xor	ecx, eax
	call	@__security_check_cookie@4
	mov	eax, OFFSET __ehfuncinfo$?_Copy@?$basic_string@DU?$char_traits@D@std@@V?$allocator@D@2@@std@@QAEXII@Z
	jmp	___CxxFrameHandler3
text$x	ENDS
?_Copy@?$basic_string@DU?$char_traits@D@std@@V?$allocator@D@2@@std@@QAEXII@Z ENDP ; std::basic_string<char,std::char_traits<char>,std::allocator<char> >::_Copy
; Function compile flags: /Odtp /RTCsu /ZI
; File c:\program files (x86)\microsoft visual studio 12.0\vc\include\xstring
;	COMDAT ?max_size@?$basic_string@DU?$char_traits@D@std@@V?$allocator@D@2@@std@@QBEIXZ
_TEXT	SEGMENT
tv75 = -232						; size = 4
$T1 = -221						; size = 1
__Num$ = -20						; size = 4
_this$ = -8						; size = 4
?max_size@?$basic_string@DU?$char_traits@D@std@@V?$allocator@D@2@@std@@QBEIXZ PROC ; std::basic_string<char,std::char_traits<char>,std::allocator<char> >::max_size, COMDAT
; _this$ = ecx

; 1758 : 		{	// return maximum possible length of sequence

	push	ebp
	mov	ebp, esp
	sub	esp, 232				; 000000e8H
	push	ebx
	push	esi
	push	edi
	push	ecx
	lea	edi, DWORD PTR [ebp-232]
	mov	ecx, 58					; 0000003aH
	mov	eax, -858993460				; ccccccccH
	rep stosd
	pop	ecx
	mov	DWORD PTR _this$[ebp], ecx

; 1759 : 		size_type _Num = this->_Getal().max_size();

	lea	eax, DWORD PTR $T1[ebp]
	push	eax
	mov	ecx, DWORD PTR _this$[ebp]
	call	?_Getal@?$_String_alloc@$0A@U?$_String_base_types@DV?$allocator@D@std@@@std@@@std@@QBE?AU?$_Wrap_alloc@V?$allocator@D@std@@@2@XZ ; std::_String_alloc<0,std::_String_base_types<char,std::allocator<char> > >::_Getal
	mov	ecx, eax
	call	?max_size@?$_Wrap_alloc@V?$allocator@D@std@@@std@@QBEIXZ ; std::_Wrap_alloc<std::allocator<char> >::max_size
	mov	DWORD PTR __Num$[ebp], eax

; 1760 : 		return (_Num <= 1 ? 1 : _Num - 1);

	cmp	DWORD PTR __Num$[ebp], 1
	ja	SHORT $LN3@max_size
	mov	DWORD PTR tv75[ebp], 1
	jmp	SHORT $LN4@max_size
$LN3@max_size:
	mov	eax, DWORD PTR __Num$[ebp]
	sub	eax, 1
	mov	DWORD PTR tv75[ebp], eax
$LN4@max_size:
	mov	eax, DWORD PTR tv75[ebp]

; 1761 : 		}

	pop	edi
	pop	esi
	pop	ebx
	add	esp, 232				; 000000e8H
	cmp	ebp, esp
	call	__RTC_CheckEsp
	mov	esp, ebp
	pop	ebp
	ret	0
?max_size@?$basic_string@DU?$char_traits@D@std@@V?$allocator@D@2@@std@@QBEIXZ ENDP ; std::basic_string<char,std::char_traits<char>,std::allocator<char> >::max_size
_TEXT	ENDS
; Function compile flags: /Odtp /RTCsu /ZI
; File c:\program files (x86)\microsoft visual studio 12.0\vc\include\xstring
;	COMDAT ?size@?$basic_string@DU?$char_traits@D@std@@V?$allocator@D@2@@std@@QBEIXZ
_TEXT	SEGMENT
_this$ = -8						; size = 4
?size@?$basic_string@DU?$char_traits@D@std@@V?$allocator@D@2@@std@@QBEIXZ PROC ; std::basic_string<char,std::char_traits<char>,std::allocator<char> >::size, COMDAT
; _this$ = ecx

; 1753 : 		{	// return length of sequence

	push	ebp
	mov	ebp, esp
	sub	esp, 204				; 000000ccH
	push	ebx
	push	esi
	push	edi
	push	ecx
	lea	edi, DWORD PTR [ebp-204]
	mov	ecx, 51					; 00000033H
	mov	eax, -858993460				; ccccccccH
	rep stosd
	pop	ecx
	mov	DWORD PTR _this$[ebp], ecx

; 1754 : 		return (this->_Mysize);

	mov	eax, DWORD PTR _this$[ebp]
	mov	eax, DWORD PTR [eax+20]

; 1755 : 		}

	pop	edi
	pop	esi
	pop	ebx
	mov	esp, ebp
	pop	ebp
	ret	0
?size@?$basic_string@DU?$char_traits@D@std@@V?$allocator@D@2@@std@@QBEIXZ ENDP ; std::basic_string<char,std::char_traits<char>,std::allocator<char> >::size
_TEXT	ENDS
; Function compile flags: /Odtp /RTCsu /ZI
; File c:\program files (x86)\microsoft visual studio 12.0\vc\include\xstring
;	COMDAT ?erase@?$basic_string@DU?$char_traits@D@std@@V?$allocator@D@2@@std@@QAEAAV12@II@Z
_TEXT	SEGMENT
__Newsize$1 = -32					; size = 4
__Ptr$2 = -20						; size = 4
_this$ = -8						; size = 4
__Off$ = 8						; size = 4
__Count$ = 12						; size = 4
?erase@?$basic_string@DU?$char_traits@D@std@@V?$allocator@D@2@@std@@QAEAAV12@II@Z PROC ; std::basic_string<char,std::char_traits<char>,std::allocator<char> >::erase, COMDAT
; _this$ = ecx

; 1342 : 		{	// erase elements [_Off, _Off + _Count)

	push	ebp
	mov	ebp, esp
	sub	esp, 228				; 000000e4H
	push	ebx
	push	esi
	push	edi
	push	ecx
	lea	edi, DWORD PTR [ebp-228]
	mov	ecx, 57					; 00000039H
	mov	eax, -858993460				; ccccccccH
	rep stosd
	pop	ecx
	mov	DWORD PTR _this$[ebp], ecx

; 1343 : 		if (this->_Mysize < _Off)

	mov	eax, DWORD PTR _this$[ebp]
	mov	ecx, DWORD PTR [eax+20]
	cmp	ecx, DWORD PTR __Off$[ebp]
	jae	SHORT $LN4@erase

; 1344 : 			_Xran();	// _Off off end

	mov	ecx, DWORD PTR _this$[ebp]
	call	?_Xran@?$basic_string@DU?$char_traits@D@std@@V?$allocator@D@2@@std@@QBEXXZ ; std::basic_string<char,std::char_traits<char>,std::allocator<char> >::_Xran
$LN4@erase:

; 1345 : 		if (this->_Mysize - _Off <= _Count)

	mov	eax, DWORD PTR _this$[ebp]
	mov	ecx, DWORD PTR [eax+20]
	sub	ecx, DWORD PTR __Off$[ebp]
	cmp	ecx, DWORD PTR __Count$[ebp]
	ja	SHORT $LN3@erase

; 1346 : 			_Eos(_Off);	// erase elements [_Off, ...)

	mov	eax, DWORD PTR __Off$[ebp]
	push	eax
	mov	ecx, DWORD PTR _this$[ebp]
	call	?_Eos@?$basic_string@DU?$char_traits@D@std@@V?$allocator@D@2@@std@@QAEXI@Z ; std::basic_string<char,std::char_traits<char>,std::allocator<char> >::_Eos
	jmp	SHORT $LN2@erase
$LN3@erase:

; 1347 : 		else if (0 < _Count)

	cmp	DWORD PTR __Count$[ebp], 0
	jbe	SHORT $LN2@erase

; 1348 : 			{	// move elements down
; 1349 : 			value_type *_Ptr = this->_Myptr() + _Off;

	mov	ecx, DWORD PTR _this$[ebp]
	call	?_Myptr@?$_String_val@U?$_Simple_types@D@std@@@std@@QAEPADXZ ; std::_String_val<std::_Simple_types<char> >::_Myptr
	add	eax, DWORD PTR __Off$[ebp]
	mov	DWORD PTR __Ptr$2[ebp], eax

; 1350 : 			size_type _Newsize = this->_Mysize - _Count;

	mov	eax, DWORD PTR _this$[ebp]
	mov	ecx, DWORD PTR [eax+20]
	sub	ecx, DWORD PTR __Count$[ebp]
	mov	DWORD PTR __Newsize$1[ebp], ecx

; 1351 : 			_Traits::move(_Ptr, _Ptr + _Count, _Newsize - _Off);

	mov	eax, DWORD PTR __Newsize$1[ebp]
	sub	eax, DWORD PTR __Off$[ebp]
	push	eax
	mov	ecx, DWORD PTR __Ptr$2[ebp]
	add	ecx, DWORD PTR __Count$[ebp]
	push	ecx
	mov	edx, DWORD PTR __Ptr$2[ebp]
	push	edx
	call	?move@?$char_traits@D@std@@SAPADPADPBDI@Z ; std::char_traits<char>::move
	add	esp, 12					; 0000000cH

; 1352 : 			_Eos(_Newsize);

	mov	eax, DWORD PTR __Newsize$1[ebp]
	push	eax
	mov	ecx, DWORD PTR _this$[ebp]
	call	?_Eos@?$basic_string@DU?$char_traits@D@std@@V?$allocator@D@2@@std@@QAEXI@Z ; std::basic_string<char,std::char_traits<char>,std::allocator<char> >::_Eos
$LN2@erase:

; 1353 : 			}
; 1354 : 		return (*this);

	mov	eax, DWORD PTR _this$[ebp]
$LN6@erase:

; 1355 : 		}

	pop	edi
	pop	esi
	pop	ebx
	add	esp, 228				; 000000e4H
	cmp	ebp, esp
	call	__RTC_CheckEsp
	mov	esp, ebp
	pop	ebp
	ret	8
?erase@?$basic_string@DU?$char_traits@D@std@@V?$allocator@D@2@@std@@QAEAAV12@II@Z ENDP ; std::basic_string<char,std::char_traits<char>,std::allocator<char> >::erase
_TEXT	ENDS
; Function compile flags: /Odtp /RTCsu /ZI
; File c:\program files (x86)\microsoft visual studio 12.0\vc\include\xstring
;	COMDAT ?erase@?$basic_string@DU?$char_traits@D@std@@V?$allocator@D@2@@std@@QAEAAV12@I@Z
_TEXT	SEGMENT
_this$ = -8						; size = 4
__Off$ = 8						; size = 4
?erase@?$basic_string@DU?$char_traits@D@std@@V?$allocator@D@2@@std@@QAEAAV12@I@Z PROC ; std::basic_string<char,std::char_traits<char>,std::allocator<char> >::erase, COMDAT
; _this$ = ecx

; 1334 : 		{	// erase elements [_Off, ...)

	push	ebp
	mov	ebp, esp
	sub	esp, 204				; 000000ccH
	push	ebx
	push	esi
	push	edi
	push	ecx
	lea	edi, DWORD PTR [ebp-204]
	mov	ecx, 51					; 00000033H
	mov	eax, -858993460				; ccccccccH
	rep stosd
	pop	ecx
	mov	DWORD PTR _this$[ebp], ecx

; 1335 : 		if (this->_Mysize < _Off)

	mov	eax, DWORD PTR _this$[ebp]
	mov	ecx, DWORD PTR [eax+20]
	cmp	ecx, DWORD PTR __Off$[ebp]
	jae	SHORT $LN1@erase

; 1336 : 			_Xran();	// _Off off end

	mov	ecx, DWORD PTR _this$[ebp]
	call	?_Xran@?$basic_string@DU?$char_traits@D@std@@V?$allocator@D@2@@std@@QBEXXZ ; std::basic_string<char,std::char_traits<char>,std::allocator<char> >::_Xran
$LN1@erase:

; 1337 : 		_Eos(_Off);

	mov	eax, DWORD PTR __Off$[ebp]
	push	eax
	mov	ecx, DWORD PTR _this$[ebp]
	call	?_Eos@?$basic_string@DU?$char_traits@D@std@@V?$allocator@D@2@@std@@QAEXI@Z ; std::basic_string<char,std::char_traits<char>,std::allocator<char> >::_Eos

; 1338 : 		return (*this);

	mov	eax, DWORD PTR _this$[ebp]
$LN3@erase:

; 1339 : 		}

	pop	edi
	pop	esi
	pop	ebx
	add	esp, 204				; 000000ccH
	cmp	ebp, esp
	call	__RTC_CheckEsp
	mov	esp, ebp
	pop	ebp
	ret	4
?erase@?$basic_string@DU?$char_traits@D@std@@V?$allocator@D@2@@std@@QAEAAV12@I@Z ENDP ; std::basic_string<char,std::char_traits<char>,std::allocator<char> >::erase
_TEXT	ENDS
; Function compile flags: /Odtp /RTCsu /ZI
; File c:\program files (x86)\microsoft visual studio 12.0\vc\include\xstring
;	COMDAT ?assign@?$basic_string@DU?$char_traits@D@std@@V?$allocator@D@2@@std@@QAEAAV12@PBD@Z
_TEXT	SEGMENT
_this$ = -8						; size = 4
__Ptr$ = 8						; size = 4
?assign@?$basic_string@DU?$char_traits@D@std@@V?$allocator@D@2@@std@@QAEAAV12@PBD@Z PROC ; std::basic_string<char,std::char_traits<char>,std::allocator<char> >::assign, COMDAT
; _this$ = ecx

; 1167 : 		{	// assign [_Ptr, <null>)

	push	ebp
	mov	ebp, esp
	sub	esp, 204				; 000000ccH
	push	ebx
	push	esi
	push	edi
	push	ecx
	lea	edi, DWORD PTR [ebp-204]
	mov	ecx, 51					; 00000033H
	mov	eax, -858993460				; ccccccccH
	rep stosd
	pop	ecx
	mov	DWORD PTR _this$[ebp], ecx

; 1168 : 		_DEBUG_POINTER(_Ptr);

	push	1168					; 00000490H
	push	OFFSET ??_C@_1IO@JLPDPDPD@?$AAc?$AA?3?$AA?2?$AAp?$AAr?$AAo?$AAg?$AAr?$AAa?$AAm?$AA?5?$AAf?$AAi?$AAl?$AAe?$AAs?$AA?5?$AA?$CI?$AAx?$AA8?$AA6?$AA?$CJ?$AA?2?$AAm?$AAi?$AAc?$AAr?$AAo?$AAs?$AAo?$AAf?$AAt@
	mov	eax, DWORD PTR __Ptr$[ebp]
	push	eax
	call	??$_Debug_pointer@D@std@@YAXPBDPB_WI@Z	; std::_Debug_pointer<char>
	add	esp, 12					; 0000000cH

; 1169 : 		return (assign(_Ptr, _Traits::length(_Ptr)));

	mov	eax, DWORD PTR __Ptr$[ebp]
	push	eax
	call	?length@?$char_traits@D@std@@SAIPBD@Z	; std::char_traits<char>::length
	add	esp, 4
	push	eax
	mov	ecx, DWORD PTR __Ptr$[ebp]
	push	ecx
	mov	ecx, DWORD PTR _this$[ebp]
	call	?assign@?$basic_string@DU?$char_traits@D@std@@V?$allocator@D@2@@std@@QAEAAV12@PBDI@Z ; std::basic_string<char,std::char_traits<char>,std::allocator<char> >::assign

; 1170 : 		}

	pop	edi
	pop	esi
	pop	ebx
	add	esp, 204				; 000000ccH
	cmp	ebp, esp
	call	__RTC_CheckEsp
	mov	esp, ebp
	pop	ebp
	ret	4
?assign@?$basic_string@DU?$char_traits@D@std@@V?$allocator@D@2@@std@@QAEAAV12@PBD@Z ENDP ; std::basic_string<char,std::char_traits<char>,std::allocator<char> >::assign
_TEXT	ENDS
; Function compile flags: /Odtp /RTCsu /ZI
; File c:\program files (x86)\microsoft visual studio 12.0\vc\include\xstring
;	COMDAT ?assign@?$basic_string@DU?$char_traits@D@std@@V?$allocator@D@2@@std@@QAEAAV12@PBDI@Z
_TEXT	SEGMENT
_this$ = -8						; size = 4
__Ptr$ = 8						; size = 4
__Count$ = 12						; size = 4
?assign@?$basic_string@DU?$char_traits@D@std@@V?$allocator@D@2@@std@@QAEAAV12@PBDI@Z PROC ; std::basic_string<char,std::char_traits<char>,std::allocator<char> >::assign, COMDAT
; _this$ = ecx

; 1148 : 		{	// assign [_Ptr, _Ptr + _Count)

	push	ebp
	mov	ebp, esp
	sub	esp, 204				; 000000ccH
	push	ebx
	push	esi
	push	edi
	push	ecx
	lea	edi, DWORD PTR [ebp-204]
	mov	ecx, 51					; 00000033H
	mov	eax, -858993460				; ccccccccH
	rep stosd
	pop	ecx
	mov	DWORD PTR _this$[ebp], ecx

; 1149 :  #if _ITERATOR_DEBUG_LEVEL == 2
; 1150 : 		if (_Count != 0)

	cmp	DWORD PTR __Count$[ebp], 0
	je	SHORT $LN3@assign

; 1151 : 			_DEBUG_POINTER(_Ptr);

	push	1151					; 0000047fH
	push	OFFSET ??_C@_1IO@JLPDPDPD@?$AAc?$AA?3?$AA?2?$AAp?$AAr?$AAo?$AAg?$AAr?$AAa?$AAm?$AA?5?$AAf?$AAi?$AAl?$AAe?$AAs?$AA?5?$AA?$CI?$AAx?$AA8?$AA6?$AA?$CJ?$AA?2?$AAm?$AAi?$AAc?$AAr?$AAo?$AAs?$AAo?$AAf?$AAt@
	mov	eax, DWORD PTR __Ptr$[ebp]
	push	eax
	call	??$_Debug_pointer@D@std@@YAXPBDPB_WI@Z	; std::_Debug_pointer<char>
	add	esp, 12					; 0000000cH
$LN3@assign:

; 1152 :  #endif /* _ITERATOR_DEBUG_LEVEL == 2 */
; 1153 : 
; 1154 : 		if (_Inside(_Ptr))

	mov	eax, DWORD PTR __Ptr$[ebp]
	push	eax
	mov	ecx, DWORD PTR _this$[ebp]
	call	?_Inside@?$basic_string@DU?$char_traits@D@std@@V?$allocator@D@2@@std@@QAE_NPBD@Z ; std::basic_string<char,std::char_traits<char>,std::allocator<char> >::_Inside
	movzx	ecx, al
	test	ecx, ecx
	je	SHORT $LN2@assign

; 1155 : 			return (assign(*this,
; 1156 : 				_Ptr - this->_Myptr(), _Count));	// substring

	mov	eax, DWORD PTR __Count$[ebp]
	push	eax
	mov	ecx, DWORD PTR _this$[ebp]
	call	?_Myptr@?$_String_val@U?$_Simple_types@D@std@@@std@@QAEPADXZ ; std::_String_val<std::_Simple_types<char> >::_Myptr
	mov	ecx, DWORD PTR __Ptr$[ebp]
	sub	ecx, eax
	push	ecx
	mov	edx, DWORD PTR _this$[ebp]
	push	edx
	mov	ecx, DWORD PTR _this$[ebp]
	call	?assign@?$basic_string@DU?$char_traits@D@std@@V?$allocator@D@2@@std@@QAEAAV12@ABV12@II@Z ; std::basic_string<char,std::char_traits<char>,std::allocator<char> >::assign
	jmp	SHORT $LN4@assign
$LN2@assign:

; 1157 : 
; 1158 : 		if (_Grow(_Count))

	push	0
	mov	eax, DWORD PTR __Count$[ebp]
	push	eax
	mov	ecx, DWORD PTR _this$[ebp]
	call	?_Grow@?$basic_string@DU?$char_traits@D@std@@V?$allocator@D@2@@std@@QAE_NI_N@Z ; std::basic_string<char,std::char_traits<char>,std::allocator<char> >::_Grow
	movzx	ecx, al
	test	ecx, ecx
	je	SHORT $LN1@assign

; 1159 : 			{	// make room and assign new stuff
; 1160 : 			_Traits::copy(this->_Myptr(), _Ptr, _Count);

	mov	eax, DWORD PTR __Count$[ebp]
	push	eax
	mov	ecx, DWORD PTR __Ptr$[ebp]
	push	ecx
	mov	ecx, DWORD PTR _this$[ebp]
	call	?_Myptr@?$_String_val@U?$_Simple_types@D@std@@@std@@QAEPADXZ ; std::_String_val<std::_Simple_types<char> >::_Myptr
	push	eax
	call	?copy@?$char_traits@D@std@@SAPADPADPBDI@Z ; std::char_traits<char>::copy
	add	esp, 12					; 0000000cH

; 1161 : 			_Eos(_Count);

	mov	eax, DWORD PTR __Count$[ebp]
	push	eax
	mov	ecx, DWORD PTR _this$[ebp]
	call	?_Eos@?$basic_string@DU?$char_traits@D@std@@V?$allocator@D@2@@std@@QAEXI@Z ; std::basic_string<char,std::char_traits<char>,std::allocator<char> >::_Eos
$LN1@assign:

; 1162 : 			}
; 1163 : 		return (*this);

	mov	eax, DWORD PTR _this$[ebp]
$LN4@assign:

; 1164 : 		}

	pop	edi
	pop	esi
	pop	ebx
	add	esp, 204				; 000000ccH
	cmp	ebp, esp
	call	__RTC_CheckEsp
	mov	esp, ebp
	pop	ebp
	ret	8
?assign@?$basic_string@DU?$char_traits@D@std@@V?$allocator@D@2@@std@@QAEAAV12@PBDI@Z ENDP ; std::basic_string<char,std::char_traits<char>,std::allocator<char> >::assign
_TEXT	ENDS
; Function compile flags: /Odtp /RTCsu /ZI
; File c:\program files (x86)\microsoft visual studio 12.0\vc\include\xstring
;	COMDAT ?assign@?$basic_string@DU?$char_traits@D@std@@V?$allocator@D@2@@std@@QAEAAV12@ABV12@II@Z
_TEXT	SEGMENT
__Num$ = -20						; size = 4
_this$ = -8						; size = 4
__Right$ = 8						; size = 4
__Roff$ = 12						; size = 4
__Count$ = 16						; size = 4
?assign@?$basic_string@DU?$char_traits@D@std@@V?$allocator@D@2@@std@@QAEAAV12@ABV12@II@Z PROC ; std::basic_string<char,std::char_traits<char>,std::allocator<char> >::assign, COMDAT
; _this$ = ecx

; 1129 : 		{	// assign _Right [_Roff, _Roff + _Count)

	push	ebp
	mov	ebp, esp
	sub	esp, 216				; 000000d8H
	push	ebx
	push	esi
	push	edi
	push	ecx
	lea	edi, DWORD PTR [ebp-216]
	mov	ecx, 54					; 00000036H
	mov	eax, -858993460				; ccccccccH
	rep stosd
	pop	ecx
	mov	DWORD PTR _this$[ebp], ecx

; 1130 : 		if (_Right.size() < _Roff)

	mov	ecx, DWORD PTR __Right$[ebp]
	call	?size@?$basic_string@DU?$char_traits@D@std@@V?$allocator@D@2@@std@@QBEIXZ ; std::basic_string<char,std::char_traits<char>,std::allocator<char> >::size
	cmp	eax, DWORD PTR __Roff$[ebp]
	jae	SHORT $LN5@assign

; 1131 : 			_Xran();	// _Roff off end

	mov	ecx, DWORD PTR _this$[ebp]
	call	?_Xran@?$basic_string@DU?$char_traits@D@std@@V?$allocator@D@2@@std@@QBEXXZ ; std::basic_string<char,std::char_traits<char>,std::allocator<char> >::_Xran
$LN5@assign:

; 1132 : 		size_type _Num = _Right.size() - _Roff;

	mov	ecx, DWORD PTR __Right$[ebp]
	call	?size@?$basic_string@DU?$char_traits@D@std@@V?$allocator@D@2@@std@@QBEIXZ ; std::basic_string<char,std::char_traits<char>,std::allocator<char> >::size
	sub	eax, DWORD PTR __Roff$[ebp]
	mov	DWORD PTR __Num$[ebp], eax

; 1133 : 		if (_Count < _Num)

	mov	eax, DWORD PTR __Count$[ebp]
	cmp	eax, DWORD PTR __Num$[ebp]
	jae	SHORT $LN4@assign

; 1134 : 			_Num = _Count;	// trim _Num to size

	mov	eax, DWORD PTR __Count$[ebp]
	mov	DWORD PTR __Num$[ebp], eax
$LN4@assign:

; 1135 : 
; 1136 : 		if (this == &_Right)

	mov	eax, DWORD PTR _this$[ebp]
	cmp	eax, DWORD PTR __Right$[ebp]
	jne	SHORT $LN3@assign

; 1137 : 			erase((size_type)(_Roff + _Num)), erase(0, _Roff);	// substring

	mov	eax, DWORD PTR __Roff$[ebp]
	add	eax, DWORD PTR __Num$[ebp]
	push	eax
	mov	ecx, DWORD PTR _this$[ebp]
	call	?erase@?$basic_string@DU?$char_traits@D@std@@V?$allocator@D@2@@std@@QAEAAV12@I@Z ; std::basic_string<char,std::char_traits<char>,std::allocator<char> >::erase
	mov	ecx, DWORD PTR __Roff$[ebp]
	push	ecx
	push	0
	mov	ecx, DWORD PTR _this$[ebp]
	call	?erase@?$basic_string@DU?$char_traits@D@std@@V?$allocator@D@2@@std@@QAEAAV12@II@Z ; std::basic_string<char,std::char_traits<char>,std::allocator<char> >::erase
	jmp	SHORT $LN2@assign
$LN3@assign:

; 1138 : 		else if (_Grow(_Num))

	push	0
	mov	eax, DWORD PTR __Num$[ebp]
	push	eax
	mov	ecx, DWORD PTR _this$[ebp]
	call	?_Grow@?$basic_string@DU?$char_traits@D@std@@V?$allocator@D@2@@std@@QAE_NI_N@Z ; std::basic_string<char,std::char_traits<char>,std::allocator<char> >::_Grow
	movzx	ecx, al
	test	ecx, ecx
	je	SHORT $LN2@assign

; 1139 : 			{	// make room and assign new stuff
; 1140 : 			_Traits::copy(this->_Myptr(),
; 1141 : 				_Right._Myptr() + _Roff, _Num);

	mov	eax, DWORD PTR __Num$[ebp]
	push	eax
	mov	ecx, DWORD PTR __Right$[ebp]
	call	?_Myptr@?$_String_val@U?$_Simple_types@D@std@@@std@@QBEPBDXZ ; std::_String_val<std::_Simple_types<char> >::_Myptr
	add	eax, DWORD PTR __Roff$[ebp]
	push	eax
	mov	ecx, DWORD PTR _this$[ebp]
	call	?_Myptr@?$_String_val@U?$_Simple_types@D@std@@@std@@QAEPADXZ ; std::_String_val<std::_Simple_types<char> >::_Myptr
	push	eax
	call	?copy@?$char_traits@D@std@@SAPADPADPBDI@Z ; std::char_traits<char>::copy
	add	esp, 12					; 0000000cH

; 1142 : 			_Eos(_Num);

	mov	eax, DWORD PTR __Num$[ebp]
	push	eax
	mov	ecx, DWORD PTR _this$[ebp]
	call	?_Eos@?$basic_string@DU?$char_traits@D@std@@V?$allocator@D@2@@std@@QAEXI@Z ; std::basic_string<char,std::char_traits<char>,std::allocator<char> >::_Eos
$LN2@assign:

; 1143 : 			}
; 1144 : 		return (*this);

	mov	eax, DWORD PTR _this$[ebp]
$LN7@assign:

; 1145 : 		}

	pop	edi
	pop	esi
	pop	ebx
	add	esp, 216				; 000000d8H
	cmp	ebp, esp
	call	__RTC_CheckEsp
	mov	esp, ebp
	pop	ebp
	ret	12					; 0000000cH
?assign@?$basic_string@DU?$char_traits@D@std@@V?$allocator@D@2@@std@@QAEAAV12@ABV12@II@Z ENDP ; std::basic_string<char,std::char_traits<char>,std::allocator<char> >::assign
_TEXT	ENDS
; Function compile flags: /Odtp /RTCsu /ZI
; File c:\program files (x86)\microsoft visual studio 12.0\vc\include\xstring
;	COMDAT ??1?$basic_string@DU?$char_traits@D@std@@V?$allocator@D@2@@std@@QAE@XZ
_TEXT	SEGMENT
_this$ = -8						; size = 4
??1?$basic_string@DU?$char_traits@D@std@@V?$allocator@D@2@@std@@QAE@XZ PROC ; std::basic_string<char,std::char_traits<char>,std::allocator<char> >::~basic_string<char,std::char_traits<char>,std::allocator<char> >, COMDAT
; _this$ = ecx

; 990  : 		{	// destroy the string

	push	ebp
	mov	ebp, esp
	sub	esp, 204				; 000000ccH
	push	ebx
	push	esi
	push	edi
	push	ecx
	lea	edi, DWORD PTR [ebp-204]
	mov	ecx, 51					; 00000033H
	mov	eax, -858993460				; ccccccccH
	rep stosd
	pop	ecx
	mov	DWORD PTR _this$[ebp], ecx

; 991  : 		_Tidy(true);

	push	0
	push	1
	mov	ecx, DWORD PTR _this$[ebp]
	call	?_Tidy@?$basic_string@DU?$char_traits@D@std@@V?$allocator@D@2@@std@@QAEX_NI@Z ; std::basic_string<char,std::char_traits<char>,std::allocator<char> >::_Tidy

; 992  : 		}

	mov	ecx, DWORD PTR _this$[ebp]
	call	??1?$_String_alloc@$0A@U?$_String_base_types@DV?$allocator@D@std@@@std@@@std@@QAE@XZ ; std::_String_alloc<0,std::_String_base_types<char,std::allocator<char> > >::~_String_alloc<0,std::_String_base_types<char,std::allocator<char> > >
	pop	edi
	pop	esi
	pop	ebx
	add	esp, 204				; 000000ccH
	cmp	ebp, esp
	call	__RTC_CheckEsp
	mov	esp, ebp
	pop	ebp
	ret	0
??1?$basic_string@DU?$char_traits@D@std@@V?$allocator@D@2@@std@@QAE@XZ ENDP ; std::basic_string<char,std::char_traits<char>,std::allocator<char> >::~basic_string<char,std::char_traits<char>,std::allocator<char> >
_TEXT	ENDS
; Function compile flags: /Odtp /RTCsu /ZI
; File c:\program files (x86)\microsoft visual studio 12.0\vc\include\xstring
;	COMDAT ??0?$basic_string@DU?$char_traits@D@std@@V?$allocator@D@2@@std@@QAE@PBD@Z
_TEXT	SEGMENT
$T2 = -221						; size = 1
_this$ = -20						; size = 4
__$EHRec$ = -12						; size = 12
__Ptr$ = 8						; size = 4
??0?$basic_string@DU?$char_traits@D@std@@V?$allocator@D@2@@std@@QAE@PBD@Z PROC ; std::basic_string<char,std::char_traits<char>,std::allocator<char> >::basic_string<char,std::char_traits<char>,std::allocator<char> >, COMDAT
; _this$ = ecx

; 780  : 		{	// construct from [_Ptr, <null>)

	push	ebp
	mov	ebp, esp
	push	-1
	push	__ehhandler$??0?$basic_string@DU?$char_traits@D@std@@V?$allocator@D@2@@std@@QAE@PBD@Z
	mov	eax, DWORD PTR fs:0
	push	eax
	sub	esp, 216				; 000000d8H
	push	ebx
	push	esi
	push	edi
	push	ecx
	lea	edi, DWORD PTR [ebp-228]
	mov	ecx, 54					; 00000036H
	mov	eax, -858993460				; ccccccccH
	rep stosd
	pop	ecx
	mov	eax, DWORD PTR ___security_cookie
	xor	eax, ebp
	push	eax
	lea	eax, DWORD PTR __$EHRec$[ebp]
	mov	DWORD PTR fs:0, eax
	mov	DWORD PTR _this$[ebp], ecx
	lea	ecx, DWORD PTR $T2[ebp]
	call	??0?$allocator@D@std@@QAE@XZ		; std::allocator<char>::allocator<char>
	push	eax
	mov	ecx, DWORD PTR _this$[ebp]
	call	??0?$_String_alloc@$0A@U?$_String_base_types@DV?$allocator@D@std@@@std@@@std@@QAE@ABV?$allocator@D@1@@Z ; std::_String_alloc<0,std::_String_base_types<char,std::allocator<char> > >::_String_alloc<0,std::_String_base_types<char,std::allocator<char> > >
	mov	DWORD PTR __$EHRec$[ebp+8], 0

; 781  : 		_Tidy();

	push	0
	push	0
	mov	ecx, DWORD PTR _this$[ebp]
	call	?_Tidy@?$basic_string@DU?$char_traits@D@std@@V?$allocator@D@2@@std@@QAEX_NI@Z ; std::basic_string<char,std::char_traits<char>,std::allocator<char> >::_Tidy

; 782  : 		assign(_Ptr);

	mov	eax, DWORD PTR __Ptr$[ebp]
	push	eax
	mov	ecx, DWORD PTR _this$[ebp]
	call	?assign@?$basic_string@DU?$char_traits@D@std@@V?$allocator@D@2@@std@@QAEAAV12@PBD@Z ; std::basic_string<char,std::char_traits<char>,std::allocator<char> >::assign

; 783  : 		}

	mov	DWORD PTR __$EHRec$[ebp+8], -1
	mov	eax, DWORD PTR _this$[ebp]
	mov	ecx, DWORD PTR __$EHRec$[ebp]
	mov	DWORD PTR fs:0, ecx
	pop	ecx
	pop	edi
	pop	esi
	pop	ebx
	add	esp, 228				; 000000e4H
	cmp	ebp, esp
	call	__RTC_CheckEsp
	mov	esp, ebp
	pop	ebp
	ret	4
_TEXT	ENDS
;	COMDAT text$x
text$x	SEGMENT
__unwindfunclet$??0?$basic_string@DU?$char_traits@D@std@@V?$allocator@D@2@@std@@QAE@PBD@Z$0:
	mov	ecx, DWORD PTR _this$[ebp]
	jmp	??1?$_String_alloc@$0A@U?$_String_base_types@DV?$allocator@D@std@@@std@@@std@@QAE@XZ ; std::_String_alloc<0,std::_String_base_types<char,std::allocator<char> > >::~_String_alloc<0,std::_String_base_types<char,std::allocator<char> > >
__ehhandler$??0?$basic_string@DU?$char_traits@D@std@@V?$allocator@D@2@@std@@QAE@PBD@Z:
	mov	edx, DWORD PTR [esp+8]
	lea	eax, DWORD PTR [edx+12]
	mov	ecx, DWORD PTR [edx-232]
	xor	ecx, eax
	call	@__security_check_cookie@4
	mov	eax, OFFSET __ehfuncinfo$??0?$basic_string@DU?$char_traits@D@std@@V?$allocator@D@2@@std@@QAE@PBD@Z
	jmp	___CxxFrameHandler3
text$x	ENDS
??0?$basic_string@DU?$char_traits@D@std@@V?$allocator@D@2@@std@@QAE@PBD@Z ENDP ; std::basic_string<char,std::char_traits<char>,std::allocator<char> >::basic_string<char,std::char_traits<char>,std::allocator<char> >
; Function compile flags: /Odtp /RTCsu /ZI
; File c:\program files (x86)\microsoft visual studio 12.0\vc\include\xstring
;	COMDAT ??0?$basic_string@DU?$char_traits@D@std@@V?$allocator@D@2@@std@@QAE@ABV01@@Z
_TEXT	SEGMENT
$T2 = -233						; size = 1
$T3 = -221						; size = 1
_this$ = -20						; size = 4
__$EHRec$ = -12						; size = 12
__Right$ = 8						; size = 4
??0?$basic_string@DU?$char_traits@D@std@@V?$allocator@D@2@@std@@QAE@ABV01@@Z PROC ; std::basic_string<char,std::char_traits<char>,std::allocator<char> >::basic_string<char,std::char_traits<char>,std::allocator<char> >, COMDAT
; _this$ = ecx

; 724  : 		{	// construct by copying _Right

	push	ebp
	mov	ebp, esp
	push	-1
	push	__ehhandler$??0?$basic_string@DU?$char_traits@D@std@@V?$allocator@D@2@@std@@QAE@ABV01@@Z
	mov	eax, DWORD PTR fs:0
	push	eax
	sub	esp, 228				; 000000e4H
	push	ebx
	push	esi
	push	edi
	push	ecx
	lea	edi, DWORD PTR [ebp-240]
	mov	ecx, 57					; 00000039H
	mov	eax, -858993460				; ccccccccH
	rep stosd
	pop	ecx
	mov	eax, DWORD PTR ___security_cookie
	xor	eax, ebp
	push	eax
	lea	eax, DWORD PTR __$EHRec$[ebp]
	mov	DWORD PTR fs:0, eax
	mov	DWORD PTR _this$[ebp], ecx
	lea	eax, DWORD PTR $T3[ebp]
	push	eax
	lea	ecx, DWORD PTR $T2[ebp]
	push	ecx
	mov	ecx, DWORD PTR __Right$[ebp]
	call	?_Getal@?$_String_alloc@$0A@U?$_String_base_types@DV?$allocator@D@std@@@std@@@std@@QBE?AU?$_Wrap_alloc@V?$allocator@D@std@@@2@XZ ; std::_String_alloc<0,std::_String_base_types<char,std::allocator<char> > >::_Getal
	mov	ecx, eax
	call	?select_on_container_copy_construction@?$_Wrap_alloc@V?$allocator@D@std@@@std@@QBE?AU12@XZ ; std::_Wrap_alloc<std::allocator<char> >::select_on_container_copy_construction
	push	eax
	mov	ecx, DWORD PTR _this$[ebp]
	call	??0?$_String_alloc@$0A@U?$_String_base_types@DV?$allocator@D@std@@@std@@@std@@QAE@ABV?$allocator@D@1@@Z ; std::_String_alloc<0,std::_String_base_types<char,std::allocator<char> > >::_String_alloc<0,std::_String_base_types<char,std::allocator<char> > >
	mov	DWORD PTR __$EHRec$[ebp+8], 0

; 725  : 		_Tidy();

	push	0
	push	0
	mov	ecx, DWORD PTR _this$[ebp]
	call	?_Tidy@?$basic_string@DU?$char_traits@D@std@@V?$allocator@D@2@@std@@QAEX_NI@Z ; std::basic_string<char,std::char_traits<char>,std::allocator<char> >::_Tidy

; 726  : 		assign(_Right, 0, npos);

	mov	eax, DWORD PTR ?npos@?$basic_string@DU?$char_traits@D@std@@V?$allocator@D@2@@std@@2IB ; std::basic_string<char,std::char_traits<char>,std::allocator<char> >::npos
	push	eax
	push	0
	mov	ecx, DWORD PTR __Right$[ebp]
	push	ecx
	mov	ecx, DWORD PTR _this$[ebp]
	call	?assign@?$basic_string@DU?$char_traits@D@std@@V?$allocator@D@2@@std@@QAEAAV12@ABV12@II@Z ; std::basic_string<char,std::char_traits<char>,std::allocator<char> >::assign

; 727  : 		}

	mov	DWORD PTR __$EHRec$[ebp+8], -1
	mov	eax, DWORD PTR _this$[ebp]
	mov	ecx, DWORD PTR __$EHRec$[ebp]
	mov	DWORD PTR fs:0, ecx
	pop	ecx
	pop	edi
	pop	esi
	pop	ebx
	add	esp, 240				; 000000f0H
	cmp	ebp, esp
	call	__RTC_CheckEsp
	mov	esp, ebp
	pop	ebp
	ret	4
_TEXT	ENDS
;	COMDAT text$x
text$x	SEGMENT
__unwindfunclet$??0?$basic_string@DU?$char_traits@D@std@@V?$allocator@D@2@@std@@QAE@ABV01@@Z$0:
	mov	ecx, DWORD PTR _this$[ebp]
	jmp	??1?$_String_alloc@$0A@U?$_String_base_types@DV?$allocator@D@std@@@std@@@std@@QAE@XZ ; std::_String_alloc<0,std::_String_base_types<char,std::allocator<char> > >::~_String_alloc<0,std::_String_base_types<char,std::allocator<char> > >
__ehhandler$??0?$basic_string@DU?$char_traits@D@std@@V?$allocator@D@2@@std@@QAE@ABV01@@Z:
	mov	edx, DWORD PTR [esp+8]
	lea	eax, DWORD PTR [edx+12]
	mov	ecx, DWORD PTR [edx-244]
	xor	ecx, eax
	call	@__security_check_cookie@4
	mov	eax, OFFSET __ehfuncinfo$??0?$basic_string@DU?$char_traits@D@std@@V?$allocator@D@2@@std@@QAE@ABV01@@Z
	jmp	___CxxFrameHandler3
text$x	ENDS
??0?$basic_string@DU?$char_traits@D@std@@V?$allocator@D@2@@std@@QAE@ABV01@@Z ENDP ; std::basic_string<char,std::char_traits<char>,std::allocator<char> >::basic_string<char,std::char_traits<char>,std::allocator<char> >
; Function compile flags: /Odtp /RTCsu /ZI
; File c:\program files (x86)\microsoft visual studio 12.0\vc\include\xstring
;	COMDAT ?_Getal@?$_String_alloc@$0A@U?$_String_base_types@DV?$allocator@D@std@@@std@@@std@@QBE?AU?$_Wrap_alloc@V?$allocator@D@std@@@2@XZ
_TEXT	SEGMENT
_this$ = -8						; size = 4
___$ReturnUdt$ = 8					; size = 4
?_Getal@?$_String_alloc@$0A@U?$_String_base_types@DV?$allocator@D@std@@@std@@@std@@QBE?AU?$_Wrap_alloc@V?$allocator@D@std@@@2@XZ PROC ; std::_String_alloc<0,std::_String_base_types<char,std::allocator<char> > >::_Getal, COMDAT
; _this$ = ecx

; 683  : 		{	// get reference to allocator

	push	ebp
	mov	ebp, esp
	sub	esp, 204				; 000000ccH
	push	ebx
	push	esi
	push	edi
	push	ecx
	lea	edi, DWORD PTR [ebp-204]
	mov	ecx, 51					; 00000033H
	mov	eax, -858993460				; ccccccccH
	rep stosd
	pop	ecx
	mov	DWORD PTR _this$[ebp], ecx

; 684  : 		return (_Alty());

	mov	ecx, DWORD PTR ___$ReturnUdt$[ebp]
	call	??0?$_Wrap_alloc@V?$allocator@D@std@@@std@@QAE@XZ ; std::_Wrap_alloc<std::allocator<char> >::_Wrap_alloc<std::allocator<char> >
	mov	eax, DWORD PTR ___$ReturnUdt$[ebp]

; 685  : 		}

	pop	edi
	pop	esi
	pop	ebx
	add	esp, 204				; 000000ccH
	cmp	ebp, esp
	call	__RTC_CheckEsp
	mov	esp, ebp
	pop	ebp
	ret	4
?_Getal@?$_String_alloc@$0A@U?$_String_base_types@DV?$allocator@D@std@@@std@@@std@@QBE?AU?$_Wrap_alloc@V?$allocator@D@std@@@2@XZ ENDP ; std::_String_alloc<0,std::_String_base_types<char,std::allocator<char> > >::_Getal
_TEXT	ENDS
; Function compile flags: /Odtp /RTCsu /ZI
; File c:\program files (x86)\microsoft visual studio 12.0\vc\include\xstring
;	COMDAT ?_Free_proxy@?$_String_alloc@$0A@U?$_String_base_types@DV?$allocator@D@std@@@std@@@std@@QAEXXZ
_TEXT	SEGMENT
__Alproxy$ = -17					; size = 1
_this$ = -8						; size = 4
?_Free_proxy@?$_String_alloc@$0A@U?$_String_base_types@DV?$allocator@D@std@@@std@@@std@@QAEXXZ PROC ; std::_String_alloc<0,std::_String_base_types<char,std::allocator<char> > >::_Free_proxy, COMDAT
; _this$ = ecx

; 672  : 		{	// destroy proxy

	push	ebp
	mov	ebp, esp
	sub	esp, 216				; 000000d8H
	push	ebx
	push	esi
	push	edi
	push	ecx
	lea	edi, DWORD PTR [ebp-216]
	mov	ecx, 54					; 00000036H
	mov	eax, -858993460				; ccccccccH
	rep stosd
	pop	ecx
	mov	DWORD PTR _this$[ebp], ecx

; 673  : 		typename _Alloc::template rebind<_Container_proxy>::other
; 674  : 			_Alproxy;

	lea	ecx, DWORD PTR __Alproxy$[ebp]
	call	??0?$allocator@U_Container_proxy@std@@@std@@QAE@XZ ; std::allocator<std::_Container_proxy>::allocator<std::_Container_proxy>

; 675  : 		this->_Orphan_all();

	mov	ecx, DWORD PTR _this$[ebp]
	call	?_Orphan_all@_Container_base12@std@@QAEXXZ ; std::_Container_base12::_Orphan_all

; 676  : 		_Alproxy.destroy(this->_Myproxy);

	mov	eax, DWORD PTR _this$[ebp]
	mov	ecx, DWORD PTR [eax]
	push	ecx
	lea	ecx, DWORD PTR __Alproxy$[ebp]
	call	??$destroy@U_Container_proxy@std@@@?$allocator@U_Container_proxy@std@@@std@@QAEXPAU_Container_proxy@1@@Z ; std::allocator<std::_Container_proxy>::destroy<std::_Container_proxy>

; 677  : 		_Alproxy.deallocate(this->_Myproxy, 1);

	push	1
	mov	eax, DWORD PTR _this$[ebp]
	mov	ecx, DWORD PTR [eax]
	push	ecx
	lea	ecx, DWORD PTR __Alproxy$[ebp]
	call	?deallocate@?$allocator@U_Container_proxy@std@@@std@@QAEXPAU_Container_proxy@2@I@Z ; std::allocator<std::_Container_proxy>::deallocate

; 678  : 		this->_Myproxy = 0;

	mov	eax, DWORD PTR _this$[ebp]
	mov	DWORD PTR [eax], 0

; 679  : 		}

	push	edx
	mov	ecx, ebp
	push	eax
	lea	edx, DWORD PTR $LN5@Free_proxy
	call	@_RTC_CheckStackVars@8
	pop	eax
	pop	edx
	pop	edi
	pop	esi
	pop	ebx
	add	esp, 216				; 000000d8H
	cmp	ebp, esp
	call	__RTC_CheckEsp
	mov	esp, ebp
	pop	ebp
	ret	0
	npad	1
$LN5@Free_proxy:
	DD	1
	DD	$LN4@Free_proxy
$LN4@Free_proxy:
	DD	-17					; ffffffefH
	DD	1
	DD	$LN3@Free_proxy
$LN3@Free_proxy:
	DB	95					; 0000005fH
	DB	65					; 00000041H
	DB	108					; 0000006cH
	DB	112					; 00000070H
	DB	114					; 00000072H
	DB	111					; 0000006fH
	DB	120					; 00000078H
	DB	121					; 00000079H
	DB	0
?_Free_proxy@?$_String_alloc@$0A@U?$_String_base_types@DV?$allocator@D@std@@@std@@@std@@QAEXXZ ENDP ; std::_String_alloc<0,std::_String_base_types<char,std::allocator<char> > >::_Free_proxy
_TEXT	ENDS
; Function compile flags: /Odtp /RTCsu /ZI
; File c:\program files (x86)\microsoft visual studio 12.0\vc\include\xstring
;	COMDAT ?_Alloc_proxy@?$_String_alloc@$0A@U?$_String_base_types@DV?$allocator@D@std@@@std@@@std@@QAEXXZ
_TEXT	SEGMENT
$T1 = -228						; size = 8
__Alproxy$ = -17					; size = 1
_this$ = -8						; size = 4
?_Alloc_proxy@?$_String_alloc@$0A@U?$_String_base_types@DV?$allocator@D@std@@@std@@@std@@QAEXXZ PROC ; std::_String_alloc<0,std::_String_base_types<char,std::allocator<char> > >::_Alloc_proxy, COMDAT
; _this$ = ecx

; 663  : 		{	// construct proxy from _Alval

	push	ebp
	mov	ebp, esp
	sub	esp, 232				; 000000e8H
	push	ebx
	push	esi
	push	edi
	push	ecx
	lea	edi, DWORD PTR [ebp-232]
	mov	ecx, 58					; 0000003aH
	mov	eax, -858993460				; ccccccccH
	rep stosd
	pop	ecx
	mov	DWORD PTR _this$[ebp], ecx

; 664  : 		typename _Alloc::template rebind<_Container_proxy>::other
; 665  : 			_Alproxy;

	lea	ecx, DWORD PTR __Alproxy$[ebp]
	call	??0?$allocator@U_Container_proxy@std@@@std@@QAE@XZ ; std::allocator<std::_Container_proxy>::allocator<std::_Container_proxy>

; 666  : 		this->_Myproxy = _Alproxy.allocate(1);

	push	1
	lea	ecx, DWORD PTR __Alproxy$[ebp]
	call	?allocate@?$allocator@U_Container_proxy@std@@@std@@QAEPAU_Container_proxy@2@I@Z ; std::allocator<std::_Container_proxy>::allocate
	mov	ecx, DWORD PTR _this$[ebp]
	mov	DWORD PTR [ecx], eax

; 667  : 		_Alproxy.construct(this->_Myproxy, _Container_proxy());

	lea	ecx, DWORD PTR $T1[ebp]
	call	??0_Container_proxy@std@@QAE@XZ		; std::_Container_proxy::_Container_proxy
	push	eax
	mov	eax, DWORD PTR _this$[ebp]
	mov	ecx, DWORD PTR [eax]
	push	ecx
	lea	ecx, DWORD PTR __Alproxy$[ebp]
	call	??$construct@U_Container_proxy@std@@U12@@?$allocator@U_Container_proxy@std@@@std@@QAEXPAU_Container_proxy@1@$$QAU21@@Z ; std::allocator<std::_Container_proxy>::construct<std::_Container_proxy,std::_Container_proxy>

; 668  : 		this->_Myproxy->_Mycont = this;

	mov	eax, DWORD PTR _this$[ebp]
	mov	ecx, DWORD PTR [eax]
	mov	edx, DWORD PTR _this$[ebp]
	mov	DWORD PTR [ecx], edx

; 669  : 		}

	push	edx
	mov	ecx, ebp
	push	eax
	lea	edx, DWORD PTR $LN5@Alloc_prox
	call	@_RTC_CheckStackVars@8
	pop	eax
	pop	edx
	pop	edi
	pop	esi
	pop	ebx
	add	esp, 232				; 000000e8H
	cmp	ebp, esp
	call	__RTC_CheckEsp
	mov	esp, ebp
	pop	ebp
	ret	0
	npad	1
$LN5@Alloc_prox:
	DD	1
	DD	$LN4@Alloc_prox
$LN4@Alloc_prox:
	DD	-17					; ffffffefH
	DD	1
	DD	$LN3@Alloc_prox
$LN3@Alloc_prox:
	DB	95					; 0000005fH
	DB	65					; 00000041H
	DB	108					; 0000006cH
	DB	112					; 00000070H
	DB	114					; 00000072H
	DB	111					; 0000006fH
	DB	120					; 00000078H
	DB	121					; 00000079H
	DB	0
?_Alloc_proxy@?$_String_alloc@$0A@U?$_String_base_types@DV?$allocator@D@std@@@std@@@std@@QAEXXZ ENDP ; std::_String_alloc<0,std::_String_base_types<char,std::allocator<char> > >::_Alloc_proxy
_TEXT	ENDS
; Function compile flags: /Odtp /RTCsu /ZI
; File c:\program files (x86)\microsoft visual studio 12.0\vc\include\xstring
;	COMDAT ??1?$_String_alloc@$0A@U?$_String_base_types@DV?$allocator@D@std@@@std@@@std@@QAE@XZ
_TEXT	SEGMENT
_this$ = -8						; size = 4
??1?$_String_alloc@$0A@U?$_String_base_types@DV?$allocator@D@std@@@std@@@std@@QAE@XZ PROC ; std::_String_alloc<0,std::_String_base_types<char,std::allocator<char> > >::~_String_alloc<0,std::_String_base_types<char,std::allocator<char> > >, COMDAT
; _this$ = ecx

; 649  : 		{	// destroy the object

	push	ebp
	mov	ebp, esp
	sub	esp, 204				; 000000ccH
	push	ebx
	push	esi
	push	edi
	push	ecx
	lea	edi, DWORD PTR [ebp-204]
	mov	ecx, 51					; 00000033H
	mov	eax, -858993460				; ccccccccH
	rep stosd
	pop	ecx
	mov	DWORD PTR _this$[ebp], ecx

; 650  : 		_Free_proxy();

	mov	ecx, DWORD PTR _this$[ebp]
	call	?_Free_proxy@?$_String_alloc@$0A@U?$_String_base_types@DV?$allocator@D@std@@@std@@@std@@QAEXXZ ; std::_String_alloc<0,std::_String_base_types<char,std::allocator<char> > >::_Free_proxy

; 651  : 		}

	mov	ecx, DWORD PTR _this$[ebp]
	call	??1?$_String_val@U?$_Simple_types@D@std@@@std@@QAE@XZ
	pop	edi
	pop	esi
	pop	ebx
	add	esp, 204				; 000000ccH
	cmp	ebp, esp
	call	__RTC_CheckEsp
	mov	esp, ebp
	pop	ebp
	ret	0
??1?$_String_alloc@$0A@U?$_String_base_types@DV?$allocator@D@std@@@std@@@std@@QAE@XZ ENDP ; std::_String_alloc<0,std::_String_base_types<char,std::allocator<char> > >::~_String_alloc<0,std::_String_base_types<char,std::allocator<char> > >
_TEXT	ENDS
; Function compile flags: /Odtp /RTCsu /ZI
; File c:\program files (x86)\microsoft visual studio 12.0\vc\include\xstring
;	COMDAT ??0?$_String_alloc@$0A@U?$_String_base_types@DV?$allocator@D@std@@@std@@@std@@QAE@ABV?$allocator@D@1@@Z
_TEXT	SEGMENT
_this$ = -20						; size = 4
__$EHRec$ = -12						; size = 12
___formal$ = 8						; size = 4
??0?$_String_alloc@$0A@U?$_String_base_types@DV?$allocator@D@std@@@std@@@std@@QAE@ABV?$allocator@D@1@@Z PROC ; std::_String_alloc<0,std::_String_base_types<char,std::allocator<char> > >::_String_alloc<0,std::_String_base_types<char,std::allocator<char> > >, COMDAT
; _this$ = ecx

; 643  : 	_String_alloc(const _Alloc& = _Alloc())

	push	ebp
	mov	ebp, esp
	push	-1
	push	__ehhandler$??0?$_String_alloc@$0A@U?$_String_base_types@DV?$allocator@D@std@@@std@@@std@@QAE@ABV?$allocator@D@1@@Z
	mov	eax, DWORD PTR fs:0
	push	eax
	sub	esp, 204				; 000000ccH
	push	ebx
	push	esi
	push	edi
	push	ecx
	lea	edi, DWORD PTR [ebp-216]
	mov	ecx, 51					; 00000033H
	mov	eax, -858993460				; ccccccccH
	rep stosd
	pop	ecx
	mov	eax, DWORD PTR ___security_cookie
	xor	eax, ebp
	push	eax
	lea	eax, DWORD PTR __$EHRec$[ebp]
	mov	DWORD PTR fs:0, eax
	mov	DWORD PTR _this$[ebp], ecx
	mov	ecx, DWORD PTR _this$[ebp]
	call	??0?$_String_val@U?$_Simple_types@D@std@@@std@@QAE@XZ ; std::_String_val<std::_Simple_types<char> >::_String_val<std::_Simple_types<char> >
	mov	DWORD PTR __$EHRec$[ebp+8], 0

; 644  : 		{	// construct allocator from _Al
; 645  : 		_Alloc_proxy();

	mov	ecx, DWORD PTR _this$[ebp]
	call	?_Alloc_proxy@?$_String_alloc@$0A@U?$_String_base_types@DV?$allocator@D@std@@@std@@@std@@QAEXXZ ; std::_String_alloc<0,std::_String_base_types<char,std::allocator<char> > >::_Alloc_proxy

; 646  : 		}

	mov	DWORD PTR __$EHRec$[ebp+8], -1
	mov	eax, DWORD PTR _this$[ebp]
	mov	ecx, DWORD PTR __$EHRec$[ebp]
	mov	DWORD PTR fs:0, ecx
	pop	ecx
	pop	edi
	pop	esi
	pop	ebx
	add	esp, 216				; 000000d8H
	cmp	ebp, esp
	call	__RTC_CheckEsp
	mov	esp, ebp
	pop	ebp
	ret	4
_TEXT	ENDS
;	COMDAT text$x
text$x	SEGMENT
__unwindfunclet$??0?$_String_alloc@$0A@U?$_String_base_types@DV?$allocator@D@std@@@std@@@std@@QAE@ABV?$allocator@D@1@@Z$0:
	mov	ecx, DWORD PTR _this$[ebp]
	jmp	??1?$_String_val@U?$_Simple_types@D@std@@@std@@QAE@XZ
__ehhandler$??0?$_String_alloc@$0A@U?$_String_base_types@DV?$allocator@D@std@@@std@@@std@@QAE@ABV?$allocator@D@1@@Z:
	mov	edx, DWORD PTR [esp+8]
	lea	eax, DWORD PTR [edx+12]
	mov	ecx, DWORD PTR [edx-220]
	xor	ecx, eax
	call	@__security_check_cookie@4
	mov	eax, OFFSET __ehfuncinfo$??0?$_String_alloc@$0A@U?$_String_base_types@DV?$allocator@D@std@@@std@@@std@@QAE@ABV?$allocator@D@1@@Z
	jmp	___CxxFrameHandler3
text$x	ENDS
??0?$_String_alloc@$0A@U?$_String_base_types@DV?$allocator@D@std@@@std@@@std@@QAE@ABV?$allocator@D@1@@Z ENDP ; std::_String_alloc<0,std::_String_base_types<char,std::allocator<char> > >::_String_alloc<0,std::_String_base_types<char,std::allocator<char> > >
; Function compile flags: /Odtp /RTCsu /ZI
;	COMDAT ??1?$_String_val@U?$_Simple_types@D@std@@@std@@QAE@XZ
_TEXT	SEGMENT
_this$ = -8						; size = 4
??1?$_String_val@U?$_Simple_types@D@std@@@std@@QAE@XZ PROC ; std::_String_val<std::_Simple_types<char> >::~_String_val<std::_Simple_types<char> >, COMDAT
; _this$ = ecx
	push	ebp
	mov	ebp, esp
	sub	esp, 204				; 000000ccH
	push	ebx
	push	esi
	push	edi
	push	ecx
	lea	edi, DWORD PTR [ebp-204]
	mov	ecx, 51					; 00000033H
	mov	eax, -858993460				; ccccccccH
	rep stosd
	pop	ecx
	mov	DWORD PTR _this$[ebp], ecx
	mov	ecx, DWORD PTR _this$[ebp]
	call	??1_Container_base12@std@@QAE@XZ	; std::_Container_base12::~_Container_base12
	pop	edi
	pop	esi
	pop	ebx
	add	esp, 204				; 000000ccH
	cmp	ebp, esp
	call	__RTC_CheckEsp
	mov	esp, ebp
	pop	ebp
	ret	0
??1?$_String_val@U?$_Simple_types@D@std@@@std@@QAE@XZ ENDP ; std::_String_val<std::_Simple_types<char> >::~_String_val<std::_Simple_types<char> >
_TEXT	ENDS
; Function compile flags: /Odtp /RTCsu /ZI
; File c:\program files (x86)\microsoft visual studio 12.0\vc\include\xstring
;	COMDAT ?_Myptr@?$_String_val@U?$_Simple_types@D@std@@@std@@QBEPBDXZ
_TEXT	SEGMENT
tv72 = -208						; size = 4
_this$ = -8						; size = 4
?_Myptr@?$_String_val@U?$_Simple_types@D@std@@@std@@QBEPBDXZ PROC ; std::_String_val<std::_Simple_types<char> >::_Myptr, COMDAT
; _this$ = ecx

; 517  : 		{	// determine current pointer to buffer for nonmutable string

	push	ebp
	mov	ebp, esp
	sub	esp, 208				; 000000d0H
	push	ebx
	push	esi
	push	edi
	push	ecx
	lea	edi, DWORD PTR [ebp-208]
	mov	ecx, 52					; 00000034H
	mov	eax, -858993460				; ccccccccH
	rep stosd
	pop	ecx
	mov	DWORD PTR _this$[ebp], ecx

; 518  : 		return (this->_BUF_SIZE <= this->_Myres
; 519  : 			? _STD addressof(*this->_Bx._Ptr)
; 520  : 			: this->_Bx._Buf);

	mov	eax, DWORD PTR _this$[ebp]
	cmp	DWORD PTR [eax+24], 16			; 00000010H
	jb	SHORT $LN3@Myptr
	mov	ecx, DWORD PTR _this$[ebp]
	mov	edx, DWORD PTR [ecx+4]
	push	edx
	call	??$addressof@D@std@@YAPADAAD@Z		; std::addressof<char>
	add	esp, 4
	mov	DWORD PTR tv72[ebp], eax
	jmp	SHORT $LN4@Myptr
$LN3@Myptr:
	mov	eax, DWORD PTR _this$[ebp]
	add	eax, 4
	mov	DWORD PTR tv72[ebp], eax
$LN4@Myptr:
	mov	eax, DWORD PTR tv72[ebp]

; 521  : 		}

	pop	edi
	pop	esi
	pop	ebx
	add	esp, 208				; 000000d0H
	cmp	ebp, esp
	call	__RTC_CheckEsp
	mov	esp, ebp
	pop	ebp
	ret	0
?_Myptr@?$_String_val@U?$_Simple_types@D@std@@@std@@QBEPBDXZ ENDP ; std::_String_val<std::_Simple_types<char> >::_Myptr
_TEXT	ENDS
; Function compile flags: /Odtp /RTCsu /ZI
; File c:\program files (x86)\microsoft visual studio 12.0\vc\include\xstring
;	COMDAT ?_Myptr@?$_String_val@U?$_Simple_types@D@std@@@std@@QAEPADXZ
_TEXT	SEGMENT
tv72 = -208						; size = 4
_this$ = -8						; size = 4
?_Myptr@?$_String_val@U?$_Simple_types@D@std@@@std@@QAEPADXZ PROC ; std::_String_val<std::_Simple_types<char> >::_Myptr, COMDAT
; _this$ = ecx

; 510  : 		{	// determine current pointer to buffer for mutable string

	push	ebp
	mov	ebp, esp
	sub	esp, 208				; 000000d0H
	push	ebx
	push	esi
	push	edi
	push	ecx
	lea	edi, DWORD PTR [ebp-208]
	mov	ecx, 52					; 00000034H
	mov	eax, -858993460				; ccccccccH
	rep stosd
	pop	ecx
	mov	DWORD PTR _this$[ebp], ecx

; 511  : 		return (this->_BUF_SIZE <= this->_Myres
; 512  : 			? _STD addressof(*this->_Bx._Ptr)
; 513  : 			: this->_Bx._Buf);

	mov	eax, DWORD PTR _this$[ebp]
	cmp	DWORD PTR [eax+24], 16			; 00000010H
	jb	SHORT $LN3@Myptr
	mov	ecx, DWORD PTR _this$[ebp]
	mov	edx, DWORD PTR [ecx+4]
	push	edx
	call	??$addressof@D@std@@YAPADAAD@Z		; std::addressof<char>
	add	esp, 4
	mov	DWORD PTR tv72[ebp], eax
	jmp	SHORT $LN4@Myptr
$LN3@Myptr:
	mov	eax, DWORD PTR _this$[ebp]
	add	eax, 4
	mov	DWORD PTR tv72[ebp], eax
$LN4@Myptr:
	mov	eax, DWORD PTR tv72[ebp]

; 514  : 		}

	pop	edi
	pop	esi
	pop	ebx
	add	esp, 208				; 000000d0H
	cmp	ebp, esp
	call	__RTC_CheckEsp
	mov	esp, ebp
	pop	ebp
	ret	0
?_Myptr@?$_String_val@U?$_Simple_types@D@std@@@std@@QAEPADXZ ENDP ; std::_String_val<std::_Simple_types<char> >::_Myptr
_TEXT	ENDS
; Function compile flags: /Odtp /RTCsu /ZI
; File c:\program files (x86)\microsoft visual studio 12.0\vc\include\xstring
;	COMDAT ??0?$_String_val@U?$_Simple_types@D@std@@@std@@QAE@XZ
_TEXT	SEGMENT
_this$ = -8						; size = 4
??0?$_String_val@U?$_Simple_types@D@std@@@std@@QAE@XZ PROC ; std::_String_val<std::_Simple_types<char> >::_String_val<std::_Simple_types<char> >, COMDAT
; _this$ = ecx

; 492  : 	_String_val()

	push	ebp
	mov	ebp, esp
	sub	esp, 204				; 000000ccH
	push	ebx
	push	esi
	push	edi
	push	ecx
	lea	edi, DWORD PTR [ebp-204]
	mov	ecx, 51					; 00000033H
	mov	eax, -858993460				; ccccccccH
	rep stosd
	pop	ecx
	mov	DWORD PTR _this$[ebp], ecx
	mov	ecx, DWORD PTR _this$[ebp]
	call	??0_Container_base12@std@@QAE@XZ	; std::_Container_base12::_Container_base12

; 493  : 		{	// initialize values
; 494  : 		_Mysize = 0;

	mov	eax, DWORD PTR _this$[ebp]
	mov	DWORD PTR [eax+20], 0

; 495  : 		_Myres = 0;

	mov	eax, DWORD PTR _this$[ebp]
	mov	DWORD PTR [eax+24], 0

; 496  : 		}

	mov	eax, DWORD PTR _this$[ebp]
	pop	edi
	pop	esi
	pop	ebx
	add	esp, 204				; 000000ccH
	cmp	ebp, esp
	call	__RTC_CheckEsp
	mov	esp, ebp
	pop	ebp
	ret	0
??0?$_String_val@U?$_Simple_types@D@std@@@std@@QAE@XZ ENDP ; std::_String_val<std::_Simple_types<char> >::_String_val<std::_Simple_types<char> >
_TEXT	ENDS
; Function compile flags: /Odtp /RTCsu /ZI
; File c:\program files (x86)\microsoft visual studio 12.0\vc\include\xmemory0
;	COMDAT ?max_size@?$_Wrap_alloc@V?$allocator@D@std@@@std@@QBEIXZ
_TEXT	SEGMENT
_this$ = -8						; size = 4
?max_size@?$_Wrap_alloc@V?$allocator@D@std@@@std@@QBEIXZ PROC ; std::_Wrap_alloc<std::allocator<char> >::max_size, COMDAT
; _this$ = ecx

; 883  : 		{	// get maximum size

	push	ebp
	mov	ebp, esp
	sub	esp, 204				; 000000ccH
	push	ebx
	push	esi
	push	edi
	push	ecx
	lea	edi, DWORD PTR [ebp-204]
	mov	ecx, 51					; 00000033H
	mov	eax, -858993460				; ccccccccH
	rep stosd
	pop	ecx
	mov	DWORD PTR _this$[ebp], ecx

; 884  : 		return (_Mytraits::max_size(*this));

	mov	eax, DWORD PTR _this$[ebp]
	push	eax
	call	?max_size@?$allocator_traits@V?$allocator@D@std@@@std@@SAIABV?$allocator@D@2@@Z ; std::allocator_traits<std::allocator<char> >::max_size
	add	esp, 4

; 885  : 		}

	pop	edi
	pop	esi
	pop	ebx
	add	esp, 204				; 000000ccH
	cmp	ebp, esp
	call	__RTC_CheckEsp
	mov	esp, ebp
	pop	ebp
	ret	0
?max_size@?$_Wrap_alloc@V?$allocator@D@std@@@std@@QBEIXZ ENDP ; std::_Wrap_alloc<std::allocator<char> >::max_size
_TEXT	ENDS
; Function compile flags: /Odtp /RTCsu /ZI
; File c:\program files (x86)\microsoft visual studio 12.0\vc\include\xmemory0
;	COMDAT ?deallocate@?$_Wrap_alloc@V?$allocator@D@std@@@std@@QAEXPADI@Z
_TEXT	SEGMENT
_this$ = -8						; size = 4
__Ptr$ = 8						; size = 4
__Count$ = 12						; size = 4
?deallocate@?$_Wrap_alloc@V?$allocator@D@std@@@std@@QAEXPADI@Z PROC ; std::_Wrap_alloc<std::allocator<char> >::deallocate, COMDAT
; _this$ = ecx

; 857  : 		{	// deallocate object at _Ptr, ignore size

	push	ebp
	mov	ebp, esp
	sub	esp, 204				; 000000ccH
	push	ebx
	push	esi
	push	edi
	push	ecx
	lea	edi, DWORD PTR [ebp-204]
	mov	ecx, 51					; 00000033H
	mov	eax, -858993460				; ccccccccH
	rep stosd
	pop	ecx
	mov	DWORD PTR _this$[ebp], ecx

; 858  : 		_Mybase::deallocate(_Ptr, _Count);

	mov	eax, DWORD PTR __Count$[ebp]
	push	eax
	mov	ecx, DWORD PTR __Ptr$[ebp]
	push	ecx
	mov	ecx, DWORD PTR _this$[ebp]
	call	?deallocate@?$allocator@D@std@@QAEXPADI@Z ; std::allocator<char>::deallocate

; 859  : 		}

	pop	edi
	pop	esi
	pop	ebx
	add	esp, 204				; 000000ccH
	cmp	ebp, esp
	call	__RTC_CheckEsp
	mov	esp, ebp
	pop	ebp
	ret	8
?deallocate@?$_Wrap_alloc@V?$allocator@D@std@@@std@@QAEXPADI@Z ENDP ; std::_Wrap_alloc<std::allocator<char> >::deallocate
_TEXT	ENDS
; Function compile flags: /Odtp /RTCsu /ZI
; File c:\program files (x86)\microsoft visual studio 12.0\vc\include\xmemory0
;	COMDAT ?allocate@?$_Wrap_alloc@V?$allocator@D@std@@@std@@QAEPADI@Z
_TEXT	SEGMENT
_this$ = -8						; size = 4
__Count$ = 8						; size = 4
?allocate@?$_Wrap_alloc@V?$allocator@D@std@@@std@@QAEPADI@Z PROC ; std::_Wrap_alloc<std::allocator<char> >::allocate, COMDAT
; _this$ = ecx

; 846  : 		{	// allocate array of _Count elements

	push	ebp
	mov	ebp, esp
	sub	esp, 204				; 000000ccH
	push	ebx
	push	esi
	push	edi
	push	ecx
	lea	edi, DWORD PTR [ebp-204]
	mov	ecx, 51					; 00000033H
	mov	eax, -858993460				; ccccccccH
	rep stosd
	pop	ecx
	mov	DWORD PTR _this$[ebp], ecx

; 847  : 		return (_Mybase::allocate(_Count));

	mov	eax, DWORD PTR __Count$[ebp]
	push	eax
	mov	ecx, DWORD PTR _this$[ebp]
	call	?allocate@?$allocator@D@std@@QAEPADI@Z	; std::allocator<char>::allocate

; 848  : 		}

	pop	edi
	pop	esi
	pop	ebx
	add	esp, 204				; 000000ccH
	cmp	ebp, esp
	call	__RTC_CheckEsp
	mov	esp, ebp
	pop	ebp
	ret	4
?allocate@?$_Wrap_alloc@V?$allocator@D@std@@@std@@QAEPADI@Z ENDP ; std::_Wrap_alloc<std::allocator<char> >::allocate
_TEXT	ENDS
; Function compile flags: /Odtp /RTCsu /ZI
; File c:\program files (x86)\microsoft visual studio 12.0\vc\include\xmemory0
;	COMDAT ??0?$_Wrap_alloc@V?$allocator@D@std@@@std@@QAE@ABV?$allocator@D@1@@Z
_TEXT	SEGMENT
_this$ = -8						; size = 4
__Right$ = 8						; size = 4
??0?$_Wrap_alloc@V?$allocator@D@std@@@std@@QAE@ABV?$allocator@D@1@@Z PROC ; std::_Wrap_alloc<std::allocator<char> >::_Wrap_alloc<std::allocator<char> >, COMDAT
; _this$ = ecx

; 806  : 		{	// construct by copying base

	push	ebp
	mov	ebp, esp
	sub	esp, 204				; 000000ccH
	push	ebx
	push	esi
	push	edi
	push	ecx
	lea	edi, DWORD PTR [ebp-204]
	mov	ecx, 51					; 00000033H
	mov	eax, -858993460				; ccccccccH
	rep stosd
	pop	ecx
	mov	DWORD PTR _this$[ebp], ecx
	mov	eax, DWORD PTR __Right$[ebp]
	push	eax
	mov	ecx, DWORD PTR _this$[ebp]
	call	??0?$allocator@D@std@@QAE@ABV01@@Z	; std::allocator<char>::allocator<char>

; 807  : 		}

	mov	eax, DWORD PTR _this$[ebp]
	pop	edi
	pop	esi
	pop	ebx
	add	esp, 204				; 000000ccH
	cmp	ebp, esp
	call	__RTC_CheckEsp
	mov	esp, ebp
	pop	ebp
	ret	4
??0?$_Wrap_alloc@V?$allocator@D@std@@@std@@QAE@ABV?$allocator@D@1@@Z ENDP ; std::_Wrap_alloc<std::allocator<char> >::_Wrap_alloc<std::allocator<char> >
_TEXT	ENDS
; Function compile flags: /Odtp /RTCsu /ZI
; File c:\program files (x86)\microsoft visual studio 12.0\vc\include\xmemory0
;	COMDAT ??0?$_Wrap_alloc@V?$allocator@D@std@@@std@@QAE@XZ
_TEXT	SEGMENT
_this$ = -8						; size = 4
??0?$_Wrap_alloc@V?$allocator@D@std@@@std@@QAE@XZ PROC	; std::_Wrap_alloc<std::allocator<char> >::_Wrap_alloc<std::allocator<char> >, COMDAT
; _this$ = ecx

; 801  : 		{	// construct default allocator (do nothing)

	push	ebp
	mov	ebp, esp
	sub	esp, 204				; 000000ccH
	push	ebx
	push	esi
	push	edi
	push	ecx
	lea	edi, DWORD PTR [ebp-204]
	mov	ecx, 51					; 00000033H
	mov	eax, -858993460				; ccccccccH
	rep stosd
	pop	ecx
	mov	DWORD PTR _this$[ebp], ecx
	mov	ecx, DWORD PTR _this$[ebp]
	call	??0?$allocator@D@std@@QAE@XZ		; std::allocator<char>::allocator<char>

; 802  : 		}

	mov	eax, DWORD PTR _this$[ebp]
	pop	edi
	pop	esi
	pop	ebx
	add	esp, 204				; 000000ccH
	cmp	ebp, esp
	call	__RTC_CheckEsp
	mov	esp, ebp
	pop	ebp
	ret	0
??0?$_Wrap_alloc@V?$allocator@D@std@@@std@@QAE@XZ ENDP	; std::_Wrap_alloc<std::allocator<char> >::_Wrap_alloc<std::allocator<char> >
_TEXT	ENDS
; Function compile flags: /Odtp /RTCsu /ZI
; File c:\program files (x86)\microsoft visual studio 12.0\vc\include\xmemory0
;	COMDAT ?select_on_container_copy_construction@?$_Wrap_alloc@V?$allocator@D@std@@@std@@QBE?AU12@XZ
_TEXT	SEGMENT
$T1 = -209						; size = 1
_this$ = -8						; size = 4
___$ReturnUdt$ = 8					; size = 4
?select_on_container_copy_construction@?$_Wrap_alloc@V?$allocator@D@std@@@std@@QBE?AU12@XZ PROC ; std::_Wrap_alloc<std::allocator<char> >::select_on_container_copy_construction, COMDAT
; _this$ = ecx

; 778  : 		{	// get allocator to use

	push	ebp
	mov	ebp, esp
	sub	esp, 216				; 000000d8H
	push	ebx
	push	esi
	push	edi
	push	ecx
	lea	edi, DWORD PTR [ebp-216]
	mov	ecx, 54					; 00000036H
	mov	eax, -858993460				; ccccccccH
	rep stosd
	pop	ecx
	mov	DWORD PTR _this$[ebp], ecx

; 779  : 		return (_Mytraits::select_on_container_copy_construction(*this));

	mov	eax, DWORD PTR _this$[ebp]
	push	eax
	lea	ecx, DWORD PTR $T1[ebp]
	push	ecx
	call	?select_on_container_copy_construction@?$allocator_traits@V?$allocator@D@std@@@std@@SA?AV?$allocator@D@2@ABV32@@Z ; std::allocator_traits<std::allocator<char> >::select_on_container_copy_construction
	add	esp, 8
	push	eax
	mov	ecx, DWORD PTR ___$ReturnUdt$[ebp]
	call	??0?$_Wrap_alloc@V?$allocator@D@std@@@std@@QAE@ABV?$allocator@D@1@@Z ; std::_Wrap_alloc<std::allocator<char> >::_Wrap_alloc<std::allocator<char> >
	mov	eax, DWORD PTR ___$ReturnUdt$[ebp]

; 780  : 		}

	pop	edi
	pop	esi
	pop	ebx
	add	esp, 216				; 000000d8H
	cmp	ebp, esp
	call	__RTC_CheckEsp
	mov	esp, ebp
	pop	ebp
	ret	4
?select_on_container_copy_construction@?$_Wrap_alloc@V?$allocator@D@std@@@std@@QBE?AU12@XZ ENDP ; std::_Wrap_alloc<std::allocator<char> >::select_on_container_copy_construction
_TEXT	ENDS
; Function compile flags: /Odtp /RTCsu /ZI
; File c:\program files (x86)\microsoft visual studio 12.0\vc\include\xmemory0
;	COMDAT ?select_on_container_copy_construction@?$allocator_traits@V?$allocator@D@std@@@std@@SA?AV?$allocator@D@2@ABV32@@Z
_TEXT	SEGMENT
___$ReturnUdt$ = 8					; size = 4
__Al$ = 12						; size = 4
?select_on_container_copy_construction@?$allocator_traits@V?$allocator@D@std@@@std@@SA?AV?$allocator@D@2@ABV32@@Z PROC ; std::allocator_traits<std::allocator<char> >::select_on_container_copy_construction, COMDAT

; 740  : 		{	// get allocator to use

	push	ebp
	mov	ebp, esp
	sub	esp, 192				; 000000c0H
	push	ebx
	push	esi
	push	edi
	lea	edi, DWORD PTR [ebp-192]
	mov	ecx, 48					; 00000030H
	mov	eax, -858993460				; ccccccccH
	rep stosd

; 741  : 		return (_Al.select_on_container_copy_construction());

	mov	eax, DWORD PTR ___$ReturnUdt$[ebp]
	push	eax
	mov	ecx, DWORD PTR __Al$[ebp]
	call	?select_on_container_copy_construction@?$allocator@D@std@@QBE?AV12@XZ ; std::allocator<char>::select_on_container_copy_construction
	mov	eax, DWORD PTR ___$ReturnUdt$[ebp]

; 742  : 		}

	pop	edi
	pop	esi
	pop	ebx
	add	esp, 192				; 000000c0H
	cmp	ebp, esp
	call	__RTC_CheckEsp
	mov	esp, ebp
	pop	ebp
	ret	0
?select_on_container_copy_construction@?$allocator_traits@V?$allocator@D@std@@@std@@SA?AV?$allocator@D@2@ABV32@@Z ENDP ; std::allocator_traits<std::allocator<char> >::select_on_container_copy_construction
_TEXT	ENDS
; Function compile flags: /Odtp /RTCsu /ZI
; File c:\program files (x86)\microsoft visual studio 12.0\vc\include\xmemory0
;	COMDAT ?max_size@?$allocator_traits@V?$allocator@D@std@@@std@@SAIABV?$allocator@D@2@@Z
_TEXT	SEGMENT
__Al$ = 8						; size = 4
?max_size@?$allocator_traits@V?$allocator@D@std@@@std@@SAIABV?$allocator@D@2@@Z PROC ; std::allocator_traits<std::allocator<char> >::max_size, COMDAT

; 734  : 		{	// get maximum size

	push	ebp
	mov	ebp, esp
	sub	esp, 192				; 000000c0H
	push	ebx
	push	esi
	push	edi
	lea	edi, DWORD PTR [ebp-192]
	mov	ecx, 48					; 00000030H
	mov	eax, -858993460				; ccccccccH
	rep stosd

; 735  : 		return (_Al.max_size());

	mov	ecx, DWORD PTR __Al$[ebp]
	call	?max_size@?$allocator@D@std@@QBEIXZ	; std::allocator<char>::max_size

; 736  : 		}

	pop	edi
	pop	esi
	pop	ebx
	add	esp, 192				; 000000c0H
	cmp	ebp, esp
	call	__RTC_CheckEsp
	mov	esp, ebp
	pop	ebp
	ret	0
?max_size@?$allocator_traits@V?$allocator@D@std@@@std@@SAIABV?$allocator@D@2@@Z ENDP ; std::allocator_traits<std::allocator<char> >::max_size
_TEXT	ENDS
; Function compile flags: /Odtp /RTCsu /ZI
; File c:\program files (x86)\microsoft visual studio 12.0\vc\include\xmemory0
;	COMDAT ?max_size@?$allocator@D@std@@QBEIXZ
_TEXT	SEGMENT
_this$ = -8						; size = 4
?max_size@?$allocator@D@std@@QBEIXZ PROC		; std::allocator<char>::max_size, COMDAT
; _this$ = ecx

; 611  : 		{	// estimate maximum array size

	push	ebp
	mov	ebp, esp
	sub	esp, 204				; 000000ccH
	push	ebx
	push	esi
	push	edi
	push	ecx
	lea	edi, DWORD PTR [ebp-204]
	mov	ecx, 51					; 00000033H
	mov	eax, -858993460				; ccccccccH
	rep stosd
	pop	ecx
	mov	DWORD PTR _this$[ebp], ecx

; 612  : 		return ((size_t)(-1) / sizeof (_Ty));

	or	eax, -1

; 613  : 		}

	pop	edi
	pop	esi
	pop	ebx
	mov	esp, ebp
	pop	ebp
	ret	0
?max_size@?$allocator@D@std@@QBEIXZ ENDP		; std::allocator<char>::max_size
_TEXT	ENDS
; Function compile flags: /Odtp /RTCsu /ZI
; File c:\program files (x86)\microsoft visual studio 12.0\vc\include\xmemory0
;	COMDAT ?allocate@?$allocator@D@std@@QAEPADI@Z
_TEXT	SEGMENT
_this$ = -8						; size = 4
__Count$ = 8						; size = 4
?allocate@?$allocator@D@std@@QAEPADI@Z PROC		; std::allocator<char>::allocate, COMDAT
; _this$ = ecx

; 577  : 		{	// allocate array of _Count elements

	push	ebp
	mov	ebp, esp
	sub	esp, 204				; 000000ccH
	push	ebx
	push	esi
	push	edi
	push	ecx
	lea	edi, DWORD PTR [ebp-204]
	mov	ecx, 51					; 00000033H
	mov	eax, -858993460				; ccccccccH
	rep stosd
	pop	ecx
	mov	DWORD PTR _this$[ebp], ecx

; 578  : 		return (_Allocate(_Count, (pointer)0));

	push	0
	mov	eax, DWORD PTR __Count$[ebp]
	push	eax
	call	??$_Allocate@D@std@@YAPADIPAD@Z		; std::_Allocate<char>
	add	esp, 8

; 579  : 		}

	pop	edi
	pop	esi
	pop	ebx
	add	esp, 204				; 000000ccH
	cmp	ebp, esp
	call	__RTC_CheckEsp
	mov	esp, ebp
	pop	ebp
	ret	4
?allocate@?$allocator@D@std@@QAEPADI@Z ENDP		; std::allocator<char>::allocate
_TEXT	ENDS
; Function compile flags: /Odtp /RTCsu /ZI
; File c:\program files (x86)\microsoft visual studio 12.0\vc\include\xmemory0
;	COMDAT ?deallocate@?$allocator@D@std@@QAEXPADI@Z
_TEXT	SEGMENT
_this$ = -8						; size = 4
__Ptr$ = 8						; size = 4
___formal$ = 12						; size = 4
?deallocate@?$allocator@D@std@@QAEXPADI@Z PROC		; std::allocator<char>::deallocate, COMDAT
; _this$ = ecx

; 572  : 		{	// deallocate object at _Ptr, ignore size

	push	ebp
	mov	ebp, esp
	sub	esp, 204				; 000000ccH
	push	ebx
	push	esi
	push	edi
	push	ecx
	lea	edi, DWORD PTR [ebp-204]
	mov	ecx, 51					; 00000033H
	mov	eax, -858993460				; ccccccccH
	rep stosd
	pop	ecx
	mov	DWORD PTR _this$[ebp], ecx

; 573  : 		::operator delete(_Ptr);

	mov	eax, DWORD PTR __Ptr$[ebp]
	push	eax
	call	??3@YAXPAX@Z				; operator delete
	add	esp, 4

; 574  : 		}

	pop	edi
	pop	esi
	pop	ebx
	add	esp, 204				; 000000ccH
	cmp	ebp, esp
	call	__RTC_CheckEsp
	mov	esp, ebp
	pop	ebp
	ret	8
?deallocate@?$allocator@D@std@@QAEXPADI@Z ENDP		; std::allocator<char>::deallocate
_TEXT	ENDS
; Function compile flags: /Odtp /RTCsu /ZI
; File c:\program files (x86)\microsoft visual studio 12.0\vc\include\xmemory0
;	COMDAT ??0?$allocator@D@std@@QAE@ABV01@@Z
_TEXT	SEGMENT
_this$ = -8						; size = 4
___formal$ = 8						; size = 4
??0?$allocator@D@std@@QAE@ABV01@@Z PROC			; std::allocator<char>::allocator<char>, COMDAT
; _this$ = ecx

; 556  : 	allocator(const allocator<_Ty>&) _THROW0()

	push	ebp
	mov	ebp, esp
	sub	esp, 204				; 000000ccH
	push	ebx
	push	esi
	push	edi
	push	ecx
	lea	edi, DWORD PTR [ebp-204]
	mov	ecx, 51					; 00000033H
	mov	eax, -858993460				; ccccccccH
	rep stosd
	pop	ecx
	mov	DWORD PTR _this$[ebp], ecx

; 557  : 		{	// construct by copying (do nothing)
; 558  : 		}

	mov	eax, DWORD PTR _this$[ebp]
	pop	edi
	pop	esi
	pop	ebx
	mov	esp, ebp
	pop	ebp
	ret	4
??0?$allocator@D@std@@QAE@ABV01@@Z ENDP			; std::allocator<char>::allocator<char>
_TEXT	ENDS
; Function compile flags: /Odtp /RTCsu /ZI
; File c:\program files (x86)\microsoft visual studio 12.0\vc\include\xmemory0
;	COMDAT ??0?$allocator@D@std@@QAE@XZ
_TEXT	SEGMENT
_this$ = -8						; size = 4
??0?$allocator@D@std@@QAE@XZ PROC			; std::allocator<char>::allocator<char>, COMDAT
; _this$ = ecx

; 552  : 	allocator() _THROW0()

	push	ebp
	mov	ebp, esp
	sub	esp, 204				; 000000ccH
	push	ebx
	push	esi
	push	edi
	push	ecx
	lea	edi, DWORD PTR [ebp-204]
	mov	ecx, 51					; 00000033H
	mov	eax, -858993460				; ccccccccH
	rep stosd
	pop	ecx
	mov	DWORD PTR _this$[ebp], ecx

; 553  : 		{	// construct default allocator (do nothing)
; 554  : 		}

	mov	eax, DWORD PTR _this$[ebp]
	pop	edi
	pop	esi
	pop	ebx
	mov	esp, ebp
	pop	ebp
	ret	0
??0?$allocator@D@std@@QAE@XZ ENDP			; std::allocator<char>::allocator<char>
_TEXT	ENDS
; Function compile flags: /Odtp /RTCsu /ZI
; File c:\program files (x86)\microsoft visual studio 12.0\vc\include\xmemory0
;	COMDAT ?select_on_container_copy_construction@?$allocator@D@std@@QBE?AV12@XZ
_TEXT	SEGMENT
_this$ = -8						; size = 4
___$ReturnUdt$ = 8					; size = 4
?select_on_container_copy_construction@?$allocator@D@std@@QBE?AV12@XZ PROC ; std::allocator<char>::select_on_container_copy_construction, COMDAT
; _this$ = ecx

; 532  : 		{	// return this allocator

	push	ebp
	mov	ebp, esp
	sub	esp, 204				; 000000ccH
	push	ebx
	push	esi
	push	edi
	push	ecx
	lea	edi, DWORD PTR [ebp-204]
	mov	ecx, 51					; 00000033H
	mov	eax, -858993460				; ccccccccH
	rep stosd
	pop	ecx
	mov	DWORD PTR _this$[ebp], ecx

; 533  : 		return (*this);

	mov	eax, DWORD PTR _this$[ebp]
	push	eax
	mov	ecx, DWORD PTR ___$ReturnUdt$[ebp]
	call	??0?$allocator@D@std@@QAE@ABV01@@Z	; std::allocator<char>::allocator<char>
	mov	eax, DWORD PTR ___$ReturnUdt$[ebp]

; 534  : 		}

	pop	edi
	pop	esi
	pop	ebx
	add	esp, 204				; 000000ccH
	cmp	ebp, esp
	call	__RTC_CheckEsp
	mov	esp, ebp
	pop	ebp
	ret	4
?select_on_container_copy_construction@?$allocator@D@std@@QBE?AV12@XZ ENDP ; std::allocator<char>::select_on_container_copy_construction
_TEXT	ENDS
; Function compile flags: /Odtp /RTCsu /ZI
; File c:\program files (x86)\microsoft visual studio 12.0\vc\include\xutility
;	COMDAT ??__Eallocator_arg@std@@YAXXZ
text$di	SEGMENT
$T1 = -197						; size = 1
??__Eallocator_arg@std@@YAXXZ PROC			; std::`dynamic initializer for 'allocator_arg'', COMDAT

; 3451 : const allocator_arg_t allocator_arg = allocator_arg_t();

	push	ebp
	mov	ebp, esp
	sub	esp, 204				; 000000ccH
	push	ebx
	push	esi
	push	edi
	lea	edi, DWORD PTR [ebp-204]
	mov	ecx, 51					; 00000033H
	mov	eax, -858993460				; ccccccccH
	rep stosd
	xor	eax, eax
	mov	BYTE PTR $T1[ebp], al
	pop	edi
	pop	esi
	pop	ebx
	mov	esp, ebp
	pop	ebp
	ret	0
??__Eallocator_arg@std@@YAXXZ ENDP			; std::`dynamic initializer for 'allocator_arg''
text$di	ENDS
; Function compile flags: /Odtp /RTCsu /ZI
; File c:\program files (x86)\microsoft visual studio 12.0\vc\include\xutility
;	COMDAT ?_Orphan_all@_Container_base12@std@@QAEXXZ
_TEXT	SEGMENT
__Pnext$1 = -32						; size = 4
__Lock$2 = -20						; size = 4
_this$ = -8						; size = 4
?_Orphan_all@_Container_base12@std@@QAEXXZ PROC		; std::_Container_base12::_Orphan_all, COMDAT
; _this$ = ecx

; 214  : 	{	// orphan all iterators

	push	ebp
	mov	ebp, esp
	sub	esp, 228				; 000000e4H
	push	ebx
	push	esi
	push	edi
	push	ecx
	lea	edi, DWORD PTR [ebp-228]
	mov	ecx, 57					; 00000039H
	mov	eax, -858993460				; ccccccccH
	rep stosd
	pop	ecx
	mov	DWORD PTR _this$[ebp], ecx

; 215  :  #if _ITERATOR_DEBUG_LEVEL == 2
; 216  : 	if (_Myproxy != 0)

	mov	eax, DWORD PTR _this$[ebp]
	cmp	DWORD PTR [eax], 0
	je	SHORT $LN5@Orphan_all

; 217  : 		{	// proxy allocated, drain it
; 218  : 		_Lockit _Lock(_LOCK_DEBUG);

	push	3
	lea	ecx, DWORD PTR __Lock$2[ebp]
	call	??0_Lockit@std@@QAE@H@Z			; std::_Lockit::_Lockit

; 219  : 
; 220  : 		for (_Iterator_base12 **_Pnext = &_Myproxy->_Myfirstiter;

	mov	eax, DWORD PTR _this$[ebp]
	mov	ecx, DWORD PTR [eax]
	add	ecx, 4
	mov	DWORD PTR __Pnext$1[ebp], ecx

; 221  : 			*_Pnext != 0; *_Pnext = (*_Pnext)->_Mynextiter)

	jmp	SHORT $LN3@Orphan_all
$LN2@Orphan_all:
	mov	eax, DWORD PTR __Pnext$1[ebp]
	mov	ecx, DWORD PTR [eax]
	mov	edx, DWORD PTR __Pnext$1[ebp]
	mov	eax, DWORD PTR [ecx+4]
	mov	DWORD PTR [edx], eax
$LN3@Orphan_all:
	mov	eax, DWORD PTR __Pnext$1[ebp]
	cmp	DWORD PTR [eax], 0
	je	SHORT $LN1@Orphan_all

; 222  : 			(*_Pnext)->_Myproxy = 0;

	mov	eax, DWORD PTR __Pnext$1[ebp]
	mov	ecx, DWORD PTR [eax]
	mov	DWORD PTR [ecx], 0
	jmp	SHORT $LN2@Orphan_all
$LN1@Orphan_all:

; 223  : 		_Myproxy->_Myfirstiter = 0;

	mov	eax, DWORD PTR _this$[ebp]
	mov	ecx, DWORD PTR [eax]
	mov	DWORD PTR [ecx+4], 0

; 224  : 		}

	lea	ecx, DWORD PTR __Lock$2[ebp]
	call	??1_Lockit@std@@QAE@XZ			; std::_Lockit::~_Lockit
$LN5@Orphan_all:

; 225  :  #endif /* _ITERATOR_DEBUG_LEVEL == 2 */
; 226  : 	}

	push	edx
	mov	ecx, ebp
	push	eax
	lea	edx, DWORD PTR $LN10@Orphan_all
	call	@_RTC_CheckStackVars@8
	pop	eax
	pop	edx
	pop	edi
	pop	esi
	pop	ebx
	add	esp, 228				; 000000e4H
	cmp	ebp, esp
	call	__RTC_CheckEsp
	mov	esp, ebp
	pop	ebp
	ret	0
	npad	3
$LN10@Orphan_all:
	DD	1
	DD	$LN9@Orphan_all
$LN9@Orphan_all:
	DD	-20					; ffffffecH
	DD	4
	DD	$LN8@Orphan_all
$LN8@Orphan_all:
	DB	95					; 0000005fH
	DB	76					; 0000004cH
	DB	111					; 0000006fH
	DB	99					; 00000063H
	DB	107					; 0000006bH
	DB	0
?_Orphan_all@_Container_base12@std@@QAEXXZ ENDP		; std::_Container_base12::_Orphan_all
_TEXT	ENDS
; Function compile flags: /Odtp /RTCsu /ZI
; File c:\program files (x86)\microsoft visual studio 12.0\vc\include\xutility
;	COMDAT ??1_Container_base12@std@@QAE@XZ
_TEXT	SEGMENT
_this$ = -8						; size = 4
??1_Container_base12@std@@QAE@XZ PROC			; std::_Container_base12::~_Container_base12, COMDAT
; _this$ = ecx

; 94   : 		{	// destroy the container

	push	ebp
	mov	ebp, esp
	sub	esp, 204				; 000000ccH
	push	ebx
	push	esi
	push	edi
	push	ecx
	lea	edi, DWORD PTR [ebp-204]
	mov	ecx, 51					; 00000033H
	mov	eax, -858993460				; ccccccccH
	rep stosd
	pop	ecx
	mov	DWORD PTR _this$[ebp], ecx

; 95   : 		_Orphan_all();

	mov	ecx, DWORD PTR _this$[ebp]
	call	?_Orphan_all@_Container_base12@std@@QAEXXZ ; std::_Container_base12::_Orphan_all

; 96   : 		}

	pop	edi
	pop	esi
	pop	ebx
	add	esp, 204				; 000000ccH
	cmp	ebp, esp
	call	__RTC_CheckEsp
	mov	esp, ebp
	pop	ebp
	ret	0
??1_Container_base12@std@@QAE@XZ ENDP			; std::_Container_base12::~_Container_base12
_TEXT	ENDS
; Function compile flags: /Odtp /RTCsu /ZI
; File c:\program files (x86)\microsoft visual studio 12.0\vc\include\xutility
;	COMDAT ??0_Container_base12@std@@QAE@XZ
_TEXT	SEGMENT
_this$ = -8						; size = 4
??0_Container_base12@std@@QAE@XZ PROC			; std::_Container_base12::_Container_base12, COMDAT
; _this$ = ecx

; 80   : 		{	// construct childless container

	push	ebp
	mov	ebp, esp
	sub	esp, 204				; 000000ccH
	push	ebx
	push	esi
	push	edi
	push	ecx
	lea	edi, DWORD PTR [ebp-204]
	mov	ecx, 51					; 00000033H
	mov	eax, -858993460				; ccccccccH
	rep stosd
	pop	ecx
	mov	DWORD PTR _this$[ebp], ecx
	mov	eax, DWORD PTR _this$[ebp]
	mov	DWORD PTR [eax], 0

; 81   : 		}

	mov	eax, DWORD PTR _this$[ebp]
	pop	edi
	pop	esi
	pop	ebx
	mov	esp, ebp
	pop	ebp
	ret	0
??0_Container_base12@std@@QAE@XZ ENDP			; std::_Container_base12::_Container_base12
_TEXT	ENDS
; Function compile flags: /Odtp /RTCsu /ZI
; File c:\program files (x86)\microsoft visual studio 12.0\vc\include\xutility
;	COMDAT ??0_Container_proxy@std@@QAE@XZ
_TEXT	SEGMENT
_this$ = -8						; size = 4
??0_Container_proxy@std@@QAE@XZ PROC			; std::_Container_proxy::_Container_proxy, COMDAT
; _this$ = ecx

; 68   : 		{	// construct from pointers

	push	ebp
	mov	ebp, esp
	sub	esp, 204				; 000000ccH
	push	ebx
	push	esi
	push	edi
	push	ecx
	lea	edi, DWORD PTR [ebp-204]
	mov	ecx, 51					; 00000033H
	mov	eax, -858993460				; ccccccccH
	rep stosd
	pop	ecx
	mov	DWORD PTR _this$[ebp], ecx
	mov	eax, DWORD PTR _this$[ebp]
	mov	DWORD PTR [eax], 0
	mov	eax, DWORD PTR _this$[ebp]
	mov	DWORD PTR [eax+4], 0

; 69   : 		}

	mov	eax, DWORD PTR _this$[ebp]
	pop	edi
	pop	esi
	pop	ebx
	mov	esp, ebp
	pop	ebp
	ret	0
??0_Container_proxy@std@@QAE@XZ ENDP			; std::_Container_proxy::_Container_proxy
_TEXT	ENDS
; Function compile flags: /Odtp /RTCsu /ZI
; File c:\program files (x86)\microsoft visual studio 12.0\vc\include\utility
;	COMDAT ??__Epiecewise_construct@std@@YAXXZ
text$di	SEGMENT
$T1 = -197						; size = 1
??__Epiecewise_construct@std@@YAXXZ PROC		; std::`dynamic initializer for 'piecewise_construct'', COMDAT

; 70   : 	piecewise_construct_t();

	push	ebp
	mov	ebp, esp
	sub	esp, 204				; 000000ccH
	push	ebx
	push	esi
	push	edi
	lea	edi, DWORD PTR [ebp-204]
	mov	ecx, 51					; 00000033H
	mov	eax, -858993460				; ccccccccH
	rep stosd
	xor	eax, eax
	mov	BYTE PTR $T1[ebp], al
	pop	edi
	pop	esi
	pop	ebx
	mov	esp, ebp
	pop	ebp
	ret	0
??__Epiecewise_construct@std@@YAXXZ ENDP		; std::`dynamic initializer for 'piecewise_construct''
text$di	ENDS
; Function compile flags: /Odtp /RTCsu /ZI
; File c:\program files (x86)\microsoft visual studio 12.0\vc\include\iosfwd
;	COMDAT ?assign@?$char_traits@D@std@@SAXAADABD@Z
_TEXT	SEGMENT
__Left$ = 8						; size = 4
__Right$ = 12						; size = 4
?assign@?$char_traits@D@std@@SAXAADABD@Z PROC		; std::char_traits<char>::assign, COMDAT

; 563  : 		{	// assign an element

	push	ebp
	mov	ebp, esp
	sub	esp, 192				; 000000c0H
	push	ebx
	push	esi
	push	edi
	lea	edi, DWORD PTR [ebp-192]
	mov	ecx, 48					; 00000030H
	mov	eax, -858993460				; ccccccccH
	rep stosd

; 564  : 		_Left = _Right;

	mov	eax, DWORD PTR __Left$[ebp]
	mov	ecx, DWORD PTR __Right$[ebp]
	mov	dl, BYTE PTR [ecx]
	mov	BYTE PTR [eax], dl

; 565  : 		}

	pop	edi
	pop	esi
	pop	ebx
	mov	esp, ebp
	pop	ebp
	ret	0
?assign@?$char_traits@D@std@@SAXAADABD@Z ENDP		; std::char_traits<char>::assign
_TEXT	ENDS
; Function compile flags: /Odtp /RTCsu /ZI
; File c:\program files (x86)\microsoft visual studio 12.0\vc\include\iosfwd
;	COMDAT ?move@?$char_traits@D@std@@SAPADPADPBDI@Z
_TEXT	SEGMENT
tv69 = -196						; size = 4
__First1$ = 8						; size = 4
__First2$ = 12						; size = 4
__Count$ = 16						; size = 4
?move@?$char_traits@D@std@@SAPADPADPBDI@Z PROC		; std::char_traits<char>::move, COMDAT

; 551  : 		{	// copy [_First2, _First2 + _Count) to [_First1, ...)

	push	ebp
	mov	ebp, esp
	sub	esp, 196				; 000000c4H
	push	ebx
	push	esi
	push	edi
	lea	edi, DWORD PTR [ebp-196]
	mov	ecx, 49					; 00000031H
	mov	eax, -858993460				; ccccccccH
	rep stosd

; 552  : 		return (_Count == 0 ? _First1
; 553  : 			: (_Elem *)_CSTD memmove(_First1, _First2, _Count));

	cmp	DWORD PTR __Count$[ebp], 0
	jne	SHORT $LN3@move
	mov	eax, DWORD PTR __First1$[ebp]
	mov	DWORD PTR tv69[ebp], eax
	jmp	SHORT $LN4@move
$LN3@move:
	mov	ecx, DWORD PTR __Count$[ebp]
	push	ecx
	mov	edx, DWORD PTR __First2$[ebp]
	push	edx
	mov	eax, DWORD PTR __First1$[ebp]
	push	eax
	call	_memmove
	add	esp, 12					; 0000000cH
	mov	DWORD PTR tv69[ebp], eax
$LN4@move:
	mov	eax, DWORD PTR tv69[ebp]

; 554  : 		}

	pop	edi
	pop	esi
	pop	ebx
	add	esp, 196				; 000000c4H
	cmp	ebp, esp
	call	__RTC_CheckEsp
	mov	esp, ebp
	pop	ebp
	ret	0
?move@?$char_traits@D@std@@SAPADPADPBDI@Z ENDP		; std::char_traits<char>::move
_TEXT	ENDS
; Function compile flags: /Odtp /RTCsu /ZI
; File c:\program files (x86)\microsoft visual studio 12.0\vc\include\iosfwd
;	COMDAT ?copy@?$char_traits@D@std@@SAPADPADPBDI@Z
_TEXT	SEGMENT
tv69 = -196						; size = 4
__First1$ = 8						; size = 4
__First2$ = 12						; size = 4
__Count$ = 16						; size = 4
?copy@?$char_traits@D@std@@SAPADPADPBDI@Z PROC		; std::char_traits<char>::copy, COMDAT

; 528  : 		{	// copy [_First2, _First2 + _Count) to [_First1, ...)

	push	ebp
	mov	ebp, esp
	sub	esp, 196				; 000000c4H
	push	ebx
	push	esi
	push	edi
	lea	edi, DWORD PTR [ebp-196]
	mov	ecx, 49					; 00000031H
	mov	eax, -858993460				; ccccccccH
	rep stosd

; 529  : 		return (_Count == 0 ? _First1
; 530  : 			: (_Elem *)_CSTD memcpy(_First1, _First2, _Count));

	cmp	DWORD PTR __Count$[ebp], 0
	jne	SHORT $LN3@copy
	mov	eax, DWORD PTR __First1$[ebp]
	mov	DWORD PTR tv69[ebp], eax
	jmp	SHORT $LN4@copy
$LN3@copy:
	mov	ecx, DWORD PTR __Count$[ebp]
	push	ecx
	mov	edx, DWORD PTR __First2$[ebp]
	push	edx
	mov	eax, DWORD PTR __First1$[ebp]
	push	eax
	call	_memcpy
	add	esp, 12					; 0000000cH
	mov	DWORD PTR tv69[ebp], eax
$LN4@copy:
	mov	eax, DWORD PTR tv69[ebp]

; 531  : 		}

	pop	edi
	pop	esi
	pop	ebx
	add	esp, 196				; 000000c4H
	cmp	ebp, esp
	call	__RTC_CheckEsp
	mov	esp, ebp
	pop	ebp
	ret	0
?copy@?$char_traits@D@std@@SAPADPADPBDI@Z ENDP		; std::char_traits<char>::copy
_TEXT	ENDS
; Function compile flags: /Odtp /RTCsu /ZI
; File c:\program files (x86)\microsoft visual studio 12.0\vc\include\iosfwd
;	COMDAT ?length@?$char_traits@D@std@@SAIPBD@Z
_TEXT	SEGMENT
tv68 = -196						; size = 4
__First$ = 8						; size = 4
?length@?$char_traits@D@std@@SAIPBD@Z PROC		; std::char_traits<char>::length, COMDAT

; 521  : 		{	// find length of null-terminated string

	push	ebp
	mov	ebp, esp
	sub	esp, 196				; 000000c4H
	push	ebx
	push	esi
	push	edi
	lea	edi, DWORD PTR [ebp-196]
	mov	ecx, 49					; 00000031H
	mov	eax, -858993460				; ccccccccH
	rep stosd

; 522  : 		return (*_First == 0 ? 0
; 523  : 			: _CSTD strlen(_First));

	mov	eax, DWORD PTR __First$[ebp]
	movsx	ecx, BYTE PTR [eax]
	test	ecx, ecx
	jne	SHORT $LN3@length
	mov	DWORD PTR tv68[ebp], 0
	jmp	SHORT $LN4@length
$LN3@length:
	mov	edx, DWORD PTR __First$[ebp]
	push	edx
	call	_strlen
	add	esp, 4
	mov	DWORD PTR tv68[ebp], eax
$LN4@length:
	mov	eax, DWORD PTR tv68[ebp]

; 524  : 		}

	pop	edi
	pop	esi
	pop	ebx
	add	esp, 196				; 000000c4H
	cmp	ebp, esp
	call	__RTC_CheckEsp
	mov	esp, ebp
	pop	ebp
	ret	0
?length@?$char_traits@D@std@@SAIPBD@Z ENDP		; std::char_traits<char>::length
_TEXT	ENDS
; Function compile flags: /Odtp /RTCsu /ZI
; File c:\program files (x86)\microsoft visual studio 12.0\vc\include\new
;	COMDAT ??3@YAXPAX0@Z
_TEXT	SEGMENT
___formal$ = 8						; size = 4
___formal$ = 12						; size = 4
??3@YAXPAX0@Z PROC					; operator delete, COMDAT

; 64   : 	{	// delete if placement new fails

	push	ebp
	mov	ebp, esp
	sub	esp, 192				; 000000c0H
	push	ebx
	push	esi
	push	edi
	lea	edi, DWORD PTR [ebp-192]
	mov	ecx, 48					; 00000030H
	mov	eax, -858993460				; ccccccccH
	rep stosd

; 65   : 	}

	pop	edi
	pop	esi
	pop	ebx
	mov	esp, ebp
	pop	ebp
	ret	0
??3@YAXPAX0@Z ENDP					; operator delete
_TEXT	ENDS
; Function compile flags: /Odtp /RTCsu /ZI
; File c:\program files (x86)\microsoft visual studio 12.0\vc\include\new
;	COMDAT ??2@YAPAXIPAX@Z
_TEXT	SEGMENT
___formal$ = 8						; size = 4
__Where$ = 12						; size = 4
??2@YAPAXIPAX@Z PROC					; operator new, COMDAT

; 59   : 	{	// construct array with placement at _Where

	push	ebp
	mov	ebp, esp
	sub	esp, 192				; 000000c0H
	push	ebx
	push	esi
	push	edi
	lea	edi, DWORD PTR [ebp-192]
	mov	ecx, 48					; 00000030H
	mov	eax, -858993460				; ccccccccH
	rep stosd

; 60   : 	return (_Where);

	mov	eax, DWORD PTR __Where$[ebp]

; 61   : 	}

	pop	edi
	pop	esi
	pop	ebx
	mov	esp, ebp
	pop	ebp
	ret	0
??2@YAPAXIPAX@Z ENDP					; operator new
_TEXT	ENDS
; Function compile flags: /Odtp /RTCsu /ZI
; File c:\program files (x86)\microsoft visual studio 12.0\vc\include\math.h
;	COMDAT _sqrtf
_TEXT	SEGMENT
tv71 = -196						; size = 4
__X$ = 8						; size = 4
_sqrtf	PROC						; COMDAT

; 774  : {

	push	ebp
	mov	ebp, esp
	sub	esp, 196				; 000000c4H
	push	ebx
	push	esi
	push	edi
	lea	edi, DWORD PTR [ebp-196]
	mov	ecx, 49					; 00000031H
	mov	eax, -858993460				; ccccccccH
	rep stosd

; 775  :     return (float)sqrt(_X);

	cvtss2sd xmm0, DWORD PTR __X$[ebp]
	sub	esp, 8
	movsd	QWORD PTR [esp], xmm0
	call	_sqrt
	add	esp, 8
	fstp	DWORD PTR tv71[ebp]
	fld	DWORD PTR tv71[ebp]

; 776  : }

	pop	edi
	pop	esi
	pop	ebx
	add	esp, 196				; 000000c4H
	cmp	ebp, esp
	call	__RTC_CheckEsp
	mov	esp, ebp
	pop	ebp
	ret	0
_sqrtf	ENDP
_TEXT	ENDS
; Function compile flags: /Odtp /RTCsu /ZI
; File c:\program files (x86)\microsoft visual studio 12.0\vc\include\math.h
;	COMDAT _sinf
_TEXT	SEGMENT
tv71 = -196						; size = 4
__X$ = 8						; size = 4
_sinf	PROC						; COMDAT

; 764  : {

	push	ebp
	mov	ebp, esp
	sub	esp, 196				; 000000c4H
	push	ebx
	push	esi
	push	edi
	lea	edi, DWORD PTR [ebp-196]
	mov	ecx, 49					; 00000031H
	mov	eax, -858993460				; ccccccccH
	rep stosd

; 765  :     return (float)sin(_X);

	cvtss2sd xmm0, DWORD PTR __X$[ebp]
	sub	esp, 8
	movsd	QWORD PTR [esp], xmm0
	call	_sin
	add	esp, 8
	fstp	DWORD PTR tv71[ebp]
	fld	DWORD PTR tv71[ebp]

; 766  : }

	pop	edi
	pop	esi
	pop	ebx
	add	esp, 196				; 000000c4H
	cmp	ebp, esp
	call	__RTC_CheckEsp
	mov	esp, ebp
	pop	ebp
	ret	0
_sinf	ENDP
_TEXT	ENDS
; Function compile flags: /Odtp /RTCsu /ZI
; File c:\program files (x86)\microsoft visual studio 12.0\vc\include\math.h
;	COMDAT _fabsf
_TEXT	SEGMENT
tv71 = -196						; size = 4
__X$ = 8						; size = 4
_fabsf	PROC						; COMDAT

; 686  : {

	push	ebp
	mov	ebp, esp
	sub	esp, 196				; 000000c4H
	push	ebx
	push	esi
	push	edi
	lea	edi, DWORD PTR [ebp-196]
	mov	ecx, 49					; 00000031H
	mov	eax, -858993460				; ccccccccH
	rep stosd

; 687  :     return (float)fabs(_X);

	cvtss2sd xmm0, DWORD PTR __X$[ebp]
	sub	esp, 8
	movsd	QWORD PTR [esp], xmm0
	call	_fabs
	add	esp, 8
	fstp	DWORD PTR tv71[ebp]
	fld	DWORD PTR tv71[ebp]

; 688  : }

	pop	edi
	pop	esi
	pop	ebx
	add	esp, 196				; 000000c4H
	cmp	ebp, esp
	call	__RTC_CheckEsp
	mov	esp, ebp
	pop	ebp
	ret	0
_fabsf	ENDP
_TEXT	ENDS
; Function compile flags: /Odtp /RTCsu /ZI
; File c:\program files (x86)\microsoft visual studio 12.0\vc\include\math.h
;	COMDAT _cosf
_TEXT	SEGMENT
tv71 = -196						; size = 4
__X$ = 8						; size = 4
_cosf	PROC						; COMDAT

; 663  : {

	push	ebp
	mov	ebp, esp
	sub	esp, 196				; 000000c4H
	push	ebx
	push	esi
	push	edi
	lea	edi, DWORD PTR [ebp-196]
	mov	ecx, 49					; 00000031H
	mov	eax, -858993460				; ccccccccH
	rep stosd

; 664  :     return (float)cos(_X);

	cvtss2sd xmm0, DWORD PTR __X$[ebp]
	sub	esp, 8
	movsd	QWORD PTR [esp], xmm0
	call	_cos
	add	esp, 8
	fstp	DWORD PTR tv71[ebp]
	fld	DWORD PTR tv71[ebp]

; 665  : }

	pop	edi
	pop	esi
	pop	ebx
	add	esp, 196				; 000000c4H
	cmp	ebp, esp
	call	__RTC_CheckEsp
	mov	esp, ebp
	pop	ebp
	ret	0
_cosf	ENDP
_TEXT	ENDS
; Function compile flags: /Odtp /RTCsu /ZI
; File c:\program files (x86)\microsoft visual studio 12.0\vc\include\math.h
;	COMDAT _atan2f
_TEXT	SEGMENT
tv74 = -196						; size = 4
__Y$ = 8						; size = 4
__X$ = 12						; size = 4
_atan2f	PROC						; COMDAT

; 648  : {

	push	ebp
	mov	ebp, esp
	sub	esp, 196				; 000000c4H
	push	ebx
	push	esi
	push	edi
	lea	edi, DWORD PTR [ebp-196]
	mov	ecx, 49					; 00000031H
	mov	eax, -858993460				; ccccccccH
	rep stosd

; 649  :     return (float)atan2(_Y, _X);

	cvtss2sd xmm0, DWORD PTR __X$[ebp]
	sub	esp, 8
	movsd	QWORD PTR [esp], xmm0
	cvtss2sd xmm0, DWORD PTR __Y$[ebp]
	sub	esp, 8
	movsd	QWORD PTR [esp], xmm0
	call	_atan2
	add	esp, 16					; 00000010H
	fstp	DWORD PTR tv74[ebp]
	fld	DWORD PTR tv74[ebp]

; 650  : }

	pop	edi
	pop	esi
	pop	ebx
	add	esp, 196				; 000000c4H
	cmp	ebp, esp
	call	__RTC_CheckEsp
	mov	esp, ebp
	pop	ebp
	ret	0
_atan2f	ENDP
_TEXT	ENDS
; Function compile flags: /Odtp /RTCsu /ZI
; File c:\program files (x86)\microsoft visual studio 12.0\vc\include\math.h
;	COMDAT _acosf
_TEXT	SEGMENT
tv71 = -196						; size = 4
__X$ = 8						; size = 4
_acosf	PROC						; COMDAT

; 638  : {

	push	ebp
	mov	ebp, esp
	sub	esp, 196				; 000000c4H
	push	ebx
	push	esi
	push	edi
	lea	edi, DWORD PTR [ebp-196]
	mov	ecx, 49					; 00000031H
	mov	eax, -858993460				; ccccccccH
	rep stosd

; 639  :     return (float)acos(_X);

	cvtss2sd xmm0, DWORD PTR __X$[ebp]
	sub	esp, 8
	movsd	QWORD PTR [esp], xmm0
	call	_acos
	add	esp, 8
	fstp	DWORD PTR tv71[ebp]
	fld	DWORD PTR tv71[ebp]

; 640  : }

	pop	edi
	pop	esi
	pop	ebx
	add	esp, 196				; 000000c4H
	cmp	ebp, esp
	call	__RTC_CheckEsp
	mov	esp, ebp
	pop	ebp
	ret	0
_acosf	ENDP
_TEXT	ENDS
; Function compile flags: /Odtp /RTCsu /ZI
; File c:\program files (x86)\microsoft visual studio 12.0\vc\include\math.h
;	COMDAT _hypot
_TEXT	SEGMENT
__X$ = 8						; size = 8
__Y$ = 16						; size = 8
_hypot	PROC						; COMDAT

; 556  : {

	push	ebp
	mov	ebp, esp
	sub	esp, 192				; 000000c0H
	push	ebx
	push	esi
	push	edi
	lea	edi, DWORD PTR [ebp-192]
	mov	ecx, 48					; 00000030H
	mov	eax, -858993460				; ccccccccH
	rep stosd

; 557  :     return _hypot(_X, _Y);

	sub	esp, 8
	movsd	xmm0, QWORD PTR __Y$[ebp]
	movsd	QWORD PTR [esp], xmm0
	sub	esp, 8
	movsd	xmm0, QWORD PTR __X$[ebp]
	movsd	QWORD PTR [esp], xmm0
	call	__hypot
	add	esp, 16					; 00000010H

; 558  : }

	pop	edi
	pop	esi
	pop	ebx
	add	esp, 192				; 000000c0H
	cmp	ebp, esp
	call	__RTC_CheckEsp
	mov	esp, ebp
	pop	ebp
	ret	0
_hypot	ENDP
_TEXT	ENDS
END
