; Listing generated by Microsoft (R) Optimizing Compiler Version 18.00.30501.0 

	TITLE	C:\Users\Simon\Documents\GitHub\UCLAN-sparta\Import\Math\CMatrix4x4.cpp
	.686P
	.XMM
	include listing.inc
	.model	flat

INCLUDELIB LIBCMTD
INCLUDELIB OLDNAMES

PUBLIC	?digits@?$numeric_limits@H@std@@2HB		; std::numeric_limits<int>::digits
PUBLIC	?digits10@?$numeric_limits@H@std@@2HB		; std::numeric_limits<int>::digits10
PUBLIC	?is_signed@?$numeric_limits@I@std@@2_NB		; std::numeric_limits<unsigned int>::is_signed
PUBLIC	?digits@?$numeric_limits@I@std@@2HB		; std::numeric_limits<unsigned int>::digits
PUBLIC	?digits10@?$numeric_limits@I@std@@2HB		; std::numeric_limits<unsigned int>::digits10
PUBLIC	?value@?$integral_constant@I$07@std@@2IB	; std::integral_constant<unsigned int,8>::value
PUBLIC	?is_signed@?$numeric_limits@J@std@@2_NB		; std::numeric_limits<long>::is_signed
PUBLIC	?digits@?$numeric_limits@J@std@@2HB		; std::numeric_limits<long>::digits
PUBLIC	?digits10@?$numeric_limits@J@std@@2HB		; std::numeric_limits<long>::digits10
PUBLIC	?value@?$integral_constant@_N$0A@@std@@2_NB	; std::integral_constant<bool,0>::value
PUBLIC	?value@?$integral_constant@_N$00@std@@2_NB	; std::integral_constant<bool,1>::value
PUBLIC	?value@?$integral_constant@I$03@std@@2IB	; std::integral_constant<unsigned int,4>::value
PUBLIC	?is_signed@?$numeric_limits@K@std@@2_NB		; std::numeric_limits<unsigned long>::is_signed
PUBLIC	?digits@?$numeric_limits@K@std@@2HB		; std::numeric_limits<unsigned long>::digits
PUBLIC	?digits10@?$numeric_limits@K@std@@2HB		; std::numeric_limits<unsigned long>::digits10
PUBLIC	?is_signed@?$numeric_limits@_J@std@@2_NB	; std::numeric_limits<__int64>::is_signed
PUBLIC	?digits@?$numeric_limits@_J@std@@2HB		; std::numeric_limits<__int64>::digits
PUBLIC	?digits10@?$numeric_limits@_J@std@@2HB		; std::numeric_limits<__int64>::digits10
PUBLIC	?value@?$integral_constant@I$01@std@@2IB	; std::integral_constant<unsigned int,2>::value
PUBLIC	?is_signed@?$numeric_limits@_K@std@@2_NB	; std::numeric_limits<unsigned __int64>::is_signed
PUBLIC	?digits@?$numeric_limits@_K@std@@2HB		; std::numeric_limits<unsigned __int64>::digits
PUBLIC	?digits10@?$numeric_limits@_K@std@@2HB		; std::numeric_limits<unsigned __int64>::digits10
PUBLIC	?skipws@?$_Iosb@H@std@@2W4_Fmtflags@12@B	; std::_Iosb<int>::skipws
PUBLIC	?unitbuf@?$_Iosb@H@std@@2W4_Fmtflags@12@B	; std::_Iosb<int>::unitbuf
PUBLIC	?uppercase@?$_Iosb@H@std@@2W4_Fmtflags@12@B	; std::_Iosb<int>::uppercase
PUBLIC	?showbase@?$_Iosb@H@std@@2W4_Fmtflags@12@B	; std::_Iosb<int>::showbase
PUBLIC	?showpoint@?$_Iosb@H@std@@2W4_Fmtflags@12@B	; std::_Iosb<int>::showpoint
PUBLIC	?showpos@?$_Iosb@H@std@@2W4_Fmtflags@12@B	; std::_Iosb<int>::showpos
PUBLIC	?left@?$_Iosb@H@std@@2W4_Fmtflags@12@B		; std::_Iosb<int>::left
PUBLIC	?right@?$_Iosb@H@std@@2W4_Fmtflags@12@B		; std::_Iosb<int>::right
PUBLIC	?internal@?$_Iosb@H@std@@2W4_Fmtflags@12@B	; std::_Iosb<int>::internal
PUBLIC	?dec@?$_Iosb@H@std@@2W4_Fmtflags@12@B		; std::_Iosb<int>::dec
PUBLIC	?oct@?$_Iosb@H@std@@2W4_Fmtflags@12@B		; std::_Iosb<int>::oct
PUBLIC	?digits@?$numeric_limits@M@std@@2HB		; std::numeric_limits<float>::digits
PUBLIC	?value@?$integral_constant@I$00@std@@2IB	; std::integral_constant<unsigned int,1>::value
PUBLIC	?digits10@?$numeric_limits@M@std@@2HB		; std::numeric_limits<float>::digits10
PUBLIC	?hex@?$_Iosb@H@std@@2W4_Fmtflags@12@B		; std::_Iosb<int>::hex
PUBLIC	?max_digits10@?$numeric_limits@M@std@@2HB	; std::numeric_limits<float>::max_digits10
PUBLIC	?scientific@?$_Iosb@H@std@@2W4_Fmtflags@12@B	; std::_Iosb<int>::scientific
PUBLIC	?fixed@?$_Iosb@H@std@@2W4_Fmtflags@12@B		; std::_Iosb<int>::fixed
PUBLIC	?max_exponent@?$numeric_limits@M@std@@2HB	; std::numeric_limits<float>::max_exponent
PUBLIC	?hexfloat@?$_Iosb@H@std@@2W4_Fmtflags@12@B	; std::_Iosb<int>::hexfloat
PUBLIC	?max_exponent10@?$numeric_limits@M@std@@2HB	; std::numeric_limits<float>::max_exponent10
PUBLIC	?boolalpha@?$_Iosb@H@std@@2W4_Fmtflags@12@B	; std::_Iosb<int>::boolalpha
PUBLIC	?min_exponent@?$numeric_limits@M@std@@2HB	; std::numeric_limits<float>::min_exponent
PUBLIC	?_Stdio@?$_Iosb@H@std@@2W4_Fmtflags@12@B	; std::_Iosb<int>::_Stdio
PUBLIC	?adjustfield@?$_Iosb@H@std@@2W4_Fmtflags@12@B	; std::_Iosb<int>::adjustfield
PUBLIC	?min_exponent10@?$numeric_limits@M@std@@2HB	; std::numeric_limits<float>::min_exponent10
PUBLIC	?basefield@?$_Iosb@H@std@@2W4_Fmtflags@12@B	; std::_Iosb<int>::basefield
PUBLIC	?value@?$_Maximum@$S@std@@2IB			; std::_Maximum<>::value
PUBLIC	?floatfield@?$_Iosb@H@std@@2W4_Fmtflags@12@B	; std::_Iosb<int>::floatfield
PUBLIC	?goodbit@?$_Iosb@H@std@@2W4_Iostate@12@B	; std::_Iosb<int>::goodbit
PUBLIC	?eofbit@?$_Iosb@H@std@@2W4_Iostate@12@B		; std::_Iosb<int>::eofbit
PUBLIC	?failbit@?$_Iosb@H@std@@2W4_Iostate@12@B	; std::_Iosb<int>::failbit
PUBLIC	?badbit@?$_Iosb@H@std@@2W4_Iostate@12@B		; std::_Iosb<int>::badbit
PUBLIC	?_Hardfail@?$_Iosb@H@std@@2W4_Iostate@12@B	; std::_Iosb<int>::_Hardfail
PUBLIC	?in@?$_Iosb@H@std@@2W4_Openmode@12@B		; std::_Iosb<int>::in
PUBLIC	?digits@?$numeric_limits@N@std@@2HB		; std::numeric_limits<double>::digits
PUBLIC	?out@?$_Iosb@H@std@@2W4_Openmode@12@B		; std::_Iosb<int>::out
PUBLIC	?ate@?$_Iosb@H@std@@2W4_Openmode@12@B		; std::_Iosb<int>::ate
PUBLIC	?digits10@?$numeric_limits@N@std@@2HB		; std::numeric_limits<double>::digits10
PUBLIC	?max_digits10@?$numeric_limits@N@std@@2HB	; std::numeric_limits<double>::max_digits10
PUBLIC	?app@?$_Iosb@H@std@@2W4_Openmode@12@B		; std::_Iosb<int>::app
PUBLIC	?value@?$integral_constant@I$0A@@std@@2IB	; std::integral_constant<unsigned int,0>::value
PUBLIC	?trunc@?$_Iosb@H@std@@2W4_Openmode@12@B		; std::_Iosb<int>::trunc
PUBLIC	?max_exponent@?$numeric_limits@N@std@@2HB	; std::numeric_limits<double>::max_exponent
PUBLIC	?_Nocreate@?$_Iosb@H@std@@2W4_Openmode@12@B	; std::_Iosb<int>::_Nocreate
PUBLIC	?max_exponent10@?$numeric_limits@N@std@@2HB	; std::numeric_limits<double>::max_exponent10
PUBLIC	?_Noreplace@?$_Iosb@H@std@@2W4_Openmode@12@B	; std::_Iosb<int>::_Noreplace
PUBLIC	?min_exponent@?$numeric_limits@N@std@@2HB	; std::numeric_limits<double>::min_exponent
PUBLIC	?binary@?$_Iosb@H@std@@2W4_Openmode@12@B	; std::_Iosb<int>::binary
PUBLIC	?min_exponent10@?$numeric_limits@N@std@@2HB	; std::numeric_limits<double>::min_exponent10
PUBLIC	?beg@?$_Iosb@H@std@@2W4_Seekdir@12@B		; std::_Iosb<int>::beg
PUBLIC	?cur@?$_Iosb@H@std@@2W4_Seekdir@12@B		; std::_Iosb<int>::cur
PUBLIC	?end@?$_Iosb@H@std@@2W4_Seekdir@12@B		; std::_Iosb<int>::end
PUBLIC	?digits@?$numeric_limits@O@std@@2HB		; std::numeric_limits<long double>::digits
PUBLIC	?digits10@?$numeric_limits@O@std@@2HB		; std::numeric_limits<long double>::digits10
PUBLIC	?max_digits10@?$numeric_limits@O@std@@2HB	; std::numeric_limits<long double>::max_digits10
PUBLIC	?max_exponent@?$numeric_limits@O@std@@2HB	; std::numeric_limits<long double>::max_exponent
PUBLIC	?collate@?$_Locbase@H@std@@2HB			; std::_Locbase<int>::collate
PUBLIC	?max_exponent10@?$numeric_limits@O@std@@2HB	; std::numeric_limits<long double>::max_exponent10
PUBLIC	?ctype@?$_Locbase@H@std@@2HB			; std::_Locbase<int>::ctype
PUBLIC	?monetary@?$_Locbase@H@std@@2HB			; std::_Locbase<int>::monetary
PUBLIC	?min_exponent@?$numeric_limits@O@std@@2HB	; std::numeric_limits<long double>::min_exponent
PUBLIC	?numeric@?$_Locbase@H@std@@2HB			; std::_Locbase<int>::numeric
PUBLIC	?time@?$_Locbase@H@std@@2HB			; std::_Locbase<int>::time
PUBLIC	?min_exponent10@?$numeric_limits@O@std@@2HB	; std::numeric_limits<long double>::min_exponent10
PUBLIC	?messages@?$_Locbase@H@std@@2HB			; std::_Locbase<int>::messages
PUBLIC	?all@?$_Locbase@H@std@@2HB			; std::_Locbase<int>::all
PUBLIC	?none@?$_Locbase@H@std@@2HB			; std::_Locbase<int>::none
PUBLIC	?table_size@?$ctype@D@std@@2IB			; std::ctype<char>::table_size
PUBLIC	?has_denorm@_Num_base@std@@2W4float_denorm_style@2@B ; std::_Num_base::has_denorm
PUBLIC	?has_denorm_loss@_Num_base@std@@2_NB		; std::_Num_base::has_denorm_loss
PUBLIC	?has_infinity@_Num_base@std@@2_NB		; std::_Num_base::has_infinity
PUBLIC	?has_quiet_NaN@_Num_base@std@@2_NB		; std::_Num_base::has_quiet_NaN
PUBLIC	?has_signaling_NaN@_Num_base@std@@2_NB		; std::_Num_base::has_signaling_NaN
PUBLIC	?is_bounded@_Num_base@std@@2_NB			; std::_Num_base::is_bounded
PUBLIC	?is_exact@_Num_base@std@@2_NB			; std::_Num_base::is_exact
PUBLIC	?is_iec559@_Num_base@std@@2_NB			; std::_Num_base::is_iec559
PUBLIC	?is_integer@_Num_base@std@@2_NB			; std::_Num_base::is_integer
PUBLIC	?is_modulo@_Num_base@std@@2_NB			; std::_Num_base::is_modulo
PUBLIC	?is_signed@_Num_base@std@@2_NB			; std::_Num_base::is_signed
PUBLIC	?is_specialized@_Num_base@std@@2_NB		; std::_Num_base::is_specialized
PUBLIC	?tinyness_before@_Num_base@std@@2_NB		; std::_Num_base::tinyness_before
PUBLIC	?traps@_Num_base@std@@2_NB			; std::_Num_base::traps
PUBLIC	?round_style@_Num_base@std@@2W4float_round_style@2@B ; std::_Num_base::round_style
PUBLIC	?digits@_Num_base@std@@2HB			; std::_Num_base::digits
PUBLIC	?digits10@_Num_base@std@@2HB			; std::_Num_base::digits10
PUBLIC	?max_digits10@_Num_base@std@@2HB		; std::_Num_base::max_digits10
PUBLIC	?max_exponent@_Num_base@std@@2HB		; std::_Num_base::max_exponent
PUBLIC	?max_exponent10@_Num_base@std@@2HB		; std::_Num_base::max_exponent10
PUBLIC	?min_exponent@_Num_base@std@@2HB		; std::_Num_base::min_exponent
PUBLIC	?min_exponent10@_Num_base@std@@2HB		; std::_Num_base::min_exponent10
PUBLIC	?radix@_Num_base@std@@2HB			; std::_Num_base::radix
PUBLIC	?is_bounded@_Num_int_base@std@@2_NB		; std::_Num_int_base::is_bounded
PUBLIC	?is_exact@_Num_int_base@std@@2_NB		; std::_Num_int_base::is_exact
PUBLIC	?is_integer@_Num_int_base@std@@2_NB		; std::_Num_int_base::is_integer
PUBLIC	?is_modulo@_Num_int_base@std@@2_NB		; std::_Num_int_base::is_modulo
PUBLIC	?is_specialized@_Num_int_base@std@@2_NB		; std::_Num_int_base::is_specialized
PUBLIC	?radix@_Num_int_base@std@@2HB			; std::_Num_int_base::radix
PUBLIC	?has_denorm@_Num_float_base@std@@2W4float_denorm_style@2@B ; std::_Num_float_base::has_denorm
PUBLIC	?has_denorm_loss@_Num_float_base@std@@2_NB	; std::_Num_float_base::has_denorm_loss
PUBLIC	?has_infinity@_Num_float_base@std@@2_NB		; std::_Num_float_base::has_infinity
PUBLIC	?has_quiet_NaN@_Num_float_base@std@@2_NB	; std::_Num_float_base::has_quiet_NaN
PUBLIC	?has_signaling_NaN@_Num_float_base@std@@2_NB	; std::_Num_float_base::has_signaling_NaN
PUBLIC	?is_bounded@_Num_float_base@std@@2_NB		; std::_Num_float_base::is_bounded
PUBLIC	?is_exact@_Num_float_base@std@@2_NB		; std::_Num_float_base::is_exact
PUBLIC	?is_iec559@_Num_float_base@std@@2_NB		; std::_Num_float_base::is_iec559
PUBLIC	?is_integer@_Num_float_base@std@@2_NB		; std::_Num_float_base::is_integer
PUBLIC	?is_modulo@_Num_float_base@std@@2_NB		; std::_Num_float_base::is_modulo
PUBLIC	?is_signed@_Num_float_base@std@@2_NB		; std::_Num_float_base::is_signed
PUBLIC	?is_specialized@_Num_float_base@std@@2_NB	; std::_Num_float_base::is_specialized
PUBLIC	?tinyness_before@_Num_float_base@std@@2_NB	; std::_Num_float_base::tinyness_before
PUBLIC	?traps@_Num_float_base@std@@2_NB		; std::_Num_float_base::traps
PUBLIC	?round_style@_Num_float_base@std@@2W4float_round_style@2@B ; std::_Num_float_base::round_style
PUBLIC	?radix@_Num_float_base@std@@2HB			; std::_Num_float_base::radix
PUBLIC	?is_signed@?$numeric_limits@D@std@@2_NB		; std::numeric_limits<char>::is_signed
PUBLIC	?digits@?$numeric_limits@D@std@@2HB		; std::numeric_limits<char>::digits
PUBLIC	?digits10@?$numeric_limits@D@std@@2HB		; std::numeric_limits<char>::digits10
PUBLIC	?is_signed@?$numeric_limits@_W@std@@2_NB	; std::numeric_limits<wchar_t>::is_signed
PUBLIC	?digits@?$numeric_limits@_W@std@@2HB		; std::numeric_limits<wchar_t>::digits
PUBLIC	?digits10@?$numeric_limits@_W@std@@2HB		; std::numeric_limits<wchar_t>::digits10
PUBLIC	?is_modulo@?$numeric_limits@_N@std@@2_NB	; std::numeric_limits<bool>::is_modulo
PUBLIC	?is_signed@?$numeric_limits@_N@std@@2_NB	; std::numeric_limits<bool>::is_signed
PUBLIC	?digits@?$numeric_limits@_N@std@@2HB		; std::numeric_limits<bool>::digits
PUBLIC	?digits10@?$numeric_limits@_N@std@@2HB		; std::numeric_limits<bool>::digits10
PUBLIC	?is_signed@?$numeric_limits@C@std@@2_NB		; std::numeric_limits<signed char>::is_signed
PUBLIC	?digits@?$numeric_limits@C@std@@2HB		; std::numeric_limits<signed char>::digits
PUBLIC	?digits10@?$numeric_limits@C@std@@2HB		; std::numeric_limits<signed char>::digits10
PUBLIC	?is_signed@?$numeric_limits@E@std@@2_NB		; std::numeric_limits<unsigned char>::is_signed
PUBLIC	?digits@?$numeric_limits@E@std@@2HB		; std::numeric_limits<unsigned char>::digits
PUBLIC	?digits10@?$numeric_limits@E@std@@2HB		; std::numeric_limits<unsigned char>::digits10
PUBLIC	?is_signed@?$numeric_limits@F@std@@2_NB		; std::numeric_limits<short>::is_signed
PUBLIC	?digits@?$numeric_limits@F@std@@2HB		; std::numeric_limits<short>::digits
PUBLIC	?digits10@?$numeric_limits@F@std@@2HB		; std::numeric_limits<short>::digits10
PUBLIC	?is_signed@?$numeric_limits@G@std@@2_NB		; std::numeric_limits<unsigned short>::is_signed
PUBLIC	?digits@?$numeric_limits@G@std@@2HB		; std::numeric_limits<unsigned short>::digits
PUBLIC	?digits10@?$numeric_limits@G@std@@2HB		; std::numeric_limits<unsigned short>::digits10
PUBLIC	?is_signed@?$numeric_limits@H@std@@2_NB		; std::numeric_limits<int>::is_signed
;	COMDAT ?is_signed@?$numeric_limits@H@std@@2_NB
CONST	SEGMENT
?is_signed@?$numeric_limits@H@std@@2_NB DB 01H		; std::numeric_limits<int>::is_signed
CONST	ENDS
;	COMDAT ?digits10@?$numeric_limits@G@std@@2HB
CONST	SEGMENT
?digits10@?$numeric_limits@G@std@@2HB DD 04H		; std::numeric_limits<unsigned short>::digits10
CONST	ENDS
;	COMDAT ?digits@?$numeric_limits@G@std@@2HB
CONST	SEGMENT
?digits@?$numeric_limits@G@std@@2HB DD 010H		; std::numeric_limits<unsigned short>::digits
CONST	ENDS
;	COMDAT ?is_signed@?$numeric_limits@G@std@@2_NB
CONST	SEGMENT
?is_signed@?$numeric_limits@G@std@@2_NB DB 00H		; std::numeric_limits<unsigned short>::is_signed
CONST	ENDS
;	COMDAT ?digits10@?$numeric_limits@F@std@@2HB
CONST	SEGMENT
?digits10@?$numeric_limits@F@std@@2HB DD 04H		; std::numeric_limits<short>::digits10
CONST	ENDS
;	COMDAT ?digits@?$numeric_limits@F@std@@2HB
CONST	SEGMENT
?digits@?$numeric_limits@F@std@@2HB DD 0fH		; std::numeric_limits<short>::digits
CONST	ENDS
;	COMDAT ?is_signed@?$numeric_limits@F@std@@2_NB
CONST	SEGMENT
?is_signed@?$numeric_limits@F@std@@2_NB DB 01H		; std::numeric_limits<short>::is_signed
CONST	ENDS
;	COMDAT ?digits10@?$numeric_limits@E@std@@2HB
CONST	SEGMENT
?digits10@?$numeric_limits@E@std@@2HB DD 02H		; std::numeric_limits<unsigned char>::digits10
CONST	ENDS
;	COMDAT ?digits@?$numeric_limits@E@std@@2HB
CONST	SEGMENT
?digits@?$numeric_limits@E@std@@2HB DD 08H		; std::numeric_limits<unsigned char>::digits
CONST	ENDS
;	COMDAT ?is_signed@?$numeric_limits@E@std@@2_NB
CONST	SEGMENT
?is_signed@?$numeric_limits@E@std@@2_NB DB 00H		; std::numeric_limits<unsigned char>::is_signed
CONST	ENDS
;	COMDAT ?digits10@?$numeric_limits@C@std@@2HB
CONST	SEGMENT
?digits10@?$numeric_limits@C@std@@2HB DD 02H		; std::numeric_limits<signed char>::digits10
CONST	ENDS
;	COMDAT ?digits@?$numeric_limits@C@std@@2HB
CONST	SEGMENT
?digits@?$numeric_limits@C@std@@2HB DD 07H		; std::numeric_limits<signed char>::digits
CONST	ENDS
;	COMDAT ?is_signed@?$numeric_limits@C@std@@2_NB
CONST	SEGMENT
?is_signed@?$numeric_limits@C@std@@2_NB DB 01H		; std::numeric_limits<signed char>::is_signed
CONST	ENDS
;	COMDAT ?digits10@?$numeric_limits@_N@std@@2HB
CONST	SEGMENT
?digits10@?$numeric_limits@_N@std@@2HB DD 00H		; std::numeric_limits<bool>::digits10
CONST	ENDS
;	COMDAT ?digits@?$numeric_limits@_N@std@@2HB
CONST	SEGMENT
?digits@?$numeric_limits@_N@std@@2HB DD 01H		; std::numeric_limits<bool>::digits
CONST	ENDS
;	COMDAT ?is_signed@?$numeric_limits@_N@std@@2_NB
CONST	SEGMENT
?is_signed@?$numeric_limits@_N@std@@2_NB DB 00H		; std::numeric_limits<bool>::is_signed
CONST	ENDS
;	COMDAT ?is_modulo@?$numeric_limits@_N@std@@2_NB
CONST	SEGMENT
?is_modulo@?$numeric_limits@_N@std@@2_NB DB 00H		; std::numeric_limits<bool>::is_modulo
CONST	ENDS
;	COMDAT ?digits10@?$numeric_limits@_W@std@@2HB
CONST	SEGMENT
?digits10@?$numeric_limits@_W@std@@2HB DD 04H		; std::numeric_limits<wchar_t>::digits10
CONST	ENDS
;	COMDAT ?digits@?$numeric_limits@_W@std@@2HB
CONST	SEGMENT
?digits@?$numeric_limits@_W@std@@2HB DD 010H		; std::numeric_limits<wchar_t>::digits
CONST	ENDS
;	COMDAT ?is_signed@?$numeric_limits@_W@std@@2_NB
CONST	SEGMENT
?is_signed@?$numeric_limits@_W@std@@2_NB DB 00H		; std::numeric_limits<wchar_t>::is_signed
CONST	ENDS
;	COMDAT ?digits10@?$numeric_limits@D@std@@2HB
CONST	SEGMENT
?digits10@?$numeric_limits@D@std@@2HB DD 02H		; std::numeric_limits<char>::digits10
CONST	ENDS
;	COMDAT ?digits@?$numeric_limits@D@std@@2HB
CONST	SEGMENT
?digits@?$numeric_limits@D@std@@2HB DD 07H		; std::numeric_limits<char>::digits
CONST	ENDS
;	COMDAT ?is_signed@?$numeric_limits@D@std@@2_NB
CONST	SEGMENT
?is_signed@?$numeric_limits@D@std@@2_NB DB 01H		; std::numeric_limits<char>::is_signed
CONST	ENDS
;	COMDAT ?radix@_Num_float_base@std@@2HB
CONST	SEGMENT
?radix@_Num_float_base@std@@2HB DD 02H			; std::_Num_float_base::radix
CONST	ENDS
;	COMDAT ?round_style@_Num_float_base@std@@2W4float_round_style@2@B
CONST	SEGMENT
?round_style@_Num_float_base@std@@2W4float_round_style@2@B DD 01H ; std::_Num_float_base::round_style
CONST	ENDS
;	COMDAT ?traps@_Num_float_base@std@@2_NB
CONST	SEGMENT
?traps@_Num_float_base@std@@2_NB DB 00H			; std::_Num_float_base::traps
CONST	ENDS
;	COMDAT ?tinyness_before@_Num_float_base@std@@2_NB
CONST	SEGMENT
?tinyness_before@_Num_float_base@std@@2_NB DB 01H	; std::_Num_float_base::tinyness_before
CONST	ENDS
;	COMDAT ?is_specialized@_Num_float_base@std@@2_NB
CONST	SEGMENT
?is_specialized@_Num_float_base@std@@2_NB DB 01H	; std::_Num_float_base::is_specialized
CONST	ENDS
;	COMDAT ?is_signed@_Num_float_base@std@@2_NB
CONST	SEGMENT
?is_signed@_Num_float_base@std@@2_NB DB 01H		; std::_Num_float_base::is_signed
CONST	ENDS
;	COMDAT ?is_modulo@_Num_float_base@std@@2_NB
CONST	SEGMENT
?is_modulo@_Num_float_base@std@@2_NB DB 00H		; std::_Num_float_base::is_modulo
CONST	ENDS
;	COMDAT ?is_integer@_Num_float_base@std@@2_NB
CONST	SEGMENT
?is_integer@_Num_float_base@std@@2_NB DB 00H		; std::_Num_float_base::is_integer
CONST	ENDS
;	COMDAT ?is_iec559@_Num_float_base@std@@2_NB
CONST	SEGMENT
?is_iec559@_Num_float_base@std@@2_NB DB 01H		; std::_Num_float_base::is_iec559
CONST	ENDS
;	COMDAT ?is_exact@_Num_float_base@std@@2_NB
CONST	SEGMENT
?is_exact@_Num_float_base@std@@2_NB DB 00H		; std::_Num_float_base::is_exact
CONST	ENDS
;	COMDAT ?is_bounded@_Num_float_base@std@@2_NB
CONST	SEGMENT
?is_bounded@_Num_float_base@std@@2_NB DB 01H		; std::_Num_float_base::is_bounded
CONST	ENDS
;	COMDAT ?has_signaling_NaN@_Num_float_base@std@@2_NB
CONST	SEGMENT
?has_signaling_NaN@_Num_float_base@std@@2_NB DB 01H	; std::_Num_float_base::has_signaling_NaN
CONST	ENDS
;	COMDAT ?has_quiet_NaN@_Num_float_base@std@@2_NB
CONST	SEGMENT
?has_quiet_NaN@_Num_float_base@std@@2_NB DB 01H		; std::_Num_float_base::has_quiet_NaN
CONST	ENDS
;	COMDAT ?has_infinity@_Num_float_base@std@@2_NB
CONST	SEGMENT
?has_infinity@_Num_float_base@std@@2_NB DB 01H		; std::_Num_float_base::has_infinity
CONST	ENDS
;	COMDAT ?has_denorm_loss@_Num_float_base@std@@2_NB
CONST	SEGMENT
?has_denorm_loss@_Num_float_base@std@@2_NB DB 01H	; std::_Num_float_base::has_denorm_loss
CONST	ENDS
;	COMDAT ?has_denorm@_Num_float_base@std@@2W4float_denorm_style@2@B
CONST	SEGMENT
?has_denorm@_Num_float_base@std@@2W4float_denorm_style@2@B DD 01H ; std::_Num_float_base::has_denorm
CONST	ENDS
;	COMDAT ?radix@_Num_int_base@std@@2HB
CONST	SEGMENT
?radix@_Num_int_base@std@@2HB DD 02H			; std::_Num_int_base::radix
CONST	ENDS
;	COMDAT ?is_specialized@_Num_int_base@std@@2_NB
CONST	SEGMENT
?is_specialized@_Num_int_base@std@@2_NB DB 01H		; std::_Num_int_base::is_specialized
CONST	ENDS
;	COMDAT ?is_modulo@_Num_int_base@std@@2_NB
CONST	SEGMENT
?is_modulo@_Num_int_base@std@@2_NB DB 01H		; std::_Num_int_base::is_modulo
CONST	ENDS
;	COMDAT ?is_integer@_Num_int_base@std@@2_NB
CONST	SEGMENT
?is_integer@_Num_int_base@std@@2_NB DB 01H		; std::_Num_int_base::is_integer
CONST	ENDS
;	COMDAT ?is_exact@_Num_int_base@std@@2_NB
CONST	SEGMENT
?is_exact@_Num_int_base@std@@2_NB DB 01H		; std::_Num_int_base::is_exact
CONST	ENDS
;	COMDAT ?is_bounded@_Num_int_base@std@@2_NB
CONST	SEGMENT
?is_bounded@_Num_int_base@std@@2_NB DB 01H		; std::_Num_int_base::is_bounded
CONST	ENDS
CONST	SEGMENT
_kfPi	DD	040490fdbr			; 3.14159
_kfEpsilon DD	0350637bdr			; 5e-007
_kfPi64	DQ	0400921fb54442d18r		; 3.14159
CONST	ENDS
;	COMDAT ?radix@_Num_base@std@@2HB
CONST	SEGMENT
?radix@_Num_base@std@@2HB DD 00H			; std::_Num_base::radix
CONST	ENDS
;	COMDAT ?min_exponent10@_Num_base@std@@2HB
CONST	SEGMENT
?min_exponent10@_Num_base@std@@2HB DD 00H		; std::_Num_base::min_exponent10
CONST	ENDS
;	COMDAT ?min_exponent@_Num_base@std@@2HB
CONST	SEGMENT
?min_exponent@_Num_base@std@@2HB DD 00H			; std::_Num_base::min_exponent
CONST	ENDS
;	COMDAT ?max_exponent10@_Num_base@std@@2HB
CONST	SEGMENT
?max_exponent10@_Num_base@std@@2HB DD 00H		; std::_Num_base::max_exponent10
CONST	ENDS
;	COMDAT ?max_exponent@_Num_base@std@@2HB
CONST	SEGMENT
?max_exponent@_Num_base@std@@2HB DD 00H			; std::_Num_base::max_exponent
CONST	ENDS
;	COMDAT ?max_digits10@_Num_base@std@@2HB
CONST	SEGMENT
?max_digits10@_Num_base@std@@2HB DD 00H			; std::_Num_base::max_digits10
CONST	ENDS
;	COMDAT ?digits10@_Num_base@std@@2HB
CONST	SEGMENT
?digits10@_Num_base@std@@2HB DD 00H			; std::_Num_base::digits10
CONST	ENDS
;	COMDAT ?digits@_Num_base@std@@2HB
CONST	SEGMENT
?digits@_Num_base@std@@2HB DD 00H			; std::_Num_base::digits
CONST	ENDS
;	COMDAT ?round_style@_Num_base@std@@2W4float_round_style@2@B
CONST	SEGMENT
?round_style@_Num_base@std@@2W4float_round_style@2@B DD 00H ; std::_Num_base::round_style
CONST	ENDS
;	COMDAT ?traps@_Num_base@std@@2_NB
CONST	SEGMENT
?traps@_Num_base@std@@2_NB DB 00H			; std::_Num_base::traps
CONST	ENDS
;	COMDAT ?tinyness_before@_Num_base@std@@2_NB
CONST	SEGMENT
?tinyness_before@_Num_base@std@@2_NB DB 00H		; std::_Num_base::tinyness_before
CONST	ENDS
;	COMDAT ?is_specialized@_Num_base@std@@2_NB
CONST	SEGMENT
?is_specialized@_Num_base@std@@2_NB DB 00H		; std::_Num_base::is_specialized
CONST	ENDS
;	COMDAT ?is_signed@_Num_base@std@@2_NB
CONST	SEGMENT
?is_signed@_Num_base@std@@2_NB DB 00H			; std::_Num_base::is_signed
CONST	ENDS
;	COMDAT ?is_modulo@_Num_base@std@@2_NB
CONST	SEGMENT
?is_modulo@_Num_base@std@@2_NB DB 00H			; std::_Num_base::is_modulo
CONST	ENDS
;	COMDAT ?is_integer@_Num_base@std@@2_NB
CONST	SEGMENT
?is_integer@_Num_base@std@@2_NB DB 00H			; std::_Num_base::is_integer
CONST	ENDS
;	COMDAT ?is_iec559@_Num_base@std@@2_NB
CONST	SEGMENT
?is_iec559@_Num_base@std@@2_NB DB 00H			; std::_Num_base::is_iec559
CONST	ENDS
;	COMDAT ?is_exact@_Num_base@std@@2_NB
CONST	SEGMENT
?is_exact@_Num_base@std@@2_NB DB 00H			; std::_Num_base::is_exact
CONST	ENDS
;	COMDAT ?is_bounded@_Num_base@std@@2_NB
CONST	SEGMENT
?is_bounded@_Num_base@std@@2_NB DB 00H			; std::_Num_base::is_bounded
CONST	ENDS
;	COMDAT ?has_signaling_NaN@_Num_base@std@@2_NB
CONST	SEGMENT
?has_signaling_NaN@_Num_base@std@@2_NB DB 00H		; std::_Num_base::has_signaling_NaN
CONST	ENDS
;	COMDAT ?has_quiet_NaN@_Num_base@std@@2_NB
CONST	SEGMENT
?has_quiet_NaN@_Num_base@std@@2_NB DB 00H		; std::_Num_base::has_quiet_NaN
CONST	ENDS
;	COMDAT ?has_infinity@_Num_base@std@@2_NB
CONST	SEGMENT
?has_infinity@_Num_base@std@@2_NB DB 00H		; std::_Num_base::has_infinity
CONST	ENDS
;	COMDAT ?has_denorm_loss@_Num_base@std@@2_NB
CONST	SEGMENT
?has_denorm_loss@_Num_base@std@@2_NB DB 00H		; std::_Num_base::has_denorm_loss
CONST	ENDS
;	COMDAT ?has_denorm@_Num_base@std@@2W4float_denorm_style@2@B
CONST	SEGMENT
?has_denorm@_Num_base@std@@2W4float_denorm_style@2@B DD 00H ; std::_Num_base::has_denorm
CONST	ENDS
;	COMDAT ?table_size@?$ctype@D@std@@2IB
CONST	SEGMENT
?table_size@?$ctype@D@std@@2IB DD 0100H			; std::ctype<char>::table_size
CONST	ENDS
;	COMDAT ?none@?$_Locbase@H@std@@2HB
CONST	SEGMENT
?none@?$_Locbase@H@std@@2HB DD 00H			; std::_Locbase<int>::none
CONST	ENDS
;	COMDAT ?all@?$_Locbase@H@std@@2HB
CONST	SEGMENT
?all@?$_Locbase@H@std@@2HB DD 03fH			; std::_Locbase<int>::all
CONST	ENDS
;	COMDAT ?messages@?$_Locbase@H@std@@2HB
CONST	SEGMENT
?messages@?$_Locbase@H@std@@2HB DD 020H			; std::_Locbase<int>::messages
CONST	ENDS
;	COMDAT ?min_exponent10@?$numeric_limits@O@std@@2HB
CONST	SEGMENT
?min_exponent10@?$numeric_limits@O@std@@2HB DD 0fffffecdH ; std::numeric_limits<long double>::min_exponent10
CONST	ENDS
;	COMDAT ?time@?$_Locbase@H@std@@2HB
CONST	SEGMENT
?time@?$_Locbase@H@std@@2HB DD 010H			; std::_Locbase<int>::time
CONST	ENDS
;	COMDAT ?numeric@?$_Locbase@H@std@@2HB
CONST	SEGMENT
?numeric@?$_Locbase@H@std@@2HB DD 08H			; std::_Locbase<int>::numeric
CONST	ENDS
;	COMDAT ?min_exponent@?$numeric_limits@O@std@@2HB
CONST	SEGMENT
?min_exponent@?$numeric_limits@O@std@@2HB DD 0fffffc03H	; std::numeric_limits<long double>::min_exponent
CONST	ENDS
;	COMDAT ?monetary@?$_Locbase@H@std@@2HB
CONST	SEGMENT
?monetary@?$_Locbase@H@std@@2HB DD 04H			; std::_Locbase<int>::monetary
CONST	ENDS
;	COMDAT ?ctype@?$_Locbase@H@std@@2HB
CONST	SEGMENT
?ctype@?$_Locbase@H@std@@2HB DD 02H			; std::_Locbase<int>::ctype
CONST	ENDS
;	COMDAT ?max_exponent10@?$numeric_limits@O@std@@2HB
CONST	SEGMENT
?max_exponent10@?$numeric_limits@O@std@@2HB DD 0134H	; std::numeric_limits<long double>::max_exponent10
CONST	ENDS
;	COMDAT ?collate@?$_Locbase@H@std@@2HB
CONST	SEGMENT
?collate@?$_Locbase@H@std@@2HB DD 01H			; std::_Locbase<int>::collate
CONST	ENDS
;	COMDAT ?max_exponent@?$numeric_limits@O@std@@2HB
CONST	SEGMENT
?max_exponent@?$numeric_limits@O@std@@2HB DD 0400H	; std::numeric_limits<long double>::max_exponent
CONST	ENDS
;	COMDAT ?max_digits10@?$numeric_limits@O@std@@2HB
CONST	SEGMENT
?max_digits10@?$numeric_limits@O@std@@2HB DD 011H	; std::numeric_limits<long double>::max_digits10
CONST	ENDS
;	COMDAT ?digits10@?$numeric_limits@O@std@@2HB
CONST	SEGMENT
?digits10@?$numeric_limits@O@std@@2HB DD 0fH		; std::numeric_limits<long double>::digits10
CONST	ENDS
;	COMDAT ?digits@?$numeric_limits@O@std@@2HB
CONST	SEGMENT
?digits@?$numeric_limits@O@std@@2HB DD 035H		; std::numeric_limits<long double>::digits
CONST	ENDS
;	COMDAT ?end@?$_Iosb@H@std@@2W4_Seekdir@12@B
CONST	SEGMENT
?end@?$_Iosb@H@std@@2W4_Seekdir@12@B DD 02H		; std::_Iosb<int>::end
CONST	ENDS
;	COMDAT ?cur@?$_Iosb@H@std@@2W4_Seekdir@12@B
CONST	SEGMENT
?cur@?$_Iosb@H@std@@2W4_Seekdir@12@B DD 01H		; std::_Iosb<int>::cur
CONST	ENDS
;	COMDAT ?beg@?$_Iosb@H@std@@2W4_Seekdir@12@B
CONST	SEGMENT
?beg@?$_Iosb@H@std@@2W4_Seekdir@12@B DD 00H		; std::_Iosb<int>::beg
CONST	ENDS
;	COMDAT ?min_exponent10@?$numeric_limits@N@std@@2HB
CONST	SEGMENT
?min_exponent10@?$numeric_limits@N@std@@2HB DD 0fffffecdH ; std::numeric_limits<double>::min_exponent10
CONST	ENDS
;	COMDAT ?binary@?$_Iosb@H@std@@2W4_Openmode@12@B
CONST	SEGMENT
?binary@?$_Iosb@H@std@@2W4_Openmode@12@B DD 020H	; std::_Iosb<int>::binary
CONST	ENDS
;	COMDAT ?min_exponent@?$numeric_limits@N@std@@2HB
CONST	SEGMENT
?min_exponent@?$numeric_limits@N@std@@2HB DD 0fffffc03H	; std::numeric_limits<double>::min_exponent
CONST	ENDS
;	COMDAT ?_Noreplace@?$_Iosb@H@std@@2W4_Openmode@12@B
CONST	SEGMENT
?_Noreplace@?$_Iosb@H@std@@2W4_Openmode@12@B DD 080H	; std::_Iosb<int>::_Noreplace
CONST	ENDS
;	COMDAT ?max_exponent10@?$numeric_limits@N@std@@2HB
CONST	SEGMENT
?max_exponent10@?$numeric_limits@N@std@@2HB DD 0134H	; std::numeric_limits<double>::max_exponent10
CONST	ENDS
;	COMDAT ?_Nocreate@?$_Iosb@H@std@@2W4_Openmode@12@B
CONST	SEGMENT
?_Nocreate@?$_Iosb@H@std@@2W4_Openmode@12@B DD 040H	; std::_Iosb<int>::_Nocreate
CONST	ENDS
;	COMDAT ?max_exponent@?$numeric_limits@N@std@@2HB
CONST	SEGMENT
?max_exponent@?$numeric_limits@N@std@@2HB DD 0400H	; std::numeric_limits<double>::max_exponent
CONST	ENDS
;	COMDAT ?trunc@?$_Iosb@H@std@@2W4_Openmode@12@B
CONST	SEGMENT
?trunc@?$_Iosb@H@std@@2W4_Openmode@12@B DD 010H		; std::_Iosb<int>::trunc
CONST	ENDS
;	COMDAT ?value@?$integral_constant@I$0A@@std@@2IB
CONST	SEGMENT
?value@?$integral_constant@I$0A@@std@@2IB DD 00H	; std::integral_constant<unsigned int,0>::value
CONST	ENDS
;	COMDAT ?app@?$_Iosb@H@std@@2W4_Openmode@12@B
CONST	SEGMENT
?app@?$_Iosb@H@std@@2W4_Openmode@12@B DD 08H		; std::_Iosb<int>::app
CONST	ENDS
;	COMDAT ?max_digits10@?$numeric_limits@N@std@@2HB
CONST	SEGMENT
?max_digits10@?$numeric_limits@N@std@@2HB DD 011H	; std::numeric_limits<double>::max_digits10
CONST	ENDS
;	COMDAT ?digits10@?$numeric_limits@N@std@@2HB
CONST	SEGMENT
?digits10@?$numeric_limits@N@std@@2HB DD 0fH		; std::numeric_limits<double>::digits10
CONST	ENDS
;	COMDAT ?ate@?$_Iosb@H@std@@2W4_Openmode@12@B
CONST	SEGMENT
?ate@?$_Iosb@H@std@@2W4_Openmode@12@B DD 04H		; std::_Iosb<int>::ate
CONST	ENDS
;	COMDAT ?out@?$_Iosb@H@std@@2W4_Openmode@12@B
CONST	SEGMENT
?out@?$_Iosb@H@std@@2W4_Openmode@12@B DD 02H		; std::_Iosb<int>::out
CONST	ENDS
;	COMDAT ?digits@?$numeric_limits@N@std@@2HB
CONST	SEGMENT
?digits@?$numeric_limits@N@std@@2HB DD 035H		; std::numeric_limits<double>::digits
CONST	ENDS
;	COMDAT ?in@?$_Iosb@H@std@@2W4_Openmode@12@B
CONST	SEGMENT
?in@?$_Iosb@H@std@@2W4_Openmode@12@B DD 01H		; std::_Iosb<int>::in
CONST	ENDS
;	COMDAT ?_Hardfail@?$_Iosb@H@std@@2W4_Iostate@12@B
CONST	SEGMENT
?_Hardfail@?$_Iosb@H@std@@2W4_Iostate@12@B DD 010H	; std::_Iosb<int>::_Hardfail
CONST	ENDS
;	COMDAT ?badbit@?$_Iosb@H@std@@2W4_Iostate@12@B
CONST	SEGMENT
?badbit@?$_Iosb@H@std@@2W4_Iostate@12@B DD 04H		; std::_Iosb<int>::badbit
CONST	ENDS
;	COMDAT ?failbit@?$_Iosb@H@std@@2W4_Iostate@12@B
CONST	SEGMENT
?failbit@?$_Iosb@H@std@@2W4_Iostate@12@B DD 02H		; std::_Iosb<int>::failbit
CONST	ENDS
;	COMDAT ?eofbit@?$_Iosb@H@std@@2W4_Iostate@12@B
CONST	SEGMENT
?eofbit@?$_Iosb@H@std@@2W4_Iostate@12@B DD 01H		; std::_Iosb<int>::eofbit
CONST	ENDS
;	COMDAT ?goodbit@?$_Iosb@H@std@@2W4_Iostate@12@B
CONST	SEGMENT
?goodbit@?$_Iosb@H@std@@2W4_Iostate@12@B DD 00H		; std::_Iosb<int>::goodbit
CONST	ENDS
;	COMDAT ?floatfield@?$_Iosb@H@std@@2W4_Fmtflags@12@B
CONST	SEGMENT
?floatfield@?$_Iosb@H@std@@2W4_Fmtflags@12@B DD 03000H	; std::_Iosb<int>::floatfield
CONST	ENDS
;	COMDAT ?value@?$_Maximum@$S@std@@2IB
CONST	SEGMENT
?value@?$_Maximum@$S@std@@2IB DD 00H			; std::_Maximum<>::value
CONST	ENDS
;	COMDAT ?basefield@?$_Iosb@H@std@@2W4_Fmtflags@12@B
CONST	SEGMENT
?basefield@?$_Iosb@H@std@@2W4_Fmtflags@12@B DD 0e00H	; std::_Iosb<int>::basefield
CONST	ENDS
;	COMDAT ?min_exponent10@?$numeric_limits@M@std@@2HB
CONST	SEGMENT
?min_exponent10@?$numeric_limits@M@std@@2HB DD 0ffffffdbH ; std::numeric_limits<float>::min_exponent10
CONST	ENDS
;	COMDAT ?adjustfield@?$_Iosb@H@std@@2W4_Fmtflags@12@B
CONST	SEGMENT
?adjustfield@?$_Iosb@H@std@@2W4_Fmtflags@12@B DD 01c0H	; std::_Iosb<int>::adjustfield
CONST	ENDS
;	COMDAT ?_Stdio@?$_Iosb@H@std@@2W4_Fmtflags@12@B
CONST	SEGMENT
?_Stdio@?$_Iosb@H@std@@2W4_Fmtflags@12@B DD 08000H	; std::_Iosb<int>::_Stdio
CONST	ENDS
;	COMDAT ?min_exponent@?$numeric_limits@M@std@@2HB
CONST	SEGMENT
?min_exponent@?$numeric_limits@M@std@@2HB DD 0ffffff83H	; std::numeric_limits<float>::min_exponent
CONST	ENDS
;	COMDAT ?boolalpha@?$_Iosb@H@std@@2W4_Fmtflags@12@B
CONST	SEGMENT
?boolalpha@?$_Iosb@H@std@@2W4_Fmtflags@12@B DD 04000H	; std::_Iosb<int>::boolalpha
CONST	ENDS
;	COMDAT ?max_exponent10@?$numeric_limits@M@std@@2HB
CONST	SEGMENT
?max_exponent10@?$numeric_limits@M@std@@2HB DD 026H	; std::numeric_limits<float>::max_exponent10
CONST	ENDS
;	COMDAT ?hexfloat@?$_Iosb@H@std@@2W4_Fmtflags@12@B
CONST	SEGMENT
?hexfloat@?$_Iosb@H@std@@2W4_Fmtflags@12@B DD 03000H	; std::_Iosb<int>::hexfloat
CONST	ENDS
;	COMDAT ?max_exponent@?$numeric_limits@M@std@@2HB
CONST	SEGMENT
?max_exponent@?$numeric_limits@M@std@@2HB DD 080H	; std::numeric_limits<float>::max_exponent
CONST	ENDS
;	COMDAT ?fixed@?$_Iosb@H@std@@2W4_Fmtflags@12@B
CONST	SEGMENT
?fixed@?$_Iosb@H@std@@2W4_Fmtflags@12@B DD 02000H	; std::_Iosb<int>::fixed
CONST	ENDS
;	COMDAT ?scientific@?$_Iosb@H@std@@2W4_Fmtflags@12@B
CONST	SEGMENT
?scientific@?$_Iosb@H@std@@2W4_Fmtflags@12@B DD 01000H	; std::_Iosb<int>::scientific
CONST	ENDS
;	COMDAT ?max_digits10@?$numeric_limits@M@std@@2HB
CONST	SEGMENT
?max_digits10@?$numeric_limits@M@std@@2HB DD 09H	; std::numeric_limits<float>::max_digits10
CONST	ENDS
;	COMDAT ?hex@?$_Iosb@H@std@@2W4_Fmtflags@12@B
CONST	SEGMENT
?hex@?$_Iosb@H@std@@2W4_Fmtflags@12@B DD 0800H		; std::_Iosb<int>::hex
CONST	ENDS
;	COMDAT ?digits10@?$numeric_limits@M@std@@2HB
CONST	SEGMENT
?digits10@?$numeric_limits@M@std@@2HB DD 06H		; std::numeric_limits<float>::digits10
CONST	ENDS
;	COMDAT ?value@?$integral_constant@I$00@std@@2IB
CONST	SEGMENT
?value@?$integral_constant@I$00@std@@2IB DD 01H		; std::integral_constant<unsigned int,1>::value
CONST	ENDS
;	COMDAT ?digits@?$numeric_limits@M@std@@2HB
CONST	SEGMENT
?digits@?$numeric_limits@M@std@@2HB DD 018H		; std::numeric_limits<float>::digits
CONST	ENDS
;	COMDAT ?oct@?$_Iosb@H@std@@2W4_Fmtflags@12@B
CONST	SEGMENT
?oct@?$_Iosb@H@std@@2W4_Fmtflags@12@B DD 0400H		; std::_Iosb<int>::oct
CONST	ENDS
;	COMDAT ?dec@?$_Iosb@H@std@@2W4_Fmtflags@12@B
CONST	SEGMENT
?dec@?$_Iosb@H@std@@2W4_Fmtflags@12@B DD 0200H		; std::_Iosb<int>::dec
CONST	ENDS
;	COMDAT ?internal@?$_Iosb@H@std@@2W4_Fmtflags@12@B
CONST	SEGMENT
?internal@?$_Iosb@H@std@@2W4_Fmtflags@12@B DD 0100H	; std::_Iosb<int>::internal
CONST	ENDS
;	COMDAT ?right@?$_Iosb@H@std@@2W4_Fmtflags@12@B
CONST	SEGMENT
?right@?$_Iosb@H@std@@2W4_Fmtflags@12@B DD 080H		; std::_Iosb<int>::right
CONST	ENDS
;	COMDAT ?left@?$_Iosb@H@std@@2W4_Fmtflags@12@B
CONST	SEGMENT
?left@?$_Iosb@H@std@@2W4_Fmtflags@12@B DD 040H		; std::_Iosb<int>::left
CONST	ENDS
;	COMDAT ?showpos@?$_Iosb@H@std@@2W4_Fmtflags@12@B
CONST	SEGMENT
?showpos@?$_Iosb@H@std@@2W4_Fmtflags@12@B DD 020H	; std::_Iosb<int>::showpos
CONST	ENDS
;	COMDAT ?showpoint@?$_Iosb@H@std@@2W4_Fmtflags@12@B
CONST	SEGMENT
?showpoint@?$_Iosb@H@std@@2W4_Fmtflags@12@B DD 010H	; std::_Iosb<int>::showpoint
CONST	ENDS
;	COMDAT ?showbase@?$_Iosb@H@std@@2W4_Fmtflags@12@B
CONST	SEGMENT
?showbase@?$_Iosb@H@std@@2W4_Fmtflags@12@B DD 08H	; std::_Iosb<int>::showbase
CONST	ENDS
;	COMDAT ?uppercase@?$_Iosb@H@std@@2W4_Fmtflags@12@B
CONST	SEGMENT
?uppercase@?$_Iosb@H@std@@2W4_Fmtflags@12@B DD 04H	; std::_Iosb<int>::uppercase
CONST	ENDS
;	COMDAT ?unitbuf@?$_Iosb@H@std@@2W4_Fmtflags@12@B
CONST	SEGMENT
?unitbuf@?$_Iosb@H@std@@2W4_Fmtflags@12@B DD 02H	; std::_Iosb<int>::unitbuf
CONST	ENDS
;	COMDAT ?skipws@?$_Iosb@H@std@@2W4_Fmtflags@12@B
CONST	SEGMENT
?skipws@?$_Iosb@H@std@@2W4_Fmtflags@12@B DD 01H		; std::_Iosb<int>::skipws
CONST	ENDS
;	COMDAT ?digits10@?$numeric_limits@_K@std@@2HB
CONST	SEGMENT
?digits10@?$numeric_limits@_K@std@@2HB DD 013H		; std::numeric_limits<unsigned __int64>::digits10
CONST	ENDS
;	COMDAT ?digits@?$numeric_limits@_K@std@@2HB
CONST	SEGMENT
?digits@?$numeric_limits@_K@std@@2HB DD 040H		; std::numeric_limits<unsigned __int64>::digits
CONST	ENDS
;	COMDAT ?is_signed@?$numeric_limits@_K@std@@2_NB
CONST	SEGMENT
?is_signed@?$numeric_limits@_K@std@@2_NB DB 00H		; std::numeric_limits<unsigned __int64>::is_signed
CONST	ENDS
;	COMDAT ?value@?$integral_constant@I$01@std@@2IB
CONST	SEGMENT
?value@?$integral_constant@I$01@std@@2IB DD 02H		; std::integral_constant<unsigned int,2>::value
CONST	ENDS
;	COMDAT ?digits10@?$numeric_limits@_J@std@@2HB
CONST	SEGMENT
?digits10@?$numeric_limits@_J@std@@2HB DD 012H		; std::numeric_limits<__int64>::digits10
CONST	ENDS
;	COMDAT ?digits@?$numeric_limits@_J@std@@2HB
CONST	SEGMENT
?digits@?$numeric_limits@_J@std@@2HB DD 03fH		; std::numeric_limits<__int64>::digits
CONST	ENDS
;	COMDAT ?is_signed@?$numeric_limits@_J@std@@2_NB
CONST	SEGMENT
?is_signed@?$numeric_limits@_J@std@@2_NB DB 01H		; std::numeric_limits<__int64>::is_signed
CONST	ENDS
;	COMDAT ?digits10@?$numeric_limits@K@std@@2HB
CONST	SEGMENT
?digits10@?$numeric_limits@K@std@@2HB DD 09H		; std::numeric_limits<unsigned long>::digits10
CONST	ENDS
;	COMDAT ?digits@?$numeric_limits@K@std@@2HB
CONST	SEGMENT
?digits@?$numeric_limits@K@std@@2HB DD 020H		; std::numeric_limits<unsigned long>::digits
CONST	ENDS
;	COMDAT ?is_signed@?$numeric_limits@K@std@@2_NB
CONST	SEGMENT
?is_signed@?$numeric_limits@K@std@@2_NB DB 00H		; std::numeric_limits<unsigned long>::is_signed
CONST	ENDS
;	COMDAT ?value@?$integral_constant@I$03@std@@2IB
CONST	SEGMENT
?value@?$integral_constant@I$03@std@@2IB DD 04H		; std::integral_constant<unsigned int,4>::value
CONST	ENDS
;	COMDAT ?value@?$integral_constant@_N$00@std@@2_NB
CONST	SEGMENT
?value@?$integral_constant@_N$00@std@@2_NB DB 01H	; std::integral_constant<bool,1>::value
CONST	ENDS
;	COMDAT ?value@?$integral_constant@_N$0A@@std@@2_NB
CONST	SEGMENT
?value@?$integral_constant@_N$0A@@std@@2_NB DB 00H	; std::integral_constant<bool,0>::value
CONST	ENDS
;	COMDAT ?digits10@?$numeric_limits@J@std@@2HB
CONST	SEGMENT
?digits10@?$numeric_limits@J@std@@2HB DD 09H		; std::numeric_limits<long>::digits10
CONST	ENDS
;	COMDAT ?digits@?$numeric_limits@J@std@@2HB
CONST	SEGMENT
?digits@?$numeric_limits@J@std@@2HB DD 01fH		; std::numeric_limits<long>::digits
CONST	ENDS
;	COMDAT ?is_signed@?$numeric_limits@J@std@@2_NB
CONST	SEGMENT
?is_signed@?$numeric_limits@J@std@@2_NB DB 01H		; std::numeric_limits<long>::is_signed
CONST	ENDS
;	COMDAT ?value@?$integral_constant@I$07@std@@2IB
CONST	SEGMENT
?value@?$integral_constant@I$07@std@@2IB DD 08H		; std::integral_constant<unsigned int,8>::value
CONST	ENDS
;	COMDAT ?digits10@?$numeric_limits@I@std@@2HB
CONST	SEGMENT
?digits10@?$numeric_limits@I@std@@2HB DD 09H		; std::numeric_limits<unsigned int>::digits10
CONST	ENDS
;	COMDAT ?digits@?$numeric_limits@I@std@@2HB
CONST	SEGMENT
?digits@?$numeric_limits@I@std@@2HB DD 020H		; std::numeric_limits<unsigned int>::digits
CONST	ENDS
;	COMDAT ?is_signed@?$numeric_limits@I@std@@2_NB
CONST	SEGMENT
?is_signed@?$numeric_limits@I@std@@2_NB DB 00H		; std::numeric_limits<unsigned int>::is_signed
CONST	ENDS
;	COMDAT ?digits10@?$numeric_limits@H@std@@2HB
CONST	SEGMENT
?digits10@?$numeric_limits@H@std@@2HB DD 09H		; std::numeric_limits<int>::digits10
CONST	ENDS
;	COMDAT ?digits@?$numeric_limits@H@std@@2HB
CONST	SEGMENT
?digits@?$numeric_limits@H@std@@2HB DD 01fH		; std::numeric_limits<int>::digits
CONST	ENDS
PUBLIC	_hypot
PUBLIC	_acosf
PUBLIC	_atan2f
PUBLIC	_cosf
PUBLIC	_fabsf
PUBLIC	_sinf
PUBLIC	_sqrtf
PUBLIC	??2@YAPAXIPAX@Z					; operator new
PUBLIC	??3@YAXPAX0@Z					; operator delete
PUBLIC	?length@?$char_traits@D@std@@SAIPBD@Z		; std::char_traits<char>::length
PUBLIC	?copy@?$char_traits@D@std@@SAPADPADPBDI@Z	; std::char_traits<char>::copy
PUBLIC	?move@?$char_traits@D@std@@SAPADPADPBDI@Z	; std::char_traits<char>::move
PUBLIC	?assign@?$char_traits@D@std@@SAXAADABD@Z	; std::char_traits<char>::assign
PUBLIC	??0_Container_proxy@std@@QAE@XZ			; std::_Container_proxy::_Container_proxy
PUBLIC	??0_Container_base12@std@@QAE@XZ		; std::_Container_base12::_Container_base12
PUBLIC	??1_Container_base12@std@@QAE@XZ		; std::_Container_base12::~_Container_base12
PUBLIC	?_Orphan_all@_Container_base12@std@@QAEXXZ	; std::_Container_base12::_Orphan_all
PUBLIC	?select_on_container_copy_construction@?$allocator@D@std@@QBE?AV12@XZ ; std::allocator<char>::select_on_container_copy_construction
PUBLIC	??0?$allocator@D@std@@QAE@XZ			; std::allocator<char>::allocator<char>
PUBLIC	??0?$allocator@D@std@@QAE@ABV01@@Z		; std::allocator<char>::allocator<char>
PUBLIC	?deallocate@?$allocator@D@std@@QAEXPADI@Z	; std::allocator<char>::deallocate
PUBLIC	?allocate@?$allocator@D@std@@QAEPADI@Z		; std::allocator<char>::allocate
PUBLIC	?max_size@?$allocator@D@std@@QBEIXZ		; std::allocator<char>::max_size
PUBLIC	?max_size@?$allocator_traits@V?$allocator@D@std@@@std@@SAIABV?$allocator@D@2@@Z ; std::allocator_traits<std::allocator<char> >::max_size
PUBLIC	?select_on_container_copy_construction@?$allocator_traits@V?$allocator@D@std@@@std@@SA?AV?$allocator@D@2@ABV32@@Z ; std::allocator_traits<std::allocator<char> >::select_on_container_copy_construction
PUBLIC	?select_on_container_copy_construction@?$_Wrap_alloc@V?$allocator@D@std@@@std@@QBE?AU12@XZ ; std::_Wrap_alloc<std::allocator<char> >::select_on_container_copy_construction
PUBLIC	??0?$_Wrap_alloc@V?$allocator@D@std@@@std@@QAE@XZ ; std::_Wrap_alloc<std::allocator<char> >::_Wrap_alloc<std::allocator<char> >
PUBLIC	??0?$_Wrap_alloc@V?$allocator@D@std@@@std@@QAE@ABV?$allocator@D@1@@Z ; std::_Wrap_alloc<std::allocator<char> >::_Wrap_alloc<std::allocator<char> >
PUBLIC	?allocate@?$_Wrap_alloc@V?$allocator@D@std@@@std@@QAEPADI@Z ; std::_Wrap_alloc<std::allocator<char> >::allocate
PUBLIC	?deallocate@?$_Wrap_alloc@V?$allocator@D@std@@@std@@QAEXPADI@Z ; std::_Wrap_alloc<std::allocator<char> >::deallocate
PUBLIC	?max_size@?$_Wrap_alloc@V?$allocator@D@std@@@std@@QBEIXZ ; std::_Wrap_alloc<std::allocator<char> >::max_size
PUBLIC	??0?$_String_val@U?$_Simple_types@D@std@@@std@@QAE@XZ ; std::_String_val<std::_Simple_types<char> >::_String_val<std::_Simple_types<char> >
PUBLIC	?_Myptr@?$_String_val@U?$_Simple_types@D@std@@@std@@QAEPADXZ ; std::_String_val<std::_Simple_types<char> >::_Myptr
PUBLIC	?_Myptr@?$_String_val@U?$_Simple_types@D@std@@@std@@QBEPBDXZ ; std::_String_val<std::_Simple_types<char> >::_Myptr
PUBLIC	??1?$_String_val@U?$_Simple_types@D@std@@@std@@QAE@XZ ; std::_String_val<std::_Simple_types<char> >::~_String_val<std::_Simple_types<char> >
PUBLIC	??0?$_String_alloc@$0A@U?$_String_base_types@DV?$allocator@D@std@@@std@@@std@@QAE@ABV?$allocator@D@1@@Z ; std::_String_alloc<0,std::_String_base_types<char,std::allocator<char> > >::_String_alloc<0,std::_String_base_types<char,std::allocator<char> > >
PUBLIC	??1?$_String_alloc@$0A@U?$_String_base_types@DV?$allocator@D@std@@@std@@@std@@QAE@XZ ; std::_String_alloc<0,std::_String_base_types<char,std::allocator<char> > >::~_String_alloc<0,std::_String_base_types<char,std::allocator<char> > >
PUBLIC	?_Alloc_proxy@?$_String_alloc@$0A@U?$_String_base_types@DV?$allocator@D@std@@@std@@@std@@QAEXXZ ; std::_String_alloc<0,std::_String_base_types<char,std::allocator<char> > >::_Alloc_proxy
PUBLIC	?_Free_proxy@?$_String_alloc@$0A@U?$_String_base_types@DV?$allocator@D@std@@@std@@@std@@QAEXXZ ; std::_String_alloc<0,std::_String_base_types<char,std::allocator<char> > >::_Free_proxy
PUBLIC	?_Getal@?$_String_alloc@$0A@U?$_String_base_types@DV?$allocator@D@std@@@std@@@std@@QBE?AU?$_Wrap_alloc@V?$allocator@D@std@@@2@XZ ; std::_String_alloc<0,std::_String_base_types<char,std::allocator<char> > >::_Getal
PUBLIC	??0?$basic_string@DU?$char_traits@D@std@@V?$allocator@D@2@@std@@QAE@ABV01@@Z ; std::basic_string<char,std::char_traits<char>,std::allocator<char> >::basic_string<char,std::char_traits<char>,std::allocator<char> >
PUBLIC	??0?$basic_string@DU?$char_traits@D@std@@V?$allocator@D@2@@std@@QAE@PBD@Z ; std::basic_string<char,std::char_traits<char>,std::allocator<char> >::basic_string<char,std::char_traits<char>,std::allocator<char> >
PUBLIC	??1?$basic_string@DU?$char_traits@D@std@@V?$allocator@D@2@@std@@QAE@XZ ; std::basic_string<char,std::char_traits<char>,std::allocator<char> >::~basic_string<char,std::char_traits<char>,std::allocator<char> >
PUBLIC	?assign@?$basic_string@DU?$char_traits@D@std@@V?$allocator@D@2@@std@@QAEAAV12@ABV12@II@Z ; std::basic_string<char,std::char_traits<char>,std::allocator<char> >::assign
PUBLIC	?assign@?$basic_string@DU?$char_traits@D@std@@V?$allocator@D@2@@std@@QAEAAV12@PBDI@Z ; std::basic_string<char,std::char_traits<char>,std::allocator<char> >::assign
PUBLIC	?assign@?$basic_string@DU?$char_traits@D@std@@V?$allocator@D@2@@std@@QAEAAV12@PBD@Z ; std::basic_string<char,std::char_traits<char>,std::allocator<char> >::assign
PUBLIC	?erase@?$basic_string@DU?$char_traits@D@std@@V?$allocator@D@2@@std@@QAEAAV12@I@Z ; std::basic_string<char,std::char_traits<char>,std::allocator<char> >::erase
PUBLIC	?erase@?$basic_string@DU?$char_traits@D@std@@V?$allocator@D@2@@std@@QAEAAV12@II@Z ; std::basic_string<char,std::char_traits<char>,std::allocator<char> >::erase
PUBLIC	?size@?$basic_string@DU?$char_traits@D@std@@V?$allocator@D@2@@std@@QBEIXZ ; std::basic_string<char,std::char_traits<char>,std::allocator<char> >::size
PUBLIC	?max_size@?$basic_string@DU?$char_traits@D@std@@V?$allocator@D@2@@std@@QBEIXZ ; std::basic_string<char,std::char_traits<char>,std::allocator<char> >::max_size
PUBLIC	?_Copy@?$basic_string@DU?$char_traits@D@std@@V?$allocator@D@2@@std@@QAEXII@Z ; std::basic_string<char,std::char_traits<char>,std::allocator<char> >::_Copy
PUBLIC	?_Eos@?$basic_string@DU?$char_traits@D@std@@V?$allocator@D@2@@std@@QAEXI@Z ; std::basic_string<char,std::char_traits<char>,std::allocator<char> >::_Eos
PUBLIC	?_Grow@?$basic_string@DU?$char_traits@D@std@@V?$allocator@D@2@@std@@QAE_NI_N@Z ; std::basic_string<char,std::char_traits<char>,std::allocator<char> >::_Grow
PUBLIC	?_Inside@?$basic_string@DU?$char_traits@D@std@@V?$allocator@D@2@@std@@QAE_NPBD@Z ; std::basic_string<char,std::char_traits<char>,std::allocator<char> >::_Inside
PUBLIC	?_Tidy@?$basic_string@DU?$char_traits@D@std@@V?$allocator@D@2@@std@@QAEX_NI@Z ; std::basic_string<char,std::char_traits<char>,std::allocator<char> >::_Tidy
PUBLIC	?_Xlen@?$basic_string@DU?$char_traits@D@std@@V?$allocator@D@2@@std@@QBEXXZ ; std::basic_string<char,std::char_traits<char>,std::allocator<char> >::_Xlen
PUBLIC	?_Xran@?$basic_string@DU?$char_traits@D@std@@V?$allocator@D@2@@std@@QBEXXZ ; std::basic_string<char,std::char_traits<char>,std::allocator<char> >::_Xran
PUBLIC	??0id@locale@std@@QAE@I@Z			; std::locale::id::id
PUBLIC	??$_Debug_pointer@D@std@@YAXPBDPB_WI@Z		; std::_Debug_pointer<char>
PUBLIC	?generic_category@std@@YAABVerror_category@1@XZ	; std::generic_category
PUBLIC	?system_category@std@@YAABVerror_category@1@XZ	; std::system_category
PUBLIC	??0error_category@std@@QAE@XZ			; std::error_category::error_category
PUBLIC	??1error_category@std@@UAE@XZ			; std::error_category::~error_category
PUBLIC	?default_error_condition@error_category@std@@UBE?AVerror_condition@2@H@Z ; std::error_category::default_error_condition
PUBLIC	?equivalent@error_category@std@@UBE_NHABVerror_condition@2@@Z ; std::error_category::equivalent
PUBLIC	?equivalent@error_category@std@@UBE_NABVerror_code@2@H@Z ; std::error_category::equivalent
PUBLIC	??8error_category@std@@QBE_NABV01@@Z		; std::error_category::operator==
PUBLIC	??_Gerror_category@std@@UAEPAXI@Z		; std::error_category::`scalar deleting destructor'
PUBLIC	?value@error_code@std@@QBEHXZ			; std::error_code::value
PUBLIC	?category@error_code@std@@QBEABVerror_category@2@XZ ; std::error_code::category
PUBLIC	??0error_condition@std@@QAE@HABVerror_category@1@@Z ; std::error_condition::error_condition
PUBLIC	?value@error_condition@std@@QBEHXZ		; std::error_condition::value
PUBLIC	?category@error_condition@std@@QBEABVerror_category@2@XZ ; std::error_condition::category
PUBLIC	??8error_condition@std@@QBE_NABV01@@Z		; std::error_condition::operator==
PUBLIC	??0_Generic_error_category@std@@QAE@XZ		; std::_Generic_error_category::_Generic_error_category
PUBLIC	?name@_Generic_error_category@std@@UBEPBDXZ	; std::_Generic_error_category::name
PUBLIC	?message@_Generic_error_category@std@@UBE?AV?$basic_string@DU?$char_traits@D@std@@V?$allocator@D@2@@2@H@Z ; std::_Generic_error_category::message
PUBLIC	??1_Generic_error_category@std@@UAE@XZ		; std::_Generic_error_category::~_Generic_error_category
PUBLIC	??_G_Generic_error_category@std@@UAEPAXI@Z	; std::_Generic_error_category::`scalar deleting destructor'
PUBLIC	??0_Iostream_error_category@std@@QAE@XZ		; std::_Iostream_error_category::_Iostream_error_category
PUBLIC	?name@_Iostream_error_category@std@@UBEPBDXZ	; std::_Iostream_error_category::name
PUBLIC	?message@_Iostream_error_category@std@@UBE?AV?$basic_string@DU?$char_traits@D@std@@V?$allocator@D@2@@2@H@Z ; std::_Iostream_error_category::message
PUBLIC	??1_Iostream_error_category@std@@UAE@XZ		; std::_Iostream_error_category::~_Iostream_error_category
PUBLIC	??_G_Iostream_error_category@std@@UAEPAXI@Z	; std::_Iostream_error_category::`scalar deleting destructor'
PUBLIC	??0_System_error_category@std@@QAE@XZ		; std::_System_error_category::_System_error_category
PUBLIC	?name@_System_error_category@std@@UBEPBDXZ	; std::_System_error_category::name
PUBLIC	?message@_System_error_category@std@@UBE?AV?$basic_string@DU?$char_traits@D@std@@V?$allocator@D@2@@2@H@Z ; std::_System_error_category::message
PUBLIC	?default_error_condition@_System_error_category@std@@UBE?AVerror_condition@2@H@Z ; std::_System_error_category::default_error_condition
PUBLIC	??1_System_error_category@std@@UAE@XZ		; std::_System_error_category::~_System_error_category
PUBLIC	??_G_System_error_category@std@@UAEPAXI@Z	; std::_System_error_category::`scalar deleting destructor'
PUBLIC	?ObjectName@gen@@YAPBDXZ			; gen::ObjectName
PUBLIC	??0CFatalException@gen@@QAE@PBD0H@Z		; gen::CFatalException::CFatalException
PUBLIC	??0CFatalException@gen@@QAE@PBD00@Z		; gen::CFatalException::CFatalException
PUBLIC	??1CFatalException@gen@@QAE@XZ			; gen::CFatalException::~CFatalException
PUBLIC	??0CFatalException@gen@@QAE@ABV01@@Z		; gen::CFatalException::CFatalException
PUBLIC	?Abs@gen@@YAIH@Z				; gen::Abs
PUBLIC	?Abs@gen@@YAMM@Z				; gen::Abs
PUBLIC	?Sqrt@gen@@YAMM@Z				; gen::Sqrt
PUBLIC	?Sin@gen@@YAMM@Z				; gen::Sin
PUBLIC	?Cos@gen@@YAMM@Z				; gen::Cos
PUBLIC	?ACos@gen@@YAMM@Z				; gen::ACos
PUBLIC	?ATan@gen@@YAMMM@Z				; gen::ATan
PUBLIC	?InvSqrt@gen@@YAMM@Z				; gen::InvSqrt
PUBLIC	?SinCos@gen@@YAXMPAM0@Z				; gen::SinCos
PUBLIC	?IsZero@gen@@YA_NMM@Z				; gen::IsZero
PUBLIC	?AreEqual@gen@@YA_NMMI@Z			; gen::AreEqual
PUBLIC	??0CVector3@gen@@QAE@XZ				; gen::CVector3::CVector3
PUBLIC	??0CVector3@gen@@QAE@MMM@Z			; gen::CVector3::CVector3
PUBLIC	??0CVector3@gen@@QAE@ABV01@@Z			; gen::CVector3::CVector3
PUBLIC	??4CVector3@gen@@QAEAAV01@ABV01@@Z		; gen::CVector3::operator=
PUBLIC	?Set@CVector3@gen@@QAEXMMM@Z			; gen::CVector3::Set
PUBLIC	?IsZero@CVector3@gen@@QBE_NXZ			; gen::CVector3::IsZero
PUBLIC	??Ggen@@YA?AVCVector3@0@ABV10@0@Z		; gen::operator-
PUBLIC	??Ggen@@YA?AVCVector3@0@ABV10@@Z		; gen::operator-
PUBLIC	??Dgen@@YA?AVCVector3@0@ABV10@M@Z		; gen::operator*
PUBLIC	?Cross@gen@@YA?AVCVector3@1@ABV21@0@Z		; gen::Cross
PUBLIC	??0CMatrix4x4@gen@@QAE@XZ			; gen::CMatrix4x4::CMatrix4x4
PUBLIC	??0CMatrix4x4@gen@@QAE@MMMMMMMMMMMMMMMM@Z	; gen::CMatrix4x4::CMatrix4x4
PUBLIC	??0CMatrix4x4@gen@@QAE@PBM_N@Z			; gen::CMatrix4x4::CMatrix4x4
PUBLIC	??0CMatrix4x4@gen@@QAE@ABVCVector4@1@000_N@Z	; gen::CMatrix4x4::CMatrix4x4
PUBLIC	??0CMatrix4x4@gen@@QAE@ABVCVector3@1@000_N@Z	; gen::CMatrix4x4::CMatrix4x4
PUBLIC	??0CMatrix4x4@gen@@QAE@ABVCVector3@1@@Z		; gen::CMatrix4x4::CMatrix4x4
PUBLIC	??0CMatrix4x4@gen@@QAE@ABVCVector3@1@0W4ERotationOrder@1@0@Z ; gen::CMatrix4x4::CMatrix4x4
PUBLIC	??0CMatrix4x4@gen@@QAE@ABVCQuaternion@1@ABVCVector3@1@1@Z ; gen::CMatrix4x4::CMatrix4x4
PUBLIC	??0CMatrix4x4@gen@@QAE@ABVCVector3@1@M00@Z	; gen::CMatrix4x4::CMatrix4x4
PUBLIC	??0CMatrix4x4@gen@@QAE@ABVCMatrix2x2@1@ABVCVector2@1@@Z ; gen::CMatrix4x4::CMatrix4x4
PUBLIC	??0CMatrix4x4@gen@@QAE@ABVCMatrix3x3@1@ABVCVector3@1@@Z ; gen::CMatrix4x4::CMatrix4x4
PUBLIC	??0CMatrix4x4@gen@@QAE@ABV01@@Z			; gen::CMatrix4x4::CMatrix4x4
PUBLIC	??4CMatrix4x4@gen@@QAEAAV01@ABV01@@Z		; gen::CMatrix4x4::operator=
PUBLIC	?Set@CMatrix4x4@gen@@QAEXMMMMMMMMMMMMMMMM@Z	; gen::CMatrix4x4::Set
PUBLIC	?Set@CMatrix4x4@gen@@QAEXPBM_N@Z		; gen::CMatrix4x4::Set
PUBLIC	?GetRow@CMatrix4x4@gen@@QBE?AVCVector4@2@I@Z	; gen::CMatrix4x4::GetRow
PUBLIC	?GetColumn@CMatrix4x4@gen@@QBE?AVCVector4@2@I@Z	; gen::CMatrix4x4::GetColumn
PUBLIC	?SetRow@CMatrix4x4@gen@@QAEXIABVCVector4@2@@Z	; gen::CMatrix4x4::SetRow
PUBLIC	?SetRow@CMatrix4x4@gen@@QAEXIABVCVector3@2@@Z	; gen::CMatrix4x4::SetRow
PUBLIC	?SetColumn@CMatrix4x4@gen@@QAEXIABVCVector4@2@@Z ; gen::CMatrix4x4::SetColumn
PUBLIC	?SetColumn@CMatrix4x4@gen@@QAEXIABVCVector3@2@@Z ; gen::CMatrix4x4::SetColumn
PUBLIC	?SetRows@CMatrix4x4@gen@@QAEXABVCVector4@2@000@Z ; gen::CMatrix4x4::SetRows
PUBLIC	?SetRows@CMatrix4x4@gen@@QAEXABVCVector3@2@000@Z ; gen::CMatrix4x4::SetRows
PUBLIC	?SetColumns@CMatrix4x4@gen@@QAEXABVCVector4@2@000@Z ; gen::CMatrix4x4::SetColumns
PUBLIC	?SetColumns@CMatrix4x4@gen@@QAEXABVCVector3@2@000@Z ; gen::CMatrix4x4::SetColumns
PUBLIC	??ACMatrix4x4@gen@@QAEAAVCVector4@1@I@Z		; gen::CMatrix4x4::operator[]
PUBLIC	??ACMatrix4x4@gen@@QBEABVCVector4@1@I@Z		; gen::CMatrix4x4::operator[]
PUBLIC	?MakeAffineEuler@CMatrix4x4@gen@@QAEXABVCVector3@2@0W4ERotationOrder@2@0@Z ; gen::CMatrix4x4::MakeAffineEuler
PUBLIC	?MakeAffineQuaternion@CMatrix4x4@gen@@QAEXABVCQuaternion@2@ABVCVector3@2@1@Z ; gen::CMatrix4x4::MakeAffineQuaternion
PUBLIC	?MakeAffineAxisAngle@CMatrix4x4@gen@@QAEXABVCVector3@2@M00@Z ; gen::CMatrix4x4::MakeAffineAxisAngle
PUBLIC	?DecomposeAffineEuler@CMatrix4x4@gen@@QBEXPAVCVector3@2@00W4ERotationOrder@2@@Z ; gen::CMatrix4x4::DecomposeAffineEuler
PUBLIC	?DecomposeAffineQuaternion@CMatrix4x4@gen@@QBEXPAVCVector3@2@PAVCQuaternion@2@0@Z ; gen::CMatrix4x4::DecomposeAffineQuaternion
PUBLIC	?DecomposeAffineAxisAngle@CMatrix4x4@gen@@QBEXPAVCVector3@2@0PAM0@Z ; gen::CMatrix4x4::DecomposeAffineAxisAngle
PUBLIC	?GetPosition@CMatrix4x4@gen@@QBE?AVCVector3@2@XZ ; gen::CMatrix4x4::GetPosition
PUBLIC	?GetScale@CMatrix4x4@gen@@QBE?AVCVector3@2@XZ	; gen::CMatrix4x4::GetScale
PUBLIC	?SetScaleX@CMatrix4x4@gen@@QAEXM@Z		; gen::CMatrix4x4::SetScaleX
PUBLIC	?SetScaleY@CMatrix4x4@gen@@QAEXM@Z		; gen::CMatrix4x4::SetScaleY
PUBLIC	?SetScaleZ@CMatrix4x4@gen@@QAEXM@Z		; gen::CMatrix4x4::SetScaleZ
PUBLIC	?SetScale@CMatrix4x4@gen@@QAEXABVCVector3@2@@Z	; gen::CMatrix4x4::SetScale
PUBLIC	?SetScale@CMatrix4x4@gen@@QAEXM@Z		; gen::CMatrix4x4::SetScale
PUBLIC	?IsIdentity@CMatrix4x4@gen@@QBE_NXZ		; gen::CMatrix4x4::IsIdentity
PUBLIC	?IsOrthogonal3x3@CMatrix4x4@gen@@QBE_NXZ	; gen::CMatrix4x4::IsOrthogonal3x3
PUBLIC	?IsOrthonormal3x3@CMatrix4x4@gen@@QBE_NXZ	; gen::CMatrix4x4::IsOrthonormal3x3
PUBLIC	?Orthogonalise3x3@CMatrix4x4@gen@@QAEXABVCVector3@2@@Z ; gen::CMatrix4x4::Orthogonalise3x3
PUBLIC	?Transpose@CMatrix4x4@gen@@QAEXXZ		; gen::CMatrix4x4::Transpose
PUBLIC	?InvertRotTrans@CMatrix4x4@gen@@QAEXXZ		; gen::CMatrix4x4::InvertRotTrans
PUBLIC	?InvertRotTransScale@CMatrix4x4@gen@@QAEXXZ	; gen::CMatrix4x4::InvertRotTransScale
PUBLIC	?InvertAffine@CMatrix4x4@gen@@QAEXXZ		; gen::CMatrix4x4::InvertAffine
PUBLIC	?Cofactor@CMatrix4x4@gen@@QAEMII@Z		; gen::CMatrix4x4::Cofactor
PUBLIC	?Invert@CMatrix4x4@gen@@QAEXXZ			; gen::CMatrix4x4::Invert
PUBLIC	?MakeIdentity@CMatrix4x4@gen@@QAEXXZ		; gen::CMatrix4x4::MakeIdentity
PUBLIC	?MakeTranslation@CMatrix4x4@gen@@QAEXABVCVector3@2@@Z ; gen::CMatrix4x4::MakeTranslation
PUBLIC	?MakeRotationX@CMatrix4x4@gen@@QAEXM@Z		; gen::CMatrix4x4::MakeRotationX
PUBLIC	?MakeRotationY@CMatrix4x4@gen@@QAEXM@Z		; gen::CMatrix4x4::MakeRotationY
PUBLIC	?MakeRotationZ@CMatrix4x4@gen@@QAEXM@Z		; gen::CMatrix4x4::MakeRotationZ
PUBLIC	?MakeRotation@CMatrix4x4@gen@@QAEXVCVector3@2@W4ERotationOrder@2@@Z ; gen::CMatrix4x4::MakeRotation
PUBLIC	?MakeRotation@CMatrix4x4@gen@@QAEXABVCVector3@2@M@Z ; gen::CMatrix4x4::MakeRotation
PUBLIC	?MakeScaling@CMatrix4x4@gen@@QAEXABVCVector3@2@@Z ; gen::CMatrix4x4::MakeScaling
PUBLIC	?MakeScaling@CMatrix4x4@gen@@QAEXM@Z		; gen::CMatrix4x4::MakeScaling
PUBLIC	?FaceTarget@CMatrix4x4@gen@@QAEXABVCVector3@2@0_N@Z ; gen::CMatrix4x4::FaceTarget
PUBLIC	?FaceDirection@CMatrix4x4@gen@@QAEXABVCVector3@2@0_N@Z ; gen::CMatrix4x4::FaceDirection
PUBLIC	??XCMatrix4x4@gen@@QAEAAV01@M@Z			; gen::CMatrix4x4::operator*=
PUBLIC	??_0CMatrix4x4@gen@@QAEAAV01@M@Z		; gen::CMatrix4x4::operator/=
PUBLIC	?Transform@CMatrix4x4@gen@@QBE?AVCVector4@2@ABV32@@Z ; gen::CMatrix4x4::Transform
PUBLIC	?TransformVector@CMatrix4x4@gen@@QBE?AVCVector3@2@ABV32@@Z ; gen::CMatrix4x4::TransformVector
PUBLIC	?TransformPoint@CMatrix4x4@gen@@QBE?AVCVector3@2@ABV32@@Z ; gen::CMatrix4x4::TransformPoint
PUBLIC	??XCMatrix4x4@gen@@QAEAAV01@ABV01@@Z		; gen::CMatrix4x4::operator*=
PUBLIC	?MultiplyAffine@CMatrix4x4@gen@@QAEAAV12@ABV12@@Z ; gen::CMatrix4x4::MultiplyAffine
PUBLIC	??8gen@@YA_NABVCMatrix4x4@0@0@Z			; gen::operator==
PUBLIC	??9gen@@YA_NABVCMatrix4x4@0@0@Z			; gen::operator!=
PUBLIC	??Dgen@@YA?AVCMatrix4x4@0@MABV10@@Z		; gen::operator*
PUBLIC	??Dgen@@YA?AVCMatrix4x4@0@ABV10@M@Z		; gen::operator*
PUBLIC	??Kgen@@YA?AVCMatrix4x4@0@ABV10@M@Z		; gen::operator/
PUBLIC	??Dgen@@YA?AVCVector4@0@ABV10@ABVCMatrix4x4@0@@Z ; gen::operator*
PUBLIC	??Dgen@@YA?AVCVector4@0@ABVCMatrix4x4@0@ABV10@@Z ; gen::operator*
PUBLIC	??Dgen@@YA?AVCMatrix4x4@0@ABV10@0@Z		; gen::operator*
PUBLIC	?MultiplyAffine@gen@@YA?AVCMatrix4x4@1@ABV21@0@Z ; gen::MultiplyAffine
PUBLIC	?Orthogonalise3x3@gen@@YA?AVCMatrix4x4@1@ABV21@ABVCVector3@1@@Z ; gen::Orthogonalise3x3
PUBLIC	?Transpose@gen@@YA?AVCMatrix4x4@1@ABV21@@Z	; gen::Transpose
PUBLIC	?InverseRotTrans@gen@@YA?AVCMatrix4x4@1@ABV21@@Z ; gen::InverseRotTrans
PUBLIC	?InverseRotTransScale@gen@@YA?AVCMatrix4x4@1@ABV21@@Z ; gen::InverseRotTransScale
PUBLIC	?InverseAffine@gen@@YA?AVCMatrix4x4@1@ABV21@@Z	; gen::InverseAffine
PUBLIC	?Cofactor@gen@@YAMABVCMatrix4x4@1@II@Z		; gen::Cofactor
PUBLIC	?Inverse@gen@@YA?AVCMatrix4x4@1@ABV21@@Z	; gen::Inverse
PUBLIC	?MatrixIdentity@gen@@YA?AVCMatrix4x4@1@XZ	; gen::MatrixIdentity
PUBLIC	?MatrixTranslation@gen@@YA?AVCMatrix4x4@1@ABVCVector3@1@@Z ; gen::MatrixTranslation
PUBLIC	?MatrixRotationX@gen@@YA?AVCMatrix4x4@1@M@Z	; gen::MatrixRotationX
PUBLIC	?MatrixRotationY@gen@@YA?AVCMatrix4x4@1@M@Z	; gen::MatrixRotationY
PUBLIC	?MatrixRotationZ@gen@@YA?AVCMatrix4x4@1@M@Z	; gen::MatrixRotationZ
PUBLIC	?MatrixRotation@gen@@YA?AVCMatrix4x4@1@VCVector3@1@W4ERotationOrder@1@@Z ; gen::MatrixRotation
PUBLIC	?MatrixRotation@gen@@YA?AVCMatrix4x4@1@ABVCVector3@1@M@Z ; gen::MatrixRotation
PUBLIC	?MatrixScaling@gen@@YA?AVCMatrix4x4@1@ABVCVector3@1@@Z ; gen::MatrixScaling
PUBLIC	?MatrixScaling@gen@@YA?AVCMatrix4x4@1@M@Z	; gen::MatrixScaling
PUBLIC	?MatrixFaceTarget@gen@@YA?AVCMatrix4x4@1@ABVCVector3@1@00_N@Z ; gen::MatrixFaceTarget
PUBLIC	?MatrixFaceDirection@gen@@YA?AVCMatrix4x4@1@ABVCVector3@1@00_N@Z ; gen::MatrixFaceDirection
PUBLIC	??0CVector4@gen@@QAE@XZ				; gen::CVector4::CVector4
PUBLIC	??0CVector4@gen@@QAE@MMMM@Z			; gen::CVector4::CVector4
PUBLIC	??0CVector4@gen@@QAE@PBM@Z			; gen::CVector4::CVector4
PUBLIC	??0CVector4@gen@@QAE@ABV01@@Z			; gen::CVector4::CVector4
PUBLIC	??ACVector4@gen@@QAEAAMI@Z			; gen::CVector4::operator[]
PUBLIC	??ACVector4@gen@@QBEABMI@Z			; gen::CVector4::operator[]
PUBLIC	??$construct@PADAAPAD@?$_Wrap_alloc@V?$allocator@D@std@@@std@@QAEXPAPADAAPAD@Z ; std::_Wrap_alloc<std::allocator<char> >::construct<char *,char * &>
PUBLIC	??$destroy@PAD@?$_Wrap_alloc@V?$allocator@D@std@@@std@@QAEXPAPAD@Z ; std::_Wrap_alloc<std::allocator<char> >::destroy<char *>
PUBLIC	??$addressof@D@std@@YAPADAAD@Z			; std::addressof<char>
PUBLIC	??0?$allocator@U_Container_proxy@std@@@std@@QAE@XZ ; std::allocator<std::_Container_proxy>::allocator<std::_Container_proxy>
PUBLIC	?deallocate@?$allocator@U_Container_proxy@std@@@std@@QAEXPAU_Container_proxy@2@I@Z ; std::allocator<std::_Container_proxy>::deallocate
PUBLIC	?allocate@?$allocator@U_Container_proxy@std@@@std@@QAEPAU_Container_proxy@2@I@Z ; std::allocator<std::_Container_proxy>::allocate
PUBLIC	??$construct@U_Container_proxy@std@@U12@@?$allocator@U_Container_proxy@std@@@std@@QAEXPAU_Container_proxy@1@$$QAU21@@Z ; std::allocator<std::_Container_proxy>::construct<std::_Container_proxy,std::_Container_proxy>
PUBLIC	??$destroy@U_Container_proxy@std@@@?$allocator@U_Container_proxy@std@@@std@@QAEXPAU_Container_proxy@1@@Z ; std::allocator<std::_Container_proxy>::destroy<std::_Container_proxy>
PUBLIC	??$_Allocate@U_Container_proxy@std@@@std@@YAPAU_Container_proxy@0@IPAU10@@Z ; std::_Allocate<std::_Container_proxy>
PUBLIC	??$_Allocate@D@std@@YAPADIPAD@Z			; std::_Allocate<char>
PUBLIC	??$forward@AAPAD@std@@YAAAPADAAPAD@Z		; std::forward<char * &>
PUBLIC	??$construct@PADAAPAD@?$allocator_traits@V?$allocator@D@std@@@std@@SAXAAV?$allocator@D@1@PAPADAAPAD@Z ; std::allocator_traits<std::allocator<char> >::construct<char *,char * &>
PUBLIC	??$destroy@PAD@?$allocator_traits@V?$allocator@D@std@@@std@@SAXAAV?$allocator@D@1@PAPAD@Z ; std::allocator_traits<std::allocator<char> >::destroy<char *>
PUBLIC	??$forward@U_Container_proxy@std@@@std@@YA$$QAU_Container_proxy@0@AAU10@@Z ; std::forward<std::_Container_proxy>
PUBLIC	??$construct@PADAAPAD@?$allocator@D@std@@QAEXPAPADAAPAD@Z ; std::allocator<char>::construct<char *,char * &>
PUBLIC	??$destroy@PAD@?$allocator@D@std@@QAEXPAPAD@Z	; std::allocator<char>::destroy<char *>
PUBLIC	?npos@?$basic_string@DU?$char_traits@D@std@@V?$allocator@D@2@@std@@2IB ; std::basic_string<char,std::char_traits<char>,std::allocator<char> >::npos
PUBLIC	??_C@_00CNPNBAHC@?$AA@				; `string'
PUBLIC	??_7error_category@std@@6B@			; std::error_category::`vftable'
PUBLIC	??_7_Generic_error_category@std@@6B@		; std::_Generic_error_category::`vftable'
PUBLIC	??_C@_07DCLBNMLN@generic?$AA@			; `string'
PUBLIC	??_C@_0O@BFJCFAAK@unknown?5error?$AA@		; `string'
PUBLIC	??_7_Iostream_error_category@std@@6B@		; std::_Iostream_error_category::`vftable'
PUBLIC	??_C@_08LLGCOLLL@iostream?$AA@			; `string'
PUBLIC	??_C@_0BG@PADBLCHM@iostream?5stream?5error?$AA@	; `string'
PUBLIC	??_7_System_error_category@std@@6B@		; std::_System_error_category::`vftable'
PUBLIC	??_C@_06FHFOAHML@system?$AA@			; `string'
PUBLIC	?_Generic_object@?$_Error_objects@H@std@@2V_Generic_error_category@2@A ; std::_Error_objects<int>::_Generic_object
PUBLIC	?_Iostream_object@?$_Error_objects@H@std@@2V_Iostream_error_category@2@A ; std::_Error_objects<int>::_Iostream_object
PUBLIC	?_System_object@?$_Error_objects@H@std@@2V_System_error_category@2@A ; std::_Error_objects<int>::_System_object
PUBLIC	?id@?$num_put@DV?$back_insert_iterator@V?$basic_string@DU?$char_traits@D@std@@V?$allocator@D@2@@std@@@std@@@std@@2V0locale@2@A ; std::num_put<char,std::back_insert_iterator<std::basic_string<char,std::char_traits<char>,std::allocator<char> > > >::id
PUBLIC	?id@?$num_put@_WV?$back_insert_iterator@V?$basic_string@_WU?$char_traits@_W@std@@V?$allocator@_W@2@@std@@@std@@@std@@2V0locale@2@A ; std::num_put<wchar_t,std::back_insert_iterator<std::basic_string<wchar_t,std::char_traits<wchar_t>,std::allocator<wchar_t> > > >::id
PUBLIC	??_C@_0CB@NBMGHEOM@Visual?5C?$CL?$CL?58?40?5?$CI2005?$CJ?5or?5greater@ ; `string'
PUBLIC	??_C@_01KICIPPFI@?2?$AA@			; `string'
PUBLIC	??_C@_01EEMJAFIK@?6?$AA@			; `string'
PUBLIC	??_C@_0BE@HBKCGNOA@Unhandled?5Exception?$AA@	; `string'
PUBLIC	?__LINE__Var@?1??InvSqrt@gen@@YAMM@Z@4JA	; `gen::InvSqrt'::`2'::__LINE__Var
PUBLIC	__TI1?AVCFatalException@gen@@
PUBLIC	__CTA1?AVCFatalException@gen@@
PUBLIC	??_R0?AVCFatalException@gen@@@8			; gen::CFatalException `RTTI Type Descriptor'
PUBLIC	__CT??_R0?AVCFatalException@gen@@@8??0CFatalException@gen@@QAE@ABV01@@Z88
PUBLIC	??_C@_0EE@DHOCJGL@c?3?2users?2simon?2documents?2github?2@ ; `string'
PUBLIC	??_C@_0BC@DBAKKFEN@Invalid?5parameter?$AA@	; `string'
PUBLIC	??_C@_0N@HFKAOJGM@gen?3?3InvSqrt?$AA@		; `string'
PUBLIC	??_C@_0BA@KCKIPOBF@gen?3?3operator?5?1?$AA@	; `string'
PUBLIC	?kIdentity@CMatrix4x4@gen@@2V12@B		; gen::CMatrix4x4::kIdentity
PUBLIC	??_C@_0BA@EJDDFENM@Singular?5matrix?$AA@	; `string'
PUBLIC	??_C@_0EE@NIOAKDJB@c?3?2users?2simon?2documents?2github?2@ ; `string'
PUBLIC	??_C@_0BI@HNLOPNMD@gen?3?3CVector4?3?3CVector4?$AA@ ; `string'
PUBLIC	?__LINE__Var@?1???0CMatrix4x4@gen@@QAE@PBM_N@Z@4JA ; `gen::CMatrix4x4::CMatrix4x4'::`2'::__LINE__Var
PUBLIC	??_C@_0EI@POGHFJCD@c?3?2users?2simon?2documents?2github?2@ ; `string'
PUBLIC	??_C@_0BM@LAPKAOOM@gen?3?3CMatrix4x4?3?3CMatrix4x4?$AA@ ; `string'
PUBLIC	?__LINE__Var@?1??Set@CMatrix4x4@gen@@QAEXPBM_N@Z@4JA ; `gen::CMatrix4x4::Set'::`2'::__LINE__Var
PUBLIC	??_C@_0BF@LLJNGHHJ@gen?3?3CMatrix4x4?3?3Set?$AA@ ; `string'
PUBLIC	?__LINE__Var@?1??GetRow@CMatrix4x4@gen@@QBE?AVCVector4@3@I@Z@4JA ; `gen::CMatrix4x4::GetRow'::`2'::__LINE__Var
PUBLIC	??_C@_0BI@COECFNCF@gen?3?3CMatrix4x4?3?3GetRow?$AA@ ; `string'
PUBLIC	?__LINE__Var@?1??GetColumn@CMatrix4x4@gen@@QBE?AVCVector4@3@I@Z@4JA ; `gen::CMatrix4x4::GetColumn'::`2'::__LINE__Var
PUBLIC	??_C@_0BL@JIEIPIJN@gen?3?3CMatrix4x4?3?3GetColumn?$AA@ ; `string'
PUBLIC	?__LINE__Var@?1??SetRow@CMatrix4x4@gen@@QAEXIABVCVector4@3@@Z@4JA ; `gen::CMatrix4x4::SetRow'::`2'::__LINE__Var
PUBLIC	??_C@_0BI@LNNDOFPI@gen?3?3CMatrix4x4?3?3SetRow?$AA@ ; `string'
PUBLIC	?__LINE__Var@?1??SetRow@CMatrix4x4@gen@@QAEXIABVCVector3@3@@Z@4JA ; `gen::CMatrix4x4::SetRow'::`2'::__LINE__Var
PUBLIC	?__LINE__Var@?1??SetColumn@CMatrix4x4@gen@@QAEXIABVCVector4@3@@Z@4JA ; `gen::CMatrix4x4::SetColumn'::`2'::__LINE__Var
PUBLIC	??_C@_0BL@LGANNJAP@gen?3?3CMatrix4x4?3?3SetColumn?$AA@ ; `string'
PUBLIC	?__LINE__Var@?1??SetColumn@CMatrix4x4@gen@@QAEXIABVCVector3@3@@Z@4JA ; `gen::CMatrix4x4::SetColumn'::`2'::__LINE__Var
PUBLIC	?__LINE__Var@?1??DecomposeAffineEuler@CMatrix4x4@gen@@QBEXPAVCVector3@3@00W4ERotationOrder@3@@Z@4JA ; `gen::CMatrix4x4::DecomposeAffineEuler'::`2'::__LINE__Var
PUBLIC	??_C@_0CG@HIGNFPPJ@gen?3?3CMatrix4x4?3?3DecomposeAffine@ ; `string'
PUBLIC	?__LINE__Var@?1??DecomposeAffineQuaternion@CMatrix4x4@gen@@QBEXPAVCVector3@3@PAVCQuaternion@3@0@Z@4JA ; `gen::CMatrix4x4::DecomposeAffineQuaternion'::`2'::__LINE__Var
PUBLIC	?__LINE__Var@?1??DecomposeAffineAxisAngle@CMatrix4x4@gen@@QBEXPAVCVector3@3@0PAM0@Z@4JA ; `gen::CMatrix4x4::DecomposeAffineAxisAngle'::`2'::__LINE__Var
PUBLIC	?__LINE__Var@?1??Orthogonalise3x3@CMatrix4x4@gen@@QAEXABVCVector3@3@@Z@4JA ; `gen::CMatrix4x4::Orthogonalise3x3'::`2'::__LINE__Var
PUBLIC	??_C@_0CC@BIGHOAJP@gen?3?3CMatrix4x4?3?3Orthogonalise3x@ ; `string'
PUBLIC	?__LINE__Var@?1??Orthogonalise3x3@gen@@YA?AVCMatrix4x4@2@ABV32@ABVCVector3@2@@Z@4JA ; `gen::Orthogonalise3x3'::`2'::__LINE__Var
PUBLIC	??_C@_0BG@EKHHHFFK@gen?3?3Orthogonalise3x3?$AA@	; `string'
PUBLIC	?__LINE__Var@?1??InvertRotTransScale@CMatrix4x4@gen@@QAEXXZ@4JA ; `gen::CMatrix4x4::InvertRotTransScale'::`2'::__LINE__Var
PUBLIC	??_C@_0CF@KNEDKMPM@gen?3?3CMatrix4x4?3?3InvertRotTransS@ ; `string'
PUBLIC	?__LINE__Var@?1??InverseRotTransScale@gen@@YA?AVCMatrix4x4@2@ABV32@@Z@4JA ; `gen::InverseRotTransScale'::`2'::__LINE__Var
PUBLIC	??_C@_0BK@PCEHJOFI@gen?3?3InverseRotTransScale?$AA@ ; `string'
PUBLIC	?__LINE__Var@?1??InverseAffine@gen@@YA?AVCMatrix4x4@2@ABV32@@Z@4JA ; `gen::InverseAffine'::`2'::__LINE__Var
PUBLIC	??_C@_0BD@PPGPBHLN@gen?3?3InverseAffine?$AA@	; `string'
PUBLIC	?__LINE__Var@?1??Inverse@gen@@YA?AVCMatrix4x4@2@ABV32@@Z@4JA ; `gen::Inverse'::`2'::__LINE__Var
PUBLIC	??_C@_0N@BLGPECID@gen?3?3Inverse?$AA@		; `string'
PUBLIC	?__LINE__Var@?1??MakeRotation@CMatrix4x4@gen@@QAEXVCVector3@3@W4ERotationOrder@3@@Z@4JA ; `gen::CMatrix4x4::MakeRotation'::`2'::__LINE__Var
PUBLIC	??_C@_0BO@EDHCIBNI@gen?3?3CMatrix4x4?3?3MakeRotation?$AA@ ; `string'
PUBLIC	?__LINE__Var@?1??MakeRotation@CMatrix4x4@gen@@QAEXABVCVector3@3@M@Z@4JA ; `gen::CMatrix4x4::MakeRotation'::`2'::__LINE__Var
PUBLIC	??_C@_0BB@OPALDBID@Zero?5length?5axis?$AA@	; `string'
PUBLIC	?__LINE__Var@?1??MatrixRotation@gen@@YA?AVCMatrix4x4@2@VCVector3@2@W4ERotationOrder@2@@Z@4JA ; `gen::MatrixRotation'::`2'::__LINE__Var
PUBLIC	??_C@_0BE@LMIKLAKG@gen?3?3MatrixRotation?$AA@	; `string'
PUBLIC	?__LINE__Var@?1??MatrixRotation@gen@@YA?AVCMatrix4x4@2@ABVCVector3@2@M@Z@4JA ; `gen::MatrixRotation'::`2'::__LINE__Var
PUBLIC	?__LINE__Var@?1???_0CMatrix4x4@gen@@QAEAAV12@M@Z@4JA ; `gen::CMatrix4x4::operator/='::`2'::__LINE__Var
PUBLIC	??_C@_0BN@GEEHGKKB@gen?3?3CMatrix4x4?3?3operator?5?1?$DN?$AA@ ; `string'
PUBLIC	?__LINE__Var@?1???Kgen@@YA?AVCMatrix4x4@1@ABV21@M@Z@4JA ; `gen::operator/'::`2'::__LINE__Var
PUBLIC	??_C@_1IO@JLPDPDPD@?$AAc?$AA?3?$AA?2?$AAp?$AAr?$AAo?$AAg?$AAr?$AAa?$AAm?$AA?5?$AAf?$AAi?$AAl?$AAe?$AAs?$AA?5?$AA?$CI?$AAx?$AA8?$AA6?$AA?$CJ?$AA?2?$AAm?$AAi?$AAc?$AAr?$AAo?$AAs?$AAo?$AAf?$AAt@ ; `string'
PUBLIC	?id@?$numpunct@D@std@@2V0locale@2@A		; std::numpunct<char>::id
PUBLIC	?id@?$numpunct@_W@std@@2V0locale@2@A		; std::numpunct<wchar_t>::id
PUBLIC	??_C@_0BA@JFNIOLAK@string?5too?5long?$AA@	; `string'
PUBLIC	??_C@_0BI@CFPLBAOH@invalid?5string?5position?$AA@ ; `string'
PUBLIC	??_C@_1CK@EOPGIILJ@?$AAi?$AAn?$AAv?$AAa?$AAl?$AAi?$AAd?$AA?5?$AAn?$AAu?$AAl?$AAl?$AA?5?$AAp?$AAo?$AAi?$AAn?$AAt?$AAe?$AAr?$AA?$AA@ ; `string'
PUBLIC	??_R4error_category@std@@6B@			; std::error_category::`RTTI Complete Object Locator'
PUBLIC	??_R0?AVerror_category@std@@@8			; std::error_category `RTTI Type Descriptor'
PUBLIC	??_R3error_category@std@@8			; std::error_category::`RTTI Class Hierarchy Descriptor'
PUBLIC	??_R2error_category@std@@8			; std::error_category::`RTTI Base Class Array'
PUBLIC	??_R1A@?0A@EA@error_category@std@@8		; std::error_category::`RTTI Base Class Descriptor at (0,-1,0,64)'
PUBLIC	??_R4_Generic_error_category@std@@6B@		; std::_Generic_error_category::`RTTI Complete Object Locator'
PUBLIC	??_R0?AV_Generic_error_category@std@@@8		; std::_Generic_error_category `RTTI Type Descriptor'
PUBLIC	??_R3_Generic_error_category@std@@8		; std::_Generic_error_category::`RTTI Class Hierarchy Descriptor'
PUBLIC	??_R2_Generic_error_category@std@@8		; std::_Generic_error_category::`RTTI Base Class Array'
PUBLIC	??_R1A@?0A@EA@_Generic_error_category@std@@8	; std::_Generic_error_category::`RTTI Base Class Descriptor at (0,-1,0,64)'
PUBLIC	??_R4_Iostream_error_category@std@@6B@		; std::_Iostream_error_category::`RTTI Complete Object Locator'
PUBLIC	??_R0?AV_Iostream_error_category@std@@@8	; std::_Iostream_error_category `RTTI Type Descriptor'
PUBLIC	??_R3_Iostream_error_category@std@@8		; std::_Iostream_error_category::`RTTI Class Hierarchy Descriptor'
PUBLIC	??_R2_Iostream_error_category@std@@8		; std::_Iostream_error_category::`RTTI Base Class Array'
PUBLIC	??_R1A@?0A@EA@_Iostream_error_category@std@@8	; std::_Iostream_error_category::`RTTI Base Class Descriptor at (0,-1,0,64)'
PUBLIC	??_R4_System_error_category@std@@6B@		; std::_System_error_category::`RTTI Complete Object Locator'
PUBLIC	??_R0?AV_System_error_category@std@@@8		; std::_System_error_category `RTTI Type Descriptor'
PUBLIC	??_R3_System_error_category@std@@8		; std::_System_error_category::`RTTI Class Hierarchy Descriptor'
PUBLIC	??_R2_System_error_category@std@@8		; std::_System_error_category::`RTTI Base Class Array'
PUBLIC	??_R1A@?0A@EA@_System_error_category@std@@8	; std::_System_error_category::`RTTI Base Class Descriptor at (0,-1,0,64)'
PUBLIC	__real@00000000
PUBLIC	__real@3f000000
PUBLIC	__real@3f800000
PUBLIC	__real@40000000
PUBLIC	__xmm@80000000800000008000000080000000
EXTRN	__purecall:PROC
EXTRN	??2@YAPAXI@Z:PROC				; operator new
EXTRN	??3@YAXPAX@Z:PROC				; operator delete
EXTRN	_atexit:PROC
EXTRN	??0_Lockit@std@@QAE@H@Z:PROC			; std::_Lockit::_Lockit
EXTRN	??1_Lockit@std@@QAE@XZ:PROC			; std::_Lockit::~_Lockit
EXTRN	_abs:PROC
EXTRN	_acos:PROC
EXTRN	_atan2:PROC
EXTRN	_cos:PROC
EXTRN	_fabs:PROC
EXTRN	_sin:PROC
EXTRN	_sqrt:PROC
EXTRN	__hypot:PROC
EXTRN	_memcpy:PROC
EXTRN	_strlen:PROC
EXTRN	_memmove:PROC
EXTRN	?_Debug_message@std@@YAXPB_W0I@Z:PROC		; std::_Debug_message
EXTRN	?_Xbad_alloc@std@@YAXXZ:PROC			; std::_Xbad_alloc
EXTRN	?_Xlength_error@std@@YAXPBD@Z:PROC		; std::_Xlength_error
EXTRN	?_Xout_of_range@std@@YAXPBD@Z:PROC		; std::_Xout_of_range
EXTRN	??_Eerror_category@std@@UAEPAXI@Z:PROC		; std::error_category::`vector deleting destructor'
EXTRN	?_Syserror_map@std@@YAPBDH@Z:PROC		; std::_Syserror_map
EXTRN	?_Winerror_map@std@@YAPBDH@Z:PROC		; std::_Winerror_map
EXTRN	??_E_Generic_error_category@std@@UAEPAXI@Z:PROC	; std::_Generic_error_category::`vector deleting destructor'
EXTRN	??_E_Iostream_error_category@std@@UAEPAXI@Z:PROC ; std::_Iostream_error_category::`vector deleting destructor'
EXTRN	??_E_System_error_category@std@@UAEPAXI@Z:PROC	; std::_System_error_category::`vector deleting destructor'
EXTRN	?AppendToCallStack@CFatalException@gen@@QAEXPBD0_N@Z:PROC ; gen::CFatalException::AppendToCallStack
EXTRN	?Normalise@CVector3@gen@@QAEXXZ:PROC		; gen::CVector3::Normalise
EXTRN	?Normalise@gen@@YA?AVCVector3@1@ABV21@@Z:PROC	; gen::Normalise
EXTRN	@_RTC_CheckStackVars@8:PROC
EXTRN	@__security_check_cookie@4:PROC
EXTRN	__CxxThrowException@8:PROC
EXTRN	__RTC_CheckEsp:PROC
EXTRN	__RTC_InitBase:PROC
EXTRN	__RTC_Shutdown:PROC
EXTRN	___CxxFrameHandler3:PROC
EXTRN	??_7type_info@@6B@:QWORD			; type_info::`vftable'
EXTRN	?kZAxis@CVector3@gen@@2V12@B:BYTE		; gen::CVector3::kZAxis
EXTRN	___security_cookie:DWORD
EXTRN	__fltused:DWORD
_BSS	SEGMENT
_piecewise_construct DB 01H DUP (?)
	ALIGN	4

_allocator_arg DB 01H DUP (?)
_BSS	ENDS
;	COMDAT ?_Generic_object@?$_Error_objects@H@std@@2V_Generic_error_category@2@A
_BSS	SEGMENT
?_Generic_object@?$_Error_objects@H@std@@2V_Generic_error_category@2@A DD 01H DUP (?) ; std::_Error_objects<int>::_Generic_object
_BSS	ENDS
;	COMDAT ?_Iostream_object@?$_Error_objects@H@std@@2V_Iostream_error_category@2@A
_BSS	SEGMENT
?_Iostream_object@?$_Error_objects@H@std@@2V_Iostream_error_category@2@A DD 01H DUP (?) ; std::_Error_objects<int>::_Iostream_object
_BSS	ENDS
;	COMDAT ?_System_object@?$_Error_objects@H@std@@2V_System_error_category@2@A
_BSS	SEGMENT
?_System_object@?$_Error_objects@H@std@@2V_System_error_category@2@A DD 01H DUP (?) ; std::_Error_objects<int>::_System_object
_BSS	ENDS
;	COMDAT ?id@?$num_put@DV?$back_insert_iterator@V?$basic_string@DU?$char_traits@D@std@@V?$allocator@D@2@@std@@@std@@@std@@2V0locale@2@A
_BSS	SEGMENT
?id@?$num_put@DV?$back_insert_iterator@V?$basic_string@DU?$char_traits@D@std@@V?$allocator@D@2@@std@@@std@@@std@@2V0locale@2@A DD 01H DUP (?) ; std::num_put<char,std::back_insert_iterator<std::basic_string<char,std::char_traits<char>,std::allocator<char> > > >::id
_BSS	ENDS
;	COMDAT ?id@?$num_put@_WV?$back_insert_iterator@V?$basic_string@_WU?$char_traits@_W@std@@V?$allocator@_W@2@@std@@@std@@@std@@2V0locale@2@A
_BSS	SEGMENT
?id@?$num_put@_WV?$back_insert_iterator@V?$basic_string@_WU?$char_traits@_W@std@@V?$allocator@_W@2@@std@@@std@@@std@@2V0locale@2@A DD 01H DUP (?) ; std::num_put<wchar_t,std::back_insert_iterator<std::basic_string<wchar_t,std::char_traits<wchar_t>,std::allocator<wchar_t> > > >::id
_BSS	ENDS
_BSS	SEGMENT
	ALIGN	4

_ksCompiler DB	01cH DUP (?)
_ksPathSeparator DB 01cH DUP (?)
_ksNewline DB	01cH DUP (?)
?kIdentity@CMatrix4x4@gen@@2V12@B DB 040H DUP (?)	; gen::CMatrix4x4::kIdentity
_BSS	ENDS
;	COMDAT ?id@?$numpunct@D@std@@2V0locale@2@A
_BSS	SEGMENT
?id@?$numpunct@D@std@@2V0locale@2@A DD 01H DUP (?)	; std::numpunct<char>::id
_BSS	ENDS
;	COMDAT ?id@?$numpunct@_W@std@@2V0locale@2@A
_BSS	SEGMENT
?id@?$numpunct@_W@std@@2V0locale@2@A DD 01H DUP (?)	; std::numpunct<wchar_t>::id
_BSS	ENDS
CRT$XCU	SEGMENT
_piecewise_construct$initializer$ DD FLAT:??__Epiecewise_construct@std@@YAXXZ
CRT$XCU	ENDS
;	COMDAT __xmm@80000000800000008000000080000000
CONST	SEGMENT
__xmm@80000000800000008000000080000000 DB 00H, 00H, 00H, 080H, 00H, 00H, 00H
	DB	080H, 00H, 00H, 00H, 080H, 00H, 00H, 00H, 080H
CONST	ENDS
;	COMDAT __real@40000000
CONST	SEGMENT
__real@40000000 DD 040000000r			; 2
CONST	ENDS
;	COMDAT __real@3f800000
CONST	SEGMENT
__real@3f800000 DD 03f800000r			; 1
CONST	ENDS
;	COMDAT __real@3f000000
CONST	SEGMENT
__real@3f000000 DD 03f000000r			; 0.5
CONST	ENDS
;	COMDAT __real@00000000
CONST	SEGMENT
__real@00000000 DD 000000000r			; 0
CONST	ENDS
;	COMDAT rtc$TMZ
rtc$TMZ	SEGMENT
__RTC_Shutdown.rtc$TMZ DD FLAT:__RTC_Shutdown
rtc$TMZ	ENDS
;	COMDAT rtc$IMZ
rtc$IMZ	SEGMENT
__RTC_InitBase.rtc$IMZ DD FLAT:__RTC_InitBase
rtc$IMZ	ENDS
;	COMDAT ??_R1A@?0A@EA@_System_error_category@std@@8
rdata$r	SEGMENT
??_R1A@?0A@EA@_System_error_category@std@@8 DD FLAT:??_R0?AV_System_error_category@std@@@8 ; std::_System_error_category::`RTTI Base Class Descriptor at (0,-1,0,64)'
	DD	02H
	DD	00H
	DD	0ffffffffH
	DD	00H
	DD	040H
	DD	FLAT:??_R3_System_error_category@std@@8
rdata$r	ENDS
;	COMDAT ??_R2_System_error_category@std@@8
rdata$r	SEGMENT
??_R2_System_error_category@std@@8 DD FLAT:??_R1A@?0A@EA@_System_error_category@std@@8 ; std::_System_error_category::`RTTI Base Class Array'
	DD	FLAT:??_R1A@?0A@EA@_Generic_error_category@std@@8
	DD	FLAT:??_R1A@?0A@EA@error_category@std@@8
rdata$r	ENDS
;	COMDAT ??_R3_System_error_category@std@@8
rdata$r	SEGMENT
??_R3_System_error_category@std@@8 DD 00H		; std::_System_error_category::`RTTI Class Hierarchy Descriptor'
	DD	00H
	DD	03H
	DD	FLAT:??_R2_System_error_category@std@@8
rdata$r	ENDS
;	COMDAT ??_R0?AV_System_error_category@std@@@8
data$r	SEGMENT
??_R0?AV_System_error_category@std@@@8 DD FLAT:??_7type_info@@6B@ ; std::_System_error_category `RTTI Type Descriptor'
	DD	00H
	DB	'.?AV_System_error_category@std@@', 00H
data$r	ENDS
;	COMDAT ??_R4_System_error_category@std@@6B@
rdata$r	SEGMENT
??_R4_System_error_category@std@@6B@ DD 00H		; std::_System_error_category::`RTTI Complete Object Locator'
	DD	00H
	DD	00H
	DD	FLAT:??_R0?AV_System_error_category@std@@@8
	DD	FLAT:??_R3_System_error_category@std@@8
rdata$r	ENDS
;	COMDAT ??_R1A@?0A@EA@_Iostream_error_category@std@@8
rdata$r	SEGMENT
??_R1A@?0A@EA@_Iostream_error_category@std@@8 DD FLAT:??_R0?AV_Iostream_error_category@std@@@8 ; std::_Iostream_error_category::`RTTI Base Class Descriptor at (0,-1,0,64)'
	DD	02H
	DD	00H
	DD	0ffffffffH
	DD	00H
	DD	040H
	DD	FLAT:??_R3_Iostream_error_category@std@@8
rdata$r	ENDS
;	COMDAT ??_R2_Iostream_error_category@std@@8
rdata$r	SEGMENT
??_R2_Iostream_error_category@std@@8 DD FLAT:??_R1A@?0A@EA@_Iostream_error_category@std@@8 ; std::_Iostream_error_category::`RTTI Base Class Array'
	DD	FLAT:??_R1A@?0A@EA@_Generic_error_category@std@@8
	DD	FLAT:??_R1A@?0A@EA@error_category@std@@8
rdata$r	ENDS
;	COMDAT ??_R3_Iostream_error_category@std@@8
rdata$r	SEGMENT
??_R3_Iostream_error_category@std@@8 DD 00H		; std::_Iostream_error_category::`RTTI Class Hierarchy Descriptor'
	DD	00H
	DD	03H
	DD	FLAT:??_R2_Iostream_error_category@std@@8
rdata$r	ENDS
;	COMDAT ??_R0?AV_Iostream_error_category@std@@@8
data$r	SEGMENT
??_R0?AV_Iostream_error_category@std@@@8 DD FLAT:??_7type_info@@6B@ ; std::_Iostream_error_category `RTTI Type Descriptor'
	DD	00H
	DB	'.?AV_Iostream_error_category@std@@', 00H
data$r	ENDS
;	COMDAT ??_R4_Iostream_error_category@std@@6B@
rdata$r	SEGMENT
??_R4_Iostream_error_category@std@@6B@ DD 00H		; std::_Iostream_error_category::`RTTI Complete Object Locator'
	DD	00H
	DD	00H
	DD	FLAT:??_R0?AV_Iostream_error_category@std@@@8
	DD	FLAT:??_R3_Iostream_error_category@std@@8
rdata$r	ENDS
;	COMDAT ??_R1A@?0A@EA@_Generic_error_category@std@@8
rdata$r	SEGMENT
??_R1A@?0A@EA@_Generic_error_category@std@@8 DD FLAT:??_R0?AV_Generic_error_category@std@@@8 ; std::_Generic_error_category::`RTTI Base Class Descriptor at (0,-1,0,64)'
	DD	01H
	DD	00H
	DD	0ffffffffH
	DD	00H
	DD	040H
	DD	FLAT:??_R3_Generic_error_category@std@@8
rdata$r	ENDS
;	COMDAT ??_R2_Generic_error_category@std@@8
rdata$r	SEGMENT
??_R2_Generic_error_category@std@@8 DD FLAT:??_R1A@?0A@EA@_Generic_error_category@std@@8 ; std::_Generic_error_category::`RTTI Base Class Array'
	DD	FLAT:??_R1A@?0A@EA@error_category@std@@8
rdata$r	ENDS
;	COMDAT ??_R3_Generic_error_category@std@@8
rdata$r	SEGMENT
??_R3_Generic_error_category@std@@8 DD 00H		; std::_Generic_error_category::`RTTI Class Hierarchy Descriptor'
	DD	00H
	DD	02H
	DD	FLAT:??_R2_Generic_error_category@std@@8
rdata$r	ENDS
;	COMDAT ??_R0?AV_Generic_error_category@std@@@8
data$r	SEGMENT
??_R0?AV_Generic_error_category@std@@@8 DD FLAT:??_7type_info@@6B@ ; std::_Generic_error_category `RTTI Type Descriptor'
	DD	00H
	DB	'.?AV_Generic_error_category@std@@', 00H
data$r	ENDS
;	COMDAT ??_R4_Generic_error_category@std@@6B@
rdata$r	SEGMENT
??_R4_Generic_error_category@std@@6B@ DD 00H		; std::_Generic_error_category::`RTTI Complete Object Locator'
	DD	00H
	DD	00H
	DD	FLAT:??_R0?AV_Generic_error_category@std@@@8
	DD	FLAT:??_R3_Generic_error_category@std@@8
rdata$r	ENDS
;	COMDAT ??_R1A@?0A@EA@error_category@std@@8
rdata$r	SEGMENT
??_R1A@?0A@EA@error_category@std@@8 DD FLAT:??_R0?AVerror_category@std@@@8 ; std::error_category::`RTTI Base Class Descriptor at (0,-1,0,64)'
	DD	00H
	DD	00H
	DD	0ffffffffH
	DD	00H
	DD	040H
	DD	FLAT:??_R3error_category@std@@8
rdata$r	ENDS
;	COMDAT ??_R2error_category@std@@8
rdata$r	SEGMENT
??_R2error_category@std@@8 DD FLAT:??_R1A@?0A@EA@error_category@std@@8 ; std::error_category::`RTTI Base Class Array'
rdata$r	ENDS
;	COMDAT ??_R3error_category@std@@8
rdata$r	SEGMENT
??_R3error_category@std@@8 DD 00H			; std::error_category::`RTTI Class Hierarchy Descriptor'
	DD	00H
	DD	01H
	DD	FLAT:??_R2error_category@std@@8
rdata$r	ENDS
;	COMDAT ??_R0?AVerror_category@std@@@8
data$r	SEGMENT
??_R0?AVerror_category@std@@@8 DD FLAT:??_7type_info@@6B@ ; std::error_category `RTTI Type Descriptor'
	DD	00H
	DB	'.?AVerror_category@std@@', 00H
data$r	ENDS
;	COMDAT ??_R4error_category@std@@6B@
rdata$r	SEGMENT
??_R4error_category@std@@6B@ DD 00H			; std::error_category::`RTTI Complete Object Locator'
	DD	00H
	DD	00H
	DD	FLAT:??_R0?AVerror_category@std@@@8
	DD	FLAT:??_R3error_category@std@@8
rdata$r	ENDS
;	COMDAT ??_C@_1CK@EOPGIILJ@?$AAi?$AAn?$AAv?$AAa?$AAl?$AAi?$AAd?$AA?5?$AAn?$AAu?$AAl?$AAl?$AA?5?$AAp?$AAo?$AAi?$AAn?$AAt?$AAe?$AAr?$AA?$AA@
CONST	SEGMENT
??_C@_1CK@EOPGIILJ@?$AAi?$AAn?$AAv?$AAa?$AAl?$AAi?$AAd?$AA?5?$AAn?$AAu?$AAl?$AAl?$AA?5?$AAp?$AAo?$AAi?$AAn?$AAt?$AAe?$AAr?$AA?$AA@ DB 'i'
	DB	00H, 'n', 00H, 'v', 00H, 'a', 00H, 'l', 00H, 'i', 00H, 'd', 00H
	DB	' ', 00H, 'n', 00H, 'u', 00H, 'l', 00H, 'l', 00H, ' ', 00H, 'p'
	DB	00H, 'o', 00H, 'i', 00H, 'n', 00H, 't', 00H, 'e', 00H, 'r', 00H
	DB	00H, 00H					; `string'
CONST	ENDS
;	COMDAT ??_C@_0BI@CFPLBAOH@invalid?5string?5position?$AA@
CONST	SEGMENT
??_C@_0BI@CFPLBAOH@invalid?5string?5position?$AA@ DB 'invalid string posi'
	DB	'tion', 00H					; `string'
CONST	ENDS
;	COMDAT ??_C@_0BA@JFNIOLAK@string?5too?5long?$AA@
CONST	SEGMENT
??_C@_0BA@JFNIOLAK@string?5too?5long?$AA@ DB 'string too long', 00H ; `string'
CONST	ENDS
;	COMDAT ??_C@_1IO@JLPDPDPD@?$AAc?$AA?3?$AA?2?$AAp?$AAr?$AAo?$AAg?$AAr?$AAa?$AAm?$AA?5?$AAf?$AAi?$AAl?$AAe?$AAs?$AA?5?$AA?$CI?$AAx?$AA8?$AA6?$AA?$CJ?$AA?2?$AAm?$AAi?$AAc?$AAr?$AAo?$AAs?$AAo?$AAf?$AAt@
CONST	SEGMENT
??_C@_1IO@JLPDPDPD@?$AAc?$AA?3?$AA?2?$AAp?$AAr?$AAo?$AAg?$AAr?$AAa?$AAm?$AA?5?$AAf?$AAi?$AAl?$AAe?$AAs?$AA?5?$AA?$CI?$AAx?$AA8?$AA6?$AA?$CJ?$AA?2?$AAm?$AAi?$AAc?$AAr?$AAo?$AAs?$AAo?$AAf?$AAt@ DB 'c'
	DB	00H, ':', 00H, '\', 00H, 'p', 00H, 'r', 00H, 'o', 00H, 'g', 00H
	DB	'r', 00H, 'a', 00H, 'm', 00H, ' ', 00H, 'f', 00H, 'i', 00H, 'l'
	DB	00H, 'e', 00H, 's', 00H, ' ', 00H, '(', 00H, 'x', 00H, '8', 00H
	DB	'6', 00H, ')', 00H, '\', 00H, 'm', 00H, 'i', 00H, 'c', 00H, 'r'
	DB	00H, 'o', 00H, 's', 00H, 'o', 00H, 'f', 00H, 't', 00H, ' ', 00H
	DB	'v', 00H, 'i', 00H, 's', 00H, 'u', 00H, 'a', 00H, 'l', 00H, ' '
	DB	00H, 's', 00H, 't', 00H, 'u', 00H, 'd', 00H, 'i', 00H, 'o', 00H
	DB	' ', 00H, '1', 00H, '2', 00H, '.', 00H, '0', 00H, '\', 00H, 'v'
	DB	00H, 'c', 00H, '\', 00H, 'i', 00H, 'n', 00H, 'c', 00H, 'l', 00H
	DB	'u', 00H, 'd', 00H, 'e', 00H, '\', 00H, 'x', 00H, 's', 00H, 't'
	DB	00H, 'r', 00H, 'i', 00H, 'n', 00H, 'g', 00H, 00H, 00H ; `string'
CONST	ENDS
;	COMDAT ?__LINE__Var@?1???Kgen@@YA?AVCMatrix4x4@1@ABV21@M@Z@4JA
_DATA	SEGMENT
?__LINE__Var@?1???Kgen@@YA?AVCMatrix4x4@1@ABV21@M@Z@4JA DD 0c07H ; `gen::operator/'::`2'::__LINE__Var
_DATA	ENDS
;	COMDAT ??_C@_0BN@GEEHGKKB@gen?3?3CMatrix4x4?3?3operator?5?1?$DN?$AA@
CONST	SEGMENT
??_C@_0BN@GEEHGKKB@gen?3?3CMatrix4x4?3?3operator?5?1?$DN?$AA@ DB 'gen::CM'
	DB	'atrix4x4::operator /=', 00H			; `string'
CONST	ENDS
;	COMDAT ?__LINE__Var@?1???_0CMatrix4x4@gen@@QAEAAV12@M@Z@4JA
_DATA	SEGMENT
?__LINE__Var@?1???_0CMatrix4x4@gen@@QAEAAV12@M@Z@4JA DD 0be7H ; `gen::CMatrix4x4::operator/='::`2'::__LINE__Var
_DATA	ENDS
;	COMDAT ?__LINE__Var@?1??MatrixRotation@gen@@YA?AVCMatrix4x4@2@ABVCVector3@2@M@Z@4JA
_DATA	SEGMENT
?__LINE__Var@?1??MatrixRotation@gen@@YA?AVCMatrix4x4@2@ABVCVector3@2@M@Z@4JA DD 0a68H ; `gen::MatrixRotation'::`2'::__LINE__Var
_DATA	ENDS
;	COMDAT ??_C@_0BE@LMIKLAKG@gen?3?3MatrixRotation?$AA@
CONST	SEGMENT
??_C@_0BE@LMIKLAKG@gen?3?3MatrixRotation?$AA@ DB 'gen::MatrixRotation', 00H ; `string'
CONST	ENDS
;	COMDAT ?__LINE__Var@?1??MatrixRotation@gen@@YA?AVCMatrix4x4@2@VCVector3@2@W4ERotationOrder@2@@Z@4JA
_DATA	SEGMENT
?__LINE__Var@?1??MatrixRotation@gen@@YA?AVCMatrix4x4@2@VCVector3@2@W4ERotationOrder@2@@Z@4JA DD 09dfH ; `gen::MatrixRotation'::`2'::__LINE__Var
_DATA	ENDS
;	COMDAT ??_C@_0BB@OPALDBID@Zero?5length?5axis?$AA@
CONST	SEGMENT
??_C@_0BB@OPALDBID@Zero?5length?5axis?$AA@ DB 'Zero length axis', 00H ; `string'
CONST	ENDS
;	COMDAT ?__LINE__Var@?1??MakeRotation@CMatrix4x4@gen@@QAEXABVCVector3@3@M@Z@4JA
_DATA	SEGMENT
?__LINE__Var@?1??MakeRotation@CMatrix4x4@gen@@QAEXABVCVector3@3@M@Z@4JA DD 08dfH ; `gen::CMatrix4x4::MakeRotation'::`2'::__LINE__Var
_DATA	ENDS
;	COMDAT ??_C@_0BO@EDHCIBNI@gen?3?3CMatrix4x4?3?3MakeRotation?$AA@
CONST	SEGMENT
??_C@_0BO@EDHCIBNI@gen?3?3CMatrix4x4?3?3MakeRotation?$AA@ DB 'gen::CMatri'
	DB	'x4x4::MakeRotation', 00H			; `string'
CONST	ENDS
;	COMDAT ?__LINE__Var@?1??MakeRotation@CMatrix4x4@gen@@QAEXVCVector3@3@W4ERotationOrder@3@@Z@4JA
_DATA	SEGMENT
?__LINE__Var@?1??MakeRotation@CMatrix4x4@gen@@QAEXVCVector3@3@W4ERotationOrder@3@@Z@4JA DD 085bH ; `gen::CMatrix4x4::MakeRotation'::`2'::__LINE__Var
_DATA	ENDS
;	COMDAT ??_C@_0N@BLGPECID@gen?3?3Inverse?$AA@
CONST	SEGMENT
??_C@_0N@BLGPECID@gen?3?3Inverse?$AA@ DB 'gen::Inverse', 00H ; `string'
CONST	ENDS
;	COMDAT ?__LINE__Var@?1??Inverse@gen@@YA?AVCMatrix4x4@2@ABV32@@Z@4JA
_DATA	SEGMENT
?__LINE__Var@?1??Inverse@gen@@YA?AVCMatrix4x4@2@ABV32@@Z@4JA DD 07b5H ; `gen::Inverse'::`2'::__LINE__Var
_DATA	ENDS
;	COMDAT ??_C@_0BD@PPGPBHLN@gen?3?3InverseAffine?$AA@
CONST	SEGMENT
??_C@_0BD@PPGPBHLN@gen?3?3InverseAffine?$AA@ DB 'gen::InverseAffine', 00H ; `string'
CONST	ENDS
;	COMDAT ?__LINE__Var@?1??InverseAffine@gen@@YA?AVCMatrix4x4@2@ABV32@@Z@4JA
_DATA	SEGMENT
?__LINE__Var@?1??InverseAffine@gen@@YA?AVCMatrix4x4@2@ABV32@@Z@4JA DD 0756H ; `gen::InverseAffine'::`2'::__LINE__Var
_DATA	ENDS
;	COMDAT ??_C@_0BK@PCEHJOFI@gen?3?3InverseRotTransScale?$AA@
CONST	SEGMENT
??_C@_0BK@PCEHJOFI@gen?3?3InverseRotTransScale?$AA@ DB 'gen::InverseRotTr'
	DB	'ansScale', 00H				; `string'
CONST	ENDS
;	COMDAT ?__LINE__Var@?1??InverseRotTransScale@gen@@YA?AVCMatrix4x4@2@ABV32@@Z@4JA
_DATA	SEGMENT
?__LINE__Var@?1??InverseRotTransScale@gen@@YA?AVCMatrix4x4@2@ABV32@@Z@4JA DD 0722H ; `gen::InverseRotTransScale'::`2'::__LINE__Var
_DATA	ENDS
;	COMDAT ??_C@_0CF@KNEDKMPM@gen?3?3CMatrix4x4?3?3InvertRotTransS@
CONST	SEGMENT
??_C@_0CF@KNEDKMPM@gen?3?3CMatrix4x4?3?3InvertRotTransS@ DB 'gen::CMatrix'
	DB	'4x4::InvertRotTransScale', 00H		; `string'
CONST	ENDS
;	COMDAT ?__LINE__Var@?1??InvertRotTransScale@CMatrix4x4@gen@@QAEXXZ@4JA
_DATA	SEGMENT
?__LINE__Var@?1??InvertRotTransScale@CMatrix4x4@gen@@QAEXXZ@4JA DD 06f4H ; `gen::CMatrix4x4::InvertRotTransScale'::`2'::__LINE__Var
_DATA	ENDS
;	COMDAT ??_C@_0BG@EKHHHFFK@gen?3?3Orthogonalise3x3?$AA@
CONST	SEGMENT
??_C@_0BG@EKHHHFFK@gen?3?3Orthogonalise3x3?$AA@ DB 'gen::Orthogonalise3x3'
	DB	00H						; `string'
CONST	ENDS
;	COMDAT ?__LINE__Var@?1??Orthogonalise3x3@gen@@YA?AVCMatrix4x4@2@ABV32@ABVCVector3@2@@Z@4JA
_DATA	SEGMENT
?__LINE__Var@?1??Orthogonalise3x3@gen@@YA?AVCMatrix4x4@2@ABV32@ABVCVector3@2@@Z@4JA DD 0637H ; `gen::Orthogonalise3x3'::`2'::__LINE__Var
_DATA	ENDS
;	COMDAT ??_C@_0CC@BIGHOAJP@gen?3?3CMatrix4x4?3?3Orthogonalise3x@
CONST	SEGMENT
??_C@_0CC@BIGHOAJP@gen?3?3CMatrix4x4?3?3Orthogonalise3x@ DB 'gen::CMatrix'
	DB	'4x4::Orthogonalise3x3', 00H			; `string'
CONST	ENDS
;	COMDAT ?__LINE__Var@?1??Orthogonalise3x3@CMatrix4x4@gen@@QAEXABVCVector3@3@@Z@4JA
_DATA	SEGMENT
?__LINE__Var@?1??Orthogonalise3x3@CMatrix4x4@gen@@QAEXABVCVector3@3@@Z@4JA DD 0600H ; `gen::CMatrix4x4::Orthogonalise3x3'::`2'::__LINE__Var
_DATA	ENDS
;	COMDAT ?__LINE__Var@?1??DecomposeAffineAxisAngle@CMatrix4x4@gen@@QBEXPAVCVector3@3@0PAM0@Z@4JA
_DATA	SEGMENT
?__LINE__Var@?1??DecomposeAffineAxisAngle@CMatrix4x4@gen@@QBEXPAVCVector3@3@0PAM0@Z@4JA DD 04e5H ; `gen::CMatrix4x4::DecomposeAffineAxisAngle'::`2'::__LINE__Var
_DATA	ENDS
;	COMDAT ?__LINE__Var@?1??DecomposeAffineQuaternion@CMatrix4x4@gen@@QBEXPAVCVector3@3@PAVCQuaternion@3@0@Z@4JA
_DATA	SEGMENT
?__LINE__Var@?1??DecomposeAffineQuaternion@CMatrix4x4@gen@@QBEXPAVCVector3@3@PAVCQuaternion@3@0@Z@4JA DD 047cH ; `gen::CMatrix4x4::DecomposeAffineQuaternion'::`2'::__LINE__Var
_DATA	ENDS
;	COMDAT ??_C@_0CG@HIGNFPPJ@gen?3?3CMatrix4x4?3?3DecomposeAffine@
CONST	SEGMENT
??_C@_0CG@HIGNFPPJ@gen?3?3CMatrix4x4?3?3DecomposeAffine@ DB 'gen::CMatrix'
	DB	'4x4::DecomposeAffineEuler', 00H		; `string'
CONST	ENDS
;	COMDAT ?__LINE__Var@?1??DecomposeAffineEuler@CMatrix4x4@gen@@QBEXPAVCVector3@3@00W4ERotationOrder@3@@Z@4JA
_DATA	SEGMENT
?__LINE__Var@?1??DecomposeAffineEuler@CMatrix4x4@gen@@QBEXPAVCVector3@3@00W4ERotationOrder@3@@Z@4JA DD 03aeH ; `gen::CMatrix4x4::DecomposeAffineEuler'::`2'::__LINE__Var
_DATA	ENDS
;	COMDAT ?__LINE__Var@?1??SetColumn@CMatrix4x4@gen@@QAEXIABVCVector3@3@@Z@4JA
_DATA	SEGMENT
?__LINE__Var@?1??SetColumn@CMatrix4x4@gen@@QAEXIABVCVector3@3@@Z@4JA DD 02a4H ; `gen::CMatrix4x4::SetColumn'::`2'::__LINE__Var
_DATA	ENDS
;	COMDAT ??_C@_0BL@LGANNJAP@gen?3?3CMatrix4x4?3?3SetColumn?$AA@
CONST	SEGMENT
??_C@_0BL@LGANNJAP@gen?3?3CMatrix4x4?3?3SetColumn?$AA@ DB 'gen::CMatrix4x'
	DB	'4::SetColumn', 00H				; `string'
CONST	ENDS
;	COMDAT ?__LINE__Var@?1??SetColumn@CMatrix4x4@gen@@QAEXIABVCVector4@3@@Z@4JA
_DATA	SEGMENT
?__LINE__Var@?1??SetColumn@CMatrix4x4@gen@@QAEXIABVCVector4@3@@Z@4JA DD 0291H ; `gen::CMatrix4x4::SetColumn'::`2'::__LINE__Var
_DATA	ENDS
;	COMDAT ?__LINE__Var@?1??SetRow@CMatrix4x4@gen@@QAEXIABVCVector3@3@@Z@4JA
_DATA	SEGMENT
?__LINE__Var@?1??SetRow@CMatrix4x4@gen@@QAEXIABVCVector3@3@@Z@4JA DD 027eH ; `gen::CMatrix4x4::SetRow'::`2'::__LINE__Var
_DATA	ENDS
;	COMDAT ??_C@_0BI@LNNDOFPI@gen?3?3CMatrix4x4?3?3SetRow?$AA@
CONST	SEGMENT
??_C@_0BI@LNNDOFPI@gen?3?3CMatrix4x4?3?3SetRow?$AA@ DB 'gen::CMatrix4x4::'
	DB	'SetRow', 00H				; `string'
CONST	ENDS
;	COMDAT ?__LINE__Var@?1??SetRow@CMatrix4x4@gen@@QAEXIABVCVector4@3@@Z@4JA
_DATA	SEGMENT
?__LINE__Var@?1??SetRow@CMatrix4x4@gen@@QAEXIABVCVector4@3@@Z@4JA DD 026bH ; `gen::CMatrix4x4::SetRow'::`2'::__LINE__Var
_DATA	ENDS
;	COMDAT ??_C@_0BL@JIEIPIJN@gen?3?3CMatrix4x4?3?3GetColumn?$AA@
CONST	SEGMENT
??_C@_0BL@JIEIPIJN@gen?3?3CMatrix4x4?3?3GetColumn?$AA@ DB 'gen::CMatrix4x'
	DB	'4::GetColumn', 00H				; `string'
CONST	ENDS
;	COMDAT ?__LINE__Var@?1??GetColumn@CMatrix4x4@gen@@QBE?AVCVector4@3@I@Z@4JA
_DATA	SEGMENT
?__LINE__Var@?1??GetColumn@CMatrix4x4@gen@@QBE?AVCVector4@3@I@Z@4JA DD 025aH ; `gen::CMatrix4x4::GetColumn'::`2'::__LINE__Var
_DATA	ENDS
;	COMDAT ??_C@_0BI@COECFNCF@gen?3?3CMatrix4x4?3?3GetRow?$AA@
CONST	SEGMENT
??_C@_0BI@COECFNCF@gen?3?3CMatrix4x4?3?3GetRow?$AA@ DB 'gen::CMatrix4x4::'
	DB	'GetRow', 00H				; `string'
CONST	ENDS
;	COMDAT ?__LINE__Var@?1??GetRow@CMatrix4x4@gen@@QBE?AVCVector4@3@I@Z@4JA
_DATA	SEGMENT
?__LINE__Var@?1??GetRow@CMatrix4x4@gen@@QBE?AVCVector4@3@I@Z@4JA DD 024fH ; `gen::CMatrix4x4::GetRow'::`2'::__LINE__Var
_DATA	ENDS
;	COMDAT ??_C@_0BF@LLJNGHHJ@gen?3?3CMatrix4x4?3?3Set?$AA@
CONST	SEGMENT
??_C@_0BF@LLJNGHHJ@gen?3?3CMatrix4x4?3?3Set?$AA@ DB 'gen::CMatrix4x4::Set'
	DB	00H						; `string'
CONST	ENDS
;	COMDAT ?__LINE__Var@?1??Set@CMatrix4x4@gen@@QAEXPBM_N@Z@4JA
_DATA	SEGMENT
?__LINE__Var@?1??Set@CMatrix4x4@gen@@QAEXPBM_N@Z@4JA DD 0214H ; `gen::CMatrix4x4::Set'::`2'::__LINE__Var
_DATA	ENDS
;	COMDAT ??_C@_0BM@LAPKAOOM@gen?3?3CMatrix4x4?3?3CMatrix4x4?$AA@
CONST	SEGMENT
??_C@_0BM@LAPKAOOM@gen?3?3CMatrix4x4?3?3CMatrix4x4?$AA@ DB 'gen::CMatrix4'
	DB	'x4::CMatrix4x4', 00H			; `string'
CONST	ENDS
;	COMDAT ??_C@_0EI@POGHFJCD@c?3?2users?2simon?2documents?2github?2@
CONST	SEGMENT
??_C@_0EI@POGHFJCD@c?3?2users?2simon?2documents?2github?2@ DB 'c:\users\s'
	DB	'imon\documents\github\uclan-sparta\import\math\cmatrix4x4.cpp'
	DB	00H						; `string'
CONST	ENDS
;	COMDAT ?__LINE__Var@?1???0CMatrix4x4@gen@@QAE@PBM_N@Z@4JA
_DATA	SEGMENT
?__LINE__Var@?1???0CMatrix4x4@gen@@QAE@PBM_N@Z@4JA DD 046H ; `gen::CMatrix4x4::CMatrix4x4'::`2'::__LINE__Var
_DATA	ENDS
;	COMDAT ??_C@_0BI@HNLOPNMD@gen?3?3CVector4?3?3CVector4?$AA@
CONST	SEGMENT
??_C@_0BI@HNLOPNMD@gen?3?3CVector4?3?3CVector4?$AA@ DB 'gen::CVector4::CV'
	DB	'ector4', 00H				; `string'
CONST	ENDS
;	COMDAT ??_C@_0EE@NIOAKDJB@c?3?2users?2simon?2documents?2github?2@
CONST	SEGMENT
??_C@_0EE@NIOAKDJB@c?3?2users?2simon?2documents?2github?2@ DB 'c:\users\s'
	DB	'imon\documents\github\uclan-sparta\import\math\cvector4.h', 00H ; `string'
CONST	ENDS
;	COMDAT ??_C@_0BA@EJDDFENM@Singular?5matrix?$AA@
CONST	SEGMENT
??_C@_0BA@EJDDFENM@Singular?5matrix?$AA@ DB 'Singular matrix', 00H ; `string'
CONST	ENDS
;	COMDAT ??_C@_0BA@KCKIPOBF@gen?3?3operator?5?1?$AA@
CONST	SEGMENT
??_C@_0BA@KCKIPOBF@gen?3?3operator?5?1?$AA@ DB 'gen::operator /', 00H ; `string'
CONST	ENDS
;	COMDAT ??_C@_0N@HFKAOJGM@gen?3?3InvSqrt?$AA@
CONST	SEGMENT
??_C@_0N@HFKAOJGM@gen?3?3InvSqrt?$AA@ DB 'gen::InvSqrt', 00H ; `string'
CONST	ENDS
;	COMDAT ??_C@_0BC@DBAKKFEN@Invalid?5parameter?$AA@
CONST	SEGMENT
??_C@_0BC@DBAKKFEN@Invalid?5parameter?$AA@ DB 'Invalid parameter', 00H ; `string'
CONST	ENDS
;	COMDAT ??_C@_0EE@DHOCJGL@c?3?2users?2simon?2documents?2github?2@
CONST	SEGMENT
??_C@_0EE@DHOCJGL@c?3?2users?2simon?2documents?2github?2@ DB 'c:\users\si'
	DB	'mon\documents\github\uclan-sparta\import\math\basemath.h', 00H ; `string'
CONST	ENDS
;	COMDAT __CT??_R0?AVCFatalException@gen@@@8??0CFatalException@gen@@QAE@ABV01@@Z88
xdata$x	SEGMENT
__CT??_R0?AVCFatalException@gen@@@8??0CFatalException@gen@@QAE@ABV01@@Z88 DD 00H
	DD	FLAT:??_R0?AVCFatalException@gen@@@8
	DD	00H
	DD	0ffffffffH
	ORG $+4
	DD	058H
	DD	FLAT:??0CFatalException@gen@@QAE@ABV01@@Z
xdata$x	ENDS
;	COMDAT ??_R0?AVCFatalException@gen@@@8
data$r	SEGMENT
??_R0?AVCFatalException@gen@@@8 DD FLAT:??_7type_info@@6B@ ; gen::CFatalException `RTTI Type Descriptor'
	DD	00H
	DB	'.?AVCFatalException@gen@@', 00H
data$r	ENDS
;	COMDAT __CTA1?AVCFatalException@gen@@
xdata$x	SEGMENT
__CTA1?AVCFatalException@gen@@ DD 01H
	DD	FLAT:__CT??_R0?AVCFatalException@gen@@@8??0CFatalException@gen@@QAE@ABV01@@Z88
xdata$x	ENDS
;	COMDAT __TI1?AVCFatalException@gen@@
xdata$x	SEGMENT
__TI1?AVCFatalException@gen@@ DD 00H
	DD	FLAT:??1CFatalException@gen@@QAE@XZ
	DD	00H
	DD	FLAT:__CTA1?AVCFatalException@gen@@
xdata$x	ENDS
;	COMDAT ?__LINE__Var@?1??InvSqrt@gen@@YAMM@Z@4JA
_DATA	SEGMENT
?__LINE__Var@?1??InvSqrt@gen@@YAMM@Z@4JA DD 09eH	; `gen::InvSqrt'::`2'::__LINE__Var
_DATA	ENDS
;	COMDAT ??_C@_0BE@HBKCGNOA@Unhandled?5Exception?$AA@
CONST	SEGMENT
??_C@_0BE@HBKCGNOA@Unhandled?5Exception?$AA@ DB 'Unhandled Exception', 00H ; `string'
CONST	ENDS
;	COMDAT ??_C@_01EEMJAFIK@?6?$AA@
CONST	SEGMENT
??_C@_01EEMJAFIK@?6?$AA@ DB 0aH, 00H			; `string'
CONST	ENDS
;	COMDAT ??_C@_01KICIPPFI@?2?$AA@
CONST	SEGMENT
??_C@_01KICIPPFI@?2?$AA@ DB '\', 00H			; `string'
CONST	ENDS
;	COMDAT ??_C@_0CB@NBMGHEOM@Visual?5C?$CL?$CL?58?40?5?$CI2005?$CJ?5or?5greater@
CONST	SEGMENT
??_C@_0CB@NBMGHEOM@Visual?5C?$CL?$CL?58?40?5?$CI2005?$CJ?5or?5greater@ DB 'V'
	DB	'isual C++ 8.0 (2005) or greater', 00H	; `string'
CONST	ENDS
;	COMDAT ??_C@_06FHFOAHML@system?$AA@
CONST	SEGMENT
??_C@_06FHFOAHML@system?$AA@ DB 'system', 00H		; `string'
CONST	ENDS
;	COMDAT ??_7_System_error_category@std@@6B@
CONST	SEGMENT
??_7_System_error_category@std@@6B@ DD FLAT:??_R4_System_error_category@std@@6B@ ; std::_System_error_category::`vftable'
	DD	FLAT:??_E_System_error_category@std@@UAEPAXI@Z
	DD	FLAT:?name@_System_error_category@std@@UBEPBDXZ
	DD	FLAT:?message@_System_error_category@std@@UBE?AV?$basic_string@DU?$char_traits@D@std@@V?$allocator@D@2@@2@H@Z
	DD	FLAT:?default_error_condition@_System_error_category@std@@UBE?AVerror_condition@2@H@Z
	DD	FLAT:?equivalent@error_category@std@@UBE_NABVerror_code@2@H@Z
	DD	FLAT:?equivalent@error_category@std@@UBE_NHABVerror_condition@2@@Z
CONST	ENDS
;	COMDAT ??_C@_0BG@PADBLCHM@iostream?5stream?5error?$AA@
CONST	SEGMENT
??_C@_0BG@PADBLCHM@iostream?5stream?5error?$AA@ DB 'iostream stream error'
	DB	00H						; `string'
CONST	ENDS
;	COMDAT ??_C@_08LLGCOLLL@iostream?$AA@
CONST	SEGMENT
??_C@_08LLGCOLLL@iostream?$AA@ DB 'iostream', 00H	; `string'
CONST	ENDS
;	COMDAT ??_7_Iostream_error_category@std@@6B@
CONST	SEGMENT
??_7_Iostream_error_category@std@@6B@ DD FLAT:??_R4_Iostream_error_category@std@@6B@ ; std::_Iostream_error_category::`vftable'
	DD	FLAT:??_E_Iostream_error_category@std@@UAEPAXI@Z
	DD	FLAT:?name@_Iostream_error_category@std@@UBEPBDXZ
	DD	FLAT:?message@_Iostream_error_category@std@@UBE?AV?$basic_string@DU?$char_traits@D@std@@V?$allocator@D@2@@2@H@Z
	DD	FLAT:?default_error_condition@error_category@std@@UBE?AVerror_condition@2@H@Z
	DD	FLAT:?equivalent@error_category@std@@UBE_NABVerror_code@2@H@Z
	DD	FLAT:?equivalent@error_category@std@@UBE_NHABVerror_condition@2@@Z
CONST	ENDS
;	COMDAT ??_C@_0O@BFJCFAAK@unknown?5error?$AA@
CONST	SEGMENT
??_C@_0O@BFJCFAAK@unknown?5error?$AA@ DB 'unknown error', 00H ; `string'
CONST	ENDS
;	COMDAT ??_C@_07DCLBNMLN@generic?$AA@
CONST	SEGMENT
??_C@_07DCLBNMLN@generic?$AA@ DB 'generic', 00H		; `string'
CONST	ENDS
;	COMDAT ??_7_Generic_error_category@std@@6B@
CONST	SEGMENT
??_7_Generic_error_category@std@@6B@ DD FLAT:??_R4_Generic_error_category@std@@6B@ ; std::_Generic_error_category::`vftable'
	DD	FLAT:??_E_Generic_error_category@std@@UAEPAXI@Z
	DD	FLAT:?name@_Generic_error_category@std@@UBEPBDXZ
	DD	FLAT:?message@_Generic_error_category@std@@UBE?AV?$basic_string@DU?$char_traits@D@std@@V?$allocator@D@2@@2@H@Z
	DD	FLAT:?default_error_condition@error_category@std@@UBE?AVerror_condition@2@H@Z
	DD	FLAT:?equivalent@error_category@std@@UBE_NABVerror_code@2@H@Z
	DD	FLAT:?equivalent@error_category@std@@UBE_NHABVerror_condition@2@@Z
CONST	ENDS
;	COMDAT ??_7error_category@std@@6B@
CONST	SEGMENT
??_7error_category@std@@6B@ DD FLAT:??_R4error_category@std@@6B@ ; std::error_category::`vftable'
	DD	FLAT:??_Eerror_category@std@@UAEPAXI@Z
	DD	FLAT:__purecall
	DD	FLAT:__purecall
	DD	FLAT:?default_error_condition@error_category@std@@UBE?AVerror_condition@2@H@Z
	DD	FLAT:?equivalent@error_category@std@@UBE_NABVerror_code@2@H@Z
	DD	FLAT:?equivalent@error_category@std@@UBE_NHABVerror_condition@2@@Z
CONST	ENDS
;	COMDAT ??_C@_00CNPNBAHC@?$AA@
CONST	SEGMENT
??_C@_00CNPNBAHC@?$AA@ DB 00H				; `string'
CONST	ENDS
;	COMDAT ?npos@?$basic_string@DU?$char_traits@D@std@@V?$allocator@D@2@@std@@2IB
CONST	SEGMENT
?npos@?$basic_string@DU?$char_traits@D@std@@V?$allocator@D@2@@std@@2IB DD 0ffffffffH ; std::basic_string<char,std::char_traits<char>,std::allocator<char> >::npos
CONST	ENDS
;	COMDAT xdata$x
xdata$x	SEGMENT
__unwindtable$??$construct@PADAAPAD@?$allocator@D@std@@QAEXPAPADAAPAD@Z DD 0ffffffffH
	DD	FLAT:__unwindfunclet$??$construct@PADAAPAD@?$allocator@D@std@@QAEXPAPADAAPAD@Z$0
__ehfuncinfo$??$construct@PADAAPAD@?$allocator@D@std@@QAEXPAPADAAPAD@Z DD 019930522H
	DD	01H
	DD	FLAT:__unwindtable$??$construct@PADAAPAD@?$allocator@D@std@@QAEXPAPADAAPAD@Z
	DD	2 DUP(00H)
	DD	2 DUP(00H)
	DD	00H
	DD	01H
xdata$x	ENDS
;	COMDAT xdata$x
xdata$x	SEGMENT
__unwindtable$??$construct@U_Container_proxy@std@@U12@@?$allocator@U_Container_proxy@std@@@std@@QAEXPAU_Container_proxy@1@$$QAU21@@Z DD 0ffffffffH
	DD	FLAT:__unwindfunclet$??$construct@U_Container_proxy@std@@U12@@?$allocator@U_Container_proxy@std@@@std@@QAEXPAU_Container_proxy@1@$$QAU21@@Z$0
__ehfuncinfo$??$construct@U_Container_proxy@std@@U12@@?$allocator@U_Container_proxy@std@@@std@@QAEXPAU_Container_proxy@1@$$QAU21@@Z DD 019930522H
	DD	01H
	DD	FLAT:__unwindtable$??$construct@U_Container_proxy@std@@U12@@?$allocator@U_Container_proxy@std@@@std@@QAEXPAU_Container_proxy@1@$$QAU21@@Z
	DD	2 DUP(00H)
	DD	2 DUP(00H)
	DD	00H
	DD	01H
xdata$x	ENDS
;	COMDAT xdata$x
xdata$x	SEGMENT
__unwindtable$??0CVector4@gen@@QAE@PBM@Z DD 0ffffffffH
	DD	00H
	DD	0ffffffffH
	DD	00H
__tryblocktable$??0CVector4@gen@@QAE@PBM@Z DD 00H
	DD	00H
	DD	01H
	DD	02H
	DD	FLAT:__catchsym$??0CVector4@gen@@QAE@PBM@Z$3
__catchsym$??0CVector4@gen@@QAE@PBM@Z$3 DD 08H
	DD	FLAT:??_R0?AVCFatalException@gen@@@8
	DD	0ffffffd8H
	DD	FLAT:__catch$??0CVector4@gen@@QAE@PBM@Z$0
	DD	040H
	DD	00H
	DD	00H
	DD	FLAT:__catch$??0CVector4@gen@@QAE@PBM@Z$1
__ehfuncinfo$??0CVector4@gen@@QAE@PBM@Z DD 019930522H
	DD	02H
	DD	FLAT:__unwindtable$??0CVector4@gen@@QAE@PBM@Z
	DD	01H
	DD	FLAT:__tryblocktable$??0CVector4@gen@@QAE@PBM@Z
	DD	2 DUP(00H)
	DD	00H
	DD	01H
xdata$x	ENDS
;	COMDAT xdata$x
xdata$x	SEGMENT
__unwindtable$?MatrixRotation@gen@@YA?AVCMatrix4x4@1@ABVCVector3@1@M@Z DD 0ffffffffH
	DD	00H
	DD	0ffffffffH
	DD	00H
__tryblocktable$?MatrixRotation@gen@@YA?AVCMatrix4x4@1@ABVCVector3@1@M@Z DD 00H
	DD	00H
	DD	01H
	DD	02H
	DD	FLAT:__catchsym$?MatrixRotation@gen@@YA?AVCMatrix4x4@1@ABVCVector3@1@M@Z$3
__catchsym$?MatrixRotation@gen@@YA?AVCMatrix4x4@1@ABVCVector3@1@M@Z$3 DD 08H
	DD	FLAT:??_R0?AVCFatalException@gen@@@8
	DD	0fffffef8H
	DD	FLAT:__catch$?MatrixRotation@gen@@YA?AVCMatrix4x4@1@ABVCVector3@1@M@Z$0
	DD	040H
	DD	00H
	DD	00H
	DD	FLAT:__catch$?MatrixRotation@gen@@YA?AVCMatrix4x4@1@ABVCVector3@1@M@Z$1
__ehfuncinfo$?MatrixRotation@gen@@YA?AVCMatrix4x4@1@ABVCVector3@1@M@Z DD 019930522H
	DD	02H
	DD	FLAT:__unwindtable$?MatrixRotation@gen@@YA?AVCMatrix4x4@1@ABVCVector3@1@M@Z
	DD	01H
	DD	FLAT:__tryblocktable$?MatrixRotation@gen@@YA?AVCMatrix4x4@1@ABVCVector3@1@M@Z
	DD	2 DUP(00H)
	DD	00H
	DD	01H
xdata$x	ENDS
;	COMDAT xdata$x
xdata$x	SEGMENT
__unwindtable$?MatrixRotation@gen@@YA?AVCMatrix4x4@1@VCVector3@1@W4ERotationOrder@1@@Z DD 0ffffffffH
	DD	00H
	DD	0ffffffffH
	DD	00H
__tryblocktable$?MatrixRotation@gen@@YA?AVCMatrix4x4@1@VCVector3@1@W4ERotationOrder@1@@Z DD 00H
	DD	00H
	DD	01H
	DD	02H
	DD	FLAT:__catchsym$?MatrixRotation@gen@@YA?AVCMatrix4x4@1@VCVector3@1@W4ERotationOrder@1@@Z$3
__catchsym$?MatrixRotation@gen@@YA?AVCMatrix4x4@1@VCVector3@1@W4ERotationOrder@1@@Z$3 DD 08H
	DD	FLAT:??_R0?AVCFatalException@gen@@@8
	DD	0ffffff54H
	DD	FLAT:__catch$?MatrixRotation@gen@@YA?AVCMatrix4x4@1@VCVector3@1@W4ERotationOrder@1@@Z$0
	DD	040H
	DD	00H
	DD	00H
	DD	FLAT:__catch$?MatrixRotation@gen@@YA?AVCMatrix4x4@1@VCVector3@1@W4ERotationOrder@1@@Z$1
__ehfuncinfo$?MatrixRotation@gen@@YA?AVCMatrix4x4@1@VCVector3@1@W4ERotationOrder@1@@Z DD 019930522H
	DD	02H
	DD	FLAT:__unwindtable$?MatrixRotation@gen@@YA?AVCMatrix4x4@1@VCVector3@1@W4ERotationOrder@1@@Z
	DD	01H
	DD	FLAT:__tryblocktable$?MatrixRotation@gen@@YA?AVCMatrix4x4@1@VCVector3@1@W4ERotationOrder@1@@Z
	DD	2 DUP(00H)
	DD	00H
	DD	01H
xdata$x	ENDS
;	COMDAT xdata$x
xdata$x	SEGMENT
__unwindtable$?Inverse@gen@@YA?AVCMatrix4x4@1@ABV21@@Z DD 0ffffffffH
	DD	00H
	DD	0ffffffffH
	DD	00H
__tryblocktable$?Inverse@gen@@YA?AVCMatrix4x4@1@ABV21@@Z DD 00H
	DD	00H
	DD	01H
	DD	02H
	DD	FLAT:__catchsym$?Inverse@gen@@YA?AVCMatrix4x4@1@ABV21@@Z$3
__catchsym$?Inverse@gen@@YA?AVCMatrix4x4@1@ABV21@@Z$3 DD 08H
	DD	FLAT:??_R0?AVCFatalException@gen@@@8
	DD	0ffffff6cH
	DD	FLAT:__catch$?Inverse@gen@@YA?AVCMatrix4x4@1@ABV21@@Z$0
	DD	040H
	DD	00H
	DD	00H
	DD	FLAT:__catch$?Inverse@gen@@YA?AVCMatrix4x4@1@ABV21@@Z$1
__ehfuncinfo$?Inverse@gen@@YA?AVCMatrix4x4@1@ABV21@@Z DD 019930522H
	DD	02H
	DD	FLAT:__unwindtable$?Inverse@gen@@YA?AVCMatrix4x4@1@ABV21@@Z
	DD	01H
	DD	FLAT:__tryblocktable$?Inverse@gen@@YA?AVCMatrix4x4@1@ABV21@@Z
	DD	2 DUP(00H)
	DD	00H
	DD	01H
xdata$x	ENDS
;	COMDAT xdata$x
xdata$x	SEGMENT
__unwindtable$?InverseAffine@gen@@YA?AVCMatrix4x4@1@ABV21@@Z DD 0ffffffffH
	DD	00H
	DD	0ffffffffH
	DD	00H
__tryblocktable$?InverseAffine@gen@@YA?AVCMatrix4x4@1@ABV21@@Z DD 00H
	DD	00H
	DD	01H
	DD	02H
	DD	FLAT:__catchsym$?InverseAffine@gen@@YA?AVCMatrix4x4@1@ABV21@@Z$3
__catchsym$?InverseAffine@gen@@YA?AVCMatrix4x4@1@ABV21@@Z$3 DD 08H
	DD	FLAT:??_R0?AVCFatalException@gen@@@8
	DD	0ffffff60H
	DD	FLAT:__catch$?InverseAffine@gen@@YA?AVCMatrix4x4@1@ABV21@@Z$0
	DD	040H
	DD	00H
	DD	00H
	DD	FLAT:__catch$?InverseAffine@gen@@YA?AVCMatrix4x4@1@ABV21@@Z$1
__ehfuncinfo$?InverseAffine@gen@@YA?AVCMatrix4x4@1@ABV21@@Z DD 019930522H
	DD	02H
	DD	FLAT:__unwindtable$?InverseAffine@gen@@YA?AVCMatrix4x4@1@ABV21@@Z
	DD	01H
	DD	FLAT:__tryblocktable$?InverseAffine@gen@@YA?AVCMatrix4x4@1@ABV21@@Z
	DD	2 DUP(00H)
	DD	00H
	DD	01H
xdata$x	ENDS
;	COMDAT xdata$x
xdata$x	SEGMENT
__unwindtable$?InverseRotTransScale@gen@@YA?AVCMatrix4x4@1@ABV21@@Z DD 0ffffffffH
	DD	00H
	DD	0ffffffffH
	DD	00H
__tryblocktable$?InverseRotTransScale@gen@@YA?AVCMatrix4x4@1@ABV21@@Z DD 00H
	DD	00H
	DD	01H
	DD	02H
	DD	FLAT:__catchsym$?InverseRotTransScale@gen@@YA?AVCMatrix4x4@1@ABV21@@Z$3
__catchsym$?InverseRotTransScale@gen@@YA?AVCMatrix4x4@1@ABV21@@Z$3 DD 08H
	DD	FLAT:??_R0?AVCFatalException@gen@@@8
	DD	0ffffff54H
	DD	FLAT:__catch$?InverseRotTransScale@gen@@YA?AVCMatrix4x4@1@ABV21@@Z$0
	DD	040H
	DD	00H
	DD	00H
	DD	FLAT:__catch$?InverseRotTransScale@gen@@YA?AVCMatrix4x4@1@ABV21@@Z$1
__ehfuncinfo$?InverseRotTransScale@gen@@YA?AVCMatrix4x4@1@ABV21@@Z DD 019930522H
	DD	02H
	DD	FLAT:__unwindtable$?InverseRotTransScale@gen@@YA?AVCMatrix4x4@1@ABV21@@Z
	DD	01H
	DD	FLAT:__tryblocktable$?InverseRotTransScale@gen@@YA?AVCMatrix4x4@1@ABV21@@Z
	DD	2 DUP(00H)
	DD	00H
	DD	01H
xdata$x	ENDS
;	COMDAT xdata$x
xdata$x	SEGMENT
__unwindtable$?Orthogonalise3x3@gen@@YA?AVCMatrix4x4@1@ABV21@ABVCVector3@1@@Z DD 0ffffffffH
	DD	00H
	DD	0ffffffffH
	DD	00H
__tryblocktable$?Orthogonalise3x3@gen@@YA?AVCMatrix4x4@1@ABV21@ABVCVector3@1@@Z DD 00H
	DD	00H
	DD	01H
	DD	02H
	DD	FLAT:__catchsym$?Orthogonalise3x3@gen@@YA?AVCMatrix4x4@1@ABV21@ABVCVector3@1@@Z$3
__catchsym$?Orthogonalise3x3@gen@@YA?AVCMatrix4x4@1@ABV21@ABVCVector3@1@@Z$3 DD 08H
	DD	FLAT:??_R0?AVCFatalException@gen@@@8
	DD	0ffffff60H
	DD	FLAT:__catch$?Orthogonalise3x3@gen@@YA?AVCMatrix4x4@1@ABV21@ABVCVector3@1@@Z$0
	DD	040H
	DD	00H
	DD	00H
	DD	FLAT:__catch$?Orthogonalise3x3@gen@@YA?AVCMatrix4x4@1@ABV21@ABVCVector3@1@@Z$1
__ehfuncinfo$?Orthogonalise3x3@gen@@YA?AVCMatrix4x4@1@ABV21@ABVCVector3@1@@Z DD 019930522H
	DD	02H
	DD	FLAT:__unwindtable$?Orthogonalise3x3@gen@@YA?AVCMatrix4x4@1@ABV21@ABVCVector3@1@@Z
	DD	01H
	DD	FLAT:__tryblocktable$?Orthogonalise3x3@gen@@YA?AVCMatrix4x4@1@ABV21@ABVCVector3@1@@Z
	DD	2 DUP(00H)
	DD	00H
	DD	01H
xdata$x	ENDS
;	COMDAT xdata$x
xdata$x	SEGMENT
__unwindtable$??Kgen@@YA?AVCMatrix4x4@0@ABV10@M@Z DD 0ffffffffH
	DD	00H
	DD	0ffffffffH
	DD	00H
__tryblocktable$??Kgen@@YA?AVCMatrix4x4@0@ABV10@M@Z DD 00H
	DD	00H
	DD	01H
	DD	02H
	DD	FLAT:__catchsym$??Kgen@@YA?AVCMatrix4x4@0@ABV10@M@Z$3
__catchsym$??Kgen@@YA?AVCMatrix4x4@0@ABV10@M@Z$3 DD 08H
	DD	FLAT:??_R0?AVCFatalException@gen@@@8
	DD	0ffffff9cH
	DD	FLAT:__catch$??Kgen@@YA?AVCMatrix4x4@0@ABV10@M@Z$0
	DD	040H
	DD	00H
	DD	00H
	DD	FLAT:__catch$??Kgen@@YA?AVCMatrix4x4@0@ABV10@M@Z$1
__ehfuncinfo$??Kgen@@YA?AVCMatrix4x4@0@ABV10@M@Z DD 019930522H
	DD	02H
	DD	FLAT:__unwindtable$??Kgen@@YA?AVCMatrix4x4@0@ABV10@M@Z
	DD	01H
	DD	FLAT:__tryblocktable$??Kgen@@YA?AVCMatrix4x4@0@ABV10@M@Z
	DD	2 DUP(00H)
	DD	00H
	DD	01H
xdata$x	ENDS
;	COMDAT xdata$x
xdata$x	SEGMENT
__unwindtable$??_0CMatrix4x4@gen@@QAEAAV01@M@Z DD 0ffffffffH
	DD	00H
	DD	0ffffffffH
	DD	00H
__tryblocktable$??_0CMatrix4x4@gen@@QAEAAV01@M@Z DD 00H
	DD	00H
	DD	01H
	DD	02H
	DD	FLAT:__catchsym$??_0CMatrix4x4@gen@@QAEAAV01@M@Z$3
__catchsym$??_0CMatrix4x4@gen@@QAEAAV01@M@Z$3 DD 08H
	DD	FLAT:??_R0?AVCFatalException@gen@@@8
	DD	0ffffffd8H
	DD	FLAT:__catch$??_0CMatrix4x4@gen@@QAEAAV01@M@Z$0
	DD	040H
	DD	00H
	DD	00H
	DD	FLAT:__catch$??_0CMatrix4x4@gen@@QAEAAV01@M@Z$1
__ehfuncinfo$??_0CMatrix4x4@gen@@QAEAAV01@M@Z DD 019930522H
	DD	02H
	DD	FLAT:__unwindtable$??_0CMatrix4x4@gen@@QAEAAV01@M@Z
	DD	01H
	DD	FLAT:__tryblocktable$??_0CMatrix4x4@gen@@QAEAAV01@M@Z
	DD	2 DUP(00H)
	DD	00H
	DD	01H
xdata$x	ENDS
;	COMDAT xdata$x
xdata$x	SEGMENT
__unwindtable$?MakeRotation@CMatrix4x4@gen@@QAEXABVCVector3@2@M@Z DD 0ffffffffH
	DD	00H
	DD	0ffffffffH
	DD	00H
__tryblocktable$?MakeRotation@CMatrix4x4@gen@@QAEXABVCVector3@2@M@Z DD 00H
	DD	00H
	DD	01H
	DD	02H
	DD	FLAT:__catchsym$?MakeRotation@CMatrix4x4@gen@@QAEXABVCVector3@2@M@Z$3
__catchsym$?MakeRotation@CMatrix4x4@gen@@QAEXABVCVector3@2@M@Z$3 DD 08H
	DD	FLAT:??_R0?AVCFatalException@gen@@@8
	DD	0ffffff34H
	DD	FLAT:__catch$?MakeRotation@CMatrix4x4@gen@@QAEXABVCVector3@2@M@Z$0
	DD	040H
	DD	00H
	DD	00H
	DD	FLAT:__catch$?MakeRotation@CMatrix4x4@gen@@QAEXABVCVector3@2@M@Z$1
__ehfuncinfo$?MakeRotation@CMatrix4x4@gen@@QAEXABVCVector3@2@M@Z DD 019930522H
	DD	02H
	DD	FLAT:__unwindtable$?MakeRotation@CMatrix4x4@gen@@QAEXABVCVector3@2@M@Z
	DD	01H
	DD	FLAT:__tryblocktable$?MakeRotation@CMatrix4x4@gen@@QAEXABVCVector3@2@M@Z
	DD	2 DUP(00H)
	DD	00H
	DD	01H
xdata$x	ENDS
;	COMDAT xdata$x
xdata$x	SEGMENT
__unwindtable$?MakeRotation@CMatrix4x4@gen@@QAEXVCVector3@2@W4ERotationOrder@2@@Z DD 0ffffffffH
	DD	00H
	DD	0ffffffffH
	DD	00H
__tryblocktable$?MakeRotation@CMatrix4x4@gen@@QAEXVCVector3@2@W4ERotationOrder@2@@Z DD 00H
	DD	00H
	DD	01H
	DD	02H
	DD	FLAT:__catchsym$?MakeRotation@CMatrix4x4@gen@@QAEXVCVector3@2@W4ERotationOrder@2@@Z$3
__catchsym$?MakeRotation@CMatrix4x4@gen@@QAEXVCVector3@2@W4ERotationOrder@2@@Z$3 DD 08H
	DD	FLAT:??_R0?AVCFatalException@gen@@@8
	DD	0ffffff90H
	DD	FLAT:__catch$?MakeRotation@CMatrix4x4@gen@@QAEXVCVector3@2@W4ERotationOrder@2@@Z$0
	DD	040H
	DD	00H
	DD	00H
	DD	FLAT:__catch$?MakeRotation@CMatrix4x4@gen@@QAEXVCVector3@2@W4ERotationOrder@2@@Z$1
__ehfuncinfo$?MakeRotation@CMatrix4x4@gen@@QAEXVCVector3@2@W4ERotationOrder@2@@Z DD 019930522H
	DD	02H
	DD	FLAT:__unwindtable$?MakeRotation@CMatrix4x4@gen@@QAEXVCVector3@2@W4ERotationOrder@2@@Z
	DD	01H
	DD	FLAT:__tryblocktable$?MakeRotation@CMatrix4x4@gen@@QAEXVCVector3@2@W4ERotationOrder@2@@Z
	DD	2 DUP(00H)
	DD	00H
	DD	01H
xdata$x	ENDS
;	COMDAT xdata$x
xdata$x	SEGMENT
__unwindtable$?InvertRotTransScale@CMatrix4x4@gen@@QAEXXZ DD 0ffffffffH
	DD	00H
	DD	0ffffffffH
	DD	00H
__tryblocktable$?InvertRotTransScale@CMatrix4x4@gen@@QAEXXZ DD 00H
	DD	00H
	DD	01H
	DD	02H
	DD	FLAT:__catchsym$?InvertRotTransScale@CMatrix4x4@gen@@QAEXXZ$3
__catchsym$?InvertRotTransScale@CMatrix4x4@gen@@QAEXXZ$3 DD 08H
	DD	FLAT:??_R0?AVCFatalException@gen@@@8
	DD	0ffffff78H
	DD	FLAT:__catch$?InvertRotTransScale@CMatrix4x4@gen@@QAEXXZ$0
	DD	040H
	DD	00H
	DD	00H
	DD	FLAT:__catch$?InvertRotTransScale@CMatrix4x4@gen@@QAEXXZ$1
__ehfuncinfo$?InvertRotTransScale@CMatrix4x4@gen@@QAEXXZ DD 019930522H
	DD	02H
	DD	FLAT:__unwindtable$?InvertRotTransScale@CMatrix4x4@gen@@QAEXXZ
	DD	01H
	DD	FLAT:__tryblocktable$?InvertRotTransScale@CMatrix4x4@gen@@QAEXXZ
	DD	2 DUP(00H)
	DD	00H
	DD	01H
xdata$x	ENDS
;	COMDAT xdata$x
xdata$x	SEGMENT
__unwindtable$?Orthogonalise3x3@CMatrix4x4@gen@@QAEXABVCVector3@2@@Z DD 0ffffffffH
	DD	00H
	DD	0ffffffffH
	DD	00H
__tryblocktable$?Orthogonalise3x3@CMatrix4x4@gen@@QAEXABVCVector3@2@@Z DD 00H
	DD	00H
	DD	01H
	DD	02H
	DD	FLAT:__catchsym$?Orthogonalise3x3@CMatrix4x4@gen@@QAEXABVCVector3@2@@Z$3
__catchsym$?Orthogonalise3x3@CMatrix4x4@gen@@QAEXABVCVector3@2@@Z$3 DD 08H
	DD	FLAT:??_R0?AVCFatalException@gen@@@8
	DD	0ffffff9cH
	DD	FLAT:__catch$?Orthogonalise3x3@CMatrix4x4@gen@@QAEXABVCVector3@2@@Z$0
	DD	040H
	DD	00H
	DD	00H
	DD	FLAT:__catch$?Orthogonalise3x3@CMatrix4x4@gen@@QAEXABVCVector3@2@@Z$1
__ehfuncinfo$?Orthogonalise3x3@CMatrix4x4@gen@@QAEXABVCVector3@2@@Z DD 019930522H
	DD	02H
	DD	FLAT:__unwindtable$?Orthogonalise3x3@CMatrix4x4@gen@@QAEXABVCVector3@2@@Z
	DD	01H
	DD	FLAT:__tryblocktable$?Orthogonalise3x3@CMatrix4x4@gen@@QAEXABVCVector3@2@@Z
	DD	2 DUP(00H)
	DD	00H
	DD	01H
xdata$x	ENDS
;	COMDAT xdata$x
xdata$x	SEGMENT
__unwindtable$?DecomposeAffineEuler@CMatrix4x4@gen@@QBEXPAVCVector3@2@00W4ERotationOrder@2@@Z DD 0ffffffffH
	DD	00H
	DD	0ffffffffH
	DD	00H
__tryblocktable$?DecomposeAffineEuler@CMatrix4x4@gen@@QBEXPAVCVector3@2@00W4ERotationOrder@2@@Z DD 00H
	DD	00H
	DD	01H
	DD	02H
	DD	FLAT:__catchsym$?DecomposeAffineEuler@CMatrix4x4@gen@@QBEXPAVCVector3@2@00W4ERotationOrder@2@@Z$3
__catchsym$?DecomposeAffineEuler@CMatrix4x4@gen@@QBEXPAVCVector3@2@00W4ERotationOrder@2@@Z$3 DD 08H
	DD	FLAT:??_R0?AVCFatalException@gen@@@8
	DD	0ffffff00H
	DD	FLAT:__catch$?DecomposeAffineEuler@CMatrix4x4@gen@@QBEXPAVCVector3@2@00W4ERotationOrder@2@@Z$0
	DD	040H
	DD	00H
	DD	00H
	DD	FLAT:__catch$?DecomposeAffineEuler@CMatrix4x4@gen@@QBEXPAVCVector3@2@00W4ERotationOrder@2@@Z$1
__ehfuncinfo$?DecomposeAffineEuler@CMatrix4x4@gen@@QBEXPAVCVector3@2@00W4ERotationOrder@2@@Z DD 019930522H
	DD	02H
	DD	FLAT:__unwindtable$?DecomposeAffineEuler@CMatrix4x4@gen@@QBEXPAVCVector3@2@00W4ERotationOrder@2@@Z
	DD	01H
	DD	FLAT:__tryblocktable$?DecomposeAffineEuler@CMatrix4x4@gen@@QBEXPAVCVector3@2@00W4ERotationOrder@2@@Z
	DD	2 DUP(00H)
	DD	00H
	DD	01H
xdata$x	ENDS
;	COMDAT xdata$x
xdata$x	SEGMENT
__unwindtable$?SetColumn@CMatrix4x4@gen@@QAEXIABVCVector3@2@@Z DD 0ffffffffH
	DD	00H
	DD	0ffffffffH
	DD	00H
__tryblocktable$?SetColumn@CMatrix4x4@gen@@QAEXIABVCVector3@2@@Z DD 00H
	DD	00H
	DD	01H
	DD	02H
	DD	FLAT:__catchsym$?SetColumn@CMatrix4x4@gen@@QAEXIABVCVector3@2@@Z$3
__catchsym$?SetColumn@CMatrix4x4@gen@@QAEXIABVCVector3@2@@Z$3 DD 08H
	DD	FLAT:??_R0?AVCFatalException@gen@@@8
	DD	0ffffffccH
	DD	FLAT:__catch$?SetColumn@CMatrix4x4@gen@@QAEXIABVCVector3@2@@Z$0
	DD	040H
	DD	00H
	DD	00H
	DD	FLAT:__catch$?SetColumn@CMatrix4x4@gen@@QAEXIABVCVector3@2@@Z$1
__ehfuncinfo$?SetColumn@CMatrix4x4@gen@@QAEXIABVCVector3@2@@Z DD 019930522H
	DD	02H
	DD	FLAT:__unwindtable$?SetColumn@CMatrix4x4@gen@@QAEXIABVCVector3@2@@Z
	DD	01H
	DD	FLAT:__tryblocktable$?SetColumn@CMatrix4x4@gen@@QAEXIABVCVector3@2@@Z
	DD	2 DUP(00H)
	DD	00H
	DD	01H
xdata$x	ENDS
;	COMDAT xdata$x
xdata$x	SEGMENT
__unwindtable$?SetColumn@CMatrix4x4@gen@@QAEXIABVCVector4@2@@Z DD 0ffffffffH
	DD	00H
	DD	0ffffffffH
	DD	00H
__tryblocktable$?SetColumn@CMatrix4x4@gen@@QAEXIABVCVector4@2@@Z DD 00H
	DD	00H
	DD	01H
	DD	02H
	DD	FLAT:__catchsym$?SetColumn@CMatrix4x4@gen@@QAEXIABVCVector4@2@@Z$3
__catchsym$?SetColumn@CMatrix4x4@gen@@QAEXIABVCVector4@2@@Z$3 DD 08H
	DD	FLAT:??_R0?AVCFatalException@gen@@@8
	DD	0ffffffccH
	DD	FLAT:__catch$?SetColumn@CMatrix4x4@gen@@QAEXIABVCVector4@2@@Z$0
	DD	040H
	DD	00H
	DD	00H
	DD	FLAT:__catch$?SetColumn@CMatrix4x4@gen@@QAEXIABVCVector4@2@@Z$1
__ehfuncinfo$?SetColumn@CMatrix4x4@gen@@QAEXIABVCVector4@2@@Z DD 019930522H
	DD	02H
	DD	FLAT:__unwindtable$?SetColumn@CMatrix4x4@gen@@QAEXIABVCVector4@2@@Z
	DD	01H
	DD	FLAT:__tryblocktable$?SetColumn@CMatrix4x4@gen@@QAEXIABVCVector4@2@@Z
	DD	2 DUP(00H)
	DD	00H
	DD	01H
xdata$x	ENDS
;	COMDAT xdata$x
xdata$x	SEGMENT
__unwindtable$?SetRow@CMatrix4x4@gen@@QAEXIABVCVector3@2@@Z DD 0ffffffffH
	DD	00H
	DD	0ffffffffH
	DD	00H
__tryblocktable$?SetRow@CMatrix4x4@gen@@QAEXIABVCVector3@2@@Z DD 00H
	DD	00H
	DD	01H
	DD	02H
	DD	FLAT:__catchsym$?SetRow@CMatrix4x4@gen@@QAEXIABVCVector3@2@@Z$3
__catchsym$?SetRow@CMatrix4x4@gen@@QAEXIABVCVector3@2@@Z$3 DD 08H
	DD	FLAT:??_R0?AVCFatalException@gen@@@8
	DD	0ffffffccH
	DD	FLAT:__catch$?SetRow@CMatrix4x4@gen@@QAEXIABVCVector3@2@@Z$0
	DD	040H
	DD	00H
	DD	00H
	DD	FLAT:__catch$?SetRow@CMatrix4x4@gen@@QAEXIABVCVector3@2@@Z$1
__ehfuncinfo$?SetRow@CMatrix4x4@gen@@QAEXIABVCVector3@2@@Z DD 019930522H
	DD	02H
	DD	FLAT:__unwindtable$?SetRow@CMatrix4x4@gen@@QAEXIABVCVector3@2@@Z
	DD	01H
	DD	FLAT:__tryblocktable$?SetRow@CMatrix4x4@gen@@QAEXIABVCVector3@2@@Z
	DD	2 DUP(00H)
	DD	00H
	DD	01H
xdata$x	ENDS
;	COMDAT xdata$x
xdata$x	SEGMENT
__unwindtable$?SetRow@CMatrix4x4@gen@@QAEXIABVCVector4@2@@Z DD 0ffffffffH
	DD	00H
	DD	0ffffffffH
	DD	00H
__tryblocktable$?SetRow@CMatrix4x4@gen@@QAEXIABVCVector4@2@@Z DD 00H
	DD	00H
	DD	01H
	DD	02H
	DD	FLAT:__catchsym$?SetRow@CMatrix4x4@gen@@QAEXIABVCVector4@2@@Z$3
__catchsym$?SetRow@CMatrix4x4@gen@@QAEXIABVCVector4@2@@Z$3 DD 08H
	DD	FLAT:??_R0?AVCFatalException@gen@@@8
	DD	0ffffffccH
	DD	FLAT:__catch$?SetRow@CMatrix4x4@gen@@QAEXIABVCVector4@2@@Z$0
	DD	040H
	DD	00H
	DD	00H
	DD	FLAT:__catch$?SetRow@CMatrix4x4@gen@@QAEXIABVCVector4@2@@Z$1
__ehfuncinfo$?SetRow@CMatrix4x4@gen@@QAEXIABVCVector4@2@@Z DD 019930522H
	DD	02H
	DD	FLAT:__unwindtable$?SetRow@CMatrix4x4@gen@@QAEXIABVCVector4@2@@Z
	DD	01H
	DD	FLAT:__tryblocktable$?SetRow@CMatrix4x4@gen@@QAEXIABVCVector4@2@@Z
	DD	2 DUP(00H)
	DD	00H
	DD	01H
xdata$x	ENDS
;	COMDAT xdata$x
xdata$x	SEGMENT
__unwindtable$?GetColumn@CMatrix4x4@gen@@QBE?AVCVector4@2@I@Z DD 0ffffffffH
	DD	00H
	DD	0ffffffffH
	DD	00H
__tryblocktable$?GetColumn@CMatrix4x4@gen@@QBE?AVCVector4@2@I@Z DD 00H
	DD	00H
	DD	01H
	DD	02H
	DD	FLAT:__catchsym$?GetColumn@CMatrix4x4@gen@@QBE?AVCVector4@2@I@Z$3
__catchsym$?GetColumn@CMatrix4x4@gen@@QBE?AVCVector4@2@I@Z$3 DD 08H
	DD	FLAT:??_R0?AVCFatalException@gen@@@8
	DD	0ffffffccH
	DD	FLAT:__catch$?GetColumn@CMatrix4x4@gen@@QBE?AVCVector4@2@I@Z$0
	DD	040H
	DD	00H
	DD	00H
	DD	FLAT:__catch$?GetColumn@CMatrix4x4@gen@@QBE?AVCVector4@2@I@Z$1
__ehfuncinfo$?GetColumn@CMatrix4x4@gen@@QBE?AVCVector4@2@I@Z DD 019930522H
	DD	02H
	DD	FLAT:__unwindtable$?GetColumn@CMatrix4x4@gen@@QBE?AVCVector4@2@I@Z
	DD	01H
	DD	FLAT:__tryblocktable$?GetColumn@CMatrix4x4@gen@@QBE?AVCVector4@2@I@Z
	DD	2 DUP(00H)
	DD	00H
	DD	01H
xdata$x	ENDS
;	COMDAT xdata$x
xdata$x	SEGMENT
__unwindtable$?GetRow@CMatrix4x4@gen@@QBE?AVCVector4@2@I@Z DD 0ffffffffH
	DD	00H
	DD	0ffffffffH
	DD	00H
__tryblocktable$?GetRow@CMatrix4x4@gen@@QBE?AVCVector4@2@I@Z DD 00H
	DD	00H
	DD	01H
	DD	02H
	DD	FLAT:__catchsym$?GetRow@CMatrix4x4@gen@@QBE?AVCVector4@2@I@Z$3
__catchsym$?GetRow@CMatrix4x4@gen@@QBE?AVCVector4@2@I@Z$3 DD 08H
	DD	FLAT:??_R0?AVCFatalException@gen@@@8
	DD	0ffffffd8H
	DD	FLAT:__catch$?GetRow@CMatrix4x4@gen@@QBE?AVCVector4@2@I@Z$0
	DD	040H
	DD	00H
	DD	00H
	DD	FLAT:__catch$?GetRow@CMatrix4x4@gen@@QBE?AVCVector4@2@I@Z$1
__ehfuncinfo$?GetRow@CMatrix4x4@gen@@QBE?AVCVector4@2@I@Z DD 019930522H
	DD	02H
	DD	FLAT:__unwindtable$?GetRow@CMatrix4x4@gen@@QBE?AVCVector4@2@I@Z
	DD	01H
	DD	FLAT:__tryblocktable$?GetRow@CMatrix4x4@gen@@QBE?AVCVector4@2@I@Z
	DD	2 DUP(00H)
	DD	00H
	DD	01H
xdata$x	ENDS
;	COMDAT xdata$x
xdata$x	SEGMENT
__unwindtable$?Set@CMatrix4x4@gen@@QAEXPBM_N@Z DD 0ffffffffH
	DD	00H
	DD	0ffffffffH
	DD	00H
__tryblocktable$?Set@CMatrix4x4@gen@@QAEXPBM_N@Z DD 00H
	DD	00H
	DD	01H
	DD	02H
	DD	FLAT:__catchsym$?Set@CMatrix4x4@gen@@QAEXPBM_N@Z$3
__catchsym$?Set@CMatrix4x4@gen@@QAEXPBM_N@Z$3 DD 08H
	DD	FLAT:??_R0?AVCFatalException@gen@@@8
	DD	0ffffffd8H
	DD	FLAT:__catch$?Set@CMatrix4x4@gen@@QAEXPBM_N@Z$0
	DD	040H
	DD	00H
	DD	00H
	DD	FLAT:__catch$?Set@CMatrix4x4@gen@@QAEXPBM_N@Z$1
__ehfuncinfo$?Set@CMatrix4x4@gen@@QAEXPBM_N@Z DD 019930522H
	DD	02H
	DD	FLAT:__unwindtable$?Set@CMatrix4x4@gen@@QAEXPBM_N@Z
	DD	01H
	DD	FLAT:__tryblocktable$?Set@CMatrix4x4@gen@@QAEXPBM_N@Z
	DD	2 DUP(00H)
	DD	00H
	DD	01H
xdata$x	ENDS
;	COMDAT xdata$x
xdata$x	SEGMENT
__unwindtable$??0CMatrix4x4@gen@@QAE@PBM_N@Z DD 0ffffffffH
	DD	00H
	DD	0ffffffffH
	DD	00H
__tryblocktable$??0CMatrix4x4@gen@@QAE@PBM_N@Z DD 00H
	DD	00H
	DD	01H
	DD	02H
	DD	FLAT:__catchsym$??0CMatrix4x4@gen@@QAE@PBM_N@Z$3
__catchsym$??0CMatrix4x4@gen@@QAE@PBM_N@Z$3 DD 08H
	DD	FLAT:??_R0?AVCFatalException@gen@@@8
	DD	0ffffffd8H
	DD	FLAT:__catch$??0CMatrix4x4@gen@@QAE@PBM_N@Z$0
	DD	040H
	DD	00H
	DD	00H
	DD	FLAT:__catch$??0CMatrix4x4@gen@@QAE@PBM_N@Z$1
__ehfuncinfo$??0CMatrix4x4@gen@@QAE@PBM_N@Z DD 019930522H
	DD	02H
	DD	FLAT:__unwindtable$??0CMatrix4x4@gen@@QAE@PBM_N@Z
	DD	01H
	DD	FLAT:__tryblocktable$??0CMatrix4x4@gen@@QAE@PBM_N@Z
	DD	2 DUP(00H)
	DD	00H
	DD	01H
xdata$x	ENDS
;	COMDAT xdata$x
xdata$x	SEGMENT
__unwindtable$?InvSqrt@gen@@YAMM@Z DD 0ffffffffH
	DD	00H
	DD	0ffffffffH
	DD	00H
__tryblocktable$?InvSqrt@gen@@YAMM@Z DD 00H
	DD	00H
	DD	01H
	DD	02H
	DD	FLAT:__catchsym$?InvSqrt@gen@@YAMM@Z$3
__catchsym$?InvSqrt@gen@@YAMM@Z$3 DD 08H
	DD	FLAT:??_R0?AVCFatalException@gen@@@8
	DD	0ffffffe4H
	DD	FLAT:__catch$?InvSqrt@gen@@YAMM@Z$0
	DD	040H
	DD	00H
	DD	00H
	DD	FLAT:__catch$?InvSqrt@gen@@YAMM@Z$1
__ehfuncinfo$?InvSqrt@gen@@YAMM@Z DD 019930522H
	DD	02H
	DD	FLAT:__unwindtable$?InvSqrt@gen@@YAMM@Z
	DD	01H
	DD	FLAT:__tryblocktable$?InvSqrt@gen@@YAMM@Z
	DD	2 DUP(00H)
	DD	00H
	DD	01H
xdata$x	ENDS
;	COMDAT xdata$x
xdata$x	SEGMENT
__unwindtable$??0CFatalException@gen@@QAE@ABV01@@Z DD 0ffffffffH
	DD	FLAT:__unwindfunclet$??0CFatalException@gen@@QAE@ABV01@@Z$0
	DD	00H
	DD	FLAT:__unwindfunclet$??0CFatalException@gen@@QAE@ABV01@@Z$1
__ehfuncinfo$??0CFatalException@gen@@QAE@ABV01@@Z DD 019930522H
	DD	02H
	DD	FLAT:__unwindtable$??0CFatalException@gen@@QAE@ABV01@@Z
	DD	2 DUP(00H)
	DD	2 DUP(00H)
	DD	00H
	DD	01H
xdata$x	ENDS
;	COMDAT xdata$x
xdata$x	SEGMENT
__unwindtable$??0CFatalException@gen@@QAE@PBD00@Z DD 0ffffffffH
	DD	FLAT:__unwindfunclet$??0CFatalException@gen@@QAE@PBD00@Z$0
	DD	00H
	DD	FLAT:__unwindfunclet$??0CFatalException@gen@@QAE@PBD00@Z$1
	DD	01H
	DD	FLAT:__unwindfunclet$??0CFatalException@gen@@QAE@PBD00@Z$2
__ehfuncinfo$??0CFatalException@gen@@QAE@PBD00@Z DD 019930522H
	DD	03H
	DD	FLAT:__unwindtable$??0CFatalException@gen@@QAE@PBD00@Z
	DD	2 DUP(00H)
	DD	2 DUP(00H)
	DD	00H
	DD	01H
xdata$x	ENDS
;	COMDAT xdata$x
xdata$x	SEGMENT
__unwindtable$??0CFatalException@gen@@QAE@PBD0H@Z DD 0ffffffffH
	DD	FLAT:__unwindfunclet$??0CFatalException@gen@@QAE@PBD0H@Z$0
	DD	00H
	DD	FLAT:__unwindfunclet$??0CFatalException@gen@@QAE@PBD0H@Z$1
__ehfuncinfo$??0CFatalException@gen@@QAE@PBD0H@Z DD 019930522H
	DD	02H
	DD	FLAT:__unwindtable$??0CFatalException@gen@@QAE@PBD0H@Z
	DD	2 DUP(00H)
	DD	2 DUP(00H)
	DD	00H
	DD	01H
xdata$x	ENDS
;	COMDAT xdata$x
xdata$x	SEGMENT
__catchsym$?_Copy@?$basic_string@DU?$char_traits@D@std@@V?$allocator@D@2@@std@@QAEXII@Z$5 DD 040H
	DD	00H
	DD	00H
	DD	FLAT:__catch$?_Copy@?$basic_string@DU?$char_traits@D@std@@V?$allocator@D@2@@std@@QAEXII@Z$0
__catchsym$?_Copy@?$basic_string@DU?$char_traits@D@std@@V?$allocator@D@2@@std@@QAEXII@Z$4 DD 040H
	DD	00H
	DD	00H
	DD	FLAT:__catch$?_Copy@?$basic_string@DU?$char_traits@D@std@@V?$allocator@D@2@@std@@QAEXII@Z$1
__unwindtable$?_Copy@?$basic_string@DU?$char_traits@D@std@@V?$allocator@D@2@@std@@QAEXII@Z DD 0ffffffffH
	DD	00H
	DD	0ffffffffH
	DD	00H
	DD	01H
	DD	00H
	DD	01H
	DD	00H
__ehfuncinfo$?_Copy@?$basic_string@DU?$char_traits@D@std@@V?$allocator@D@2@@std@@QAEXII@Z DD 019930522H
	DD	04H
	DD	FLAT:__unwindtable$?_Copy@?$basic_string@DU?$char_traits@D@std@@V?$allocator@D@2@@std@@QAEXII@Z
	DD	02H
	DD	FLAT:__tryblocktable$?_Copy@?$basic_string@DU?$char_traits@D@std@@V?$allocator@D@2@@std@@QAEXII@Z
	DD	2 DUP(00H)
	DD	00H
	DD	01H
__tryblocktable$?_Copy@?$basic_string@DU?$char_traits@D@std@@V?$allocator@D@2@@std@@QAEXII@Z DD 02H
	DD	02H
	DD	03H
	DD	01H
	DD	FLAT:__catchsym$?_Copy@?$basic_string@DU?$char_traits@D@std@@V?$allocator@D@2@@std@@QAEXII@Z$4
	DD	00H
	DD	00H
	DD	03H
	DD	01H
	DD	FLAT:__catchsym$?_Copy@?$basic_string@DU?$char_traits@D@std@@V?$allocator@D@2@@std@@QAEXII@Z$5
xdata$x	ENDS
;	COMDAT xdata$x
xdata$x	SEGMENT
__unwindtable$??0?$basic_string@DU?$char_traits@D@std@@V?$allocator@D@2@@std@@QAE@PBD@Z DD 0ffffffffH
	DD	FLAT:__unwindfunclet$??0?$basic_string@DU?$char_traits@D@std@@V?$allocator@D@2@@std@@QAE@PBD@Z$0
__ehfuncinfo$??0?$basic_string@DU?$char_traits@D@std@@V?$allocator@D@2@@std@@QAE@PBD@Z DD 019930522H
	DD	01H
	DD	FLAT:__unwindtable$??0?$basic_string@DU?$char_traits@D@std@@V?$allocator@D@2@@std@@QAE@PBD@Z
	DD	2 DUP(00H)
	DD	2 DUP(00H)
	DD	00H
	DD	01H
xdata$x	ENDS
;	COMDAT xdata$x
xdata$x	SEGMENT
__unwindtable$??0?$basic_string@DU?$char_traits@D@std@@V?$allocator@D@2@@std@@QAE@ABV01@@Z DD 0ffffffffH
	DD	FLAT:__unwindfunclet$??0?$basic_string@DU?$char_traits@D@std@@V?$allocator@D@2@@std@@QAE@ABV01@@Z$0
__ehfuncinfo$??0?$basic_string@DU?$char_traits@D@std@@V?$allocator@D@2@@std@@QAE@ABV01@@Z DD 019930522H
	DD	01H
	DD	FLAT:__unwindtable$??0?$basic_string@DU?$char_traits@D@std@@V?$allocator@D@2@@std@@QAE@ABV01@@Z
	DD	2 DUP(00H)
	DD	2 DUP(00H)
	DD	00H
	DD	01H
xdata$x	ENDS
;	COMDAT xdata$x
xdata$x	SEGMENT
__unwindtable$??0?$_String_alloc@$0A@U?$_String_base_types@DV?$allocator@D@std@@@std@@@std@@QAE@ABV?$allocator@D@1@@Z DD 0ffffffffH
	DD	FLAT:__unwindfunclet$??0?$_String_alloc@$0A@U?$_String_base_types@DV?$allocator@D@std@@@std@@@std@@QAE@ABV?$allocator@D@1@@Z$0
__ehfuncinfo$??0?$_String_alloc@$0A@U?$_String_base_types@DV?$allocator@D@std@@@std@@@std@@QAE@ABV?$allocator@D@1@@Z DD 019930522H
	DD	01H
	DD	FLAT:__unwindtable$??0?$_String_alloc@$0A@U?$_String_base_types@DV?$allocator@D@std@@@std@@@std@@QAE@ABV?$allocator@D@1@@Z
	DD	2 DUP(00H)
	DD	2 DUP(00H)
	DD	00H
	DD	01H
xdata$x	ENDS
CRT$XCU	SEGMENT
_allocator_arg$initializer$ DD FLAT:??__Eallocator_arg@std@@YAXXZ
CRT$XCU	ENDS
CRT$XCU	SEGMENT
_ksCompiler$initializer$ DD FLAT:??__EksCompiler@gen@@YAXXZ
CRT$XCU	ENDS
CRT$XCU	SEGMENT
_ksPathSeparator$initializer$ DD FLAT:??__EksPathSeparator@gen@@YAXXZ
CRT$XCU	ENDS
CRT$XCU	SEGMENT
_ksNewline$initializer$ DD FLAT:??__EksNewline@gen@@YAXXZ
CRT$XCU	ENDS
CRT$XCU	SEGMENT
?kIdentity$initializer$@CMatrix4x4@gen@@2P6AXXZA DD FLAT:??__E?kIdentity@CMatrix4x4@gen@@2V12@B@@YAXXZ ; gen::CMatrix4x4::kIdentity$initializer$
CRT$XCU	ENDS
;	COMDAT CRT$XCU
CRT$XCU	SEGMENT
?_Generic_object$initializer$@?$_Error_objects@H@std@@2P6AXXZA DD FLAT:??__E?_Generic_object@?$_Error_objects@H@std@@2V_Generic_error_category@2@A@@YAXXZ ; std::_Error_objects<int>::_Generic_object$initializer$
CRT$XCU	ENDS
;	COMDAT CRT$XCU
CRT$XCU	SEGMENT
?_Iostream_object$initializer$@?$_Error_objects@H@std@@2P6AXXZA DD FLAT:??__E?_Iostream_object@?$_Error_objects@H@std@@2V_Iostream_error_category@2@A@@YAXXZ ; std::_Error_objects<int>::_Iostream_object$initializer$
CRT$XCU	ENDS
;	COMDAT CRT$XCU
CRT$XCU	SEGMENT
?_System_object$initializer$@?$_Error_objects@H@std@@2P6AXXZA DD FLAT:??__E?_System_object@?$_Error_objects@H@std@@2V_System_error_category@2@A@@YAXXZ ; std::_Error_objects<int>::_System_object$initializer$
CRT$XCU	ENDS
;	COMDAT CRT$XCU
CRT$XCU	SEGMENT
?id$initializer$@?$num_put@DV?$back_insert_iterator@V?$basic_string@DU?$char_traits@D@std@@V?$allocator@D@2@@std@@@std@@@std@@2P6AXXZA DD FLAT:??__E?id@?$num_put@DV?$back_insert_iterator@V?$basic_string@DU?$char_traits@D@std@@V?$allocator@D@2@@std@@@std@@@std@@2V0locale@2@A@@YAXXZ ; std::num_put<char,std::back_insert_iterator<std::basic_string<char,std::char_traits<char>,std::allocator<char> > > >::id$initializer$
CRT$XCU	ENDS
;	COMDAT CRT$XCU
CRT$XCU	SEGMENT
?id$initializer$@?$num_put@_WV?$back_insert_iterator@V?$basic_string@_WU?$char_traits@_W@std@@V?$allocator@_W@2@@std@@@std@@@std@@2P6AXXZA DD FLAT:??__E?id@?$num_put@_WV?$back_insert_iterator@V?$basic_string@_WU?$char_traits@_W@std@@V?$allocator@_W@2@@std@@@std@@@std@@2V0locale@2@A@@YAXXZ ; std::num_put<wchar_t,std::back_insert_iterator<std::basic_string<wchar_t,std::char_traits<wchar_t>,std::allocator<wchar_t> > > >::id$initializer$
CRT$XCU	ENDS
;	COMDAT CRT$XCU
CRT$XCU	SEGMENT
?id$initializer$@?$numpunct@D@std@@2P6AXXZA DD FLAT:??__E?id@?$numpunct@D@std@@2V0locale@2@A@@YAXXZ ; std::numpunct<char>::id$initializer$
CRT$XCU	ENDS
;	COMDAT CRT$XCU
CRT$XCU	SEGMENT
?id$initializer$@?$numpunct@_W@std@@2P6AXXZA DD FLAT:??__E?id@?$numpunct@_W@std@@2V0locale@2@A@@YAXXZ ; std::numpunct<wchar_t>::id$initializer$
CRT$XCU	ENDS
; Function compile flags: /Odtp /RTCsu /ZI
; File c:\program files (x86)\microsoft visual studio 12.0\vc\include\xmemory0
;	COMDAT ??$destroy@PAD@?$allocator@D@std@@QAEXPAPAD@Z
_TEXT	SEGMENT
_this$ = -8						; size = 4
__Ptr$ = 8						; size = 4
??$destroy@PAD@?$allocator@D@std@@QAEXPAPAD@Z PROC	; std::allocator<char>::destroy<char *>, COMDAT
; _this$ = ecx

; 605  : 		void destroy(_Uty *_Ptr)

	push	ebp
	mov	ebp, esp
	sub	esp, 204				; 000000ccH
	push	ebx
	push	esi
	push	edi
	push	ecx
	lea	edi, DWORD PTR [ebp-204]
	mov	ecx, 51					; 00000033H
	mov	eax, -858993460				; ccccccccH
	rep stosd
	pop	ecx
	mov	DWORD PTR _this$[ebp], ecx

; 606  : 		{	// destroy object at _Ptr
; 607  : 		_Ptr->~_Uty();
; 608  : 		}

	pop	edi
	pop	esi
	pop	ebx
	mov	esp, ebp
	pop	ebp
	ret	4
??$destroy@PAD@?$allocator@D@std@@QAEXPAPAD@Z ENDP	; std::allocator<char>::destroy<char *>
_TEXT	ENDS
; Function compile flags: /Odtp /RTCsu /ZI
; File c:\program files (x86)\microsoft visual studio 12.0\vc\include\xmemory0
;	COMDAT ??$construct@PADAAPAD@?$allocator@D@std@@QAEXPAPADAAPAD@Z
_TEXT	SEGMENT
tv73 = -244						; size = 4
$T2 = -236						; size = 4
$T3 = -224						; size = 4
_this$ = -20						; size = 4
__$EHRec$ = -12						; size = 12
__Ptr$ = 8						; size = 4
_<_Args_0>$ = 12					; size = 4
??$construct@PADAAPAD@?$allocator@D@std@@QAEXPAPADAAPAD@Z PROC ; std::allocator<char>::construct<char *,char * &>, COMDAT
; _this$ = ecx

; 598  : 		void construct(_Objty *_Ptr, _Types&&... _Args)

	push	ebp
	mov	ebp, esp
	push	-1
	push	__ehhandler$??$construct@PADAAPAD@?$allocator@D@std@@QAEXPAPADAAPAD@Z
	mov	eax, DWORD PTR fs:0
	push	eax
	sub	esp, 232				; 000000e8H
	push	ebx
	push	esi
	push	edi
	push	ecx
	lea	edi, DWORD PTR [ebp-244]
	mov	ecx, 58					; 0000003aH
	mov	eax, -858993460				; ccccccccH
	rep stosd
	pop	ecx
	mov	eax, DWORD PTR ___security_cookie
	xor	eax, ebp
	push	eax
	lea	eax, DWORD PTR __$EHRec$[ebp]
	mov	DWORD PTR fs:0, eax
	mov	DWORD PTR _this$[ebp], ecx

; 599  : 		{	// construct _Objty(_Types...) at _Ptr
; 600  : 		::new ((void *)_Ptr) _Objty(_STD forward<_Types>(_Args)...);

	mov	eax, DWORD PTR __Ptr$[ebp]
	push	eax
	push	4
	call	??2@YAPAXIPAX@Z				; operator new
	add	esp, 8
	mov	DWORD PTR $T3[ebp], eax
	mov	DWORD PTR __$EHRec$[ebp+8], 0
	cmp	DWORD PTR $T3[ebp], 0
	je	SHORT $LN3@construct
	mov	ecx, DWORD PTR _<_Args_0>$[ebp]
	push	ecx
	call	??$forward@AAPAD@std@@YAAAPADAAPAD@Z	; std::forward<char * &>
	add	esp, 4
	mov	edx, DWORD PTR $T3[ebp]
	mov	eax, DWORD PTR [eax]
	mov	DWORD PTR [edx], eax
	mov	ecx, DWORD PTR $T3[ebp]
	mov	DWORD PTR tv73[ebp], ecx
	jmp	SHORT $LN4@construct
$LN3@construct:
	mov	DWORD PTR tv73[ebp], 0
$LN4@construct:
	mov	edx, DWORD PTR tv73[ebp]
	mov	DWORD PTR $T2[ebp], edx
	mov	DWORD PTR __$EHRec$[ebp+8], -1

; 601  : 		}

	mov	ecx, DWORD PTR __$EHRec$[ebp]
	mov	DWORD PTR fs:0, ecx
	pop	ecx
	pop	edi
	pop	esi
	pop	ebx
	add	esp, 244				; 000000f4H
	cmp	ebp, esp
	call	__RTC_CheckEsp
	mov	esp, ebp
	pop	ebp
	ret	8
_TEXT	ENDS
;	COMDAT text$x
text$x	SEGMENT
__unwindfunclet$??$construct@PADAAPAD@?$allocator@D@std@@QAEXPAPADAAPAD@Z$0:
	mov	eax, DWORD PTR __Ptr$[ebp]
	push	eax
	mov	eax, DWORD PTR $T3[ebp]
	push	eax
	call	??3@YAXPAX0@Z				; operator delete
	add	esp, 8
	ret	0
__ehhandler$??$construct@PADAAPAD@?$allocator@D@std@@QAEXPAPADAAPAD@Z:
	mov	edx, DWORD PTR [esp+8]
	lea	eax, DWORD PTR [edx+12]
	mov	ecx, DWORD PTR [edx-248]
	xor	ecx, eax
	call	@__security_check_cookie@4
	mov	eax, OFFSET __ehfuncinfo$??$construct@PADAAPAD@?$allocator@D@std@@QAEXPAPADAAPAD@Z
	jmp	___CxxFrameHandler3
text$x	ENDS
??$construct@PADAAPAD@?$allocator@D@std@@QAEXPAPADAAPAD@Z ENDP ; std::allocator<char>::construct<char *,char * &>
; Function compile flags: /Odtp /RTCsu /ZI
; File c:\program files (x86)\microsoft visual studio 12.0\vc\include\xlocnum
;	COMDAT ??__E?id@?$numpunct@_W@std@@2V0locale@2@A@@YAXXZ
text$di	SEGMENT
??__E?id@?$numpunct@_W@std@@2V0locale@2@A@@YAXXZ PROC	; `dynamic initializer for 'std::numpunct<wchar_t>::id'', COMDAT

; 155  : 		void _Getvals(wchar_t, const lconv *_Ptr, _Locinfo::_Cvtvec)

	push	ebp
	mov	ebp, esp
	sub	esp, 192				; 000000c0H
	push	ebx
	push	esi
	push	edi
	lea	edi, DWORD PTR [ebp-192]
	mov	ecx, 48					; 00000030H
	mov	eax, -858993460				; ccccccccH
	rep stosd
	push	0
	mov	ecx, OFFSET ?id@?$numpunct@_W@std@@2V0locale@2@A ; std::numpunct<wchar_t>::id
	call	??0id@locale@std@@QAE@I@Z		; std::locale::id::id
	pop	edi
	pop	esi
	pop	ebx
	add	esp, 192				; 000000c0H
	cmp	ebp, esp
	call	__RTC_CheckEsp
	mov	esp, ebp
	pop	ebp
	ret	0
??__E?id@?$numpunct@_W@std@@2V0locale@2@A@@YAXXZ ENDP	; `dynamic initializer for 'std::numpunct<wchar_t>::id''
text$di	ENDS
; Function compile flags: /Odtp /RTCsu /ZI
; File c:\program files (x86)\microsoft visual studio 12.0\vc\include\xlocnum
;	COMDAT ??__E?id@?$numpunct@D@std@@2V0locale@2@A@@YAXXZ
text$di	SEGMENT
??__E?id@?$numpunct@D@std@@2V0locale@2@A@@YAXXZ PROC	; `dynamic initializer for 'std::numpunct<char>::id'', COMDAT

; 155  : 		void _Getvals(wchar_t, const lconv *_Ptr, _Locinfo::_Cvtvec)

	push	ebp
	mov	ebp, esp
	sub	esp, 192				; 000000c0H
	push	ebx
	push	esi
	push	edi
	lea	edi, DWORD PTR [ebp-192]
	mov	ecx, 48					; 00000030H
	mov	eax, -858993460				; ccccccccH
	rep stosd
	push	0
	mov	ecx, OFFSET ?id@?$numpunct@D@std@@2V0locale@2@A ; std::numpunct<char>::id
	call	??0id@locale@std@@QAE@I@Z		; std::locale::id::id
	pop	edi
	pop	esi
	pop	ebx
	add	esp, 192				; 000000c0H
	cmp	ebp, esp
	call	__RTC_CheckEsp
	mov	esp, ebp
	pop	ebp
	ret	0
??__E?id@?$numpunct@D@std@@2V0locale@2@A@@YAXXZ ENDP	; `dynamic initializer for 'std::numpunct<char>::id''
text$di	ENDS
; Function compile flags: /Odtp /RTCsu /ZI
; File c:\program files (x86)\microsoft visual studio 12.0\vc\include\xlocnum
;	COMDAT ??__E?id@?$num_put@_WV?$back_insert_iterator@V?$basic_string@_WU?$char_traits@_W@std@@V?$allocator@_W@2@@std@@@std@@@std@@2V0locale@2@A@@YAXXZ
text$di	SEGMENT
??__E?id@?$num_put@_WV?$back_insert_iterator@V?$basic_string@_WU?$char_traits@_W@std@@V?$allocator@_W@2@@std@@@std@@@std@@2V0locale@2@A@@YAXXZ PROC ; `dynamic initializer for 'std::num_put<wchar_t,std::back_insert_iterator<std::basic_string<wchar_t,std::char_traits<wchar_t>,std::allocator<wchar_t> > > >::id'', COMDAT

; 155  : 		void _Getvals(wchar_t, const lconv *_Ptr, _Locinfo::_Cvtvec)

	push	ebp
	mov	ebp, esp
	sub	esp, 192				; 000000c0H
	push	ebx
	push	esi
	push	edi
	lea	edi, DWORD PTR [ebp-192]
	mov	ecx, 48					; 00000030H
	mov	eax, -858993460				; ccccccccH
	rep stosd
	push	0
	mov	ecx, OFFSET ?id@?$num_put@_WV?$back_insert_iterator@V?$basic_string@_WU?$char_traits@_W@std@@V?$allocator@_W@2@@std@@@std@@@std@@2V0locale@2@A ; std::num_put<wchar_t,std::back_insert_iterator<std::basic_string<wchar_t,std::char_traits<wchar_t>,std::allocator<wchar_t> > > >::id
	call	??0id@locale@std@@QAE@I@Z		; std::locale::id::id
	pop	edi
	pop	esi
	pop	ebx
	add	esp, 192				; 000000c0H
	cmp	ebp, esp
	call	__RTC_CheckEsp
	mov	esp, ebp
	pop	ebp
	ret	0
??__E?id@?$num_put@_WV?$back_insert_iterator@V?$basic_string@_WU?$char_traits@_W@std@@V?$allocator@_W@2@@std@@@std@@@std@@2V0locale@2@A@@YAXXZ ENDP ; `dynamic initializer for 'std::num_put<wchar_t,std::back_insert_iterator<std::basic_string<wchar_t,std::char_traits<wchar_t>,std::allocator<wchar_t> > > >::id''
text$di	ENDS
; Function compile flags: /Odtp /RTCsu /ZI
; File c:\program files (x86)\microsoft visual studio 12.0\vc\include\xlocnum
;	COMDAT ??__E?id@?$num_put@DV?$back_insert_iterator@V?$basic_string@DU?$char_traits@D@std@@V?$allocator@D@2@@std@@@std@@@std@@2V0locale@2@A@@YAXXZ
text$di	SEGMENT
??__E?id@?$num_put@DV?$back_insert_iterator@V?$basic_string@DU?$char_traits@D@std@@V?$allocator@D@2@@std@@@std@@@std@@2V0locale@2@A@@YAXXZ PROC ; `dynamic initializer for 'std::num_put<char,std::back_insert_iterator<std::basic_string<char,std::char_traits<char>,std::allocator<char> > > >::id'', COMDAT

; 155  : 		void _Getvals(wchar_t, const lconv *_Ptr, _Locinfo::_Cvtvec)

	push	ebp
	mov	ebp, esp
	sub	esp, 192				; 000000c0H
	push	ebx
	push	esi
	push	edi
	lea	edi, DWORD PTR [ebp-192]
	mov	ecx, 48					; 00000030H
	mov	eax, -858993460				; ccccccccH
	rep stosd
	push	0
	mov	ecx, OFFSET ?id@?$num_put@DV?$back_insert_iterator@V?$basic_string@DU?$char_traits@D@std@@V?$allocator@D@2@@std@@@std@@@std@@2V0locale@2@A ; std::num_put<char,std::back_insert_iterator<std::basic_string<char,std::char_traits<char>,std::allocator<char> > > >::id
	call	??0id@locale@std@@QAE@I@Z		; std::locale::id::id
	pop	edi
	pop	esi
	pop	ebx
	add	esp, 192				; 000000c0H
	cmp	ebp, esp
	call	__RTC_CheckEsp
	mov	esp, ebp
	pop	ebp
	ret	0
??__E?id@?$num_put@DV?$back_insert_iterator@V?$basic_string@DU?$char_traits@D@std@@V?$allocator@D@2@@std@@@std@@@std@@2V0locale@2@A@@YAXXZ ENDP ; `dynamic initializer for 'std::num_put<char,std::back_insert_iterator<std::basic_string<char,std::char_traits<char>,std::allocator<char> > > >::id''
text$di	ENDS
; Function compile flags: /Odtp /RTCsu /ZI
; File c:\program files (x86)\microsoft visual studio 12.0\vc\include\type_traits
;	COMDAT ??$forward@U_Container_proxy@std@@@std@@YA$$QAU_Container_proxy@0@AAU10@@Z
_TEXT	SEGMENT
__Arg$ = 8						; size = 4
??$forward@U_Container_proxy@std@@@std@@YA$$QAU_Container_proxy@0@AAU10@@Z PROC ; std::forward<std::_Container_proxy>, COMDAT

; 1504 : 	{	// forward an lvalue

	push	ebp
	mov	ebp, esp
	sub	esp, 192				; 000000c0H
	push	ebx
	push	esi
	push	edi
	lea	edi, DWORD PTR [ebp-192]
	mov	ecx, 48					; 00000030H
	mov	eax, -858993460				; ccccccccH
	rep stosd

; 1505 : 	return (static_cast<_Ty&&>(_Arg));

	mov	eax, DWORD PTR __Arg$[ebp]

; 1506 : 	}

	pop	edi
	pop	esi
	pop	ebx
	mov	esp, ebp
	pop	ebp
	ret	0
??$forward@U_Container_proxy@std@@@std@@YA$$QAU_Container_proxy@0@AAU10@@Z ENDP ; std::forward<std::_Container_proxy>
_TEXT	ENDS
; Function compile flags: /Odtp /RTCsu /ZI
; File c:\program files (x86)\microsoft visual studio 12.0\vc\include\xmemory0
;	COMDAT ??$destroy@PAD@?$allocator_traits@V?$allocator@D@std@@@std@@SAXAAV?$allocator@D@1@PAPAD@Z
_TEXT	SEGMENT
__Al$ = 8						; size = 4
__Ptr$ = 12						; size = 4
??$destroy@PAD@?$allocator_traits@V?$allocator@D@std@@@std@@SAXAAV?$allocator@D@1@PAPAD@Z PROC ; std::allocator_traits<std::allocator<char> >::destroy<char *>, COMDAT

; 728  : 		static void destroy(_Alloc& _Al, _Uty *_Ptr)

	push	ebp
	mov	ebp, esp
	sub	esp, 192				; 000000c0H
	push	ebx
	push	esi
	push	edi
	lea	edi, DWORD PTR [ebp-192]
	mov	ecx, 48					; 00000030H
	mov	eax, -858993460				; ccccccccH
	rep stosd

; 729  : 		{	// destroy object at _Ptr
; 730  : 		_Al.destroy(_Ptr);

	mov	eax, DWORD PTR __Ptr$[ebp]
	push	eax
	mov	ecx, DWORD PTR __Al$[ebp]
	call	??$destroy@PAD@?$allocator@D@std@@QAEXPAPAD@Z ; std::allocator<char>::destroy<char *>

; 731  : 		}

	pop	edi
	pop	esi
	pop	ebx
	add	esp, 192				; 000000c0H
	cmp	ebp, esp
	call	__RTC_CheckEsp
	mov	esp, ebp
	pop	ebp
	ret	0
??$destroy@PAD@?$allocator_traits@V?$allocator@D@std@@@std@@SAXAAV?$allocator@D@1@PAPAD@Z ENDP ; std::allocator_traits<std::allocator<char> >::destroy<char *>
_TEXT	ENDS
; Function compile flags: /Odtp /RTCsu /ZI
; File c:\program files (x86)\microsoft visual studio 12.0\vc\include\xmemory0
;	COMDAT ??$construct@PADAAPAD@?$allocator_traits@V?$allocator@D@std@@@std@@SAXAAV?$allocator@D@1@PAPADAAPAD@Z
_TEXT	SEGMENT
__Al$ = 8						; size = 4
__Ptr$ = 12						; size = 4
_<_Args_0>$ = 16					; size = 4
??$construct@PADAAPAD@?$allocator_traits@V?$allocator@D@std@@@std@@SAXAAV?$allocator@D@1@PAPADAAPAD@Z PROC ; std::allocator_traits<std::allocator<char> >::construct<char *,char * &>, COMDAT

; 720  : 		static void construct(_Alloc& _Al, _Objty *_Ptr,

	push	ebp
	mov	ebp, esp
	sub	esp, 192				; 000000c0H
	push	ebx
	push	esi
	push	edi
	lea	edi, DWORD PTR [ebp-192]
	mov	ecx, 48					; 00000030H
	mov	eax, -858993460				; ccccccccH
	rep stosd

; 721  : 			_Types&&... _Args)
; 722  : 		{	// construct _Objty(_Types...) at _Ptr
; 723  : 		_Al.construct(_Ptr, _STD forward<_Types>(_Args)...);

	mov	eax, DWORD PTR _<_Args_0>$[ebp]
	push	eax
	call	??$forward@AAPAD@std@@YAAAPADAAPAD@Z	; std::forward<char * &>
	add	esp, 4
	push	eax
	mov	ecx, DWORD PTR __Ptr$[ebp]
	push	ecx
	mov	ecx, DWORD PTR __Al$[ebp]
	call	??$construct@PADAAPAD@?$allocator@D@std@@QAEXPAPADAAPAD@Z ; std::allocator<char>::construct<char *,char * &>

; 724  : 		}

	pop	edi
	pop	esi
	pop	ebx
	add	esp, 192				; 000000c0H
	cmp	ebp, esp
	call	__RTC_CheckEsp
	mov	esp, ebp
	pop	ebp
	ret	0
??$construct@PADAAPAD@?$allocator_traits@V?$allocator@D@std@@@std@@SAXAAV?$allocator@D@1@PAPADAAPAD@Z ENDP ; std::allocator_traits<std::allocator<char> >::construct<char *,char * &>
_TEXT	ENDS
; Function compile flags: /Odtp /RTCsu /ZI
; File c:\program files (x86)\microsoft visual studio 12.0\vc\include\type_traits
;	COMDAT ??$forward@AAPAD@std@@YAAAPADAAPAD@Z
_TEXT	SEGMENT
__Arg$ = 8						; size = 4
??$forward@AAPAD@std@@YAAAPADAAPAD@Z PROC		; std::forward<char * &>, COMDAT

; 1504 : 	{	// forward an lvalue

	push	ebp
	mov	ebp, esp
	sub	esp, 192				; 000000c0H
	push	ebx
	push	esi
	push	edi
	lea	edi, DWORD PTR [ebp-192]
	mov	ecx, 48					; 00000030H
	mov	eax, -858993460				; ccccccccH
	rep stosd

; 1505 : 	return (static_cast<_Ty&&>(_Arg));

	mov	eax, DWORD PTR __Arg$[ebp]

; 1506 : 	}

	pop	edi
	pop	esi
	pop	ebx
	mov	esp, ebp
	pop	ebp
	ret	0
??$forward@AAPAD@std@@YAAAPADAAPAD@Z ENDP		; std::forward<char * &>
_TEXT	ENDS
; Function compile flags: /Odtp /RTCsu /ZI
;	COMDAT ??__F?_System_object@?$_Error_objects@H@std@@2V_System_error_category@2@A@@YAXXZ
text$yd	SEGMENT
??__F?_System_object@?$_Error_objects@H@std@@2V_System_error_category@2@A@@YAXXZ PROC ; `dynamic atexit destructor for 'std::_Error_objects<int>::_System_object'', COMDAT
	push	ebp
	mov	ebp, esp
	sub	esp, 192				; 000000c0H
	push	ebx
	push	esi
	push	edi
	lea	edi, DWORD PTR [ebp-192]
	mov	ecx, 48					; 00000030H
	mov	eax, -858993460				; ccccccccH
	rep stosd
	mov	ecx, OFFSET ?_System_object@?$_Error_objects@H@std@@2V_System_error_category@2@A ; std::_Error_objects<int>::_System_object
	call	??1_System_error_category@std@@UAE@XZ
	pop	edi
	pop	esi
	pop	ebx
	add	esp, 192				; 000000c0H
	cmp	ebp, esp
	call	__RTC_CheckEsp
	mov	esp, ebp
	pop	ebp
	ret	0
??__F?_System_object@?$_Error_objects@H@std@@2V_System_error_category@2@A@@YAXXZ ENDP ; `dynamic atexit destructor for 'std::_Error_objects<int>::_System_object''
text$yd	ENDS
; Function compile flags: /Odtp /RTCsu /ZI
; File c:\program files (x86)\microsoft visual studio 12.0\vc\include\xmemory0
;	COMDAT ??__E?_System_object@?$_Error_objects@H@std@@2V_System_error_category@2@A@@YAXXZ
text$di	SEGMENT
??__E?_System_object@?$_Error_objects@H@std@@2V_System_error_category@2@A@@YAXXZ PROC ; `dynamic initializer for 'std::_Error_objects<int>::_System_object'', COMDAT

; 611  : 		{	// estimate maximum array size

	push	ebp
	mov	ebp, esp
	sub	esp, 192				; 000000c0H
	push	ebx
	push	esi
	push	edi
	lea	edi, DWORD PTR [ebp-192]
	mov	ecx, 48					; 00000030H
	mov	eax, -858993460				; ccccccccH
	rep stosd
	mov	ecx, OFFSET ?_System_object@?$_Error_objects@H@std@@2V_System_error_category@2@A ; std::_Error_objects<int>::_System_object
	call	??0_System_error_category@std@@QAE@XZ	; std::_System_error_category::_System_error_category
	push	OFFSET ??__F?_System_object@?$_Error_objects@H@std@@2V_System_error_category@2@A@@YAXXZ ; `dynamic atexit destructor for 'std::_Error_objects<int>::_System_object''
	call	_atexit
	add	esp, 4
	pop	edi
	pop	esi
	pop	ebx
	add	esp, 192				; 000000c0H
	cmp	ebp, esp
	call	__RTC_CheckEsp
	mov	esp, ebp
	pop	ebp
	ret	0
??__E?_System_object@?$_Error_objects@H@std@@2V_System_error_category@2@A@@YAXXZ ENDP ; `dynamic initializer for 'std::_Error_objects<int>::_System_object''
text$di	ENDS
; Function compile flags: /Odtp /RTCsu /ZI
;	COMDAT ??__F?_Iostream_object@?$_Error_objects@H@std@@2V_Iostream_error_category@2@A@@YAXXZ
text$yd	SEGMENT
??__F?_Iostream_object@?$_Error_objects@H@std@@2V_Iostream_error_category@2@A@@YAXXZ PROC ; `dynamic atexit destructor for 'std::_Error_objects<int>::_Iostream_object'', COMDAT
	push	ebp
	mov	ebp, esp
	sub	esp, 192				; 000000c0H
	push	ebx
	push	esi
	push	edi
	lea	edi, DWORD PTR [ebp-192]
	mov	ecx, 48					; 00000030H
	mov	eax, -858993460				; ccccccccH
	rep stosd
	mov	ecx, OFFSET ?_Iostream_object@?$_Error_objects@H@std@@2V_Iostream_error_category@2@A ; std::_Error_objects<int>::_Iostream_object
	call	??1_Iostream_error_category@std@@UAE@XZ
	pop	edi
	pop	esi
	pop	ebx
	add	esp, 192				; 000000c0H
	cmp	ebp, esp
	call	__RTC_CheckEsp
	mov	esp, ebp
	pop	ebp
	ret	0
??__F?_Iostream_object@?$_Error_objects@H@std@@2V_Iostream_error_category@2@A@@YAXXZ ENDP ; `dynamic atexit destructor for 'std::_Error_objects<int>::_Iostream_object''
text$yd	ENDS
; Function compile flags: /Odtp /RTCsu /ZI
; File c:\program files (x86)\microsoft visual studio 12.0\vc\include\xmemory0
;	COMDAT ??__E?_Iostream_object@?$_Error_objects@H@std@@2V_Iostream_error_category@2@A@@YAXXZ
text$di	SEGMENT
??__E?_Iostream_object@?$_Error_objects@H@std@@2V_Iostream_error_category@2@A@@YAXXZ PROC ; `dynamic initializer for 'std::_Error_objects<int>::_Iostream_object'', COMDAT

; 611  : 		{	// estimate maximum array size

	push	ebp
	mov	ebp, esp
	sub	esp, 192				; 000000c0H
	push	ebx
	push	esi
	push	edi
	lea	edi, DWORD PTR [ebp-192]
	mov	ecx, 48					; 00000030H
	mov	eax, -858993460				; ccccccccH
	rep stosd
	mov	ecx, OFFSET ?_Iostream_object@?$_Error_objects@H@std@@2V_Iostream_error_category@2@A ; std::_Error_objects<int>::_Iostream_object
	call	??0_Iostream_error_category@std@@QAE@XZ	; std::_Iostream_error_category::_Iostream_error_category
	push	OFFSET ??__F?_Iostream_object@?$_Error_objects@H@std@@2V_Iostream_error_category@2@A@@YAXXZ ; `dynamic atexit destructor for 'std::_Error_objects<int>::_Iostream_object''
	call	_atexit
	add	esp, 4
	pop	edi
	pop	esi
	pop	ebx
	add	esp, 192				; 000000c0H
	cmp	ebp, esp
	call	__RTC_CheckEsp
	mov	esp, ebp
	pop	ebp
	ret	0
??__E?_Iostream_object@?$_Error_objects@H@std@@2V_Iostream_error_category@2@A@@YAXXZ ENDP ; `dynamic initializer for 'std::_Error_objects<int>::_Iostream_object''
text$di	ENDS
; Function compile flags: /Odtp /RTCsu /ZI
;	COMDAT ??__F?_Generic_object@?$_Error_objects@H@std@@2V_Generic_error_category@2@A@@YAXXZ
text$yd	SEGMENT
??__F?_Generic_object@?$_Error_objects@H@std@@2V_Generic_error_category@2@A@@YAXXZ PROC ; `dynamic atexit destructor for 'std::_Error_objects<int>::_Generic_object'', COMDAT
	push	ebp
	mov	ebp, esp
	sub	esp, 192				; 000000c0H
	push	ebx
	push	esi
	push	edi
	lea	edi, DWORD PTR [ebp-192]
	mov	ecx, 48					; 00000030H
	mov	eax, -858993460				; ccccccccH
	rep stosd
	mov	ecx, OFFSET ?_Generic_object@?$_Error_objects@H@std@@2V_Generic_error_category@2@A ; std::_Error_objects<int>::_Generic_object
	call	??1_Generic_error_category@std@@UAE@XZ
	pop	edi
	pop	esi
	pop	ebx
	add	esp, 192				; 000000c0H
	cmp	ebp, esp
	call	__RTC_CheckEsp
	mov	esp, ebp
	pop	ebp
	ret	0
??__F?_Generic_object@?$_Error_objects@H@std@@2V_Generic_error_category@2@A@@YAXXZ ENDP ; `dynamic atexit destructor for 'std::_Error_objects<int>::_Generic_object''
text$yd	ENDS
; Function compile flags: /Odtp /RTCsu /ZI
; File c:\program files (x86)\microsoft visual studio 12.0\vc\include\xmemory0
;	COMDAT ??__E?_Generic_object@?$_Error_objects@H@std@@2V_Generic_error_category@2@A@@YAXXZ
text$di	SEGMENT
??__E?_Generic_object@?$_Error_objects@H@std@@2V_Generic_error_category@2@A@@YAXXZ PROC ; `dynamic initializer for 'std::_Error_objects<int>::_Generic_object'', COMDAT

; 611  : 		{	// estimate maximum array size

	push	ebp
	mov	ebp, esp
	sub	esp, 192				; 000000c0H
	push	ebx
	push	esi
	push	edi
	lea	edi, DWORD PTR [ebp-192]
	mov	ecx, 48					; 00000030H
	mov	eax, -858993460				; ccccccccH
	rep stosd
	mov	ecx, OFFSET ?_Generic_object@?$_Error_objects@H@std@@2V_Generic_error_category@2@A ; std::_Error_objects<int>::_Generic_object
	call	??0_Generic_error_category@std@@QAE@XZ	; std::_Generic_error_category::_Generic_error_category
	push	OFFSET ??__F?_Generic_object@?$_Error_objects@H@std@@2V_Generic_error_category@2@A@@YAXXZ ; `dynamic atexit destructor for 'std::_Error_objects<int>::_Generic_object''
	call	_atexit
	add	esp, 4
	pop	edi
	pop	esi
	pop	ebx
	add	esp, 192				; 000000c0H
	cmp	ebp, esp
	call	__RTC_CheckEsp
	mov	esp, ebp
	pop	ebp
	ret	0
??__E?_Generic_object@?$_Error_objects@H@std@@2V_Generic_error_category@2@A@@YAXXZ ENDP ; `dynamic initializer for 'std::_Error_objects<int>::_Generic_object''
text$di	ENDS
; Function compile flags: /Odtp /RTCsu /ZI
; File c:\program files (x86)\microsoft visual studio 12.0\vc\include\xmemory0
;	COMDAT ??$_Allocate@D@std@@YAPADIPAD@Z
_TEXT	SEGMENT
__Ptr$ = -8						; size = 4
__Count$ = 8						; size = 4
___formal$ = 12						; size = 4
??$_Allocate@D@std@@YAPADIPAD@Z PROC			; std::_Allocate<char>, COMDAT

; 22   : 	{	// allocate storage for _Count elements of type _Ty

	push	ebp
	mov	ebp, esp
	sub	esp, 204				; 000000ccH
	push	ebx
	push	esi
	push	edi
	lea	edi, DWORD PTR [ebp-204]
	mov	ecx, 51					; 00000033H
	mov	eax, -858993460				; ccccccccH
	rep stosd

; 23   : 	void *_Ptr = 0;

	mov	DWORD PTR __Ptr$[ebp], 0

; 24   : 
; 25   : 	if (_Count == 0)

	cmp	DWORD PTR __Count$[ebp], 0
	jne	SHORT $LN4@Allocate

; 26   : 		;
; 27   : 	else if (((size_t)(-1) / sizeof (_Ty) < _Count)

	jmp	SHORT $LN3@Allocate
$LN4@Allocate:

; 28   : 		|| (_Ptr = ::operator new(_Count * sizeof (_Ty))) == 0)

	cmp	DWORD PTR __Count$[ebp], -1
	ja	SHORT $LN1@Allocate
	mov	eax, DWORD PTR __Count$[ebp]
	push	eax
	call	??2@YAPAXI@Z				; operator new
	add	esp, 4
	mov	DWORD PTR __Ptr$[ebp], eax
	cmp	DWORD PTR __Ptr$[ebp], 0
	jne	SHORT $LN3@Allocate
$LN1@Allocate:

; 29   : 		_Xbad_alloc();	// report no memory

	call	?_Xbad_alloc@std@@YAXXZ			; std::_Xbad_alloc
$LN3@Allocate:

; 30   : 
; 31   : 	return ((_Ty *)_Ptr);

	mov	eax, DWORD PTR __Ptr$[ebp]
$LN6@Allocate:

; 32   : 	}

	pop	edi
	pop	esi
	pop	ebx
	add	esp, 204				; 000000ccH
	cmp	ebp, esp
	call	__RTC_CheckEsp
	mov	esp, ebp
	pop	ebp
	ret	0
??$_Allocate@D@std@@YAPADIPAD@Z ENDP			; std::_Allocate<char>
_TEXT	ENDS
; Function compile flags: /Odtp /RTCsu /ZI
; File c:\program files (x86)\microsoft visual studio 12.0\vc\include\xmemory0
;	COMDAT ??$_Allocate@U_Container_proxy@std@@@std@@YAPAU_Container_proxy@0@IPAU10@@Z
_TEXT	SEGMENT
__Ptr$ = -8						; size = 4
__Count$ = 8						; size = 4
___formal$ = 12						; size = 4
??$_Allocate@U_Container_proxy@std@@@std@@YAPAU_Container_proxy@0@IPAU10@@Z PROC ; std::_Allocate<std::_Container_proxy>, COMDAT

; 22   : 	{	// allocate storage for _Count elements of type _Ty

	push	ebp
	mov	ebp, esp
	sub	esp, 204				; 000000ccH
	push	ebx
	push	esi
	push	edi
	lea	edi, DWORD PTR [ebp-204]
	mov	ecx, 51					; 00000033H
	mov	eax, -858993460				; ccccccccH
	rep stosd

; 23   : 	void *_Ptr = 0;

	mov	DWORD PTR __Ptr$[ebp], 0

; 24   : 
; 25   : 	if (_Count == 0)

	cmp	DWORD PTR __Count$[ebp], 0
	jne	SHORT $LN4@Allocate

; 26   : 		;
; 27   : 	else if (((size_t)(-1) / sizeof (_Ty) < _Count)

	jmp	SHORT $LN3@Allocate
$LN4@Allocate:

; 28   : 		|| (_Ptr = ::operator new(_Count * sizeof (_Ty))) == 0)

	cmp	DWORD PTR __Count$[ebp], 536870911	; 1fffffffH
	ja	SHORT $LN1@Allocate
	mov	eax, DWORD PTR __Count$[ebp]
	shl	eax, 3
	push	eax
	call	??2@YAPAXI@Z				; operator new
	add	esp, 4
	mov	DWORD PTR __Ptr$[ebp], eax
	cmp	DWORD PTR __Ptr$[ebp], 0
	jne	SHORT $LN3@Allocate
$LN1@Allocate:

; 29   : 		_Xbad_alloc();	// report no memory

	call	?_Xbad_alloc@std@@YAXXZ			; std::_Xbad_alloc
$LN3@Allocate:

; 30   : 
; 31   : 	return ((_Ty *)_Ptr);

	mov	eax, DWORD PTR __Ptr$[ebp]
$LN6@Allocate:

; 32   : 	}

	pop	edi
	pop	esi
	pop	ebx
	add	esp, 204				; 000000ccH
	cmp	ebp, esp
	call	__RTC_CheckEsp
	mov	esp, ebp
	pop	ebp
	ret	0
??$_Allocate@U_Container_proxy@std@@@std@@YAPAU_Container_proxy@0@IPAU10@@Z ENDP ; std::_Allocate<std::_Container_proxy>
_TEXT	ENDS
; Function compile flags: /Odtp /RTCsu /ZI
; File c:\program files (x86)\microsoft visual studio 12.0\vc\include\xmemory0
;	COMDAT ??$destroy@U_Container_proxy@std@@@?$allocator@U_Container_proxy@std@@@std@@QAEXPAU_Container_proxy@1@@Z
_TEXT	SEGMENT
_this$ = -8						; size = 4
__Ptr$ = 8						; size = 4
??$destroy@U_Container_proxy@std@@@?$allocator@U_Container_proxy@std@@@std@@QAEXPAU_Container_proxy@1@@Z PROC ; std::allocator<std::_Container_proxy>::destroy<std::_Container_proxy>, COMDAT
; _this$ = ecx

; 605  : 		void destroy(_Uty *_Ptr)

	push	ebp
	mov	ebp, esp
	sub	esp, 204				; 000000ccH
	push	ebx
	push	esi
	push	edi
	push	ecx
	lea	edi, DWORD PTR [ebp-204]
	mov	ecx, 51					; 00000033H
	mov	eax, -858993460				; ccccccccH
	rep stosd
	pop	ecx
	mov	DWORD PTR _this$[ebp], ecx

; 606  : 		{	// destroy object at _Ptr
; 607  : 		_Ptr->~_Uty();
; 608  : 		}

	pop	edi
	pop	esi
	pop	ebx
	mov	esp, ebp
	pop	ebp
	ret	4
??$destroy@U_Container_proxy@std@@@?$allocator@U_Container_proxy@std@@@std@@QAEXPAU_Container_proxy@1@@Z ENDP ; std::allocator<std::_Container_proxy>::destroy<std::_Container_proxy>
_TEXT	ENDS
; Function compile flags: /Odtp /RTCsu /ZI
; File c:\program files (x86)\microsoft visual studio 12.0\vc\include\xmemory0
;	COMDAT ??$construct@U_Container_proxy@std@@U12@@?$allocator@U_Container_proxy@std@@@std@@QAEXPAU_Container_proxy@1@$$QAU21@@Z
_TEXT	SEGMENT
tv74 = -244						; size = 4
$T2 = -236						; size = 4
$T3 = -224						; size = 4
_this$ = -20						; size = 4
__$EHRec$ = -12						; size = 12
__Ptr$ = 8						; size = 4
_<_Args_0>$ = 12					; size = 4
??$construct@U_Container_proxy@std@@U12@@?$allocator@U_Container_proxy@std@@@std@@QAEXPAU_Container_proxy@1@$$QAU21@@Z PROC ; std::allocator<std::_Container_proxy>::construct<std::_Container_proxy,std::_Container_proxy>, COMDAT
; _this$ = ecx

; 598  : 		void construct(_Objty *_Ptr, _Types&&... _Args)

	push	ebp
	mov	ebp, esp
	push	-1
	push	__ehhandler$??$construct@U_Container_proxy@std@@U12@@?$allocator@U_Container_proxy@std@@@std@@QAEXPAU_Container_proxy@1@$$QAU21@@Z
	mov	eax, DWORD PTR fs:0
	push	eax
	sub	esp, 232				; 000000e8H
	push	ebx
	push	esi
	push	edi
	push	ecx
	lea	edi, DWORD PTR [ebp-244]
	mov	ecx, 58					; 0000003aH
	mov	eax, -858993460				; ccccccccH
	rep stosd
	pop	ecx
	mov	eax, DWORD PTR ___security_cookie
	xor	eax, ebp
	push	eax
	lea	eax, DWORD PTR __$EHRec$[ebp]
	mov	DWORD PTR fs:0, eax
	mov	DWORD PTR _this$[ebp], ecx

; 599  : 		{	// construct _Objty(_Types...) at _Ptr
; 600  : 		::new ((void *)_Ptr) _Objty(_STD forward<_Types>(_Args)...);

	mov	eax, DWORD PTR __Ptr$[ebp]
	push	eax
	push	8
	call	??2@YAPAXIPAX@Z				; operator new
	add	esp, 8
	mov	DWORD PTR $T3[ebp], eax
	mov	DWORD PTR __$EHRec$[ebp+8], 0
	cmp	DWORD PTR $T3[ebp], 0
	je	SHORT $LN3@construct
	mov	ecx, DWORD PTR _<_Args_0>$[ebp]
	push	ecx
	call	??$forward@U_Container_proxy@std@@@std@@YA$$QAU_Container_proxy@0@AAU10@@Z ; std::forward<std::_Container_proxy>
	add	esp, 4
	mov	edx, DWORD PTR [eax]
	mov	eax, DWORD PTR [eax+4]
	mov	ecx, DWORD PTR $T3[ebp]
	mov	DWORD PTR [ecx], edx
	mov	DWORD PTR [ecx+4], eax
	mov	edx, DWORD PTR $T3[ebp]
	mov	DWORD PTR tv74[ebp], edx
	jmp	SHORT $LN4@construct
$LN3@construct:
	mov	DWORD PTR tv74[ebp], 0
$LN4@construct:
	mov	eax, DWORD PTR tv74[ebp]
	mov	DWORD PTR $T2[ebp], eax
	mov	DWORD PTR __$EHRec$[ebp+8], -1

; 601  : 		}

	mov	ecx, DWORD PTR __$EHRec$[ebp]
	mov	DWORD PTR fs:0, ecx
	pop	ecx
	pop	edi
	pop	esi
	pop	ebx
	add	esp, 244				; 000000f4H
	cmp	ebp, esp
	call	__RTC_CheckEsp
	mov	esp, ebp
	pop	ebp
	ret	8
_TEXT	ENDS
;	COMDAT text$x
text$x	SEGMENT
__unwindfunclet$??$construct@U_Container_proxy@std@@U12@@?$allocator@U_Container_proxy@std@@@std@@QAEXPAU_Container_proxy@1@$$QAU21@@Z$0:
	mov	eax, DWORD PTR __Ptr$[ebp]
	push	eax
	mov	eax, DWORD PTR $T3[ebp]
	push	eax
	call	??3@YAXPAX0@Z				; operator delete
	add	esp, 8
	ret	0
__ehhandler$??$construct@U_Container_proxy@std@@U12@@?$allocator@U_Container_proxy@std@@@std@@QAEXPAU_Container_proxy@1@$$QAU21@@Z:
	mov	edx, DWORD PTR [esp+8]
	lea	eax, DWORD PTR [edx+12]
	mov	ecx, DWORD PTR [edx-248]
	xor	ecx, eax
	call	@__security_check_cookie@4
	mov	eax, OFFSET __ehfuncinfo$??$construct@U_Container_proxy@std@@U12@@?$allocator@U_Container_proxy@std@@@std@@QAEXPAU_Container_proxy@1@$$QAU21@@Z
	jmp	___CxxFrameHandler3
text$x	ENDS
??$construct@U_Container_proxy@std@@U12@@?$allocator@U_Container_proxy@std@@@std@@QAEXPAU_Container_proxy@1@$$QAU21@@Z ENDP ; std::allocator<std::_Container_proxy>::construct<std::_Container_proxy,std::_Container_proxy>
; Function compile flags: /Odtp /RTCsu /ZI
; File c:\program files (x86)\microsoft visual studio 12.0\vc\include\xmemory0
;	COMDAT ?allocate@?$allocator@U_Container_proxy@std@@@std@@QAEPAU_Container_proxy@2@I@Z
_TEXT	SEGMENT
_this$ = -8						; size = 4
__Count$ = 8						; size = 4
?allocate@?$allocator@U_Container_proxy@std@@@std@@QAEPAU_Container_proxy@2@I@Z PROC ; std::allocator<std::_Container_proxy>::allocate, COMDAT
; _this$ = ecx

; 577  : 		{	// allocate array of _Count elements

	push	ebp
	mov	ebp, esp
	sub	esp, 204				; 000000ccH
	push	ebx
	push	esi
	push	edi
	push	ecx
	lea	edi, DWORD PTR [ebp-204]
	mov	ecx, 51					; 00000033H
	mov	eax, -858993460				; ccccccccH
	rep stosd
	pop	ecx
	mov	DWORD PTR _this$[ebp], ecx

; 578  : 		return (_Allocate(_Count, (pointer)0));

	push	0
	mov	eax, DWORD PTR __Count$[ebp]
	push	eax
	call	??$_Allocate@U_Container_proxy@std@@@std@@YAPAU_Container_proxy@0@IPAU10@@Z ; std::_Allocate<std::_Container_proxy>
	add	esp, 8

; 579  : 		}

	pop	edi
	pop	esi
	pop	ebx
	add	esp, 204				; 000000ccH
	cmp	ebp, esp
	call	__RTC_CheckEsp
	mov	esp, ebp
	pop	ebp
	ret	4
?allocate@?$allocator@U_Container_proxy@std@@@std@@QAEPAU_Container_proxy@2@I@Z ENDP ; std::allocator<std::_Container_proxy>::allocate
_TEXT	ENDS
; Function compile flags: /Odtp /RTCsu /ZI
; File c:\program files (x86)\microsoft visual studio 12.0\vc\include\xmemory0
;	COMDAT ?deallocate@?$allocator@U_Container_proxy@std@@@std@@QAEXPAU_Container_proxy@2@I@Z
_TEXT	SEGMENT
_this$ = -8						; size = 4
__Ptr$ = 8						; size = 4
___formal$ = 12						; size = 4
?deallocate@?$allocator@U_Container_proxy@std@@@std@@QAEXPAU_Container_proxy@2@I@Z PROC ; std::allocator<std::_Container_proxy>::deallocate, COMDAT
; _this$ = ecx

; 572  : 		{	// deallocate object at _Ptr, ignore size

	push	ebp
	mov	ebp, esp
	sub	esp, 204				; 000000ccH
	push	ebx
	push	esi
	push	edi
	push	ecx
	lea	edi, DWORD PTR [ebp-204]
	mov	ecx, 51					; 00000033H
	mov	eax, -858993460				; ccccccccH
	rep stosd
	pop	ecx
	mov	DWORD PTR _this$[ebp], ecx

; 573  : 		::operator delete(_Ptr);

	mov	eax, DWORD PTR __Ptr$[ebp]
	push	eax
	call	??3@YAXPAX@Z				; operator delete
	add	esp, 4

; 574  : 		}

	pop	edi
	pop	esi
	pop	ebx
	add	esp, 204				; 000000ccH
	cmp	ebp, esp
	call	__RTC_CheckEsp
	mov	esp, ebp
	pop	ebp
	ret	8
?deallocate@?$allocator@U_Container_proxy@std@@@std@@QAEXPAU_Container_proxy@2@I@Z ENDP ; std::allocator<std::_Container_proxy>::deallocate
_TEXT	ENDS
; Function compile flags: /Odtp /RTCsu /ZI
; File c:\program files (x86)\microsoft visual studio 12.0\vc\include\xmemory0
;	COMDAT ??0?$allocator@U_Container_proxy@std@@@std@@QAE@XZ
_TEXT	SEGMENT
_this$ = -8						; size = 4
??0?$allocator@U_Container_proxy@std@@@std@@QAE@XZ PROC	; std::allocator<std::_Container_proxy>::allocator<std::_Container_proxy>, COMDAT
; _this$ = ecx

; 552  : 	allocator() _THROW0()

	push	ebp
	mov	ebp, esp
	sub	esp, 204				; 000000ccH
	push	ebx
	push	esi
	push	edi
	push	ecx
	lea	edi, DWORD PTR [ebp-204]
	mov	ecx, 51					; 00000033H
	mov	eax, -858993460				; ccccccccH
	rep stosd
	pop	ecx
	mov	DWORD PTR _this$[ebp], ecx

; 553  : 		{	// construct default allocator (do nothing)
; 554  : 		}

	mov	eax, DWORD PTR _this$[ebp]
	pop	edi
	pop	esi
	pop	ebx
	mov	esp, ebp
	pop	ebp
	ret	0
??0?$allocator@U_Container_proxy@std@@@std@@QAE@XZ ENDP	; std::allocator<std::_Container_proxy>::allocator<std::_Container_proxy>
_TEXT	ENDS
; Function compile flags: /Odtp /RTCsu /ZI
; File c:\program files (x86)\microsoft visual studio 12.0\vc\include\xstddef
;	COMDAT ??$addressof@D@std@@YAPADAAD@Z
_TEXT	SEGMENT
__Val$ = 8						; size = 4
??$addressof@D@std@@YAPADAAD@Z PROC			; std::addressof<char>, COMDAT

; 92   : 	{	// return address of _Val

	push	ebp
	mov	ebp, esp
	sub	esp, 192				; 000000c0H
	push	ebx
	push	esi
	push	edi
	lea	edi, DWORD PTR [ebp-192]
	mov	ecx, 48					; 00000030H
	mov	eax, -858993460				; ccccccccH
	rep stosd

; 93   : 	return (reinterpret_cast<_Ty *>(
; 94   : 		(&const_cast<char&>(
; 95   : 		reinterpret_cast<const volatile char&>(_Val)))));

	mov	eax, DWORD PTR __Val$[ebp]

; 96   : 	}

	pop	edi
	pop	esi
	pop	ebx
	mov	esp, ebp
	pop	ebp
	ret	0
??$addressof@D@std@@YAPADAAD@Z ENDP			; std::addressof<char>
_TEXT	ENDS
; Function compile flags: /Odtp /RTCsu /ZI
; File c:\program files (x86)\microsoft visual studio 12.0\vc\include\xmemory0
;	COMDAT ??$destroy@PAD@?$_Wrap_alloc@V?$allocator@D@std@@@std@@QAEXPAPAD@Z
_TEXT	SEGMENT
_this$ = -8						; size = 4
__Ptr$ = 8						; size = 4
??$destroy@PAD@?$_Wrap_alloc@V?$allocator@D@std@@@std@@QAEXPAPAD@Z PROC ; std::_Wrap_alloc<std::allocator<char> >::destroy<char *>, COMDAT
; _this$ = ecx

; 877  : 		void destroy(_Ty *_Ptr)

	push	ebp
	mov	ebp, esp
	sub	esp, 204				; 000000ccH
	push	ebx
	push	esi
	push	edi
	push	ecx
	lea	edi, DWORD PTR [ebp-204]
	mov	ecx, 51					; 00000033H
	mov	eax, -858993460				; ccccccccH
	rep stosd
	pop	ecx
	mov	DWORD PTR _this$[ebp], ecx

; 878  : 		{	// destroy object at _Ptr
; 879  : 		_Mytraits::destroy(*this, _Ptr);

	mov	eax, DWORD PTR __Ptr$[ebp]
	push	eax
	mov	ecx, DWORD PTR _this$[ebp]
	push	ecx
	call	??$destroy@PAD@?$allocator_traits@V?$allocator@D@std@@@std@@SAXAAV?$allocator@D@1@PAPAD@Z ; std::allocator_traits<std::allocator<char> >::destroy<char *>
	add	esp, 8

; 880  : 		}

	pop	edi
	pop	esi
	pop	ebx
	add	esp, 204				; 000000ccH
	cmp	ebp, esp
	call	__RTC_CheckEsp
	mov	esp, ebp
	pop	ebp
	ret	4
??$destroy@PAD@?$_Wrap_alloc@V?$allocator@D@std@@@std@@QAEXPAPAD@Z ENDP ; std::_Wrap_alloc<std::allocator<char> >::destroy<char *>
_TEXT	ENDS
; Function compile flags: /Odtp /RTCsu /ZI
; File c:\program files (x86)\microsoft visual studio 12.0\vc\include\xmemory0
;	COMDAT ??$construct@PADAAPAD@?$_Wrap_alloc@V?$allocator@D@std@@@std@@QAEXPAPADAAPAD@Z
_TEXT	SEGMENT
_this$ = -8						; size = 4
__Ptr$ = 8						; size = 4
_<_Args_0>$ = 12					; size = 4
??$construct@PADAAPAD@?$_Wrap_alloc@V?$allocator@D@std@@@std@@QAEXPAPADAAPAD@Z PROC ; std::_Wrap_alloc<std::allocator<char> >::construct<char *,char * &>, COMDAT
; _this$ = ecx

; 868  : 		void construct(_Ty *_Ptr,

	push	ebp
	mov	ebp, esp
	sub	esp, 204				; 000000ccH
	push	ebx
	push	esi
	push	edi
	push	ecx
	lea	edi, DWORD PTR [ebp-204]
	mov	ecx, 51					; 00000033H
	mov	eax, -858993460				; ccccccccH
	rep stosd
	pop	ecx
	mov	DWORD PTR _this$[ebp], ecx

; 869  : 			_Types&&... _Args)
; 870  : 		{	// construct _Ty(_Types...) at _Ptr
; 871  : 		_Mytraits::construct(*this, _Ptr,
; 872  : 			_STD forward<_Types>(_Args)...);

	mov	eax, DWORD PTR _<_Args_0>$[ebp]
	push	eax
	call	??$forward@AAPAD@std@@YAAAPADAAPAD@Z	; std::forward<char * &>
	add	esp, 4
	push	eax
	mov	ecx, DWORD PTR __Ptr$[ebp]
	push	ecx
	mov	edx, DWORD PTR _this$[ebp]
	push	edx
	call	??$construct@PADAAPAD@?$allocator_traits@V?$allocator@D@std@@@std@@SAXAAV?$allocator@D@1@PAPADAAPAD@Z ; std::allocator_traits<std::allocator<char> >::construct<char *,char * &>
	add	esp, 12					; 0000000cH

; 873  : 		}

	pop	edi
	pop	esi
	pop	ebx
	add	esp, 204				; 000000ccH
	cmp	ebp, esp
	call	__RTC_CheckEsp
	mov	esp, ebp
	pop	ebp
	ret	8
??$construct@PADAAPAD@?$_Wrap_alloc@V?$allocator@D@std@@@std@@QAEXPAPADAAPAD@Z ENDP ; std::_Wrap_alloc<std::allocator<char> >::construct<char *,char * &>
_TEXT	ENDS
; Function compile flags: /Odtp /RTCsu /ZI
; File c:\users\simon\documents\github\uclan-sparta\import\math\cmatrix4x4.cpp
;	COMDAT ??__E?kIdentity@CMatrix4x4@gen@@2V12@B@@YAXXZ
text$di	SEGMENT
??__E?kIdentity@CMatrix4x4@gen@@2V12@B@@YAXXZ PROC	; `dynamic initializer for 'gen::CMatrix4x4::kIdentity'', COMDAT

; 3347 :                                        0.0f, 0.0f, 0.0f, 1.0f);

	push	ebp
	mov	ebp, esp
	sub	esp, 192				; 000000c0H
	push	ebx
	push	esi
	push	edi
	lea	edi, DWORD PTR [ebp-192]
	mov	ecx, 48					; 00000030H
	mov	eax, -858993460				; ccccccccH
	rep stosd
	push	ecx
	movss	xmm0, DWORD PTR __real@3f800000
	movss	DWORD PTR [esp], xmm0
	push	ecx
	movss	xmm0, DWORD PTR __real@00000000
	movss	DWORD PTR [esp], xmm0
	push	ecx
	movss	xmm0, DWORD PTR __real@00000000
	movss	DWORD PTR [esp], xmm0
	push	ecx
	movss	xmm0, DWORD PTR __real@00000000
	movss	DWORD PTR [esp], xmm0
	push	ecx
	movss	xmm0, DWORD PTR __real@00000000
	movss	DWORD PTR [esp], xmm0
	push	ecx
	movss	xmm0, DWORD PTR __real@3f800000
	movss	DWORD PTR [esp], xmm0
	push	ecx
	movss	xmm0, DWORD PTR __real@00000000
	movss	DWORD PTR [esp], xmm0
	push	ecx
	movss	xmm0, DWORD PTR __real@00000000
	movss	DWORD PTR [esp], xmm0
	push	ecx
	movss	xmm0, DWORD PTR __real@00000000
	movss	DWORD PTR [esp], xmm0
	push	ecx
	movss	xmm0, DWORD PTR __real@00000000
	movss	DWORD PTR [esp], xmm0
	push	ecx
	movss	xmm0, DWORD PTR __real@3f800000
	movss	DWORD PTR [esp], xmm0
	push	ecx
	movss	xmm0, DWORD PTR __real@00000000
	movss	DWORD PTR [esp], xmm0
	push	ecx
	movss	xmm0, DWORD PTR __real@00000000
	movss	DWORD PTR [esp], xmm0
	push	ecx
	movss	xmm0, DWORD PTR __real@00000000
	movss	DWORD PTR [esp], xmm0
	push	ecx
	movss	xmm0, DWORD PTR __real@00000000
	movss	DWORD PTR [esp], xmm0
	push	ecx
	movss	xmm0, DWORD PTR __real@3f800000
	movss	DWORD PTR [esp], xmm0
	mov	ecx, OFFSET ?kIdentity@CMatrix4x4@gen@@2V12@B ; gen::CMatrix4x4::kIdentity
	call	??0CMatrix4x4@gen@@QAE@MMMMMMMMMMMMMMMM@Z ; gen::CMatrix4x4::CMatrix4x4
	pop	edi
	pop	esi
	pop	ebx
	add	esp, 192				; 000000c0H
	cmp	ebp, esp
	call	__RTC_CheckEsp
	mov	esp, ebp
	pop	ebp
	ret	0
??__E?kIdentity@CMatrix4x4@gen@@2V12@B@@YAXXZ ENDP	; `dynamic initializer for 'gen::CMatrix4x4::kIdentity''
text$di	ENDS
; Function compile flags: /Odtp /RTCsu /ZI
; File c:\users\simon\documents\github\uclan-sparta\import\math\cvector4.h
;	COMDAT ??ACVector4@gen@@QBEABMI@Z
_TEXT	SEGMENT
_this$ = -8						; size = 4
_index$ = 8						; size = 4
??ACVector4@gen@@QBEABMI@Z PROC				; gen::CVector4::operator[], COMDAT
; _this$ = ecx

; 178  : 	{

	push	ebp
	mov	ebp, esp
	sub	esp, 204				; 000000ccH
	push	ebx
	push	esi
	push	edi
	push	ecx
	lea	edi, DWORD PTR [ebp-204]
	mov	ecx, 51					; 00000033H
	mov	eax, -858993460				; ccccccccH
	rep stosd
	pop	ecx
	mov	DWORD PTR _this$[ebp], ecx

; 179  : 		return (&x)[index];

	mov	eax, DWORD PTR _index$[ebp]
	mov	ecx, DWORD PTR _this$[ebp]
	lea	eax, DWORD PTR [ecx+eax*4]

; 180  : 	}

	pop	edi
	pop	esi
	pop	ebx
	mov	esp, ebp
	pop	ebp
	ret	4
??ACVector4@gen@@QBEABMI@Z ENDP				; gen::CVector4::operator[]
_TEXT	ENDS
; Function compile flags: /Odtp /RTCsu /ZI
; File c:\users\simon\documents\github\uclan-sparta\import\math\cvector4.h
;	COMDAT ??ACVector4@gen@@QAEAAMI@Z
_TEXT	SEGMENT
_this$ = -8						; size = 4
_index$ = 8						; size = 4
??ACVector4@gen@@QAEAAMI@Z PROC				; gen::CVector4::operator[], COMDAT
; _this$ = ecx

; 172  : 	{

	push	ebp
	mov	ebp, esp
	sub	esp, 204				; 000000ccH
	push	ebx
	push	esi
	push	edi
	push	ecx
	lea	edi, DWORD PTR [ebp-204]
	mov	ecx, 51					; 00000033H
	mov	eax, -858993460				; ccccccccH
	rep stosd
	pop	ecx
	mov	DWORD PTR _this$[ebp], ecx

; 173  : 		return (&x)[index];

	mov	eax, DWORD PTR _index$[ebp]
	mov	ecx, DWORD PTR _this$[ebp]
	lea	eax, DWORD PTR [ecx+eax*4]

; 174  : 	}

	pop	edi
	pop	esi
	pop	ebx
	mov	esp, ebp
	pop	ebp
	ret	4
??ACVector4@gen@@QAEAAMI@Z ENDP				; gen::CVector4::operator[]
_TEXT	ENDS
; Function compile flags: /Odtp /RTCsu /ZI
; File c:\users\simon\documents\github\uclan-sparta\import\math\cvector4.h
;	COMDAT ??0CVector4@gen@@QAE@ABV01@@Z
_TEXT	SEGMENT
_this$ = -8						; size = 4
_v$ = 8							; size = 4
??0CVector4@gen@@QAE@ABV01@@Z PROC			; gen::CVector4::CVector4, COMDAT
; _this$ = ecx

; 101  : 	{}

	push	ebp
	mov	ebp, esp
	sub	esp, 204				; 000000ccH
	push	ebx
	push	esi
	push	edi
	push	ecx
	lea	edi, DWORD PTR [ebp-204]
	mov	ecx, 51					; 00000033H
	mov	eax, -858993460				; ccccccccH
	rep stosd
	pop	ecx
	mov	DWORD PTR _this$[ebp], ecx
	mov	eax, DWORD PTR _this$[ebp]
	mov	ecx, DWORD PTR _v$[ebp]
	mov	edx, DWORD PTR [ecx]
	mov	DWORD PTR [eax], edx
	mov	eax, DWORD PTR _this$[ebp]
	mov	ecx, DWORD PTR _v$[ebp]
	mov	edx, DWORD PTR [ecx+4]
	mov	DWORD PTR [eax+4], edx
	mov	eax, DWORD PTR _this$[ebp]
	mov	ecx, DWORD PTR _v$[ebp]
	mov	edx, DWORD PTR [ecx+8]
	mov	DWORD PTR [eax+8], edx
	mov	eax, DWORD PTR _this$[ebp]
	mov	ecx, DWORD PTR _v$[ebp]
	mov	edx, DWORD PTR [ecx+12]
	mov	DWORD PTR [eax+12], edx
	mov	eax, DWORD PTR _this$[ebp]
	pop	edi
	pop	esi
	pop	ebx
	mov	esp, ebp
	pop	ebp
	ret	4
??0CVector4@gen@@QAE@ABV01@@Z ENDP			; gen::CVector4::CVector4
_TEXT	ENDS
; Function compile flags: /Odtp /RTCsu /ZI
; File c:\users\simon\documents\github\uclan-sparta\import\math\cvector4.h
;	COMDAT ??0CVector4@gen@@QAE@PBM@Z
_TEXT	SEGMENT
$T2 = -520						; size = 88
$T3 = -424						; size = 88
$T4 = -328						; size = 88
_e$5 = -40						; size = 4
_this$ = -28						; size = 4
__$ArrayPad$ = -20					; size = 4
__$EHRec$ = -16						; size = 16
_pfElts$ = 8						; size = 4
??0CVector4@gen@@QAE@PBM@Z PROC				; gen::CVector4::CVector4, COMDAT
; _this$ = ecx

; 52   : 	explicit CVector4( const TFloat32* pfElts )

	push	ebp
	mov	ebp, esp
	push	-1
	push	__ehhandler$??0CVector4@gen@@QAE@PBM@Z
	mov	eax, DWORD PTR fs:0
	push	eax
	push	ecx
	sub	esp, 508				; 000001fcH
	push	ebx
	push	esi
	push	edi
	push	ecx
	lea	edi, DWORD PTR [ebp-524]
	mov	ecx, 127				; 0000007fH
	mov	eax, -858993460				; ccccccccH
	rep stosd
	pop	ecx
	mov	eax, DWORD PTR ___security_cookie
	xor	eax, ebp
	mov	DWORD PTR __$ArrayPad$[ebp], eax
	push	eax
	lea	eax, DWORD PTR __$EHRec$[ebp+4]
	mov	DWORD PTR fs:0, eax
	mov	DWORD PTR __$EHRec$[ebp], esp
	mov	DWORD PTR _this$[ebp], ecx

; 53   : 	{
; 54   : 		GEN_GUARD_OPT;

	mov	DWORD PTR __$EHRec$[ebp+12], 0

; 55   : 		GEN_ASSERT_OPT( pfElts, "Invalid parameter" );

	cmp	DWORD PTR _pfElts$[ebp], 0
	jne	SHORT $LN1@CVector4
	push	55					; 00000037H
	push	OFFSET ??_C@_0EE@NIOAKDJB@c?3?2users?2simon?2documents?2github?2@
	push	OFFSET ??_C@_0BC@DBAKKFEN@Invalid?5parameter?$AA@
	lea	ecx, DWORD PTR $T2[ebp]
	call	??0CFatalException@gen@@QAE@PBD0H@Z	; gen::CFatalException::CFatalException
	push	OFFSET __TI1?AVCFatalException@gen@@
	lea	eax, DWORD PTR $T2[ebp]
	push	eax
	call	__CxxThrowException@8
$LN1@CVector4:

; 56   : 
; 57   : 		x = pfElts[0];

	mov	eax, 4
	imul	ecx, eax, 0
	mov	edx, DWORD PTR _this$[ebp]
	mov	eax, DWORD PTR _pfElts$[ebp]
	mov	ecx, DWORD PTR [eax+ecx]
	mov	DWORD PTR [edx], ecx

; 58   : 		y = pfElts[1];

	mov	eax, 4
	shl	eax, 0
	mov	ecx, DWORD PTR _this$[ebp]
	mov	edx, DWORD PTR _pfElts$[ebp]
	mov	eax, DWORD PTR [edx+eax]
	mov	DWORD PTR [ecx+4], eax

; 59   : 		z = pfElts[2];

	mov	eax, 4
	shl	eax, 1
	mov	ecx, DWORD PTR _this$[ebp]
	mov	edx, DWORD PTR _pfElts$[ebp]
	mov	eax, DWORD PTR [edx+eax]
	mov	DWORD PTR [ecx+8], eax

; 60   : 		w = pfElts[3];

	mov	eax, 4
	imul	ecx, eax, 3
	mov	edx, DWORD PTR _this$[ebp]
	mov	eax, DWORD PTR _pfElts$[ebp]
	mov	ecx, DWORD PTR [eax+ecx]
	mov	DWORD PTR [edx+12], ecx
	jmp	SHORT $LN5@CVector4
__catch$??0CVector4@gen@@QAE@PBM@Z$0:

; 61   : 
; 62   : 		GEN_ENDGUARD_OPT;

	push	0
	call	?ObjectName@gen@@YAPBDXZ		; gen::ObjectName
	push	eax
	push	OFFSET ??_C@_0BI@HNLOPNMD@gen?3?3CVector4?3?3CVector4?$AA@
	mov	ecx, DWORD PTR _e$5[ebp]
	call	?AppendToCallStack@CFatalException@gen@@QAEXPBD0_N@Z ; gen::CFatalException::AppendToCallStack
	mov	eax, DWORD PTR _e$5[ebp]
	push	eax
	lea	ecx, DWORD PTR $T3[ebp]
	call	??0CFatalException@gen@@QAE@ABV01@@Z
	push	OFFSET __TI1?AVCFatalException@gen@@
	lea	ecx, DWORD PTR $T3[ebp]
	push	ecx
	call	__CxxThrowException@8
	mov	eax, $LN9@CVector4
	ret	0
__catch$??0CVector4@gen@@QAE@PBM@Z$1:
	call	?ObjectName@gen@@YAPBDXZ		; gen::ObjectName
	push	eax
	push	OFFSET ??_C@_0BI@HNLOPNMD@gen?3?3CVector4?3?3CVector4?$AA@
	push	OFFSET ??_C@_0EE@NIOAKDJB@c?3?2users?2simon?2documents?2github?2@
	lea	ecx, DWORD PTR $T4[ebp]
	call	??0CFatalException@gen@@QAE@PBD00@Z	; gen::CFatalException::CFatalException
	push	OFFSET __TI1?AVCFatalException@gen@@
	lea	eax, DWORD PTR $T4[ebp]
	push	eax
	call	__CxxThrowException@8
	mov	eax, $LN11@CVector4
	ret	0
$LN5@CVector4:
	mov	DWORD PTR __$EHRec$[ebp+12], -1
	jmp	SHORT $LN10@CVector4
$LN11@CVector4:
	mov	DWORD PTR __$EHRec$[ebp+12], -1
	jmp	SHORT $LN8@CVector4
$LN10@CVector4:
	jmp	SHORT $LN8@CVector4
$LN9@CVector4:
	mov	DWORD PTR __$EHRec$[ebp+12], -1
$LN8@CVector4:

; 63   : 	}

	mov	eax, DWORD PTR _this$[ebp]
$LN4@CVector4:
	push	edx
	mov	ecx, ebp
	push	eax
	lea	edx, DWORD PTR $LN15@CVector4
	call	@_RTC_CheckStackVars@8
	pop	eax
	pop	edx
	mov	ecx, DWORD PTR __$EHRec$[ebp+4]
	mov	DWORD PTR fs:0, ecx
	pop	ecx
	pop	edi
	pop	esi
	pop	ebx
	mov	ecx, DWORD PTR __$ArrayPad$[ebp]
	xor	ecx, ebp
	call	@__security_check_cookie@4
	add	esp, 524				; 0000020cH
	cmp	ebp, esp
	call	__RTC_CheckEsp
	mov	esp, ebp
	pop	ebp
	ret	4
	npad	3
$LN15@CVector4:
	DD	1
	DD	$LN14@CVector4
$LN14@CVector4:
	DD	-40					; ffffffd8H
	DD	4
	DD	$LN12@CVector4
$LN12@CVector4:
	DB	101					; 00000065H
	DB	0
_TEXT	ENDS
;	COMDAT text$x
text$x	SEGMENT
__ehhandler$??0CVector4@gen@@QAE@PBM@Z:
	mov	edx, DWORD PTR [esp+8]
	lea	eax, DWORD PTR [edx+12]
	mov	ecx, DWORD PTR [edx-528]
	xor	ecx, eax
	call	@__security_check_cookie@4
	mov	ecx, DWORD PTR [edx-8]
	xor	ecx, eax
	call	@__security_check_cookie@4
	mov	eax, OFFSET __ehfuncinfo$??0CVector4@gen@@QAE@PBM@Z
	jmp	___CxxFrameHandler3
text$x	ENDS
??0CVector4@gen@@QAE@PBM@Z ENDP				; gen::CVector4::CVector4
; Function compile flags: /Odtp /RTCsu /ZI
; File c:\users\simon\documents\github\uclan-sparta\import\math\cvector4.h
;	COMDAT ??0CVector4@gen@@QAE@MMMM@Z
_TEXT	SEGMENT
_this$ = -8						; size = 4
_xIn$ = 8						; size = 4
_yIn$ = 12						; size = 4
_zIn$ = 16						; size = 4
_wIn$ = 20						; size = 4
??0CVector4@gen@@QAE@MMMM@Z PROC			; gen::CVector4::CVector4, COMDAT
; _this$ = ecx

; 49   : 	{}

	push	ebp
	mov	ebp, esp
	sub	esp, 204				; 000000ccH
	push	ebx
	push	esi
	push	edi
	push	ecx
	lea	edi, DWORD PTR [ebp-204]
	mov	ecx, 51					; 00000033H
	mov	eax, -858993460				; ccccccccH
	rep stosd
	pop	ecx
	mov	DWORD PTR _this$[ebp], ecx
	mov	eax, DWORD PTR _this$[ebp]
	movss	xmm0, DWORD PTR _xIn$[ebp]
	movss	DWORD PTR [eax], xmm0
	mov	eax, DWORD PTR _this$[ebp]
	movss	xmm0, DWORD PTR _yIn$[ebp]
	movss	DWORD PTR [eax+4], xmm0
	mov	eax, DWORD PTR _this$[ebp]
	movss	xmm0, DWORD PTR _zIn$[ebp]
	movss	DWORD PTR [eax+8], xmm0
	mov	eax, DWORD PTR _this$[ebp]
	movss	xmm0, DWORD PTR _wIn$[ebp]
	movss	DWORD PTR [eax+12], xmm0
	mov	eax, DWORD PTR _this$[ebp]
	pop	edi
	pop	esi
	pop	ebx
	mov	esp, ebp
	pop	ebp
	ret	16					; 00000010H
??0CVector4@gen@@QAE@MMMM@Z ENDP			; gen::CVector4::CVector4
_TEXT	ENDS
; Function compile flags: /Odtp /RTCsu /ZI
; File c:\users\simon\documents\github\uclan-sparta\import\math\cvector4.h
;	COMDAT ??0CVector4@gen@@QAE@XZ
_TEXT	SEGMENT
_this$ = -8						; size = 4
??0CVector4@gen@@QAE@XZ PROC				; gen::CVector4::CVector4, COMDAT
; _this$ = ecx

; 39   : 	CVector4() {}

	push	ebp
	mov	ebp, esp
	sub	esp, 204				; 000000ccH
	push	ebx
	push	esi
	push	edi
	push	ecx
	lea	edi, DWORD PTR [ebp-204]
	mov	ecx, 51					; 00000033H
	mov	eax, -858993460				; ccccccccH
	rep stosd
	pop	ecx
	mov	DWORD PTR _this$[ebp], ecx
	mov	eax, DWORD PTR _this$[ebp]
	pop	edi
	pop	esi
	pop	ebx
	mov	esp, ebp
	pop	ebp
	ret	0
??0CVector4@gen@@QAE@XZ ENDP				; gen::CVector4::CVector4
_TEXT	ENDS
; Function compile flags: /Odtp /RTCsu /ZI
; File c:\users\simon\documents\github\uclan-sparta\import\math\cmatrix4x4.cpp
;	COMDAT ?MatrixFaceDirection@gen@@YA?AVCMatrix4x4@1@ABVCVector3@1@00_N@Z
_TEXT	SEGMENT
$T1 = -428						; size = 12
$T2 = -408						; size = 12
$T3 = -388						; size = 12
$T4 = -368						; size = 12
$T5 = -348						; size = 12
$T6 = -328						; size = 12
$T7 = -308						; size = 12
$T8 = -288						; size = 12
$T9 = -268						; size = 12
_axisZ$ = -56						; size = 12
_axisY$ = -36						; size = 12
_axisX$ = -16						; size = 12
___$ReturnUdt$ = 8					; size = 4
_position$ = 12						; size = 4
_direction$ = 16					; size = 4
_up$ = 20						; size = 4
_bLH$ = 24						; size = 1
?MatrixFaceDirection@gen@@YA?AVCMatrix4x4@1@ABVCVector3@1@00_N@Z PROC ; gen::MatrixFaceDirection, COMDAT

; 2894 : {

	push	ebp
	mov	ebp, esp
	sub	esp, 432				; 000001b0H
	push	ebx
	push	esi
	push	edi
	lea	edi, DWORD PTR [ebp-432]
	mov	ecx, 108				; 0000006cH
	mov	eax, -858993460				; ccccccccH
	rep stosd

; 2895 : 	// Use cross product of target direction and up vector to give third axis, then orthogonalise
; 2896 : 	CVector3 axisX, axisY, axisZ;

	lea	ecx, DWORD PTR _axisX$[ebp]
	call	??0CVector3@gen@@QAE@XZ			; gen::CVector3::CVector3
	lea	ecx, DWORD PTR _axisY$[ebp]
	call	??0CVector3@gen@@QAE@XZ			; gen::CVector3::CVector3
	lea	ecx, DWORD PTR _axisZ$[ebp]
	call	??0CVector3@gen@@QAE@XZ			; gen::CVector3::CVector3

; 2897 : 	if (bLH)

	movzx	eax, BYTE PTR _bLH$[ebp]
	test	eax, eax
	je	$LN6@MatrixFace

; 2898 : 	{
; 2899 : 		axisZ = Normalise( direction );

	mov	eax, DWORD PTR _direction$[ebp]
	push	eax
	lea	ecx, DWORD PTR $T1[ebp]
	push	ecx
	call	?Normalise@gen@@YA?AVCVector3@1@ABV21@@Z ; gen::Normalise
	add	esp, 8
	push	eax
	lea	ecx, DWORD PTR _axisZ$[ebp]
	call	??4CVector3@gen@@QAEAAV01@ABV01@@Z	; gen::CVector3::operator=

; 2900 : 		if (axisZ.IsZero()) return CMatrix4x4( position );

	lea	ecx, DWORD PTR _axisZ$[ebp]
	call	?IsZero@CVector3@gen@@QBE_NXZ		; gen::CVector3::IsZero
	movzx	eax, al
	test	eax, eax
	je	SHORT $LN5@MatrixFace
	mov	eax, DWORD PTR _position$[ebp]
	push	eax
	mov	ecx, DWORD PTR ___$ReturnUdt$[ebp]
	call	??0CMatrix4x4@gen@@QAE@ABVCVector3@1@@Z	; gen::CMatrix4x4::CMatrix4x4
	mov	eax, DWORD PTR ___$ReturnUdt$[ebp]
	jmp	$LN7@MatrixFace
$LN5@MatrixFace:

; 2901 : 		axisX = Normalise( Cross( up, axisZ ) );

	lea	eax, DWORD PTR _axisZ$[ebp]
	push	eax
	mov	ecx, DWORD PTR _up$[ebp]
	push	ecx
	lea	edx, DWORD PTR $T2[ebp]
	push	edx
	call	?Cross@gen@@YA?AVCVector3@1@ABV21@0@Z	; gen::Cross
	add	esp, 12					; 0000000cH
	push	eax
	lea	eax, DWORD PTR $T3[ebp]
	push	eax
	call	?Normalise@gen@@YA?AVCVector3@1@ABV21@@Z ; gen::Normalise
	add	esp, 8
	push	eax
	lea	ecx, DWORD PTR _axisX$[ebp]
	call	??4CVector3@gen@@QAEAAV01@ABV01@@Z	; gen::CVector3::operator=

; 2902 : 		if (axisX.IsZero()) return CMatrix4x4( position );

	lea	ecx, DWORD PTR _axisX$[ebp]
	call	?IsZero@CVector3@gen@@QBE_NXZ		; gen::CVector3::IsZero
	movzx	eax, al
	test	eax, eax
	je	SHORT $LN4@MatrixFace
	mov	eax, DWORD PTR _position$[ebp]
	push	eax
	mov	ecx, DWORD PTR ___$ReturnUdt$[ebp]
	call	??0CMatrix4x4@gen@@QAE@ABVCVector3@1@@Z	; gen::CMatrix4x4::CMatrix4x4
	mov	eax, DWORD PTR ___$ReturnUdt$[ebp]
	jmp	$LN7@MatrixFace
$LN4@MatrixFace:

; 2903 : 		axisY = Cross( axisZ, axisX ); // Will already be normalised

	lea	eax, DWORD PTR _axisX$[ebp]
	push	eax
	lea	ecx, DWORD PTR _axisZ$[ebp]
	push	ecx
	lea	edx, DWORD PTR $T4[ebp]
	push	edx
	call	?Cross@gen@@YA?AVCVector3@1@ABV21@0@Z	; gen::Cross
	add	esp, 12					; 0000000cH
	push	eax
	lea	ecx, DWORD PTR _axisY$[ebp]
	call	??4CVector3@gen@@QAEAAV01@ABV01@@Z	; gen::CVector3::operator=

; 2904 : 	}
; 2905 : 	else

	jmp	$LN3@MatrixFace
$LN6@MatrixFace:

; 2906 : 	{
; 2907 : 		axisZ = Normalise( -direction );

	mov	eax, DWORD PTR _direction$[ebp]
	push	eax
	lea	ecx, DWORD PTR $T5[ebp]
	push	ecx
	call	??Ggen@@YA?AVCVector3@0@ABV10@@Z	; gen::operator-
	add	esp, 8
	push	eax
	lea	edx, DWORD PTR $T6[ebp]
	push	edx
	call	?Normalise@gen@@YA?AVCVector3@1@ABV21@@Z ; gen::Normalise
	add	esp, 8
	push	eax
	lea	ecx, DWORD PTR _axisZ$[ebp]
	call	??4CVector3@gen@@QAEAAV01@ABV01@@Z	; gen::CVector3::operator=

; 2908 : 		if (axisZ.IsZero()) return CMatrix4x4( position );

	lea	ecx, DWORD PTR _axisZ$[ebp]
	call	?IsZero@CVector3@gen@@QBE_NXZ		; gen::CVector3::IsZero
	movzx	eax, al
	test	eax, eax
	je	SHORT $LN2@MatrixFace
	mov	eax, DWORD PTR _position$[ebp]
	push	eax
	mov	ecx, DWORD PTR ___$ReturnUdt$[ebp]
	call	??0CMatrix4x4@gen@@QAE@ABVCVector3@1@@Z	; gen::CMatrix4x4::CMatrix4x4
	mov	eax, DWORD PTR ___$ReturnUdt$[ebp]
	jmp	$LN7@MatrixFace
$LN2@MatrixFace:

; 2909 : 		axisX = Normalise( Cross( axisZ, up ) );

	mov	eax, DWORD PTR _up$[ebp]
	push	eax
	lea	ecx, DWORD PTR _axisZ$[ebp]
	push	ecx
	lea	edx, DWORD PTR $T7[ebp]
	push	edx
	call	?Cross@gen@@YA?AVCVector3@1@ABV21@0@Z	; gen::Cross
	add	esp, 12					; 0000000cH
	push	eax
	lea	eax, DWORD PTR $T8[ebp]
	push	eax
	call	?Normalise@gen@@YA?AVCVector3@1@ABV21@@Z ; gen::Normalise
	add	esp, 8
	push	eax
	lea	ecx, DWORD PTR _axisX$[ebp]
	call	??4CVector3@gen@@QAEAAV01@ABV01@@Z	; gen::CVector3::operator=

; 2910 : 		if (axisX.IsZero()) return CMatrix4x4( position );

	lea	ecx, DWORD PTR _axisX$[ebp]
	call	?IsZero@CVector3@gen@@QBE_NXZ		; gen::CVector3::IsZero
	movzx	eax, al
	test	eax, eax
	je	SHORT $LN1@MatrixFace
	mov	eax, DWORD PTR _position$[ebp]
	push	eax
	mov	ecx, DWORD PTR ___$ReturnUdt$[ebp]
	call	??0CMatrix4x4@gen@@QAE@ABVCVector3@1@@Z	; gen::CMatrix4x4::CMatrix4x4
	mov	eax, DWORD PTR ___$ReturnUdt$[ebp]
	jmp	SHORT $LN7@MatrixFace
$LN1@MatrixFace:

; 2911 : 		axisY = Cross( axisX, axisZ ); // Will already be normalised

	lea	eax, DWORD PTR _axisZ$[ebp]
	push	eax
	lea	ecx, DWORD PTR _axisX$[ebp]
	push	ecx
	lea	edx, DWORD PTR $T9[ebp]
	push	edx
	call	?Cross@gen@@YA?AVCVector3@1@ABV21@0@Z	; gen::Cross
	add	esp, 12					; 0000000cH
	push	eax
	lea	ecx, DWORD PTR _axisY$[ebp]
	call	??4CVector3@gen@@QAEAAV01@ABV01@@Z	; gen::CVector3::operator=
$LN3@MatrixFace:

; 2912 : 	}
; 2913 : 	
; 2914 : 	return CMatrix4x4( axisX, axisY, axisZ, position );

	push	1
	mov	eax, DWORD PTR _position$[ebp]
	push	eax
	lea	ecx, DWORD PTR _axisZ$[ebp]
	push	ecx
	lea	edx, DWORD PTR _axisY$[ebp]
	push	edx
	lea	eax, DWORD PTR _axisX$[ebp]
	push	eax
	mov	ecx, DWORD PTR ___$ReturnUdt$[ebp]
	call	??0CMatrix4x4@gen@@QAE@ABVCVector3@1@000_N@Z ; gen::CMatrix4x4::CMatrix4x4
	mov	eax, DWORD PTR ___$ReturnUdt$[ebp]
$LN7@MatrixFace:

; 2915 : }

	push	edx
	mov	ecx, ebp
	push	eax
	lea	edx, DWORD PTR $LN13@MatrixFace
	call	@_RTC_CheckStackVars@8
	pop	eax
	pop	edx
	pop	edi
	pop	esi
	pop	ebx
	add	esp, 432				; 000001b0H
	cmp	ebp, esp
	call	__RTC_CheckEsp
	mov	esp, ebp
	pop	ebp
	ret	0
	npad	2
$LN13@MatrixFace:
	DD	3
	DD	$LN12@MatrixFace
$LN12@MatrixFace:
	DD	-16					; fffffff0H
	DD	12					; 0000000cH
	DD	$LN9@MatrixFace
	DD	-36					; ffffffdcH
	DD	12					; 0000000cH
	DD	$LN10@MatrixFace
	DD	-56					; ffffffc8H
	DD	12					; 0000000cH
	DD	$LN11@MatrixFace
$LN11@MatrixFace:
	DB	97					; 00000061H
	DB	120					; 00000078H
	DB	105					; 00000069H
	DB	115					; 00000073H
	DB	90					; 0000005aH
	DB	0
$LN10@MatrixFace:
	DB	97					; 00000061H
	DB	120					; 00000078H
	DB	105					; 00000069H
	DB	115					; 00000073H
	DB	89					; 00000059H
	DB	0
$LN9@MatrixFace:
	DB	97					; 00000061H
	DB	120					; 00000078H
	DB	105					; 00000069H
	DB	115					; 00000073H
	DB	88					; 00000058H
	DB	0
?MatrixFaceDirection@gen@@YA?AVCMatrix4x4@1@ABVCVector3@1@00_N@Z ENDP ; gen::MatrixFaceDirection
_TEXT	ENDS
; Function compile flags: /Odtp /RTCsu /ZI
; File c:\users\simon\documents\github\uclan-sparta\import\math\cmatrix4x4.cpp
;	COMDAT ?MatrixFaceTarget@gen@@YA?AVCMatrix4x4@1@ABVCVector3@1@00_N@Z
_TEXT	SEGMENT
$T1 = -448						; size = 12
$T2 = -428						; size = 12
$T3 = -408						; size = 12
$T4 = -388						; size = 12
$T5 = -368						; size = 12
$T6 = -348						; size = 12
$T7 = -328						; size = 12
$T8 = -308						; size = 12
$T9 = -288						; size = 12
$T10 = -268						; size = 12
_axisZ$ = -56						; size = 12
_axisY$ = -36						; size = 12
_axisX$ = -16						; size = 12
___$ReturnUdt$ = 8					; size = 4
_position$ = 12						; size = 4
_target$ = 16						; size = 4
_up$ = 20						; size = 4
_bLH$ = 24						; size = 1
?MatrixFaceTarget@gen@@YA?AVCMatrix4x4@1@ABVCVector3@1@00_N@Z PROC ; gen::MatrixFaceTarget, COMDAT

; 2822 : {

	push	ebp
	mov	ebp, esp
	sub	esp, 452				; 000001c4H
	push	ebx
	push	esi
	push	edi
	lea	edi, DWORD PTR [ebp-452]
	mov	ecx, 113				; 00000071H
	mov	eax, -858993460				; ccccccccH
	rep stosd

; 2823 : 	// Use cross product of target direction and up vector to give third axis, then orthogonalise
; 2824 : 	CVector3 axisX, axisY, axisZ;

	lea	ecx, DWORD PTR _axisX$[ebp]
	call	??0CVector3@gen@@QAE@XZ			; gen::CVector3::CVector3
	lea	ecx, DWORD PTR _axisY$[ebp]
	call	??0CVector3@gen@@QAE@XZ			; gen::CVector3::CVector3
	lea	ecx, DWORD PTR _axisZ$[ebp]
	call	??0CVector3@gen@@QAE@XZ			; gen::CVector3::CVector3

; 2825 : 	if (bLH)

	movzx	eax, BYTE PTR _bLH$[ebp]
	test	eax, eax
	je	$LN6@MatrixFace

; 2826 : 	{
; 2827 : 		axisZ = Normalise( target - position );

	mov	eax, DWORD PTR _position$[ebp]
	push	eax
	mov	ecx, DWORD PTR _target$[ebp]
	push	ecx
	lea	edx, DWORD PTR $T1[ebp]
	push	edx
	call	??Ggen@@YA?AVCVector3@0@ABV10@0@Z	; gen::operator-
	add	esp, 12					; 0000000cH
	push	eax
	lea	eax, DWORD PTR $T2[ebp]
	push	eax
	call	?Normalise@gen@@YA?AVCVector3@1@ABV21@@Z ; gen::Normalise
	add	esp, 8
	push	eax
	lea	ecx, DWORD PTR _axisZ$[ebp]
	call	??4CVector3@gen@@QAEAAV01@ABV01@@Z	; gen::CVector3::operator=

; 2828 : 		if (axisZ.IsZero()) return CMatrix4x4( position );

	lea	ecx, DWORD PTR _axisZ$[ebp]
	call	?IsZero@CVector3@gen@@QBE_NXZ		; gen::CVector3::IsZero
	movzx	eax, al
	test	eax, eax
	je	SHORT $LN5@MatrixFace
	mov	eax, DWORD PTR _position$[ebp]
	push	eax
	mov	ecx, DWORD PTR ___$ReturnUdt$[ebp]
	call	??0CMatrix4x4@gen@@QAE@ABVCVector3@1@@Z	; gen::CMatrix4x4::CMatrix4x4
	mov	eax, DWORD PTR ___$ReturnUdt$[ebp]
	jmp	$LN7@MatrixFace
$LN5@MatrixFace:

; 2829 : 		axisX = Normalise( Cross( up, axisZ ) );

	lea	eax, DWORD PTR _axisZ$[ebp]
	push	eax
	mov	ecx, DWORD PTR _up$[ebp]
	push	ecx
	lea	edx, DWORD PTR $T3[ebp]
	push	edx
	call	?Cross@gen@@YA?AVCVector3@1@ABV21@0@Z	; gen::Cross
	add	esp, 12					; 0000000cH
	push	eax
	lea	eax, DWORD PTR $T4[ebp]
	push	eax
	call	?Normalise@gen@@YA?AVCVector3@1@ABV21@@Z ; gen::Normalise
	add	esp, 8
	push	eax
	lea	ecx, DWORD PTR _axisX$[ebp]
	call	??4CVector3@gen@@QAEAAV01@ABV01@@Z	; gen::CVector3::operator=

; 2830 : 		if (axisX.IsZero()) return CMatrix4x4( position );

	lea	ecx, DWORD PTR _axisX$[ebp]
	call	?IsZero@CVector3@gen@@QBE_NXZ		; gen::CVector3::IsZero
	movzx	eax, al
	test	eax, eax
	je	SHORT $LN4@MatrixFace
	mov	eax, DWORD PTR _position$[ebp]
	push	eax
	mov	ecx, DWORD PTR ___$ReturnUdt$[ebp]
	call	??0CMatrix4x4@gen@@QAE@ABVCVector3@1@@Z	; gen::CMatrix4x4::CMatrix4x4
	mov	eax, DWORD PTR ___$ReturnUdt$[ebp]
	jmp	$LN7@MatrixFace
$LN4@MatrixFace:

; 2831 : 		axisY = Cross( axisZ, axisX ); // Will already be normalised

	lea	eax, DWORD PTR _axisX$[ebp]
	push	eax
	lea	ecx, DWORD PTR _axisZ$[ebp]
	push	ecx
	lea	edx, DWORD PTR $T5[ebp]
	push	edx
	call	?Cross@gen@@YA?AVCVector3@1@ABV21@0@Z	; gen::Cross
	add	esp, 12					; 0000000cH
	push	eax
	lea	ecx, DWORD PTR _axisY$[ebp]
	call	??4CVector3@gen@@QAEAAV01@ABV01@@Z	; gen::CVector3::operator=

; 2832 : 	}
; 2833 : 	else

	jmp	$LN3@MatrixFace
$LN6@MatrixFace:

; 2834 : 	{
; 2835 : 		axisZ = Normalise( position - target );

	mov	eax, DWORD PTR _target$[ebp]
	push	eax
	mov	ecx, DWORD PTR _position$[ebp]
	push	ecx
	lea	edx, DWORD PTR $T6[ebp]
	push	edx
	call	??Ggen@@YA?AVCVector3@0@ABV10@0@Z	; gen::operator-
	add	esp, 12					; 0000000cH
	push	eax
	lea	eax, DWORD PTR $T7[ebp]
	push	eax
	call	?Normalise@gen@@YA?AVCVector3@1@ABV21@@Z ; gen::Normalise
	add	esp, 8
	push	eax
	lea	ecx, DWORD PTR _axisZ$[ebp]
	call	??4CVector3@gen@@QAEAAV01@ABV01@@Z	; gen::CVector3::operator=

; 2836 : 		if (axisZ.IsZero()) return CMatrix4x4( position );

	lea	ecx, DWORD PTR _axisZ$[ebp]
	call	?IsZero@CVector3@gen@@QBE_NXZ		; gen::CVector3::IsZero
	movzx	eax, al
	test	eax, eax
	je	SHORT $LN2@MatrixFace
	mov	eax, DWORD PTR _position$[ebp]
	push	eax
	mov	ecx, DWORD PTR ___$ReturnUdt$[ebp]
	call	??0CMatrix4x4@gen@@QAE@ABVCVector3@1@@Z	; gen::CMatrix4x4::CMatrix4x4
	mov	eax, DWORD PTR ___$ReturnUdt$[ebp]
	jmp	$LN7@MatrixFace
$LN2@MatrixFace:

; 2837 : 		axisX = Normalise( Cross( axisZ, up ) );

	mov	eax, DWORD PTR _up$[ebp]
	push	eax
	lea	ecx, DWORD PTR _axisZ$[ebp]
	push	ecx
	lea	edx, DWORD PTR $T8[ebp]
	push	edx
	call	?Cross@gen@@YA?AVCVector3@1@ABV21@0@Z	; gen::Cross
	add	esp, 12					; 0000000cH
	push	eax
	lea	eax, DWORD PTR $T9[ebp]
	push	eax
	call	?Normalise@gen@@YA?AVCVector3@1@ABV21@@Z ; gen::Normalise
	add	esp, 8
	push	eax
	lea	ecx, DWORD PTR _axisX$[ebp]
	call	??4CVector3@gen@@QAEAAV01@ABV01@@Z	; gen::CVector3::operator=

; 2838 : 		if (axisX.IsZero()) return CMatrix4x4( position );

	lea	ecx, DWORD PTR _axisX$[ebp]
	call	?IsZero@CVector3@gen@@QBE_NXZ		; gen::CVector3::IsZero
	movzx	eax, al
	test	eax, eax
	je	SHORT $LN1@MatrixFace
	mov	eax, DWORD PTR _position$[ebp]
	push	eax
	mov	ecx, DWORD PTR ___$ReturnUdt$[ebp]
	call	??0CMatrix4x4@gen@@QAE@ABVCVector3@1@@Z	; gen::CMatrix4x4::CMatrix4x4
	mov	eax, DWORD PTR ___$ReturnUdt$[ebp]
	jmp	SHORT $LN7@MatrixFace
$LN1@MatrixFace:

; 2839 : 		axisY = Cross( axisX, axisZ ); // Will already be normalised

	lea	eax, DWORD PTR _axisZ$[ebp]
	push	eax
	lea	ecx, DWORD PTR _axisX$[ebp]
	push	ecx
	lea	edx, DWORD PTR $T10[ebp]
	push	edx
	call	?Cross@gen@@YA?AVCVector3@1@ABV21@0@Z	; gen::Cross
	add	esp, 12					; 0000000cH
	push	eax
	lea	ecx, DWORD PTR _axisY$[ebp]
	call	??4CVector3@gen@@QAEAAV01@ABV01@@Z	; gen::CVector3::operator=
$LN3@MatrixFace:

; 2840 : 	}
; 2841 : 	
; 2842 : 	return CMatrix4x4( axisX, axisY, axisZ, position );

	push	1
	mov	eax, DWORD PTR _position$[ebp]
	push	eax
	lea	ecx, DWORD PTR _axisZ$[ebp]
	push	ecx
	lea	edx, DWORD PTR _axisY$[ebp]
	push	edx
	lea	eax, DWORD PTR _axisX$[ebp]
	push	eax
	mov	ecx, DWORD PTR ___$ReturnUdt$[ebp]
	call	??0CMatrix4x4@gen@@QAE@ABVCVector3@1@000_N@Z ; gen::CMatrix4x4::CMatrix4x4
	mov	eax, DWORD PTR ___$ReturnUdt$[ebp]
$LN7@MatrixFace:

; 2843 : }

	push	edx
	mov	ecx, ebp
	push	eax
	lea	edx, DWORD PTR $LN13@MatrixFace
	call	@_RTC_CheckStackVars@8
	pop	eax
	pop	edx
	pop	edi
	pop	esi
	pop	ebx
	add	esp, 452				; 000001c4H
	cmp	ebp, esp
	call	__RTC_CheckEsp
	mov	esp, ebp
	pop	ebp
	ret	0
	npad	2
$LN13@MatrixFace:
	DD	3
	DD	$LN12@MatrixFace
$LN12@MatrixFace:
	DD	-16					; fffffff0H
	DD	12					; 0000000cH
	DD	$LN9@MatrixFace
	DD	-36					; ffffffdcH
	DD	12					; 0000000cH
	DD	$LN10@MatrixFace
	DD	-56					; ffffffc8H
	DD	12					; 0000000cH
	DD	$LN11@MatrixFace
$LN11@MatrixFace:
	DB	97					; 00000061H
	DB	120					; 00000078H
	DB	105					; 00000069H
	DB	115					; 00000073H
	DB	90					; 0000005aH
	DB	0
$LN10@MatrixFace:
	DB	97					; 00000061H
	DB	120					; 00000078H
	DB	105					; 00000069H
	DB	115					; 00000073H
	DB	89					; 00000059H
	DB	0
$LN9@MatrixFace:
	DB	97					; 00000061H
	DB	120					; 00000078H
	DB	105					; 00000069H
	DB	115					; 00000073H
	DB	88					; 00000058H
	DB	0
?MatrixFaceTarget@gen@@YA?AVCMatrix4x4@1@ABVCVector3@1@00_N@Z ENDP ; gen::MatrixFaceTarget
_TEXT	ENDS
; Function compile flags: /Odtp /RTCsu /ZI
; File c:\users\simon\documents\github\uclan-sparta\import\math\cmatrix4x4.cpp
;	COMDAT ?MatrixScaling@gen@@YA?AVCMatrix4x4@1@M@Z
_TEXT	SEGMENT
_m$ = -68						; size = 64
___$ReturnUdt$ = 8					; size = 4
_fScale$ = 12						; size = 4
?MatrixScaling@gen@@YA?AVCMatrix4x4@1@M@Z PROC		; gen::MatrixScaling, COMDAT

; 2743 : {

	push	ebp
	mov	ebp, esp
	sub	esp, 264				; 00000108H
	push	ebx
	push	esi
	push	edi
	lea	edi, DWORD PTR [ebp-264]
	mov	ecx, 66					; 00000042H
	mov	eax, -858993460				; ccccccccH
	rep stosd

; 2744 : 	CMatrix4x4 m;

	lea	ecx, DWORD PTR _m$[ebp]
	call	??0CMatrix4x4@gen@@QAE@XZ		; gen::CMatrix4x4::CMatrix4x4

; 2745 : 
; 2746 : 	m.e00 = fScale;

	movss	xmm0, DWORD PTR _fScale$[ebp]
	movss	DWORD PTR _m$[ebp], xmm0

; 2747 : 	m.e01 = 0.0f;

	movss	xmm0, DWORD PTR __real@00000000
	movss	DWORD PTR _m$[ebp+4], xmm0

; 2748 : 	m.e02 = 0.0f;

	movss	xmm0, DWORD PTR __real@00000000
	movss	DWORD PTR _m$[ebp+8], xmm0

; 2749 : 	m.e03 = 0.0f;

	movss	xmm0, DWORD PTR __real@00000000
	movss	DWORD PTR _m$[ebp+12], xmm0

; 2750 : 
; 2751 : 	m.e10 = 0.0f;

	movss	xmm0, DWORD PTR __real@00000000
	movss	DWORD PTR _m$[ebp+16], xmm0

; 2752 : 	m.e11 = fScale;

	movss	xmm0, DWORD PTR _fScale$[ebp]
	movss	DWORD PTR _m$[ebp+20], xmm0

; 2753 : 	m.e12 = 0.0f;

	movss	xmm0, DWORD PTR __real@00000000
	movss	DWORD PTR _m$[ebp+24], xmm0

; 2754 : 	m.e13 = 0.0f;

	movss	xmm0, DWORD PTR __real@00000000
	movss	DWORD PTR _m$[ebp+28], xmm0

; 2755 : 
; 2756 : 	m.e20 = 0.0f;

	movss	xmm0, DWORD PTR __real@00000000
	movss	DWORD PTR _m$[ebp+32], xmm0

; 2757 : 	m.e21 = 0.0f;

	movss	xmm0, DWORD PTR __real@00000000
	movss	DWORD PTR _m$[ebp+36], xmm0

; 2758 : 	m.e22 = fScale;

	movss	xmm0, DWORD PTR _fScale$[ebp]
	movss	DWORD PTR _m$[ebp+40], xmm0

; 2759 : 	m.e23 = 0.0f;

	movss	xmm0, DWORD PTR __real@00000000
	movss	DWORD PTR _m$[ebp+44], xmm0

; 2760 : 
; 2761 : 	m.e30 = 0.0f;

	movss	xmm0, DWORD PTR __real@00000000
	movss	DWORD PTR _m$[ebp+48], xmm0

; 2762 : 	m.e31 = 0.0f;

	movss	xmm0, DWORD PTR __real@00000000
	movss	DWORD PTR _m$[ebp+52], xmm0

; 2763 : 	m.e32 = 0.0f;

	movss	xmm0, DWORD PTR __real@00000000
	movss	DWORD PTR _m$[ebp+56], xmm0

; 2764 : 	m.e33 = 1.0f;

	movss	xmm0, DWORD PTR __real@3f800000
	movss	DWORD PTR _m$[ebp+60], xmm0

; 2765 : 
; 2766 : 	return m;

	lea	eax, DWORD PTR _m$[ebp]
	push	eax
	mov	ecx, DWORD PTR ___$ReturnUdt$[ebp]
	call	??0CMatrix4x4@gen@@QAE@ABV01@@Z		; gen::CMatrix4x4::CMatrix4x4
	mov	eax, DWORD PTR ___$ReturnUdt$[ebp]

; 2767 : }

	push	edx
	mov	ecx, ebp
	push	eax
	lea	edx, DWORD PTR $LN5@MatrixScal
	call	@_RTC_CheckStackVars@8
	pop	eax
	pop	edx
	pop	edi
	pop	esi
	pop	ebx
	add	esp, 264				; 00000108H
	cmp	ebp, esp
	call	__RTC_CheckEsp
	mov	esp, ebp
	pop	ebp
	ret	0
	npad	3
$LN5@MatrixScal:
	DD	1
	DD	$LN4@MatrixScal
$LN4@MatrixScal:
	DD	-68					; ffffffbcH
	DD	64					; 00000040H
	DD	$LN3@MatrixScal
$LN3@MatrixScal:
	DB	109					; 0000006dH
	DB	0
?MatrixScaling@gen@@YA?AVCMatrix4x4@1@M@Z ENDP		; gen::MatrixScaling
_TEXT	ENDS
; Function compile flags: /Odtp /RTCsu /ZI
; File c:\users\simon\documents\github\uclan-sparta\import\math\cmatrix4x4.cpp
;	COMDAT ?MatrixScaling@gen@@YA?AVCMatrix4x4@1@ABVCVector3@1@@Z
_TEXT	SEGMENT
_m$ = -68						; size = 64
___$ReturnUdt$ = 8					; size = 4
_scale$ = 12						; size = 4
?MatrixScaling@gen@@YA?AVCMatrix4x4@1@ABVCVector3@1@@Z PROC ; gen::MatrixScaling, COMDAT

; 2715 : {

	push	ebp
	mov	ebp, esp
	sub	esp, 264				; 00000108H
	push	ebx
	push	esi
	push	edi
	lea	edi, DWORD PTR [ebp-264]
	mov	ecx, 66					; 00000042H
	mov	eax, -858993460				; ccccccccH
	rep stosd

; 2716 : 	CMatrix4x4 m;

	lea	ecx, DWORD PTR _m$[ebp]
	call	??0CMatrix4x4@gen@@QAE@XZ		; gen::CMatrix4x4::CMatrix4x4

; 2717 : 
; 2718 : 	m.e00 = scale.x;

	mov	eax, DWORD PTR _scale$[ebp]
	movss	xmm0, DWORD PTR [eax]
	movss	DWORD PTR _m$[ebp], xmm0

; 2719 : 	m.e01 = 0.0f;

	movss	xmm0, DWORD PTR __real@00000000
	movss	DWORD PTR _m$[ebp+4], xmm0

; 2720 : 	m.e02 = 0.0f;

	movss	xmm0, DWORD PTR __real@00000000
	movss	DWORD PTR _m$[ebp+8], xmm0

; 2721 : 	m.e03 = 0.0f;

	movss	xmm0, DWORD PTR __real@00000000
	movss	DWORD PTR _m$[ebp+12], xmm0

; 2722 : 
; 2723 : 	m.e10 = 0.0f;

	movss	xmm0, DWORD PTR __real@00000000
	movss	DWORD PTR _m$[ebp+16], xmm0

; 2724 : 	m.e11 = scale.y;

	mov	eax, DWORD PTR _scale$[ebp]
	movss	xmm0, DWORD PTR [eax+4]
	movss	DWORD PTR _m$[ebp+20], xmm0

; 2725 : 	m.e12 = 0.0f;

	movss	xmm0, DWORD PTR __real@00000000
	movss	DWORD PTR _m$[ebp+24], xmm0

; 2726 : 	m.e13 = 0.0f;

	movss	xmm0, DWORD PTR __real@00000000
	movss	DWORD PTR _m$[ebp+28], xmm0

; 2727 : 
; 2728 : 	m.e20 = 0.0f;

	movss	xmm0, DWORD PTR __real@00000000
	movss	DWORD PTR _m$[ebp+32], xmm0

; 2729 : 	m.e21 = 0.0f;

	movss	xmm0, DWORD PTR __real@00000000
	movss	DWORD PTR _m$[ebp+36], xmm0

; 2730 : 	m.e22 = scale.z;

	mov	eax, DWORD PTR _scale$[ebp]
	movss	xmm0, DWORD PTR [eax+8]
	movss	DWORD PTR _m$[ebp+40], xmm0

; 2731 : 	m.e23 = 0.0f;

	movss	xmm0, DWORD PTR __real@00000000
	movss	DWORD PTR _m$[ebp+44], xmm0

; 2732 : 
; 2733 : 	m.e30 = 0.0f;

	movss	xmm0, DWORD PTR __real@00000000
	movss	DWORD PTR _m$[ebp+48], xmm0

; 2734 : 	m.e31 = 0.0f;

	movss	xmm0, DWORD PTR __real@00000000
	movss	DWORD PTR _m$[ebp+52], xmm0

; 2735 : 	m.e32 = 0.0f;

	movss	xmm0, DWORD PTR __real@00000000
	movss	DWORD PTR _m$[ebp+56], xmm0

; 2736 : 	m.e33 = 1.0f;

	movss	xmm0, DWORD PTR __real@3f800000
	movss	DWORD PTR _m$[ebp+60], xmm0

; 2737 : 
; 2738 : 	return m;

	lea	eax, DWORD PTR _m$[ebp]
	push	eax
	mov	ecx, DWORD PTR ___$ReturnUdt$[ebp]
	call	??0CMatrix4x4@gen@@QAE@ABV01@@Z		; gen::CMatrix4x4::CMatrix4x4
	mov	eax, DWORD PTR ___$ReturnUdt$[ebp]

; 2739 : }

	push	edx
	mov	ecx, ebp
	push	eax
	lea	edx, DWORD PTR $LN5@MatrixScal
	call	@_RTC_CheckStackVars@8
	pop	eax
	pop	edx
	pop	edi
	pop	esi
	pop	ebx
	add	esp, 264				; 00000108H
	cmp	ebp, esp
	call	__RTC_CheckEsp
	mov	esp, ebp
	pop	ebp
	ret	0
	npad	3
$LN5@MatrixScal:
	DD	1
	DD	$LN4@MatrixScal
$LN4@MatrixScal:
	DD	-68					; ffffffbcH
	DD	64					; 00000040H
	DD	$LN3@MatrixScal
$LN3@MatrixScal:
	DB	109					; 0000006dH
	DB	0
?MatrixScaling@gen@@YA?AVCMatrix4x4@1@ABVCVector3@1@@Z ENDP ; gen::MatrixScaling
_TEXT	ENDS
; Function compile flags: /Odtp /RTCsu /ZI
; File c:\users\simon\documents\github\uclan-sparta\import\math\cmatrix4x4.cpp
;	COMDAT ?MatrixRotation@gen@@YA?AVCMatrix4x4@1@ABVCVector3@1@M@Z
_TEXT	SEGMENT
tv187 = -749						; size = 1
$T2 = -744						; size = 88
$T3 = -648						; size = 88
$T4 = -552						; size = 88
_e$5 = -264						; size = 4
_tzx$6 = -252						; size = 4
_tyz$7 = -240						; size = 4
_txy$8 = -228						; size = 4
_tz$9 = -216						; size = 4
_ty$10 = -204						; size = 4
_tx$11 = -192						; size = 4
_sz$12 = -180						; size = 4
_sy$13 = -168						; size = 4
_sx$14 = -156						; size = 4
_axisNorm$15 = -144					; size = 12
_t$16 = -124						; size = 4
_c$17 = -112						; size = 4
_s$18 = -100						; size = 4
_m$19 = -88						; size = 64
__$ArrayPad$ = -20					; size = 4
__$EHRec$ = -16						; size = 16
___$ReturnUdt$ = 8					; size = 4
_axis$ = 12						; size = 4
_fAngle$ = 16						; size = 4
?MatrixRotation@gen@@YA?AVCMatrix4x4@1@ABVCVector3@1@M@Z PROC ; gen::MatrixRotation, COMDAT

; 2664 : {

	push	ebp
	mov	ebp, esp
	push	-1
	push	__ehhandler$?MatrixRotation@gen@@YA?AVCMatrix4x4@1@ABVCVector3@1@M@Z
	mov	eax, DWORD PTR fs:0
	push	eax
	push	ecx
	sub	esp, 736				; 000002e0H
	push	ebx
	push	esi
	push	edi
	lea	edi, DWORD PTR [ebp-752]
	mov	ecx, 184				; 000000b8H
	mov	eax, -858993460				; ccccccccH
	rep stosd
	mov	eax, DWORD PTR ___security_cookie
	xor	eax, ebp
	mov	DWORD PTR __$ArrayPad$[ebp], eax
	push	eax
	lea	eax, DWORD PTR __$EHRec$[ebp+4]
	mov	DWORD PTR fs:0, eax
	mov	DWORD PTR __$EHRec$[ebp], esp

; 2665 : 	GEN_GUARD;

	mov	DWORD PTR __$EHRec$[ebp+12], 0

; 2666 : 
; 2667 : 	CMatrix4x4 m;

	lea	ecx, DWORD PTR _m$19[ebp]
	call	??0CMatrix4x4@gen@@QAE@XZ		; gen::CMatrix4x4::CMatrix4x4

; 2668 : 
; 2669 : 	TFloat32 s, c;
; 2670 : 	SinCos( fAngle, &s, &c );

	lea	eax, DWORD PTR _c$17[ebp]
	push	eax
	lea	ecx, DWORD PTR _s$18[ebp]
	push	ecx
	push	ecx
	movss	xmm0, DWORD PTR _fAngle$[ebp]
	movss	DWORD PTR [esp], xmm0
	call	?SinCos@gen@@YAXMPAM0@Z			; gen::SinCos
	add	esp, 12					; 0000000cH

; 2671 : 	TFloat32 t = 1.0f - c;

	movss	xmm0, DWORD PTR __real@3f800000
	subss	xmm0, DWORD PTR _c$17[ebp]
	movss	DWORD PTR _t$16[ebp], xmm0

; 2672 : 
; 2673 : 	CVector3 axisNorm = Normalise( axis );

	mov	eax, DWORD PTR _axis$[ebp]
	push	eax
	lea	ecx, DWORD PTR _axisNorm$15[ebp]
	push	ecx
	call	?Normalise@gen@@YA?AVCVector3@1@ABV21@@Z ; gen::Normalise
	add	esp, 8

; 2674 : 	GEN_ASSERT( !axisNorm.IsZero(), "Zero length axis" );

	lea	ecx, DWORD PTR _axisNorm$15[ebp]
	call	?IsZero@CVector3@gen@@QBE_NXZ		; gen::CVector3::IsZero
	mov	BYTE PTR tv187[ebp], al
	movzx	eax, BYTE PTR tv187[ebp]
	test	eax, eax
	je	SHORT $LN1@MatrixRota
	mov	eax, DWORD PTR ?__LINE__Var@?1??MatrixRotation@gen@@YA?AVCMatrix4x4@2@ABVCVector3@2@M@Z@4JA
	add	eax, 10					; 0000000aH
	push	eax
	push	OFFSET ??_C@_0EI@POGHFJCD@c?3?2users?2simon?2documents?2github?2@
	push	OFFSET ??_C@_0BB@OPALDBID@Zero?5length?5axis?$AA@
	lea	ecx, DWORD PTR $T2[ebp]
	call	??0CFatalException@gen@@QAE@PBD0H@Z	; gen::CFatalException::CFatalException
	push	OFFSET __TI1?AVCFatalException@gen@@
	lea	ecx, DWORD PTR $T2[ebp]
	push	ecx
	call	__CxxThrowException@8
$LN1@MatrixRota:

; 2675 : 
; 2676 : 	TFloat32 sx = s * axisNorm.x;

	movss	xmm0, DWORD PTR _s$18[ebp]
	mulss	xmm0, DWORD PTR _axisNorm$15[ebp]
	movss	DWORD PTR _sx$14[ebp], xmm0

; 2677 : 	TFloat32 sy = s * axisNorm.y;

	movss	xmm0, DWORD PTR _s$18[ebp]
	mulss	xmm0, DWORD PTR _axisNorm$15[ebp+4]
	movss	DWORD PTR _sy$13[ebp], xmm0

; 2678 : 	TFloat32 sz = s * axisNorm.z;

	movss	xmm0, DWORD PTR _s$18[ebp]
	mulss	xmm0, DWORD PTR _axisNorm$15[ebp+8]
	movss	DWORD PTR _sz$12[ebp], xmm0

; 2679 : 	TFloat32 tx = t * axisNorm.x;  

	movss	xmm0, DWORD PTR _t$16[ebp]
	mulss	xmm0, DWORD PTR _axisNorm$15[ebp]
	movss	DWORD PTR _tx$11[ebp], xmm0

; 2680 : 	TFloat32 ty = t * axisNorm.y;

	movss	xmm0, DWORD PTR _t$16[ebp]
	mulss	xmm0, DWORD PTR _axisNorm$15[ebp+4]
	movss	DWORD PTR _ty$10[ebp], xmm0

; 2681 : 	TFloat32 tz = t * axisNorm.z;

	movss	xmm0, DWORD PTR _t$16[ebp]
	mulss	xmm0, DWORD PTR _axisNorm$15[ebp+8]
	movss	DWORD PTR _tz$9[ebp], xmm0

; 2682 : 	TFloat32 txy = ty * axisNorm.x;

	movss	xmm0, DWORD PTR _ty$10[ebp]
	mulss	xmm0, DWORD PTR _axisNorm$15[ebp]
	movss	DWORD PTR _txy$8[ebp], xmm0

; 2683 : 	TFloat32 tyz = tz * axisNorm.y;

	movss	xmm0, DWORD PTR _tz$9[ebp]
	mulss	xmm0, DWORD PTR _axisNorm$15[ebp+4]
	movss	DWORD PTR _tyz$7[ebp], xmm0

; 2684 : 	TFloat32 tzx = tx * axisNorm.z;

	movss	xmm0, DWORD PTR _tx$11[ebp]
	mulss	xmm0, DWORD PTR _axisNorm$15[ebp+8]
	movss	DWORD PTR _tzx$6[ebp], xmm0

; 2685 : 
; 2686 : 	m.e00 = tx * axisNorm.x + c;

	movss	xmm0, DWORD PTR _tx$11[ebp]
	mulss	xmm0, DWORD PTR _axisNorm$15[ebp]
	addss	xmm0, DWORD PTR _c$17[ebp]
	movss	DWORD PTR _m$19[ebp], xmm0

; 2687 : 	m.e01 = txy + sz;

	movss	xmm0, DWORD PTR _txy$8[ebp]
	addss	xmm0, DWORD PTR _sz$12[ebp]
	movss	DWORD PTR _m$19[ebp+4], xmm0

; 2688 : 	m.e02 = tzx - sy;

	movss	xmm0, DWORD PTR _tzx$6[ebp]
	subss	xmm0, DWORD PTR _sy$13[ebp]
	movss	DWORD PTR _m$19[ebp+8], xmm0

; 2689 : 	m.e03 = 0.0f;

	movss	xmm0, DWORD PTR __real@00000000
	movss	DWORD PTR _m$19[ebp+12], xmm0

; 2690 : 
; 2691 : 	m.e10 = txy - sz; 

	movss	xmm0, DWORD PTR _txy$8[ebp]
	subss	xmm0, DWORD PTR _sz$12[ebp]
	movss	DWORD PTR _m$19[ebp+16], xmm0

; 2692 : 	m.e11 = ty * axisNorm.y + c;

	movss	xmm0, DWORD PTR _ty$10[ebp]
	mulss	xmm0, DWORD PTR _axisNorm$15[ebp+4]
	addss	xmm0, DWORD PTR _c$17[ebp]
	movss	DWORD PTR _m$19[ebp+20], xmm0

; 2693 : 	m.e12 = tyz + sx;

	movss	xmm0, DWORD PTR _tyz$7[ebp]
	addss	xmm0, DWORD PTR _sx$14[ebp]
	movss	DWORD PTR _m$19[ebp+24], xmm0

; 2694 : 	m.e13 = 0.0f;

	movss	xmm0, DWORD PTR __real@00000000
	movss	DWORD PTR _m$19[ebp+28], xmm0

; 2695 : 
; 2696 : 	m.e20 = tzx + sy;

	movss	xmm0, DWORD PTR _tzx$6[ebp]
	addss	xmm0, DWORD PTR _sy$13[ebp]
	movss	DWORD PTR _m$19[ebp+32], xmm0

; 2697 : 	m.e21 = tyz - sx;

	movss	xmm0, DWORD PTR _tyz$7[ebp]
	subss	xmm0, DWORD PTR _sx$14[ebp]
	movss	DWORD PTR _m$19[ebp+36], xmm0

; 2698 : 	m.e22 = tz * axisNorm.z + c;

	movss	xmm0, DWORD PTR _tz$9[ebp]
	mulss	xmm0, DWORD PTR _axisNorm$15[ebp+8]
	addss	xmm0, DWORD PTR _c$17[ebp]
	movss	DWORD PTR _m$19[ebp+40], xmm0

; 2699 : 	m.e23 = 0.0f;

	movss	xmm0, DWORD PTR __real@00000000
	movss	DWORD PTR _m$19[ebp+44], xmm0

; 2700 : 
; 2701 : 	m.e30 = 0.0f;

	movss	xmm0, DWORD PTR __real@00000000
	movss	DWORD PTR _m$19[ebp+48], xmm0

; 2702 : 	m.e31 = 0.0f;

	movss	xmm0, DWORD PTR __real@00000000
	movss	DWORD PTR _m$19[ebp+52], xmm0

; 2703 : 	m.e32 = 0.0f;

	movss	xmm0, DWORD PTR __real@00000000
	movss	DWORD PTR _m$19[ebp+56], xmm0

; 2704 : 	m.e33 = 1.0f;

	movss	xmm0, DWORD PTR __real@3f800000
	movss	DWORD PTR _m$19[ebp+60], xmm0

; 2705 : 
; 2706 : 	return m;

	lea	eax, DWORD PTR _m$19[ebp]
	push	eax
	mov	ecx, DWORD PTR ___$ReturnUdt$[ebp]
	call	??0CMatrix4x4@gen@@QAE@ABV01@@Z		; gen::CMatrix4x4::CMatrix4x4
	mov	eax, DWORD PTR ___$ReturnUdt$[ebp]
	jmp	$LN8@MatrixRota
__catch$?MatrixRotation@gen@@YA?AVCMatrix4x4@1@ABVCVector3@1@M@Z$0:

; 2707 : 
; 2708 : 	GEN_ENDGUARD;

	push	0
	call	?ObjectName@gen@@YAPBDXZ		; gen::ObjectName
	push	eax
	push	OFFSET ??_C@_0BE@LMIKLAKG@gen?3?3MatrixRotation?$AA@
	mov	ecx, DWORD PTR _e$5[ebp]
	call	?AppendToCallStack@CFatalException@gen@@QAEXPBD0_N@Z ; gen::CFatalException::AppendToCallStack
	mov	eax, DWORD PTR _e$5[ebp]
	push	eax
	lea	ecx, DWORD PTR $T3[ebp]
	call	??0CFatalException@gen@@QAE@ABV01@@Z
	push	OFFSET __TI1?AVCFatalException@gen@@
	lea	ecx, DWORD PTR $T3[ebp]
	push	ecx
	call	__CxxThrowException@8
	mov	eax, $LN9@MatrixRota
	ret	0
__catch$?MatrixRotation@gen@@YA?AVCMatrix4x4@1@ABVCVector3@1@M@Z$1:
	call	?ObjectName@gen@@YAPBDXZ		; gen::ObjectName
	push	eax
	push	OFFSET ??_C@_0BE@LMIKLAKG@gen?3?3MatrixRotation?$AA@
	push	OFFSET ??_C@_0EI@POGHFJCD@c?3?2users?2simon?2documents?2github?2@
	lea	ecx, DWORD PTR $T4[ebp]
	call	??0CFatalException@gen@@QAE@PBD00@Z	; gen::CFatalException::CFatalException
	push	OFFSET __TI1?AVCFatalException@gen@@
	lea	eax, DWORD PTR $T4[ebp]
	push	eax
	call	__CxxThrowException@8
	mov	eax, $LN11@MatrixRota
	ret	0
	mov	DWORD PTR __$EHRec$[ebp+12], -1
	jmp	SHORT $LN10@MatrixRota
$LN11@MatrixRota:
	mov	DWORD PTR __$EHRec$[ebp+12], -1
	jmp	SHORT $LN8@MatrixRota
$LN10@MatrixRota:
	jmp	SHORT $LN8@MatrixRota
$LN9@MatrixRota:
	mov	DWORD PTR __$EHRec$[ebp+12], -1
$LN8@MatrixRota:

; 2709 : }

	push	edx
	mov	ecx, ebp
	push	eax
	lea	edx, DWORD PTR $LN19@MatrixRota
	call	@_RTC_CheckStackVars@8
	pop	eax
	pop	edx
	mov	ecx, DWORD PTR __$EHRec$[ebp+4]
	mov	DWORD PTR fs:0, ecx
	pop	ecx
	pop	edi
	pop	esi
	pop	ebx
	mov	ecx, DWORD PTR __$ArrayPad$[ebp]
	xor	ecx, ebp
	call	@__security_check_cookie@4
	add	esp, 752				; 000002f0H
	cmp	ebp, esp
	call	__RTC_CheckEsp
	mov	esp, ebp
	pop	ebp
	ret	0
	npad	1
$LN19@MatrixRota:
	DD	5
	DD	$LN18@MatrixRota
$LN18@MatrixRota:
	DD	-88					; ffffffa8H
	DD	64					; 00000040H
	DD	$LN12@MatrixRota
	DD	-100					; ffffff9cH
	DD	4
	DD	$LN13@MatrixRota
	DD	-112					; ffffff90H
	DD	4
	DD	$LN14@MatrixRota
	DD	-144					; ffffff70H
	DD	12					; 0000000cH
	DD	$LN15@MatrixRota
	DD	-264					; fffffef8H
	DD	4
	DD	$LN16@MatrixRota
$LN16@MatrixRota:
	DB	101					; 00000065H
	DB	0
$LN15@MatrixRota:
	DB	97					; 00000061H
	DB	120					; 00000078H
	DB	105					; 00000069H
	DB	115					; 00000073H
	DB	78					; 0000004eH
	DB	111					; 0000006fH
	DB	114					; 00000072H
	DB	109					; 0000006dH
	DB	0
$LN14@MatrixRota:
	DB	99					; 00000063H
	DB	0
$LN13@MatrixRota:
	DB	115					; 00000073H
	DB	0
$LN12@MatrixRota:
	DB	109					; 0000006dH
	DB	0
_TEXT	ENDS
;	COMDAT text$x
text$x	SEGMENT
__ehhandler$?MatrixRotation@gen@@YA?AVCMatrix4x4@1@ABVCVector3@1@M@Z:
	mov	edx, DWORD PTR [esp+8]
	lea	eax, DWORD PTR [edx+12]
	mov	ecx, DWORD PTR [edx-756]
	xor	ecx, eax
	call	@__security_check_cookie@4
	mov	ecx, DWORD PTR [edx-8]
	xor	ecx, eax
	call	@__security_check_cookie@4
	mov	eax, OFFSET __ehfuncinfo$?MatrixRotation@gen@@YA?AVCMatrix4x4@1@ABVCVector3@1@M@Z
	jmp	___CxxFrameHandler3
text$x	ENDS
?MatrixRotation@gen@@YA?AVCMatrix4x4@1@ABVCVector3@1@M@Z ENDP ; gen::MatrixRotation
; Function compile flags: /Odtp /RTCsu /ZI
; File c:\users\simon\documents\github\uclan-sparta\import\math\cmatrix4x4.cpp
;	COMDAT ?MatrixRotation@gen@@YA?AVCMatrix4x4@1@VCVector3@1@W4ERotationOrder@1@@Z
_TEXT	SEGMENT
tv74 = -660						; size = 4
$T2 = -652						; size = 88
$T3 = -556						; size = 88
$T4 = -460						; size = 88
_e$5 = -172						; size = 4
_cZ$6 = -160						; size = 4
_sZ$7 = -148						; size = 4
_cY$8 = -136						; size = 4
_sY$9 = -124						; size = 4
_cX$10 = -112						; size = 4
_sX$11 = -100						; size = 4
_m$12 = -88						; size = 64
__$ArrayPad$ = -20					; size = 4
__$EHRec$ = -16						; size = 16
___$ReturnUdt$ = 8					; size = 4
_angles$ = 12						; size = 12
_eRotOrder$ = 24					; size = 4
?MatrixRotation@gen@@YA?AVCMatrix4x4@1@VCVector3@1@W4ERotationOrder@1@@Z PROC ; gen::MatrixRotation, COMDAT

; 2527 : {

	push	ebp
	mov	ebp, esp
	push	-1
	push	__ehhandler$?MatrixRotation@gen@@YA?AVCMatrix4x4@1@VCVector3@1@W4ERotationOrder@1@@Z
	mov	eax, DWORD PTR fs:0
	push	eax
	push	ecx
	sub	esp, 644				; 00000284H
	push	ebx
	push	esi
	push	edi
	lea	edi, DWORD PTR [ebp-660]
	mov	ecx, 161				; 000000a1H
	mov	eax, -858993460				; ccccccccH
	rep stosd
	mov	eax, DWORD PTR ___security_cookie
	xor	eax, ebp
	mov	DWORD PTR __$ArrayPad$[ebp], eax
	push	eax
	lea	eax, DWORD PTR __$EHRec$[ebp+4]
	mov	DWORD PTR fs:0, eax
	mov	DWORD PTR __$EHRec$[ebp], esp

; 2528 : 	GEN_GUARD;

	mov	DWORD PTR __$EHRec$[ebp+12], 0

; 2529 : 
; 2530 : 	CMatrix4x4 m;

	lea	ecx, DWORD PTR _m$12[ebp]
	call	??0CMatrix4x4@gen@@QAE@XZ		; gen::CMatrix4x4::CMatrix4x4

; 2531 : 
; 2532 : 	TFloat32 sX, cX, sY, cY, sZ, cZ;
; 2533 : 	SinCos( angles.x, &sX, &cX );

	lea	eax, DWORD PTR _cX$10[ebp]
	push	eax
	lea	ecx, DWORD PTR _sX$11[ebp]
	push	ecx
	push	ecx
	movss	xmm0, DWORD PTR _angles$[ebp]
	movss	DWORD PTR [esp], xmm0
	call	?SinCos@gen@@YAXMPAM0@Z			; gen::SinCos
	add	esp, 12					; 0000000cH

; 2534 : 	SinCos( angles.y, &sY, &cY );

	lea	eax, DWORD PTR _cY$8[ebp]
	push	eax
	lea	ecx, DWORD PTR _sY$9[ebp]
	push	ecx
	push	ecx
	movss	xmm0, DWORD PTR _angles$[ebp+4]
	movss	DWORD PTR [esp], xmm0
	call	?SinCos@gen@@YAXMPAM0@Z			; gen::SinCos
	add	esp, 12					; 0000000cH

; 2535 : 	SinCos( angles.z, &sZ, &cZ );

	lea	eax, DWORD PTR _cZ$6[ebp]
	push	eax
	lea	ecx, DWORD PTR _sZ$7[ebp]
	push	ecx
	push	ecx
	movss	xmm0, DWORD PTR _angles$[ebp+8]
	movss	DWORD PTR [esp], xmm0
	call	?SinCos@gen@@YAXMPAM0@Z			; gen::SinCos
	add	esp, 12					; 0000000cH

; 2536 : 
; 2537 : 	switch (eRotOrder)

	mov	eax, DWORD PTR _eRotOrder$[ebp]
	mov	DWORD PTR tv74[ebp], eax
	cmp	DWORD PTR tv74[ebp], 5
	ja	$LN1@MatrixRota
	mov	ecx, DWORD PTR tv74[ebp]
	jmp	DWORD PTR $LN31@MatrixRota[ecx*4]
$LN7@MatrixRota:

; 2538 : 	{
; 2539 : 		case kZYX:
; 2540 : 		{
; 2541 : 			m.e00 = cZ * cY;

	movss	xmm0, DWORD PTR _cZ$6[ebp]
	mulss	xmm0, DWORD PTR _cY$8[ebp]
	movss	DWORD PTR _m$12[ebp], xmm0

; 2542 : 			m.e01 = sZ * cX + cZ * sY * sX;

	movss	xmm0, DWORD PTR _cZ$6[ebp]
	mulss	xmm0, DWORD PTR _sY$9[ebp]
	mulss	xmm0, DWORD PTR _sX$11[ebp]
	movss	xmm1, DWORD PTR _sZ$7[ebp]
	mulss	xmm1, DWORD PTR _cX$10[ebp]
	addss	xmm1, xmm0
	movss	DWORD PTR _m$12[ebp+4], xmm1

; 2543 : 			m.e02 = sZ * sX + -cZ * sY * cX;

	movss	xmm0, DWORD PTR _cZ$6[ebp]
	xorps	xmm0, DWORD PTR __xmm@80000000800000008000000080000000
	mulss	xmm0, DWORD PTR _sY$9[ebp]
	mulss	xmm0, DWORD PTR _cX$10[ebp]
	movss	xmm1, DWORD PTR _sZ$7[ebp]
	mulss	xmm1, DWORD PTR _sX$11[ebp]
	addss	xmm1, xmm0
	movss	DWORD PTR _m$12[ebp+8], xmm1

; 2544 : 			m.e03 = 0.0f;

	movss	xmm0, DWORD PTR __real@00000000
	movss	DWORD PTR _m$12[ebp+12], xmm0

; 2545 : 
; 2546 : 			m.e10 = -sZ * cY;

	movss	xmm0, DWORD PTR _sZ$7[ebp]
	xorps	xmm0, DWORD PTR __xmm@80000000800000008000000080000000
	mulss	xmm0, DWORD PTR _cY$8[ebp]
	movss	DWORD PTR _m$12[ebp+16], xmm0

; 2547 : 			m.e11 = cZ * cX + -sZ * sY * sX;

	movss	xmm0, DWORD PTR _sZ$7[ebp]
	xorps	xmm0, DWORD PTR __xmm@80000000800000008000000080000000
	mulss	xmm0, DWORD PTR _sY$9[ebp]
	mulss	xmm0, DWORD PTR _sX$11[ebp]
	movss	xmm1, DWORD PTR _cZ$6[ebp]
	mulss	xmm1, DWORD PTR _cX$10[ebp]
	addss	xmm1, xmm0
	movss	DWORD PTR _m$12[ebp+20], xmm1

; 2548 : 			m.e12 = cZ * sX + sZ * sY * cX;

	movss	xmm0, DWORD PTR _sZ$7[ebp]
	mulss	xmm0, DWORD PTR _sY$9[ebp]
	mulss	xmm0, DWORD PTR _cX$10[ebp]
	movss	xmm1, DWORD PTR _cZ$6[ebp]
	mulss	xmm1, DWORD PTR _sX$11[ebp]
	addss	xmm1, xmm0
	movss	DWORD PTR _m$12[ebp+24], xmm1

; 2549 : 			m.e13 = 0.0f;

	movss	xmm0, DWORD PTR __real@00000000
	movss	DWORD PTR _m$12[ebp+28], xmm0

; 2550 : 
; 2551 : 			m.e20 = sY;

	movss	xmm0, DWORD PTR _sY$9[ebp]
	movss	DWORD PTR _m$12[ebp+32], xmm0

; 2552 : 			m.e21 = -cY * sX;

	movss	xmm0, DWORD PTR _cY$8[ebp]
	xorps	xmm0, DWORD PTR __xmm@80000000800000008000000080000000
	mulss	xmm0, DWORD PTR _sX$11[ebp]
	movss	DWORD PTR _m$12[ebp+36], xmm0

; 2553 : 			m.e22 = cY * cX;

	movss	xmm0, DWORD PTR _cY$8[ebp]
	mulss	xmm0, DWORD PTR _cX$10[ebp]
	movss	DWORD PTR _m$12[ebp+40], xmm0

; 2554 : 			break;

	jmp	$LN8@MatrixRota
$LN6@MatrixRota:

; 2555 : 		}
; 2556 : 		case kYZX:
; 2557 : 		{
; 2558 : 			m.e00 = cY * cZ;

	movss	xmm0, DWORD PTR _cY$8[ebp]
	mulss	xmm0, DWORD PTR _cZ$6[ebp]
	movss	DWORD PTR _m$12[ebp], xmm0

; 2559 : 			m.e01 = cY * sZ * cX + sY * sX;

	movss	xmm0, DWORD PTR _sY$9[ebp]
	mulss	xmm0, DWORD PTR _sX$11[ebp]
	movss	xmm1, DWORD PTR _cY$8[ebp]
	mulss	xmm1, DWORD PTR _sZ$7[ebp]
	mulss	xmm1, DWORD PTR _cX$10[ebp]
	addss	xmm1, xmm0
	movss	DWORD PTR _m$12[ebp+4], xmm1

; 2560 : 			m.e02 = cY * sZ * sX + -sY * cX;

	movss	xmm0, DWORD PTR _sY$9[ebp]
	xorps	xmm0, DWORD PTR __xmm@80000000800000008000000080000000
	mulss	xmm0, DWORD PTR _cX$10[ebp]
	movss	xmm1, DWORD PTR _cY$8[ebp]
	mulss	xmm1, DWORD PTR _sZ$7[ebp]
	mulss	xmm1, DWORD PTR _sX$11[ebp]
	addss	xmm1, xmm0
	movss	DWORD PTR _m$12[ebp+8], xmm1

; 2561 : 			m.e03 = 0.0f;

	movss	xmm0, DWORD PTR __real@00000000
	movss	DWORD PTR _m$12[ebp+12], xmm0

; 2562 : 
; 2563 : 			m.e10 = -sZ;

	movss	xmm0, DWORD PTR _sZ$7[ebp]
	xorps	xmm0, DWORD PTR __xmm@80000000800000008000000080000000
	movss	DWORD PTR _m$12[ebp+16], xmm0

; 2564 : 			m.e11 = cZ * cX;

	movss	xmm0, DWORD PTR _cZ$6[ebp]
	mulss	xmm0, DWORD PTR _cX$10[ebp]
	movss	DWORD PTR _m$12[ebp+20], xmm0

; 2565 : 			m.e12 = cZ * sX;

	movss	xmm0, DWORD PTR _cZ$6[ebp]
	mulss	xmm0, DWORD PTR _sX$11[ebp]
	movss	DWORD PTR _m$12[ebp+24], xmm0

; 2566 : 			m.e13 = 0.0f;

	movss	xmm0, DWORD PTR __real@00000000
	movss	DWORD PTR _m$12[ebp+28], xmm0

; 2567 : 
; 2568 : 			m.e20 = sY * cZ;

	movss	xmm0, DWORD PTR _sY$9[ebp]
	mulss	xmm0, DWORD PTR _cZ$6[ebp]
	movss	DWORD PTR _m$12[ebp+32], xmm0

; 2569 : 			m.e21 = sY * sZ * cX + -cY * sX;

	movss	xmm0, DWORD PTR _cY$8[ebp]
	xorps	xmm0, DWORD PTR __xmm@80000000800000008000000080000000
	mulss	xmm0, DWORD PTR _sX$11[ebp]
	movss	xmm1, DWORD PTR _sY$9[ebp]
	mulss	xmm1, DWORD PTR _sZ$7[ebp]
	mulss	xmm1, DWORD PTR _cX$10[ebp]
	addss	xmm1, xmm0
	movss	DWORD PTR _m$12[ebp+36], xmm1

; 2570 : 			m.e22 = sY * sZ * sX + cY * cX;

	movss	xmm0, DWORD PTR _cY$8[ebp]
	mulss	xmm0, DWORD PTR _cX$10[ebp]
	movss	xmm1, DWORD PTR _sY$9[ebp]
	mulss	xmm1, DWORD PTR _sZ$7[ebp]
	mulss	xmm1, DWORD PTR _sX$11[ebp]
	addss	xmm1, xmm0
	movss	DWORD PTR _m$12[ebp+40], xmm1

; 2571 : 			break;

	jmp	$LN8@MatrixRota
$LN5@MatrixRota:

; 2572 : 		}
; 2573 : 		case kXZY:
; 2574 : 		{
; 2575 : 			m.e00 = cZ * cY;

	movss	xmm0, DWORD PTR _cZ$6[ebp]
	mulss	xmm0, DWORD PTR _cY$8[ebp]
	movss	DWORD PTR _m$12[ebp], xmm0

; 2576 : 			m.e01 = sZ;

	movss	xmm0, DWORD PTR _sZ$7[ebp]
	movss	DWORD PTR _m$12[ebp+4], xmm0

; 2577 : 			m.e02 = -cZ * sY;

	movss	xmm0, DWORD PTR _cZ$6[ebp]
	xorps	xmm0, DWORD PTR __xmm@80000000800000008000000080000000
	mulss	xmm0, DWORD PTR _sY$9[ebp]
	movss	DWORD PTR _m$12[ebp+8], xmm0

; 2578 : 			m.e03 = 0.0f;

	movss	xmm0, DWORD PTR __real@00000000
	movss	DWORD PTR _m$12[ebp+12], xmm0

; 2579 : 
; 2580 : 			m.e10 = -cX * sZ * cY + sX * sY;

	movss	xmm0, DWORD PTR _sX$11[ebp]
	mulss	xmm0, DWORD PTR _sY$9[ebp]
	movss	xmm1, DWORD PTR _cX$10[ebp]
	xorps	xmm1, DWORD PTR __xmm@80000000800000008000000080000000
	mulss	xmm1, DWORD PTR _sZ$7[ebp]
	mulss	xmm1, DWORD PTR _cY$8[ebp]
	addss	xmm1, xmm0
	movss	DWORD PTR _m$12[ebp+16], xmm1

; 2581 : 			m.e11 = cX * cZ;

	movss	xmm0, DWORD PTR _cX$10[ebp]
	mulss	xmm0, DWORD PTR _cZ$6[ebp]
	movss	DWORD PTR _m$12[ebp+20], xmm0

; 2582 : 			m.e12 = cX * sZ * sY + sX * cY;

	movss	xmm0, DWORD PTR _sX$11[ebp]
	mulss	xmm0, DWORD PTR _cY$8[ebp]
	movss	xmm1, DWORD PTR _cX$10[ebp]
	mulss	xmm1, DWORD PTR _sZ$7[ebp]
	mulss	xmm1, DWORD PTR _sY$9[ebp]
	addss	xmm1, xmm0
	movss	DWORD PTR _m$12[ebp+24], xmm1

; 2583 : 			m.e13 = 0.0f;

	movss	xmm0, DWORD PTR __real@00000000
	movss	DWORD PTR _m$12[ebp+28], xmm0

; 2584 : 
; 2585 : 			m.e20 = sX * sZ * cY + cX * sY;

	movss	xmm0, DWORD PTR _cX$10[ebp]
	mulss	xmm0, DWORD PTR _sY$9[ebp]
	movss	xmm1, DWORD PTR _sX$11[ebp]
	mulss	xmm1, DWORD PTR _sZ$7[ebp]
	mulss	xmm1, DWORD PTR _cY$8[ebp]
	addss	xmm1, xmm0
	movss	DWORD PTR _m$12[ebp+32], xmm1

; 2586 : 			m.e21 = -sX * cZ;

	movss	xmm0, DWORD PTR _sX$11[ebp]
	xorps	xmm0, DWORD PTR __xmm@80000000800000008000000080000000
	mulss	xmm0, DWORD PTR _cZ$6[ebp]
	movss	DWORD PTR _m$12[ebp+36], xmm0

; 2587 : 			m.e22 = -sX * sZ * sY + cX * cY;

	movss	xmm0, DWORD PTR _cX$10[ebp]
	mulss	xmm0, DWORD PTR _cY$8[ebp]
	movss	xmm1, DWORD PTR _sX$11[ebp]
	xorps	xmm1, DWORD PTR __xmm@80000000800000008000000080000000
	mulss	xmm1, DWORD PTR _sZ$7[ebp]
	mulss	xmm1, DWORD PTR _sY$9[ebp]
	addss	xmm1, xmm0
	movss	DWORD PTR _m$12[ebp+40], xmm1

; 2588 : 			break;

	jmp	$LN8@MatrixRota
$LN4@MatrixRota:

; 2589 : 		}
; 2590 : 		case kZXY:
; 2591 : 		{
; 2592 : 			m.e00 = cZ * cY + sZ * sX * sY;

	movss	xmm0, DWORD PTR _sZ$7[ebp]
	mulss	xmm0, DWORD PTR _sX$11[ebp]
	mulss	xmm0, DWORD PTR _sY$9[ebp]
	movss	xmm1, DWORD PTR _cZ$6[ebp]
	mulss	xmm1, DWORD PTR _cY$8[ebp]
	addss	xmm1, xmm0
	movss	DWORD PTR _m$12[ebp], xmm1

; 2593 : 			m.e01 = sZ * cX;

	movss	xmm0, DWORD PTR _sZ$7[ebp]
	mulss	xmm0, DWORD PTR _cX$10[ebp]
	movss	DWORD PTR _m$12[ebp+4], xmm0

; 2594 : 			m.e02 = -cZ * sY + sZ * sX * cY;

	movss	xmm0, DWORD PTR _sZ$7[ebp]
	mulss	xmm0, DWORD PTR _sX$11[ebp]
	mulss	xmm0, DWORD PTR _cY$8[ebp]
	movss	xmm1, DWORD PTR _cZ$6[ebp]
	xorps	xmm1, DWORD PTR __xmm@80000000800000008000000080000000
	mulss	xmm1, DWORD PTR _sY$9[ebp]
	addss	xmm1, xmm0
	movss	DWORD PTR _m$12[ebp+8], xmm1

; 2595 : 			m.e03 = 0.0f;

	movss	xmm0, DWORD PTR __real@00000000
	movss	DWORD PTR _m$12[ebp+12], xmm0

; 2596 : 
; 2597 : 			m.e10 = -sZ * cY + cZ * sX * sY;

	movss	xmm0, DWORD PTR _cZ$6[ebp]
	mulss	xmm0, DWORD PTR _sX$11[ebp]
	mulss	xmm0, DWORD PTR _sY$9[ebp]
	movss	xmm1, DWORD PTR _sZ$7[ebp]
	xorps	xmm1, DWORD PTR __xmm@80000000800000008000000080000000
	mulss	xmm1, DWORD PTR _cY$8[ebp]
	addss	xmm1, xmm0
	movss	DWORD PTR _m$12[ebp+16], xmm1

; 2598 : 			m.e11 = cZ * cX;

	movss	xmm0, DWORD PTR _cZ$6[ebp]
	mulss	xmm0, DWORD PTR _cX$10[ebp]
	movss	DWORD PTR _m$12[ebp+20], xmm0

; 2599 : 			m.e12 = sZ * sY + cZ * sX * cY;

	movss	xmm0, DWORD PTR _cZ$6[ebp]
	mulss	xmm0, DWORD PTR _sX$11[ebp]
	mulss	xmm0, DWORD PTR _cY$8[ebp]
	movss	xmm1, DWORD PTR _sZ$7[ebp]
	mulss	xmm1, DWORD PTR _sY$9[ebp]
	addss	xmm1, xmm0
	movss	DWORD PTR _m$12[ebp+24], xmm1

; 2600 : 			m.e13 = 0.0f;

	movss	xmm0, DWORD PTR __real@00000000
	movss	DWORD PTR _m$12[ebp+28], xmm0

; 2601 : 
; 2602 : 			m.e20 = cX * sY;

	movss	xmm0, DWORD PTR _cX$10[ebp]
	mulss	xmm0, DWORD PTR _sY$9[ebp]
	movss	DWORD PTR _m$12[ebp+32], xmm0

; 2603 : 			m.e21 = -sX;

	movss	xmm0, DWORD PTR _sX$11[ebp]
	xorps	xmm0, DWORD PTR __xmm@80000000800000008000000080000000
	movss	DWORD PTR _m$12[ebp+36], xmm0

; 2604 : 			m.e22 = cX * cY;

	movss	xmm0, DWORD PTR _cX$10[ebp]
	mulss	xmm0, DWORD PTR _cY$8[ebp]
	movss	DWORD PTR _m$12[ebp+40], xmm0

; 2605 : 			break;

	jmp	$LN8@MatrixRota
$LN3@MatrixRota:

; 2606 : 		}
; 2607 : 		case kYXZ:
; 2608 : 		{
; 2609 : 			m.e00 = cY * cZ + -sY * sX * sZ;

	movss	xmm0, DWORD PTR _sY$9[ebp]
	xorps	xmm0, DWORD PTR __xmm@80000000800000008000000080000000
	mulss	xmm0, DWORD PTR _sX$11[ebp]
	mulss	xmm0, DWORD PTR _sZ$7[ebp]
	movss	xmm1, DWORD PTR _cY$8[ebp]
	mulss	xmm1, DWORD PTR _cZ$6[ebp]
	addss	xmm1, xmm0
	movss	DWORD PTR _m$12[ebp], xmm1

; 2610 : 			m.e01 = cY * sZ + sY * sX * cZ;

	movss	xmm0, DWORD PTR _sY$9[ebp]
	mulss	xmm0, DWORD PTR _sX$11[ebp]
	mulss	xmm0, DWORD PTR _cZ$6[ebp]
	movss	xmm1, DWORD PTR _cY$8[ebp]
	mulss	xmm1, DWORD PTR _sZ$7[ebp]
	addss	xmm1, xmm0
	movss	DWORD PTR _m$12[ebp+4], xmm1

; 2611 : 			m.e02 = -sY * cX;

	movss	xmm0, DWORD PTR _sY$9[ebp]
	xorps	xmm0, DWORD PTR __xmm@80000000800000008000000080000000
	mulss	xmm0, DWORD PTR _cX$10[ebp]
	movss	DWORD PTR _m$12[ebp+8], xmm0

; 2612 : 			m.e03 = 0.0f;

	movss	xmm0, DWORD PTR __real@00000000
	movss	DWORD PTR _m$12[ebp+12], xmm0

; 2613 : 
; 2614 : 			m.e10 = -cX * sZ;

	movss	xmm0, DWORD PTR _cX$10[ebp]
	xorps	xmm0, DWORD PTR __xmm@80000000800000008000000080000000
	mulss	xmm0, DWORD PTR _sZ$7[ebp]
	movss	DWORD PTR _m$12[ebp+16], xmm0

; 2615 : 			m.e11 = cX * cZ;

	movss	xmm0, DWORD PTR _cX$10[ebp]
	mulss	xmm0, DWORD PTR _cZ$6[ebp]
	movss	DWORD PTR _m$12[ebp+20], xmm0

; 2616 : 			m.e12 = sX;

	movss	xmm0, DWORD PTR _sX$11[ebp]
	movss	DWORD PTR _m$12[ebp+24], xmm0

; 2617 : 			m.e13 = 0.0f;

	movss	xmm0, DWORD PTR __real@00000000
	movss	DWORD PTR _m$12[ebp+28], xmm0

; 2618 : 
; 2619 : 			m.e20 = sY * cZ + cY * sX * sZ;

	movss	xmm0, DWORD PTR _cY$8[ebp]
	mulss	xmm0, DWORD PTR _sX$11[ebp]
	mulss	xmm0, DWORD PTR _sZ$7[ebp]
	movss	xmm1, DWORD PTR _sY$9[ebp]
	mulss	xmm1, DWORD PTR _cZ$6[ebp]
	addss	xmm1, xmm0
	movss	DWORD PTR _m$12[ebp+32], xmm1

; 2620 : 			m.e21 = sY * sZ + -cY * sX * cZ;

	movss	xmm0, DWORD PTR _cY$8[ebp]
	xorps	xmm0, DWORD PTR __xmm@80000000800000008000000080000000
	mulss	xmm0, DWORD PTR _sX$11[ebp]
	mulss	xmm0, DWORD PTR _cZ$6[ebp]
	movss	xmm1, DWORD PTR _sY$9[ebp]
	mulss	xmm1, DWORD PTR _sZ$7[ebp]
	addss	xmm1, xmm0
	movss	DWORD PTR _m$12[ebp+36], xmm1

; 2621 : 			m.e22 = cY * cX;

	movss	xmm0, DWORD PTR _cY$8[ebp]
	mulss	xmm0, DWORD PTR _cX$10[ebp]
	movss	DWORD PTR _m$12[ebp+40], xmm0

; 2622 : 			break;

	jmp	$LN8@MatrixRota
$LN2@MatrixRota:

; 2623 : 		}
; 2624 : 		case kXYZ:
; 2625 : 		{
; 2626 : 			m.e00 = cY * cZ;

	movss	xmm0, DWORD PTR _cY$8[ebp]
	mulss	xmm0, DWORD PTR _cZ$6[ebp]
	movss	DWORD PTR _m$12[ebp], xmm0

; 2627 : 			m.e01 = cY * sZ;

	movss	xmm0, DWORD PTR _cY$8[ebp]
	mulss	xmm0, DWORD PTR _sZ$7[ebp]
	movss	DWORD PTR _m$12[ebp+4], xmm0

; 2628 : 			m.e02 = -sY;

	movss	xmm0, DWORD PTR _sY$9[ebp]
	xorps	xmm0, DWORD PTR __xmm@80000000800000008000000080000000
	movss	DWORD PTR _m$12[ebp+8], xmm0

; 2629 : 			m.e03 = 0.0f;

	movss	xmm0, DWORD PTR __real@00000000
	movss	DWORD PTR _m$12[ebp+12], xmm0

; 2630 : 
; 2631 : 			m.e10 = sX * sY * cZ + -cX * sZ;

	movss	xmm0, DWORD PTR _cX$10[ebp]
	xorps	xmm0, DWORD PTR __xmm@80000000800000008000000080000000
	mulss	xmm0, DWORD PTR _sZ$7[ebp]
	movss	xmm1, DWORD PTR _sX$11[ebp]
	mulss	xmm1, DWORD PTR _sY$9[ebp]
	mulss	xmm1, DWORD PTR _cZ$6[ebp]
	addss	xmm1, xmm0
	movss	DWORD PTR _m$12[ebp+16], xmm1

; 2632 : 			m.e11 = sX * sY * sZ + cX * cZ;

	movss	xmm0, DWORD PTR _cX$10[ebp]
	mulss	xmm0, DWORD PTR _cZ$6[ebp]
	movss	xmm1, DWORD PTR _sX$11[ebp]
	mulss	xmm1, DWORD PTR _sY$9[ebp]
	mulss	xmm1, DWORD PTR _sZ$7[ebp]
	addss	xmm1, xmm0
	movss	DWORD PTR _m$12[ebp+20], xmm1

; 2633 : 			m.e12 = sX * cY;

	movss	xmm0, DWORD PTR _sX$11[ebp]
	mulss	xmm0, DWORD PTR _cY$8[ebp]
	movss	DWORD PTR _m$12[ebp+24], xmm0

; 2634 : 			m.e13 = 0.0f;

	movss	xmm0, DWORD PTR __real@00000000
	movss	DWORD PTR _m$12[ebp+28], xmm0

; 2635 : 
; 2636 : 			m.e20 = cX * sY * cZ + sX * sZ;

	movss	xmm0, DWORD PTR _sX$11[ebp]
	mulss	xmm0, DWORD PTR _sZ$7[ebp]
	movss	xmm1, DWORD PTR _cX$10[ebp]
	mulss	xmm1, DWORD PTR _sY$9[ebp]
	mulss	xmm1, DWORD PTR _cZ$6[ebp]
	addss	xmm1, xmm0
	movss	DWORD PTR _m$12[ebp+32], xmm1

; 2637 : 			m.e21 = cX * sY * sZ + -sX * cZ;

	movss	xmm0, DWORD PTR _sX$11[ebp]
	xorps	xmm0, DWORD PTR __xmm@80000000800000008000000080000000
	mulss	xmm0, DWORD PTR _cZ$6[ebp]
	movss	xmm1, DWORD PTR _cX$10[ebp]
	mulss	xmm1, DWORD PTR _sY$9[ebp]
	mulss	xmm1, DWORD PTR _sZ$7[ebp]
	addss	xmm1, xmm0
	movss	DWORD PTR _m$12[ebp+36], xmm1

; 2638 : 			m.e22 = cX * cY;

	movss	xmm0, DWORD PTR _cX$10[ebp]
	mulss	xmm0, DWORD PTR _cY$8[ebp]
	movss	DWORD PTR _m$12[ebp+40], xmm0

; 2639 : 			break;

	jmp	SHORT $LN8@MatrixRota
$LN1@MatrixRota:

; 2640 : 		}
; 2641 : 
; 2642 : 		default:
; 2643 : 			GEN_ERROR( "Invalid parameter" );

	mov	eax, DWORD PTR ?__LINE__Var@?1??MatrixRotation@gen@@YA?AVCMatrix4x4@2@VCVector3@2@W4ERotationOrder@2@@Z@4JA
	add	eax, 116				; 00000074H
	push	eax
	push	OFFSET ??_C@_0EI@POGHFJCD@c?3?2users?2simon?2documents?2github?2@
	push	OFFSET ??_C@_0BC@DBAKKFEN@Invalid?5parameter?$AA@
	lea	ecx, DWORD PTR $T2[ebp]
	call	??0CFatalException@gen@@QAE@PBD0H@Z	; gen::CFatalException::CFatalException
	push	OFFSET __TI1?AVCFatalException@gen@@
	lea	ecx, DWORD PTR $T2[ebp]
	push	ecx
	call	__CxxThrowException@8
$LN8@MatrixRota:

; 2644 : 	}
; 2645 : 	m.e23 = 0.0f;

	movss	xmm0, DWORD PTR __real@00000000
	movss	DWORD PTR _m$12[ebp+44], xmm0

; 2646 : 
; 2647 : 	m.e30 = 0.0f;

	movss	xmm0, DWORD PTR __real@00000000
	movss	DWORD PTR _m$12[ebp+48], xmm0

; 2648 : 	m.e31 = 0.0f;

	movss	xmm0, DWORD PTR __real@00000000
	movss	DWORD PTR _m$12[ebp+52], xmm0

; 2649 : 	m.e32 = 0.0f;

	movss	xmm0, DWORD PTR __real@00000000
	movss	DWORD PTR _m$12[ebp+56], xmm0

; 2650 : 	m.e33 = 1.0f;

	movss	xmm0, DWORD PTR __real@3f800000
	movss	DWORD PTR _m$12[ebp+60], xmm0

; 2651 : 
; 2652 : 	return m;

	lea	eax, DWORD PTR _m$12[ebp]
	push	eax
	mov	ecx, DWORD PTR ___$ReturnUdt$[ebp]
	call	??0CMatrix4x4@gen@@QAE@ABV01@@Z		; gen::CMatrix4x4::CMatrix4x4
	mov	eax, DWORD PTR ___$ReturnUdt$[ebp]
	jmp	$LN16@MatrixRota
__catch$?MatrixRotation@gen@@YA?AVCMatrix4x4@1@VCVector3@1@W4ERotationOrder@1@@Z$0:

; 2653 : 
; 2654 : 	GEN_ENDGUARD;

	push	0
	call	?ObjectName@gen@@YAPBDXZ		; gen::ObjectName
	push	eax
	push	OFFSET ??_C@_0BE@LMIKLAKG@gen?3?3MatrixRotation?$AA@
	mov	ecx, DWORD PTR _e$5[ebp]
	call	?AppendToCallStack@CFatalException@gen@@QAEXPBD0_N@Z ; gen::CFatalException::AppendToCallStack
	mov	eax, DWORD PTR _e$5[ebp]
	push	eax
	lea	ecx, DWORD PTR $T3[ebp]
	call	??0CFatalException@gen@@QAE@ABV01@@Z
	push	OFFSET __TI1?AVCFatalException@gen@@
	lea	ecx, DWORD PTR $T3[ebp]
	push	ecx
	call	__CxxThrowException@8
	mov	eax, $LN17@MatrixRota
	ret	0
__catch$?MatrixRotation@gen@@YA?AVCMatrix4x4@1@VCVector3@1@W4ERotationOrder@1@@Z$1:
	call	?ObjectName@gen@@YAPBDXZ		; gen::ObjectName
	push	eax
	push	OFFSET ??_C@_0BE@LMIKLAKG@gen?3?3MatrixRotation?$AA@
	push	OFFSET ??_C@_0EI@POGHFJCD@c?3?2users?2simon?2documents?2github?2@
	lea	ecx, DWORD PTR $T4[ebp]
	call	??0CFatalException@gen@@QAE@PBD00@Z	; gen::CFatalException::CFatalException
	push	OFFSET __TI1?AVCFatalException@gen@@
	lea	eax, DWORD PTR $T4[ebp]
	push	eax
	call	__CxxThrowException@8
	mov	eax, $LN19@MatrixRota
	ret	0
	mov	DWORD PTR __$EHRec$[ebp+12], -1
	jmp	SHORT $LN18@MatrixRota
$LN19@MatrixRota:
	mov	DWORD PTR __$EHRec$[ebp+12], -1
	jmp	SHORT $LN16@MatrixRota
$LN18@MatrixRota:
	jmp	SHORT $LN16@MatrixRota
$LN17@MatrixRota:
	mov	DWORD PTR __$EHRec$[ebp+12], -1
$LN16@MatrixRota:

; 2655 : }

	push	edx
	mov	ecx, ebp
	push	eax
	lea	edx, DWORD PTR $LN30@MatrixRota
	call	@_RTC_CheckStackVars@8
	pop	eax
	pop	edx
	mov	ecx, DWORD PTR __$EHRec$[ebp+4]
	mov	DWORD PTR fs:0, ecx
	pop	ecx
	pop	edi
	pop	esi
	pop	ebx
	mov	ecx, DWORD PTR __$ArrayPad$[ebp]
	xor	ecx, ebp
	call	@__security_check_cookie@4
	add	esp, 660				; 00000294H
	cmp	ebp, esp
	call	__RTC_CheckEsp
	mov	esp, ebp
	pop	ebp
	ret	0
$LN30@MatrixRota:
	DD	8
	DD	$LN29@MatrixRota
$LN29@MatrixRota:
	DD	-88					; ffffffa8H
	DD	64					; 00000040H
	DD	$LN20@MatrixRota
	DD	-100					; ffffff9cH
	DD	4
	DD	$LN21@MatrixRota
	DD	-112					; ffffff90H
	DD	4
	DD	$LN22@MatrixRota
	DD	-124					; ffffff84H
	DD	4
	DD	$LN23@MatrixRota
	DD	-136					; ffffff78H
	DD	4
	DD	$LN24@MatrixRota
	DD	-148					; ffffff6cH
	DD	4
	DD	$LN25@MatrixRota
	DD	-160					; ffffff60H
	DD	4
	DD	$LN26@MatrixRota
	DD	-172					; ffffff54H
	DD	4
	DD	$LN27@MatrixRota
$LN27@MatrixRota:
	DB	101					; 00000065H
	DB	0
$LN26@MatrixRota:
	DB	99					; 00000063H
	DB	90					; 0000005aH
	DB	0
$LN25@MatrixRota:
	DB	115					; 00000073H
	DB	90					; 0000005aH
	DB	0
$LN24@MatrixRota:
	DB	99					; 00000063H
	DB	89					; 00000059H
	DB	0
$LN23@MatrixRota:
	DB	115					; 00000073H
	DB	89					; 00000059H
	DB	0
$LN22@MatrixRota:
	DB	99					; 00000063H
	DB	88					; 00000058H
	DB	0
$LN21@MatrixRota:
	DB	115					; 00000073H
	DB	88					; 00000058H
	DB	0
$LN20@MatrixRota:
	DB	109					; 0000006dH
	DB	0
	npad	2
$LN31@MatrixRota:
	DD	$LN2@MatrixRota
	DD	$LN5@MatrixRota
	DD	$LN6@MatrixRota
	DD	$LN3@MatrixRota
	DD	$LN4@MatrixRota
	DD	$LN7@MatrixRota
_TEXT	ENDS
;	COMDAT text$x
text$x	SEGMENT
__ehhandler$?MatrixRotation@gen@@YA?AVCMatrix4x4@1@VCVector3@1@W4ERotationOrder@1@@Z:
	mov	edx, DWORD PTR [esp+8]
	lea	eax, DWORD PTR [edx+12]
	mov	ecx, DWORD PTR [edx-664]
	xor	ecx, eax
	call	@__security_check_cookie@4
	mov	ecx, DWORD PTR [edx-8]
	xor	ecx, eax
	call	@__security_check_cookie@4
	mov	eax, OFFSET __ehfuncinfo$?MatrixRotation@gen@@YA?AVCMatrix4x4@1@VCVector3@1@W4ERotationOrder@1@@Z
	jmp	___CxxFrameHandler3
text$x	ENDS
?MatrixRotation@gen@@YA?AVCMatrix4x4@1@VCVector3@1@W4ERotationOrder@1@@Z ENDP ; gen::MatrixRotation
; Function compile flags: /Odtp /RTCsu /ZI
; File c:\users\simon\documents\github\uclan-sparta\import\math\cmatrix4x4.cpp
;	COMDAT ?MatrixRotationZ@gen@@YA?AVCMatrix4x4@1@M@Z
_TEXT	SEGMENT
_cZ$ = -92						; size = 4
_sZ$ = -80						; size = 4
_m$ = -68						; size = 64
___$ReturnUdt$ = 8					; size = 4
_z$ = 12						; size = 4
?MatrixRotationZ@gen@@YA?AVCMatrix4x4@1@M@Z PROC	; gen::MatrixRotationZ, COMDAT

; 2491 : {

	push	ebp
	mov	ebp, esp
	sub	esp, 288				; 00000120H
	push	ebx
	push	esi
	push	edi
	lea	edi, DWORD PTR [ebp-288]
	mov	ecx, 72					; 00000048H
	mov	eax, -858993460				; ccccccccH
	rep stosd

; 2492 : 	CMatrix4x4 m;

	lea	ecx, DWORD PTR _m$[ebp]
	call	??0CMatrix4x4@gen@@QAE@XZ		; gen::CMatrix4x4::CMatrix4x4

; 2493 : 
; 2494 : 	TFloat32 sZ, cZ;
; 2495 : 	SinCos( z, &sZ, &cZ );

	lea	eax, DWORD PTR _cZ$[ebp]
	push	eax
	lea	ecx, DWORD PTR _sZ$[ebp]
	push	ecx
	push	ecx
	movss	xmm0, DWORD PTR _z$[ebp]
	movss	DWORD PTR [esp], xmm0
	call	?SinCos@gen@@YAXMPAM0@Z			; gen::SinCos
	add	esp, 12					; 0000000cH

; 2496 : 
; 2497 : 	m.e00 = cZ;

	movss	xmm0, DWORD PTR _cZ$[ebp]
	movss	DWORD PTR _m$[ebp], xmm0

; 2498 : 	m.e01 = sZ;

	movss	xmm0, DWORD PTR _sZ$[ebp]
	movss	DWORD PTR _m$[ebp+4], xmm0

; 2499 : 	m.e02 = 0.0f;

	movss	xmm0, DWORD PTR __real@00000000
	movss	DWORD PTR _m$[ebp+8], xmm0

; 2500 : 	m.e03 = 0.0f;

	movss	xmm0, DWORD PTR __real@00000000
	movss	DWORD PTR _m$[ebp+12], xmm0

; 2501 : 
; 2502 : 	m.e10 = -sZ;

	movss	xmm0, DWORD PTR _sZ$[ebp]
	xorps	xmm0, DWORD PTR __xmm@80000000800000008000000080000000
	movss	DWORD PTR _m$[ebp+16], xmm0

; 2503 : 	m.e11 = cZ;

	movss	xmm0, DWORD PTR _cZ$[ebp]
	movss	DWORD PTR _m$[ebp+20], xmm0

; 2504 : 	m.e12 = 0.0f;

	movss	xmm0, DWORD PTR __real@00000000
	movss	DWORD PTR _m$[ebp+24], xmm0

; 2505 : 	m.e13 = 0.0f;

	movss	xmm0, DWORD PTR __real@00000000
	movss	DWORD PTR _m$[ebp+28], xmm0

; 2506 : 
; 2507 : 	m.e20 = 0.0f;

	movss	xmm0, DWORD PTR __real@00000000
	movss	DWORD PTR _m$[ebp+32], xmm0

; 2508 : 	m.e21 = 0.0f;

	movss	xmm0, DWORD PTR __real@00000000
	movss	DWORD PTR _m$[ebp+36], xmm0

; 2509 : 	m.e22 = 1.0f;

	movss	xmm0, DWORD PTR __real@3f800000
	movss	DWORD PTR _m$[ebp+40], xmm0

; 2510 : 	m.e23 = 0.0f;

	movss	xmm0, DWORD PTR __real@00000000
	movss	DWORD PTR _m$[ebp+44], xmm0

; 2511 : 
; 2512 : 	m.e30 = 0.0f;

	movss	xmm0, DWORD PTR __real@00000000
	movss	DWORD PTR _m$[ebp+48], xmm0

; 2513 : 	m.e31 = 0.0f;

	movss	xmm0, DWORD PTR __real@00000000
	movss	DWORD PTR _m$[ebp+52], xmm0

; 2514 : 	m.e32 = 0.0f;

	movss	xmm0, DWORD PTR __real@00000000
	movss	DWORD PTR _m$[ebp+56], xmm0

; 2515 : 	m.e33 = 1.0f;

	movss	xmm0, DWORD PTR __real@3f800000
	movss	DWORD PTR _m$[ebp+60], xmm0

; 2516 : 
; 2517 : 	return m;

	lea	eax, DWORD PTR _m$[ebp]
	push	eax
	mov	ecx, DWORD PTR ___$ReturnUdt$[ebp]
	call	??0CMatrix4x4@gen@@QAE@ABV01@@Z		; gen::CMatrix4x4::CMatrix4x4
	mov	eax, DWORD PTR ___$ReturnUdt$[ebp]

; 2518 : }

	push	edx
	mov	ecx, ebp
	push	eax
	lea	edx, DWORD PTR $LN7@MatrixRota
	call	@_RTC_CheckStackVars@8
	pop	eax
	pop	edx
	pop	edi
	pop	esi
	pop	ebx
	add	esp, 288				; 00000120H
	cmp	ebp, esp
	call	__RTC_CheckEsp
	mov	esp, ebp
	pop	ebp
	ret	0
$LN7@MatrixRota:
	DD	3
	DD	$LN6@MatrixRota
$LN6@MatrixRota:
	DD	-68					; ffffffbcH
	DD	64					; 00000040H
	DD	$LN3@MatrixRota
	DD	-80					; ffffffb0H
	DD	4
	DD	$LN4@MatrixRota
	DD	-92					; ffffffa4H
	DD	4
	DD	$LN5@MatrixRota
$LN5@MatrixRota:
	DB	99					; 00000063H
	DB	90					; 0000005aH
	DB	0
$LN4@MatrixRota:
	DB	115					; 00000073H
	DB	90					; 0000005aH
	DB	0
$LN3@MatrixRota:
	DB	109					; 0000006dH
	DB	0
?MatrixRotationZ@gen@@YA?AVCMatrix4x4@1@M@Z ENDP	; gen::MatrixRotationZ
_TEXT	ENDS
; Function compile flags: /Odtp /RTCsu /ZI
; File c:\users\simon\documents\github\uclan-sparta\import\math\cmatrix4x4.cpp
;	COMDAT ?MatrixRotationY@gen@@YA?AVCMatrix4x4@1@M@Z
_TEXT	SEGMENT
_cY$ = -92						; size = 4
_sY$ = -80						; size = 4
_m$ = -68						; size = 64
___$ReturnUdt$ = 8					; size = 4
_y$ = 12						; size = 4
?MatrixRotationY@gen@@YA?AVCMatrix4x4@1@M@Z PROC	; gen::MatrixRotationY, COMDAT

; 2460 : {

	push	ebp
	mov	ebp, esp
	sub	esp, 288				; 00000120H
	push	ebx
	push	esi
	push	edi
	lea	edi, DWORD PTR [ebp-288]
	mov	ecx, 72					; 00000048H
	mov	eax, -858993460				; ccccccccH
	rep stosd

; 2461 : 	CMatrix4x4 m;

	lea	ecx, DWORD PTR _m$[ebp]
	call	??0CMatrix4x4@gen@@QAE@XZ		; gen::CMatrix4x4::CMatrix4x4

; 2462 : 
; 2463 : 	TFloat32 sY, cY;
; 2464 : 	SinCos( y, &sY, &cY );

	lea	eax, DWORD PTR _cY$[ebp]
	push	eax
	lea	ecx, DWORD PTR _sY$[ebp]
	push	ecx
	push	ecx
	movss	xmm0, DWORD PTR _y$[ebp]
	movss	DWORD PTR [esp], xmm0
	call	?SinCos@gen@@YAXMPAM0@Z			; gen::SinCos
	add	esp, 12					; 0000000cH

; 2465 : 
; 2466 : 	m.e00 = cY;

	movss	xmm0, DWORD PTR _cY$[ebp]
	movss	DWORD PTR _m$[ebp], xmm0

; 2467 : 	m.e01 = 0.0f;

	movss	xmm0, DWORD PTR __real@00000000
	movss	DWORD PTR _m$[ebp+4], xmm0

; 2468 : 	m.e02 = -sY;

	movss	xmm0, DWORD PTR _sY$[ebp]
	xorps	xmm0, DWORD PTR __xmm@80000000800000008000000080000000
	movss	DWORD PTR _m$[ebp+8], xmm0

; 2469 : 	m.e03 = 0.0f;

	movss	xmm0, DWORD PTR __real@00000000
	movss	DWORD PTR _m$[ebp+12], xmm0

; 2470 : 
; 2471 : 	m.e10 = 0.0f;

	movss	xmm0, DWORD PTR __real@00000000
	movss	DWORD PTR _m$[ebp+16], xmm0

; 2472 : 	m.e11 = 1.0f;

	movss	xmm0, DWORD PTR __real@3f800000
	movss	DWORD PTR _m$[ebp+20], xmm0

; 2473 : 	m.e12 = 0.0f;

	movss	xmm0, DWORD PTR __real@00000000
	movss	DWORD PTR _m$[ebp+24], xmm0

; 2474 : 	m.e13 = 0.0f;

	movss	xmm0, DWORD PTR __real@00000000
	movss	DWORD PTR _m$[ebp+28], xmm0

; 2475 : 
; 2476 : 	m.e20 = sY;

	movss	xmm0, DWORD PTR _sY$[ebp]
	movss	DWORD PTR _m$[ebp+32], xmm0

; 2477 : 	m.e21 = 0.0f;

	movss	xmm0, DWORD PTR __real@00000000
	movss	DWORD PTR _m$[ebp+36], xmm0

; 2478 : 	m.e22 = cY;

	movss	xmm0, DWORD PTR _cY$[ebp]
	movss	DWORD PTR _m$[ebp+40], xmm0

; 2479 : 	m.e23 = 0.0f;

	movss	xmm0, DWORD PTR __real@00000000
	movss	DWORD PTR _m$[ebp+44], xmm0

; 2480 : 
; 2481 : 	m.e30 = 0.0f;

	movss	xmm0, DWORD PTR __real@00000000
	movss	DWORD PTR _m$[ebp+48], xmm0

; 2482 : 	m.e31 = 0.0f;

	movss	xmm0, DWORD PTR __real@00000000
	movss	DWORD PTR _m$[ebp+52], xmm0

; 2483 : 	m.e32 = 0.0f;

	movss	xmm0, DWORD PTR __real@00000000
	movss	DWORD PTR _m$[ebp+56], xmm0

; 2484 : 	m.e33 = 1.0f;    

	movss	xmm0, DWORD PTR __real@3f800000
	movss	DWORD PTR _m$[ebp+60], xmm0

; 2485 : 
; 2486 : 	return m;

	lea	eax, DWORD PTR _m$[ebp]
	push	eax
	mov	ecx, DWORD PTR ___$ReturnUdt$[ebp]
	call	??0CMatrix4x4@gen@@QAE@ABV01@@Z		; gen::CMatrix4x4::CMatrix4x4
	mov	eax, DWORD PTR ___$ReturnUdt$[ebp]

; 2487 : }

	push	edx
	mov	ecx, ebp
	push	eax
	lea	edx, DWORD PTR $LN7@MatrixRota
	call	@_RTC_CheckStackVars@8
	pop	eax
	pop	edx
	pop	edi
	pop	esi
	pop	ebx
	add	esp, 288				; 00000120H
	cmp	ebp, esp
	call	__RTC_CheckEsp
	mov	esp, ebp
	pop	ebp
	ret	0
$LN7@MatrixRota:
	DD	3
	DD	$LN6@MatrixRota
$LN6@MatrixRota:
	DD	-68					; ffffffbcH
	DD	64					; 00000040H
	DD	$LN3@MatrixRota
	DD	-80					; ffffffb0H
	DD	4
	DD	$LN4@MatrixRota
	DD	-92					; ffffffa4H
	DD	4
	DD	$LN5@MatrixRota
$LN5@MatrixRota:
	DB	99					; 00000063H
	DB	89					; 00000059H
	DB	0
$LN4@MatrixRota:
	DB	115					; 00000073H
	DB	89					; 00000059H
	DB	0
$LN3@MatrixRota:
	DB	109					; 0000006dH
	DB	0
?MatrixRotationY@gen@@YA?AVCMatrix4x4@1@M@Z ENDP	; gen::MatrixRotationY
_TEXT	ENDS
; Function compile flags: /Odtp /RTCsu /ZI
; File c:\users\simon\documents\github\uclan-sparta\import\math\cmatrix4x4.cpp
;	COMDAT ?MatrixRotationX@gen@@YA?AVCMatrix4x4@1@M@Z
_TEXT	SEGMENT
_cX$ = -92						; size = 4
_sX$ = -80						; size = 4
_m$ = -68						; size = 64
___$ReturnUdt$ = 8					; size = 4
_x$ = 12						; size = 4
?MatrixRotationX@gen@@YA?AVCMatrix4x4@1@M@Z PROC	; gen::MatrixRotationX, COMDAT

; 2429 : {

	push	ebp
	mov	ebp, esp
	sub	esp, 288				; 00000120H
	push	ebx
	push	esi
	push	edi
	lea	edi, DWORD PTR [ebp-288]
	mov	ecx, 72					; 00000048H
	mov	eax, -858993460				; ccccccccH
	rep stosd

; 2430 : 	CMatrix4x4 m;

	lea	ecx, DWORD PTR _m$[ebp]
	call	??0CMatrix4x4@gen@@QAE@XZ		; gen::CMatrix4x4::CMatrix4x4

; 2431 : 
; 2432 : 	TFloat32 sX, cX;
; 2433 : 	SinCos( x, &sX, &cX );

	lea	eax, DWORD PTR _cX$[ebp]
	push	eax
	lea	ecx, DWORD PTR _sX$[ebp]
	push	ecx
	push	ecx
	movss	xmm0, DWORD PTR _x$[ebp]
	movss	DWORD PTR [esp], xmm0
	call	?SinCos@gen@@YAXMPAM0@Z			; gen::SinCos
	add	esp, 12					; 0000000cH

; 2434 : 
; 2435 : 	m.e00 = 1.0f;

	movss	xmm0, DWORD PTR __real@3f800000
	movss	DWORD PTR _m$[ebp], xmm0

; 2436 : 	m.e01 = 0.0f;

	movss	xmm0, DWORD PTR __real@00000000
	movss	DWORD PTR _m$[ebp+4], xmm0

; 2437 : 	m.e02 = 0.0f;

	movss	xmm0, DWORD PTR __real@00000000
	movss	DWORD PTR _m$[ebp+8], xmm0

; 2438 : 	m.e03 = 0.0f;

	movss	xmm0, DWORD PTR __real@00000000
	movss	DWORD PTR _m$[ebp+12], xmm0

; 2439 : 
; 2440 : 	m.e10 = 0.0f;

	movss	xmm0, DWORD PTR __real@00000000
	movss	DWORD PTR _m$[ebp+16], xmm0

; 2441 : 	m.e11 = cX;

	movss	xmm0, DWORD PTR _cX$[ebp]
	movss	DWORD PTR _m$[ebp+20], xmm0

; 2442 : 	m.e12 = sX;

	movss	xmm0, DWORD PTR _sX$[ebp]
	movss	DWORD PTR _m$[ebp+24], xmm0

; 2443 : 	m.e13 = 0.0f;

	movss	xmm0, DWORD PTR __real@00000000
	movss	DWORD PTR _m$[ebp+28], xmm0

; 2444 : 
; 2445 : 	m.e20 = 0.0f;

	movss	xmm0, DWORD PTR __real@00000000
	movss	DWORD PTR _m$[ebp+32], xmm0

; 2446 : 	m.e21 = -sX;

	movss	xmm0, DWORD PTR _sX$[ebp]
	xorps	xmm0, DWORD PTR __xmm@80000000800000008000000080000000
	movss	DWORD PTR _m$[ebp+36], xmm0

; 2447 : 	m.e22 = cX;

	movss	xmm0, DWORD PTR _cX$[ebp]
	movss	DWORD PTR _m$[ebp+40], xmm0

; 2448 : 	m.e23 = 0.0f;

	movss	xmm0, DWORD PTR __real@00000000
	movss	DWORD PTR _m$[ebp+44], xmm0

; 2449 : 
; 2450 : 	m.e30 = 0.0f;

	movss	xmm0, DWORD PTR __real@00000000
	movss	DWORD PTR _m$[ebp+48], xmm0

; 2451 : 	m.e31 = 0.0f;

	movss	xmm0, DWORD PTR __real@00000000
	movss	DWORD PTR _m$[ebp+52], xmm0

; 2452 : 	m.e32 = 0.0f;

	movss	xmm0, DWORD PTR __real@00000000
	movss	DWORD PTR _m$[ebp+56], xmm0

; 2453 : 	m.e33 = 1.0f;

	movss	xmm0, DWORD PTR __real@3f800000
	movss	DWORD PTR _m$[ebp+60], xmm0

; 2454 : 
; 2455 : 	return m;

	lea	eax, DWORD PTR _m$[ebp]
	push	eax
	mov	ecx, DWORD PTR ___$ReturnUdt$[ebp]
	call	??0CMatrix4x4@gen@@QAE@ABV01@@Z		; gen::CMatrix4x4::CMatrix4x4
	mov	eax, DWORD PTR ___$ReturnUdt$[ebp]

; 2456 : }

	push	edx
	mov	ecx, ebp
	push	eax
	lea	edx, DWORD PTR $LN7@MatrixRota
	call	@_RTC_CheckStackVars@8
	pop	eax
	pop	edx
	pop	edi
	pop	esi
	pop	ebx
	add	esp, 288				; 00000120H
	cmp	ebp, esp
	call	__RTC_CheckEsp
	mov	esp, ebp
	pop	ebp
	ret	0
$LN7@MatrixRota:
	DD	3
	DD	$LN6@MatrixRota
$LN6@MatrixRota:
	DD	-68					; ffffffbcH
	DD	64					; 00000040H
	DD	$LN3@MatrixRota
	DD	-80					; ffffffb0H
	DD	4
	DD	$LN4@MatrixRota
	DD	-92					; ffffffa4H
	DD	4
	DD	$LN5@MatrixRota
$LN5@MatrixRota:
	DB	99					; 00000063H
	DB	88					; 00000058H
	DB	0
$LN4@MatrixRota:
	DB	115					; 00000073H
	DB	88					; 00000058H
	DB	0
$LN3@MatrixRota:
	DB	109					; 0000006dH
	DB	0
?MatrixRotationX@gen@@YA?AVCMatrix4x4@1@M@Z ENDP	; gen::MatrixRotationX
_TEXT	ENDS
; Function compile flags: /Odtp /RTCsu /ZI
; File c:\users\simon\documents\github\uclan-sparta\import\math\cmatrix4x4.cpp
;	COMDAT ?MatrixTranslation@gen@@YA?AVCMatrix4x4@1@ABVCVector3@1@@Z
_TEXT	SEGMENT
_m$ = -68						; size = 64
___$ReturnUdt$ = 8					; size = 4
_translate$ = 12					; size = 4
?MatrixTranslation@gen@@YA?AVCMatrix4x4@1@ABVCVector3@1@@Z PROC ; gen::MatrixTranslation, COMDAT

; 2400 : {

	push	ebp
	mov	ebp, esp
	sub	esp, 264				; 00000108H
	push	ebx
	push	esi
	push	edi
	lea	edi, DWORD PTR [ebp-264]
	mov	ecx, 66					; 00000042H
	mov	eax, -858993460				; ccccccccH
	rep stosd

; 2401 : 	CMatrix4x4 m;

	lea	ecx, DWORD PTR _m$[ebp]
	call	??0CMatrix4x4@gen@@QAE@XZ		; gen::CMatrix4x4::CMatrix4x4

; 2402 : 
; 2403 : 	m.e00 = 1.0f;

	movss	xmm0, DWORD PTR __real@3f800000
	movss	DWORD PTR _m$[ebp], xmm0

; 2404 : 	m.e01 = 0.0f;

	movss	xmm0, DWORD PTR __real@00000000
	movss	DWORD PTR _m$[ebp+4], xmm0

; 2405 : 	m.e02 = 0.0f;

	movss	xmm0, DWORD PTR __real@00000000
	movss	DWORD PTR _m$[ebp+8], xmm0

; 2406 : 	m.e03 = 0.0f;

	movss	xmm0, DWORD PTR __real@00000000
	movss	DWORD PTR _m$[ebp+12], xmm0

; 2407 : 
; 2408 : 	m.e10 = 0.0f;

	movss	xmm0, DWORD PTR __real@00000000
	movss	DWORD PTR _m$[ebp+16], xmm0

; 2409 : 	m.e11 = 1.0f;

	movss	xmm0, DWORD PTR __real@3f800000
	movss	DWORD PTR _m$[ebp+20], xmm0

; 2410 : 	m.e12 = 0.0f;

	movss	xmm0, DWORD PTR __real@00000000
	movss	DWORD PTR _m$[ebp+24], xmm0

; 2411 : 	m.e13 = 0.0f;

	movss	xmm0, DWORD PTR __real@00000000
	movss	DWORD PTR _m$[ebp+28], xmm0

; 2412 : 
; 2413 : 	m.e20 = 0.0f;

	movss	xmm0, DWORD PTR __real@00000000
	movss	DWORD PTR _m$[ebp+32], xmm0

; 2414 : 	m.e21 = 0.0f;

	movss	xmm0, DWORD PTR __real@00000000
	movss	DWORD PTR _m$[ebp+36], xmm0

; 2415 : 	m.e22 = 1.0f;

	movss	xmm0, DWORD PTR __real@3f800000
	movss	DWORD PTR _m$[ebp+40], xmm0

; 2416 : 	m.e23 = 0.0f;

	movss	xmm0, DWORD PTR __real@00000000
	movss	DWORD PTR _m$[ebp+44], xmm0

; 2417 : 
; 2418 : 	m.e30 = translate.x;

	mov	eax, DWORD PTR _translate$[ebp]
	movss	xmm0, DWORD PTR [eax]
	movss	DWORD PTR _m$[ebp+48], xmm0

; 2419 : 	m.e31 = translate.y;

	mov	eax, DWORD PTR _translate$[ebp]
	movss	xmm0, DWORD PTR [eax+4]
	movss	DWORD PTR _m$[ebp+52], xmm0

; 2420 : 	m.e32 = translate.z;

	mov	eax, DWORD PTR _translate$[ebp]
	movss	xmm0, DWORD PTR [eax+8]
	movss	DWORD PTR _m$[ebp+56], xmm0

; 2421 : 	m.e33 = 1.0f;

	movss	xmm0, DWORD PTR __real@3f800000
	movss	DWORD PTR _m$[ebp+60], xmm0

; 2422 : 
; 2423 : 	return m;

	lea	eax, DWORD PTR _m$[ebp]
	push	eax
	mov	ecx, DWORD PTR ___$ReturnUdt$[ebp]
	call	??0CMatrix4x4@gen@@QAE@ABV01@@Z		; gen::CMatrix4x4::CMatrix4x4
	mov	eax, DWORD PTR ___$ReturnUdt$[ebp]

; 2424 : }

	push	edx
	mov	ecx, ebp
	push	eax
	lea	edx, DWORD PTR $LN5@MatrixTran
	call	@_RTC_CheckStackVars@8
	pop	eax
	pop	edx
	pop	edi
	pop	esi
	pop	ebx
	add	esp, 264				; 00000108H
	cmp	ebp, esp
	call	__RTC_CheckEsp
	mov	esp, ebp
	pop	ebp
	ret	0
	npad	3
$LN5@MatrixTran:
	DD	1
	DD	$LN4@MatrixTran
$LN4@MatrixTran:
	DD	-68					; ffffffbcH
	DD	64					; 00000040H
	DD	$LN3@MatrixTran
$LN3@MatrixTran:
	DB	109					; 0000006dH
	DB	0
?MatrixTranslation@gen@@YA?AVCMatrix4x4@1@ABVCVector3@1@@Z ENDP ; gen::MatrixTranslation
_TEXT	ENDS
; Function compile flags: /Odtp /RTCsu /ZI
; File c:\users\simon\documents\github\uclan-sparta\import\math\cmatrix4x4.cpp
;	COMDAT ?MatrixIdentity@gen@@YA?AVCMatrix4x4@1@XZ
_TEXT	SEGMENT
_m$ = -68						; size = 64
___$ReturnUdt$ = 8					; size = 4
?MatrixIdentity@gen@@YA?AVCMatrix4x4@1@XZ PROC		; gen::MatrixIdentity, COMDAT

; 2372 : {

	push	ebp
	mov	ebp, esp
	sub	esp, 264				; 00000108H
	push	ebx
	push	esi
	push	edi
	lea	edi, DWORD PTR [ebp-264]
	mov	ecx, 66					; 00000042H
	mov	eax, -858993460				; ccccccccH
	rep stosd

; 2373 : 	CMatrix4x4 m;

	lea	ecx, DWORD PTR _m$[ebp]
	call	??0CMatrix4x4@gen@@QAE@XZ		; gen::CMatrix4x4::CMatrix4x4

; 2374 : 
; 2375 : 	m.e00 = 1.0f;

	movss	xmm0, DWORD PTR __real@3f800000
	movss	DWORD PTR _m$[ebp], xmm0

; 2376 : 	m.e01 = 0.0f;

	movss	xmm0, DWORD PTR __real@00000000
	movss	DWORD PTR _m$[ebp+4], xmm0

; 2377 : 	m.e02 = 0.0f; 

	movss	xmm0, DWORD PTR __real@00000000
	movss	DWORD PTR _m$[ebp+8], xmm0

; 2378 : 	m.e03 = 0.0f;

	movss	xmm0, DWORD PTR __real@00000000
	movss	DWORD PTR _m$[ebp+12], xmm0

; 2379 : 
; 2380 : 	m.e10 = 0.0f;

	movss	xmm0, DWORD PTR __real@00000000
	movss	DWORD PTR _m$[ebp+16], xmm0

; 2381 : 	m.e11 = 1.0f;

	movss	xmm0, DWORD PTR __real@3f800000
	movss	DWORD PTR _m$[ebp+20], xmm0

; 2382 : 	m.e12 = 0.0f;

	movss	xmm0, DWORD PTR __real@00000000
	movss	DWORD PTR _m$[ebp+24], xmm0

; 2383 : 	m.e13 = 0.0f;

	movss	xmm0, DWORD PTR __real@00000000
	movss	DWORD PTR _m$[ebp+28], xmm0

; 2384 : 
; 2385 : 	m.e20 = 0.0f;

	movss	xmm0, DWORD PTR __real@00000000
	movss	DWORD PTR _m$[ebp+32], xmm0

; 2386 : 	m.e21 = 0.0f;

	movss	xmm0, DWORD PTR __real@00000000
	movss	DWORD PTR _m$[ebp+36], xmm0

; 2387 : 	m.e22 = 1.0f;

	movss	xmm0, DWORD PTR __real@3f800000
	movss	DWORD PTR _m$[ebp+40], xmm0

; 2388 : 	m.e23 = 0.0f;

	movss	xmm0, DWORD PTR __real@00000000
	movss	DWORD PTR _m$[ebp+44], xmm0

; 2389 : 
; 2390 : 	m.e30 = 0.0f;

	movss	xmm0, DWORD PTR __real@00000000
	movss	DWORD PTR _m$[ebp+48], xmm0

; 2391 : 	m.e31 = 0.0f;

	movss	xmm0, DWORD PTR __real@00000000
	movss	DWORD PTR _m$[ebp+52], xmm0

; 2392 : 	m.e32 = 0.0f;

	movss	xmm0, DWORD PTR __real@00000000
	movss	DWORD PTR _m$[ebp+56], xmm0

; 2393 : 	m.e33 = 1.0f;

	movss	xmm0, DWORD PTR __real@3f800000
	movss	DWORD PTR _m$[ebp+60], xmm0

; 2394 : 
; 2395 : 	return m;

	lea	eax, DWORD PTR _m$[ebp]
	push	eax
	mov	ecx, DWORD PTR ___$ReturnUdt$[ebp]
	call	??0CMatrix4x4@gen@@QAE@ABV01@@Z		; gen::CMatrix4x4::CMatrix4x4
	mov	eax, DWORD PTR ___$ReturnUdt$[ebp]

; 2396 : }

	push	edx
	mov	ecx, ebp
	push	eax
	lea	edx, DWORD PTR $LN5@MatrixIden
	call	@_RTC_CheckStackVars@8
	pop	eax
	pop	edx
	pop	edi
	pop	esi
	pop	ebx
	add	esp, 264				; 00000108H
	cmp	ebp, esp
	call	__RTC_CheckEsp
	mov	esp, ebp
	pop	ebp
	ret	0
	npad	2
$LN5@MatrixIden:
	DD	1
	DD	$LN4@MatrixIden
$LN4@MatrixIden:
	DD	-68					; ffffffbcH
	DD	64					; 00000040H
	DD	$LN3@MatrixIden
$LN3@MatrixIden:
	DB	109					; 0000006dH
	DB	0
?MatrixIdentity@gen@@YA?AVCMatrix4x4@1@XZ ENDP		; gen::MatrixIdentity
_TEXT	ENDS
; Function compile flags: /Odtp /RTCsu /ZI
; File c:\users\simon\documents\github\uclan-sparta\import\math\cmatrix4x4.cpp
;	COMDAT ?Inverse@gen@@YA?AVCMatrix4x4@1@ABV21@@Z
_TEXT	SEGMENT
tv175 = -648						; size = 4
tv179 = -644						; size = 4
tv174 = -644						; size = 4
tv178 = -640						; size = 4
tv173 = -640						; size = 4
tv177 = -636						; size = 4
tv172 = -636						; size = 4
tv176 = -633						; size = 1
$T2 = -628						; size = 88
$T3 = -532						; size = 88
$T4 = -436						; size = 88
_e$5 = -148						; size = 4
_j$6 = -136						; size = 4
_i$7 = -124						; size = 4
_invDet$8 = -112					; size = 4
_det$9 = -100						; size = 4
_mOut$10 = -88						; size = 64
__$ArrayPad$ = -20					; size = 4
__$EHRec$ = -16						; size = 16
___$ReturnUdt$ = 8					; size = 4
_m$ = 12						; size = 4
?Inverse@gen@@YA?AVCMatrix4x4@1@ABV21@@Z PROC		; gen::Inverse, COMDAT

; 1973 : {

	push	ebp
	mov	ebp, esp
	push	-1
	push	__ehhandler$?Inverse@gen@@YA?AVCMatrix4x4@1@ABV21@@Z
	mov	eax, DWORD PTR fs:0
	push	eax
	push	ecx
	sub	esp, 632				; 00000278H
	push	ebx
	push	esi
	push	edi
	lea	edi, DWORD PTR [ebp-648]
	mov	ecx, 158				; 0000009eH
	mov	eax, -858993460				; ccccccccH
	rep stosd
	mov	eax, DWORD PTR ___security_cookie
	xor	eax, ebp
	mov	DWORD PTR __$ArrayPad$[ebp], eax
	push	eax
	lea	eax, DWORD PTR __$EHRec$[ebp+4]
	mov	DWORD PTR fs:0, eax
	mov	DWORD PTR __$EHRec$[ebp], esp

; 1974 : 	GEN_GUARD;

	mov	DWORD PTR __$EHRec$[ebp+12], 0

; 1975 : 
; 1976 : 	CMatrix4x4 mOut;

	lea	ecx, DWORD PTR _mOut$10[ebp]
	call	??0CMatrix4x4@gen@@QAE@XZ		; gen::CMatrix4x4::CMatrix4x4

; 1977 : 
; 1978 : 	// Calculate determinant
; 1979 : 	TFloat32 det = m.e00 * Cofactor( m, 0, 0 ) + m.e01 * Cofactor( m, 0, 1 ) + 
; 1980 : 	               m.e02 * Cofactor( m, 0, 2 ) + m.e03 * Cofactor( m, 0, 3 ); 

	push	0
	push	0
	mov	eax, DWORD PTR _m$[ebp]
	push	eax
	call	?Cofactor@gen@@YAMABVCMatrix4x4@1@II@Z	; gen::Cofactor
	add	esp, 12					; 0000000cH
	fstp	DWORD PTR tv172[ebp]
	push	1
	push	0
	mov	ecx, DWORD PTR _m$[ebp]
	push	ecx
	call	?Cofactor@gen@@YAMABVCMatrix4x4@1@II@Z	; gen::Cofactor
	add	esp, 12					; 0000000cH
	fstp	DWORD PTR tv173[ebp]
	push	2
	push	0
	mov	edx, DWORD PTR _m$[ebp]
	push	edx
	call	?Cofactor@gen@@YAMABVCMatrix4x4@1@II@Z	; gen::Cofactor
	add	esp, 12					; 0000000cH
	fstp	DWORD PTR tv174[ebp]
	push	3
	push	0
	mov	eax, DWORD PTR _m$[ebp]
	push	eax
	call	?Cofactor@gen@@YAMABVCMatrix4x4@1@II@Z	; gen::Cofactor
	add	esp, 12					; 0000000cH
	fstp	DWORD PTR tv175[ebp]
	mov	ecx, DWORD PTR _m$[ebp]
	movss	xmm0, DWORD PTR [ecx+12]
	mulss	xmm0, DWORD PTR tv175[ebp]
	mov	edx, DWORD PTR _m$[ebp]
	movss	xmm1, DWORD PTR [edx+8]
	mulss	xmm1, DWORD PTR tv174[ebp]
	mov	eax, DWORD PTR _m$[ebp]
	movss	xmm2, DWORD PTR [eax+4]
	mulss	xmm2, DWORD PTR tv173[ebp]
	mov	ecx, DWORD PTR _m$[ebp]
	movss	xmm3, DWORD PTR [ecx]
	mulss	xmm3, DWORD PTR tv172[ebp]
	addss	xmm3, xmm2
	addss	xmm3, xmm1
	addss	xmm3, xmm0
	movss	DWORD PTR _det$9[ebp], xmm3

; 1981 : 	GEN_ASSERT( !IsZero(det), "Singular matrix" );

	push	ecx
	movss	xmm0, DWORD PTR _kfEpsilon
	movss	DWORD PTR [esp], xmm0
	push	ecx
	movss	xmm0, DWORD PTR _det$9[ebp]
	movss	DWORD PTR [esp], xmm0
	call	?IsZero@gen@@YA_NMM@Z			; gen::IsZero
	add	esp, 8
	mov	BYTE PTR tv176[ebp], al
	movzx	eax, BYTE PTR tv176[ebp]
	test	eax, eax
	je	SHORT $LN7@Inverse
	mov	eax, DWORD PTR ?__LINE__Var@?1??Inverse@gen@@YA?AVCMatrix4x4@2@ABV32@@Z@4JA
	add	eax, 8
	push	eax
	push	OFFSET ??_C@_0EI@POGHFJCD@c?3?2users?2simon?2documents?2github?2@
	push	OFFSET ??_C@_0BA@EJDDFENM@Singular?5matrix?$AA@
	lea	ecx, DWORD PTR $T2[ebp]
	call	??0CFatalException@gen@@QAE@PBD0H@Z	; gen::CFatalException::CFatalException
	push	OFFSET __TI1?AVCFatalException@gen@@
	lea	ecx, DWORD PTR $T2[ebp]
	push	ecx
	call	__CxxThrowException@8
$LN7@Inverse:

; 1982 : 
; 1983 : 	// Inverse is (1/determinant)*adjoint matrix. Adjoint matrix is transposed matrix of cofactors
; 1984 : 	TFloat32 invDet = 1.0f / det;

	movss	xmm0, DWORD PTR __real@3f800000
	divss	xmm0, DWORD PTR _det$9[ebp]
	movss	DWORD PTR _invDet$8[ebp], xmm0

; 1985 : 	for (TUInt32 i = 0; i < 4; ++i)

	mov	DWORD PTR _i$7[ebp], 0
	jmp	SHORT $LN6@Inverse
$LN5@Inverse:
	mov	eax, DWORD PTR _i$7[ebp]
	add	eax, 1
	mov	DWORD PTR _i$7[ebp], eax
$LN6@Inverse:
	cmp	DWORD PTR _i$7[ebp], 4
	jae	$LN4@Inverse

; 1986 : 	{
; 1987 : 		for (TUInt32 j = 0; j < 4; ++j)

	mov	DWORD PTR _j$6[ebp], 0
	jmp	SHORT $LN3@Inverse
$LN2@Inverse:
	mov	eax, DWORD PTR _j$6[ebp]
	add	eax, 1
	mov	DWORD PTR _j$6[ebp], eax
$LN3@Inverse:
	cmp	DWORD PTR _j$6[ebp], 4
	jae	SHORT $LN1@Inverse

; 1988 : 		{
; 1989 : 			mOut[i][j] = invDet * Cofactor( m, j, i );

	mov	eax, DWORD PTR _i$7[ebp]
	push	eax
	mov	ecx, DWORD PTR _j$6[ebp]
	push	ecx
	mov	edx, DWORD PTR _m$[ebp]
	push	edx
	call	?Cofactor@gen@@YAMABVCMatrix4x4@1@II@Z	; gen::Cofactor
	add	esp, 12					; 0000000cH
	fstp	DWORD PTR tv177[ebp]
	mov	eax, DWORD PTR _i$7[ebp]
	push	eax
	lea	ecx, DWORD PTR _mOut$10[ebp]
	call	??ACMatrix4x4@gen@@QAEAAVCVector4@1@I@Z	; gen::CMatrix4x4::operator[]
	mov	DWORD PTR tv178[ebp], eax
	mov	ecx, DWORD PTR _j$6[ebp]
	push	ecx
	mov	ecx, DWORD PTR tv178[ebp]
	call	??ACVector4@gen@@QAEAAMI@Z		; gen::CVector4::operator[]
	mov	DWORD PTR tv179[ebp], eax
	movss	xmm0, DWORD PTR _invDet$8[ebp]
	mulss	xmm0, DWORD PTR tv177[ebp]
	mov	edx, DWORD PTR tv179[ebp]
	movss	DWORD PTR [edx], xmm0

; 1990 : 		}

	jmp	SHORT $LN2@Inverse
$LN1@Inverse:

; 1991 : 	}

	jmp	$LN5@Inverse
$LN4@Inverse:

; 1992 : 
; 1993 : 	return mOut;

	lea	eax, DWORD PTR _mOut$10[ebp]
	push	eax
	mov	ecx, DWORD PTR ___$ReturnUdt$[ebp]
	call	??0CMatrix4x4@gen@@QAE@ABV01@@Z		; gen::CMatrix4x4::CMatrix4x4
	mov	eax, DWORD PTR ___$ReturnUdt$[ebp]
	jmp	$LN14@Inverse
__catch$?Inverse@gen@@YA?AVCMatrix4x4@1@ABV21@@Z$0:

; 1994 : 
; 1995 : 	GEN_ENDGUARD;

	push	0
	call	?ObjectName@gen@@YAPBDXZ		; gen::ObjectName
	push	eax
	push	OFFSET ??_C@_0N@BLGPECID@gen?3?3Inverse?$AA@
	mov	ecx, DWORD PTR _e$5[ebp]
	call	?AppendToCallStack@CFatalException@gen@@QAEXPBD0_N@Z ; gen::CFatalException::AppendToCallStack
	mov	eax, DWORD PTR _e$5[ebp]
	push	eax
	lea	ecx, DWORD PTR $T3[ebp]
	call	??0CFatalException@gen@@QAE@ABV01@@Z
	push	OFFSET __TI1?AVCFatalException@gen@@
	lea	ecx, DWORD PTR $T3[ebp]
	push	ecx
	call	__CxxThrowException@8
	mov	eax, $LN15@Inverse
	ret	0
__catch$?Inverse@gen@@YA?AVCMatrix4x4@1@ABV21@@Z$1:
	call	?ObjectName@gen@@YAPBDXZ		; gen::ObjectName
	push	eax
	push	OFFSET ??_C@_0N@BLGPECID@gen?3?3Inverse?$AA@
	push	OFFSET ??_C@_0EI@POGHFJCD@c?3?2users?2simon?2documents?2github?2@
	lea	ecx, DWORD PTR $T4[ebp]
	call	??0CFatalException@gen@@QAE@PBD00@Z	; gen::CFatalException::CFatalException
	push	OFFSET __TI1?AVCFatalException@gen@@
	lea	eax, DWORD PTR $T4[ebp]
	push	eax
