; Listing generated by Microsoft (R) Optimizing Compiler Version 18.00.30501.0 

	TITLE	C:\Users\Simon\Documents\GitHub\UCLAN-sparta\RenderObject.cpp
	.686P
	.XMM
	include listing.inc
	.model	flat

INCLUDELIB LIBCMTD
INCLUDELIB OLDNAMES

PUBLIC	?digits@?$numeric_limits@H@std@@2HB		; std::numeric_limits<int>::digits
PUBLIC	?digits10@?$numeric_limits@H@std@@2HB		; std::numeric_limits<int>::digits10
PUBLIC	?g_XMEpsilon@DirectX@@3UXMVECTORF32@1@B		; DirectX::g_XMEpsilon
PUBLIC	?g_XMInfinity@DirectX@@3UXMVECTORI32@1@B	; DirectX::g_XMInfinity
PUBLIC	?g_XMQNaN@DirectX@@3UXMVECTORI32@1@B		; DirectX::g_XMQNaN
PUBLIC	?g_XMQNaNTest@DirectX@@3UXMVECTORI32@1@B	; DirectX::g_XMQNaNTest
PUBLIC	?g_XMAbsMask@DirectX@@3UXMVECTORI32@1@B		; DirectX::g_XMAbsMask
PUBLIC	?g_XMFltMin@DirectX@@3UXMVECTORI32@1@B		; DirectX::g_XMFltMin
PUBLIC	?g_XMFltMax@DirectX@@3UXMVECTORI32@1@B		; DirectX::g_XMFltMax
PUBLIC	?g_XMNegOneMask@DirectX@@3UXMVECTORI32@1@B	; DirectX::g_XMNegOneMask
PUBLIC	?g_XMMaskA8R8G8B8@DirectX@@3UXMVECTORI32@1@B	; DirectX::g_XMMaskA8R8G8B8
PUBLIC	?g_XMFlipA8R8G8B8@DirectX@@3UXMVECTORI32@1@B	; DirectX::g_XMFlipA8R8G8B8
PUBLIC	?g_XMFixAA8R8G8B8@DirectX@@3UXMVECTORF32@1@B	; DirectX::g_XMFixAA8R8G8B8
PUBLIC	?g_XMNormalizeA8R8G8B8@DirectX@@3UXMVECTORF32@1@B ; DirectX::g_XMNormalizeA8R8G8B8
PUBLIC	?g_XMMaskA2B10G10R10@DirectX@@3UXMVECTORI32@1@B	; DirectX::g_XMMaskA2B10G10R10
PUBLIC	?g_XMFlipA2B10G10R10@DirectX@@3UXMVECTORI32@1@B	; DirectX::g_XMFlipA2B10G10R10
PUBLIC	?g_XMFixAA2B10G10R10@DirectX@@3UXMVECTORF32@1@B	; DirectX::g_XMFixAA2B10G10R10
PUBLIC	?g_XMNormalizeA2B10G10R10@DirectX@@3UXMVECTORF32@1@B ; DirectX::g_XMNormalizeA2B10G10R10
PUBLIC	?g_XMMaskX16Y16@DirectX@@3UXMVECTORI32@1@B	; DirectX::g_XMMaskX16Y16
PUBLIC	?g_XMFlipX16Y16@DirectX@@3UXMVECTORI32@1@B	; DirectX::g_XMFlipX16Y16
PUBLIC	?g_XMFixX16Y16@DirectX@@3UXMVECTORF32@1@B	; DirectX::g_XMFixX16Y16
PUBLIC	?is_signed@?$numeric_limits@I@std@@2_NB		; std::numeric_limits<unsigned int>::is_signed
PUBLIC	?g_XMNormalizeX16Y16@DirectX@@3UXMVECTORF32@1@B	; DirectX::g_XMNormalizeX16Y16
PUBLIC	?g_XMMaskX16Y16Z16W16@DirectX@@3UXMVECTORI32@1@B ; DirectX::g_XMMaskX16Y16Z16W16
PUBLIC	?g_XMFlipX16Y16Z16W16@DirectX@@3UXMVECTORI32@1@B ; DirectX::g_XMFlipX16Y16Z16W16
PUBLIC	?g_XMFixX16Y16Z16W16@DirectX@@3UXMVECTORF32@1@B	; DirectX::g_XMFixX16Y16Z16W16
PUBLIC	?digits@?$numeric_limits@I@std@@2HB		; std::numeric_limits<unsigned int>::digits
PUBLIC	?g_XMNormalizeX16Y16Z16W16@DirectX@@3UXMVECTORF32@1@B ; DirectX::g_XMNormalizeX16Y16Z16W16
PUBLIC	?g_XMNoFraction@DirectX@@3UXMVECTORF32@1@B	; DirectX::g_XMNoFraction
PUBLIC	?g_XMMaskByte@DirectX@@3UXMVECTORI32@1@B	; DirectX::g_XMMaskByte
PUBLIC	?g_XMNegateX@DirectX@@3UXMVECTORF32@1@B		; DirectX::g_XMNegateX
PUBLIC	?digits10@?$numeric_limits@I@std@@2HB		; std::numeric_limits<unsigned int>::digits10
PUBLIC	?g_XMNegateY@DirectX@@3UXMVECTORF32@1@B		; DirectX::g_XMNegateY
PUBLIC	?value@?$integral_constant@I$07@std@@2IB	; std::integral_constant<unsigned int,8>::value
PUBLIC	?g_XMNegateZ@DirectX@@3UXMVECTORF32@1@B		; DirectX::g_XMNegateZ
PUBLIC	?g_XMNegateW@DirectX@@3UXMVECTORF32@1@B		; DirectX::g_XMNegateW
PUBLIC	?g_XMSelect0101@DirectX@@3UXMVECTORI32@1@B	; DirectX::g_XMSelect0101
PUBLIC	?g_XMSelect1010@DirectX@@3UXMVECTORI32@1@B	; DirectX::g_XMSelect1010
PUBLIC	?g_XMOneHalfMinusEpsilon@DirectX@@3UXMVECTORI32@1@B ; DirectX::g_XMOneHalfMinusEpsilon
PUBLIC	?g_XMSelect1000@DirectX@@3UXMVECTORI32@1@B	; DirectX::g_XMSelect1000
PUBLIC	?g_XMSelect1100@DirectX@@3UXMVECTORI32@1@B	; DirectX::g_XMSelect1100
PUBLIC	?g_XMSelect1110@DirectX@@3UXMVECTORI32@1@B	; DirectX::g_XMSelect1110
PUBLIC	?g_XMSelect1011@DirectX@@3UXMVECTORI32@1@B	; DirectX::g_XMSelect1011
PUBLIC	?g_XMFixupY16@DirectX@@3UXMVECTORF32@1@B	; DirectX::g_XMFixupY16
PUBLIC	?g_XMFixupY16W16@DirectX@@3UXMVECTORF32@1@B	; DirectX::g_XMFixupY16W16
PUBLIC	?g_XMFlipY@DirectX@@3UXMVECTORI32@1@B		; DirectX::g_XMFlipY
PUBLIC	?g_XMFlipZ@DirectX@@3UXMVECTORI32@1@B		; DirectX::g_XMFlipZ
PUBLIC	?g_XMFlipW@DirectX@@3UXMVECTORI32@1@B		; DirectX::g_XMFlipW
PUBLIC	?g_XMFlipYZ@DirectX@@3UXMVECTORI32@1@B		; DirectX::g_XMFlipYZ
PUBLIC	?g_XMFlipZW@DirectX@@3UXMVECTORI32@1@B		; DirectX::g_XMFlipZW
PUBLIC	?g_XMFlipYW@DirectX@@3UXMVECTORI32@1@B		; DirectX::g_XMFlipYW
PUBLIC	?g_XMMaskDec4@DirectX@@3UXMVECTORI32@1@B	; DirectX::g_XMMaskDec4
PUBLIC	?g_XMXorDec4@DirectX@@3UXMVECTORI32@1@B		; DirectX::g_XMXorDec4
PUBLIC	?g_XMAddUDec4@DirectX@@3UXMVECTORF32@1@B	; DirectX::g_XMAddUDec4
PUBLIC	?g_XMAddDec4@DirectX@@3UXMVECTORF32@1@B		; DirectX::g_XMAddDec4
PUBLIC	?g_XMMulDec4@DirectX@@3UXMVECTORF32@1@B		; DirectX::g_XMMulDec4
PUBLIC	?g_XMMaskByte4@DirectX@@3UXMVECTORI32@1@B	; DirectX::g_XMMaskByte4
PUBLIC	?g_XMXorByte4@DirectX@@3UXMVECTORI32@1@B	; DirectX::g_XMXorByte4
PUBLIC	?g_XMAddByte4@DirectX@@3UXMVECTORF32@1@B	; DirectX::g_XMAddByte4
PUBLIC	?g_XMFixUnsigned@DirectX@@3UXMVECTORF32@1@B	; DirectX::g_XMFixUnsigned
PUBLIC	?g_XMMaxInt@DirectX@@3UXMVECTORF32@1@B		; DirectX::g_XMMaxInt
PUBLIC	?g_XMMaxUInt@DirectX@@3UXMVECTORF32@1@B		; DirectX::g_XMMaxUInt
PUBLIC	?g_XMUnsignedFix@DirectX@@3UXMVECTORF32@1@B	; DirectX::g_XMUnsignedFix
PUBLIC	?is_signed@?$numeric_limits@J@std@@2_NB		; std::numeric_limits<long>::is_signed
PUBLIC	?g_XMsrgbScale@DirectX@@3UXMVECTORF32@1@B	; DirectX::g_XMsrgbScale
PUBLIC	?g_XMsrgbA@DirectX@@3UXMVECTORF32@1@B		; DirectX::g_XMsrgbA
PUBLIC	?g_XMsrgbA1@DirectX@@3UXMVECTORF32@1@B		; DirectX::g_XMsrgbA1
PUBLIC	?g_XMExponentBias@DirectX@@3UXMVECTORI32@1@B	; DirectX::g_XMExponentBias
PUBLIC	?digits@?$numeric_limits@J@std@@2HB		; std::numeric_limits<long>::digits
PUBLIC	?g_XMSubnormalExponent@DirectX@@3UXMVECTORI32@1@B ; DirectX::g_XMSubnormalExponent
PUBLIC	?g_XMNumTrailing@DirectX@@3UXMVECTORI32@1@B	; DirectX::g_XMNumTrailing
PUBLIC	?g_XMMinNormal@DirectX@@3UXMVECTORI32@1@B	; DirectX::g_XMMinNormal
PUBLIC	?g_XMNegInfinity@DirectX@@3UXMVECTORI32@1@B	; DirectX::g_XMNegInfinity
PUBLIC	?digits10@?$numeric_limits@J@std@@2HB		; std::numeric_limits<long>::digits10
PUBLIC	?g_XMNegQNaN@DirectX@@3UXMVECTORI32@1@B		; DirectX::g_XMNegQNaN
PUBLIC	?g_XMBin128@DirectX@@3UXMVECTORI32@1@B		; DirectX::g_XMBin128
PUBLIC	?g_XMBinNeg150@DirectX@@3UXMVECTORI32@1@B	; DirectX::g_XMBinNeg150
PUBLIC	?g_XM253@DirectX@@3UXMVECTORI32@1@B		; DirectX::g_XM253
PUBLIC	?g_XMExpEst1@DirectX@@3UXMVECTORF32@1@B		; DirectX::g_XMExpEst1
PUBLIC	?g_XMExpEst2@DirectX@@3UXMVECTORF32@1@B		; DirectX::g_XMExpEst2
PUBLIC	?g_XMExpEst3@DirectX@@3UXMVECTORF32@1@B		; DirectX::g_XMExpEst3
PUBLIC	?g_XMExpEst4@DirectX@@3UXMVECTORF32@1@B		; DirectX::g_XMExpEst4
PUBLIC	?value@?$integral_constant@_N$0A@@std@@2_NB	; std::integral_constant<bool,0>::value
PUBLIC	?g_XMExpEst5@DirectX@@3UXMVECTORF32@1@B		; DirectX::g_XMExpEst5
PUBLIC	?g_XMExpEst6@DirectX@@3UXMVECTORF32@1@B		; DirectX::g_XMExpEst6
PUBLIC	?g_XMExpEst7@DirectX@@3UXMVECTORF32@1@B		; DirectX::g_XMExpEst7
PUBLIC	?g_XMLogEst0@DirectX@@3UXMVECTORF32@1@B		; DirectX::g_XMLogEst0
PUBLIC	?g_XMLogEst1@DirectX@@3UXMVECTORF32@1@B		; DirectX::g_XMLogEst1
PUBLIC	?g_XMLogEst2@DirectX@@3UXMVECTORF32@1@B		; DirectX::g_XMLogEst2
PUBLIC	?g_XMLogEst3@DirectX@@3UXMVECTORF32@1@B		; DirectX::g_XMLogEst3
PUBLIC	?g_XMLogEst4@DirectX@@3UXMVECTORF32@1@B		; DirectX::g_XMLogEst4
PUBLIC	?g_XMLogEst5@DirectX@@3UXMVECTORF32@1@B		; DirectX::g_XMLogEst5
PUBLIC	?g_XMLogEst6@DirectX@@3UXMVECTORF32@1@B		; DirectX::g_XMLogEst6
PUBLIC	?g_XMLogEst7@DirectX@@3UXMVECTORF32@1@B		; DirectX::g_XMLogEst7
PUBLIC	?g_XMLgE@DirectX@@3UXMVECTORF32@1@B		; DirectX::g_XMLgE
PUBLIC	?g_XMInvLgE@DirectX@@3UXMVECTORF32@1@B		; DirectX::g_XMInvLgE
PUBLIC	?value@?$integral_constant@_N$00@std@@2_NB	; std::integral_constant<bool,1>::value
PUBLIC	?value@?$integral_constant@I$03@std@@2IB	; std::integral_constant<unsigned int,4>::value
PUBLIC	?is_signed@?$numeric_limits@K@std@@2_NB		; std::numeric_limits<unsigned long>::is_signed
PUBLIC	?digits@?$numeric_limits@K@std@@2HB		; std::numeric_limits<unsigned long>::digits
PUBLIC	?digits10@?$numeric_limits@K@std@@2HB		; std::numeric_limits<unsigned long>::digits10
PUBLIC	?is_signed@?$numeric_limits@_J@std@@2_NB	; std::numeric_limits<__int64>::is_signed
PUBLIC	?digits@?$numeric_limits@_J@std@@2HB		; std::numeric_limits<__int64>::digits
PUBLIC	?digits10@?$numeric_limits@_J@std@@2HB		; std::numeric_limits<__int64>::digits10
PUBLIC	?value@?$integral_constant@I$01@std@@2IB	; std::integral_constant<unsigned int,2>::value
PUBLIC	?AliceBlue@Colors@DirectX@@3UXMVECTORF32@2@B	; DirectX::Colors::AliceBlue
PUBLIC	?AntiqueWhite@Colors@DirectX@@3UXMVECTORF32@2@B	; DirectX::Colors::AntiqueWhite
PUBLIC	?Aqua@Colors@DirectX@@3UXMVECTORF32@2@B		; DirectX::Colors::Aqua
PUBLIC	?Aquamarine@Colors@DirectX@@3UXMVECTORF32@2@B	; DirectX::Colors::Aquamarine
PUBLIC	?Azure@Colors@DirectX@@3UXMVECTORF32@2@B	; DirectX::Colors::Azure
PUBLIC	?Beige@Colors@DirectX@@3UXMVECTORF32@2@B	; DirectX::Colors::Beige
PUBLIC	?Bisque@Colors@DirectX@@3UXMVECTORF32@2@B	; DirectX::Colors::Bisque
PUBLIC	?Black@Colors@DirectX@@3UXMVECTORF32@2@B	; DirectX::Colors::Black
PUBLIC	?BlanchedAlmond@Colors@DirectX@@3UXMVECTORF32@2@B ; DirectX::Colors::BlanchedAlmond
PUBLIC	?Blue@Colors@DirectX@@3UXMVECTORF32@2@B		; DirectX::Colors::Blue
PUBLIC	?BlueViolet@Colors@DirectX@@3UXMVECTORF32@2@B	; DirectX::Colors::BlueViolet
PUBLIC	?Brown@Colors@DirectX@@3UXMVECTORF32@2@B	; DirectX::Colors::Brown
PUBLIC	?BurlyWood@Colors@DirectX@@3UXMVECTORF32@2@B	; DirectX::Colors::BurlyWood
PUBLIC	?CadetBlue@Colors@DirectX@@3UXMVECTORF32@2@B	; DirectX::Colors::CadetBlue
PUBLIC	?Chartreuse@Colors@DirectX@@3UXMVECTORF32@2@B	; DirectX::Colors::Chartreuse
PUBLIC	?is_signed@?$numeric_limits@_K@std@@2_NB	; std::numeric_limits<unsigned __int64>::is_signed
PUBLIC	?Chocolate@Colors@DirectX@@3UXMVECTORF32@2@B	; DirectX::Colors::Chocolate
PUBLIC	?Coral@Colors@DirectX@@3UXMVECTORF32@2@B	; DirectX::Colors::Coral
PUBLIC	?CornflowerBlue@Colors@DirectX@@3UXMVECTORF32@2@B ; DirectX::Colors::CornflowerBlue
PUBLIC	?Cornsilk@Colors@DirectX@@3UXMVECTORF32@2@B	; DirectX::Colors::Cornsilk
PUBLIC	?digits@?$numeric_limits@_K@std@@2HB		; std::numeric_limits<unsigned __int64>::digits
PUBLIC	?Crimson@Colors@DirectX@@3UXMVECTORF32@2@B	; DirectX::Colors::Crimson
PUBLIC	?Cyan@Colors@DirectX@@3UXMVECTORF32@2@B		; DirectX::Colors::Cyan
PUBLIC	?DarkBlue@Colors@DirectX@@3UXMVECTORF32@2@B	; DirectX::Colors::DarkBlue
PUBLIC	?DarkCyan@Colors@DirectX@@3UXMVECTORF32@2@B	; DirectX::Colors::DarkCyan
PUBLIC	?digits10@?$numeric_limits@_K@std@@2HB		; std::numeric_limits<unsigned __int64>::digits10
PUBLIC	?skipws@?$_Iosb@H@std@@2W4_Fmtflags@12@B	; std::_Iosb<int>::skipws
PUBLIC	?DarkGoldenrod@Colors@DirectX@@3UXMVECTORF32@2@B ; DirectX::Colors::DarkGoldenrod
PUBLIC	?DarkGray@Colors@DirectX@@3UXMVECTORF32@2@B	; DirectX::Colors::DarkGray
PUBLIC	?DarkGreen@Colors@DirectX@@3UXMVECTORF32@2@B	; DirectX::Colors::DarkGreen
PUBLIC	?unitbuf@?$_Iosb@H@std@@2W4_Fmtflags@12@B	; std::_Iosb<int>::unitbuf
PUBLIC	?DarkKhaki@Colors@DirectX@@3UXMVECTORF32@2@B	; DirectX::Colors::DarkKhaki
PUBLIC	?DarkMagenta@Colors@DirectX@@3UXMVECTORF32@2@B	; DirectX::Colors::DarkMagenta
PUBLIC	?DarkOliveGreen@Colors@DirectX@@3UXMVECTORF32@2@B ; DirectX::Colors::DarkOliveGreen
PUBLIC	?uppercase@?$_Iosb@H@std@@2W4_Fmtflags@12@B	; std::_Iosb<int>::uppercase
PUBLIC	?DarkOrange@Colors@DirectX@@3UXMVECTORF32@2@B	; DirectX::Colors::DarkOrange
PUBLIC	?DarkOrchid@Colors@DirectX@@3UXMVECTORF32@2@B	; DirectX::Colors::DarkOrchid
PUBLIC	?DarkRed@Colors@DirectX@@3UXMVECTORF32@2@B	; DirectX::Colors::DarkRed
PUBLIC	?showbase@?$_Iosb@H@std@@2W4_Fmtflags@12@B	; std::_Iosb<int>::showbase
PUBLIC	?DarkSalmon@Colors@DirectX@@3UXMVECTORF32@2@B	; DirectX::Colors::DarkSalmon
PUBLIC	?DarkSeaGreen@Colors@DirectX@@3UXMVECTORF32@2@B	; DirectX::Colors::DarkSeaGreen
PUBLIC	?DarkSlateBlue@Colors@DirectX@@3UXMVECTORF32@2@B ; DirectX::Colors::DarkSlateBlue
PUBLIC	?showpoint@?$_Iosb@H@std@@2W4_Fmtflags@12@B	; std::_Iosb<int>::showpoint
PUBLIC	?DarkSlateGray@Colors@DirectX@@3UXMVECTORF32@2@B ; DirectX::Colors::DarkSlateGray
PUBLIC	?DarkTurquoise@Colors@DirectX@@3UXMVECTORF32@2@B ; DirectX::Colors::DarkTurquoise
PUBLIC	?DarkViolet@Colors@DirectX@@3UXMVECTORF32@2@B	; DirectX::Colors::DarkViolet
PUBLIC	?showpos@?$_Iosb@H@std@@2W4_Fmtflags@12@B	; std::_Iosb<int>::showpos
PUBLIC	?DeepPink@Colors@DirectX@@3UXMVECTORF32@2@B	; DirectX::Colors::DeepPink
PUBLIC	?DeepSkyBlue@Colors@DirectX@@3UXMVECTORF32@2@B	; DirectX::Colors::DeepSkyBlue
PUBLIC	?DimGray@Colors@DirectX@@3UXMVECTORF32@2@B	; DirectX::Colors::DimGray
PUBLIC	?left@?$_Iosb@H@std@@2W4_Fmtflags@12@B		; std::_Iosb<int>::left
PUBLIC	?DodgerBlue@Colors@DirectX@@3UXMVECTORF32@2@B	; DirectX::Colors::DodgerBlue
PUBLIC	?Firebrick@Colors@DirectX@@3UXMVECTORF32@2@B	; DirectX::Colors::Firebrick
PUBLIC	?FloralWhite@Colors@DirectX@@3UXMVECTORF32@2@B	; DirectX::Colors::FloralWhite
PUBLIC	?right@?$_Iosb@H@std@@2W4_Fmtflags@12@B		; std::_Iosb<int>::right
PUBLIC	?ForestGreen@Colors@DirectX@@3UXMVECTORF32@2@B	; DirectX::Colors::ForestGreen
PUBLIC	?Fuchsia@Colors@DirectX@@3UXMVECTORF32@2@B	; DirectX::Colors::Fuchsia
PUBLIC	?Gainsboro@Colors@DirectX@@3UXMVECTORF32@2@B	; DirectX::Colors::Gainsboro
PUBLIC	?internal@?$_Iosb@H@std@@2W4_Fmtflags@12@B	; std::_Iosb<int>::internal
PUBLIC	?GhostWhite@Colors@DirectX@@3UXMVECTORF32@2@B	; DirectX::Colors::GhostWhite
PUBLIC	?Gold@Colors@DirectX@@3UXMVECTORF32@2@B		; DirectX::Colors::Gold
PUBLIC	?Goldenrod@Colors@DirectX@@3UXMVECTORF32@2@B	; DirectX::Colors::Goldenrod
PUBLIC	?dec@?$_Iosb@H@std@@2W4_Fmtflags@12@B		; std::_Iosb<int>::dec
PUBLIC	?Gray@Colors@DirectX@@3UXMVECTORF32@2@B		; DirectX::Colors::Gray
PUBLIC	?Green@Colors@DirectX@@3UXMVECTORF32@2@B	; DirectX::Colors::Green
PUBLIC	?GreenYellow@Colors@DirectX@@3UXMVECTORF32@2@B	; DirectX::Colors::GreenYellow
PUBLIC	?oct@?$_Iosb@H@std@@2W4_Fmtflags@12@B		; std::_Iosb<int>::oct
PUBLIC	?digits@?$numeric_limits@M@std@@2HB		; std::numeric_limits<float>::digits
PUBLIC	?Honeydew@Colors@DirectX@@3UXMVECTORF32@2@B	; DirectX::Colors::Honeydew
PUBLIC	?HotPink@Colors@DirectX@@3UXMVECTORF32@2@B	; DirectX::Colors::HotPink
PUBLIC	?value@?$integral_constant@I$00@std@@2IB	; std::integral_constant<unsigned int,1>::value
PUBLIC	?IndianRed@Colors@DirectX@@3UXMVECTORF32@2@B	; DirectX::Colors::IndianRed
PUBLIC	?digits10@?$numeric_limits@M@std@@2HB		; std::numeric_limits<float>::digits10
PUBLIC	?hex@?$_Iosb@H@std@@2W4_Fmtflags@12@B		; std::_Iosb<int>::hex
PUBLIC	?Indigo@Colors@DirectX@@3UXMVECTORF32@2@B	; DirectX::Colors::Indigo
PUBLIC	?Ivory@Colors@DirectX@@3UXMVECTORF32@2@B	; DirectX::Colors::Ivory
PUBLIC	?Khaki@Colors@DirectX@@3UXMVECTORF32@2@B	; DirectX::Colors::Khaki
PUBLIC	?max_digits10@?$numeric_limits@M@std@@2HB	; std::numeric_limits<float>::max_digits10
PUBLIC	?scientific@?$_Iosb@H@std@@2W4_Fmtflags@12@B	; std::_Iosb<int>::scientific
PUBLIC	?Lavender@Colors@DirectX@@3UXMVECTORF32@2@B	; DirectX::Colors::Lavender
PUBLIC	?LavenderBlush@Colors@DirectX@@3UXMVECTORF32@2@B ; DirectX::Colors::LavenderBlush
PUBLIC	?LawnGreen@Colors@DirectX@@3UXMVECTORF32@2@B	; DirectX::Colors::LawnGreen
PUBLIC	?fixed@?$_Iosb@H@std@@2W4_Fmtflags@12@B		; std::_Iosb<int>::fixed
PUBLIC	?LemonChiffon@Colors@DirectX@@3UXMVECTORF32@2@B	; DirectX::Colors::LemonChiffon
PUBLIC	?max_exponent@?$numeric_limits@M@std@@2HB	; std::numeric_limits<float>::max_exponent
PUBLIC	?LightBlue@Colors@DirectX@@3UXMVECTORF32@2@B	; DirectX::Colors::LightBlue
PUBLIC	?LightCoral@Colors@DirectX@@3UXMVECTORF32@2@B	; DirectX::Colors::LightCoral
PUBLIC	?hexfloat@?$_Iosb@H@std@@2W4_Fmtflags@12@B	; std::_Iosb<int>::hexfloat
PUBLIC	?LightCyan@Colors@DirectX@@3UXMVECTORF32@2@B	; DirectX::Colors::LightCyan
PUBLIC	?LightGoldenrodYellow@Colors@DirectX@@3UXMVECTORF32@2@B ; DirectX::Colors::LightGoldenrodYellow
PUBLIC	?max_exponent10@?$numeric_limits@M@std@@2HB	; std::numeric_limits<float>::max_exponent10
PUBLIC	?LightGreen@Colors@DirectX@@3UXMVECTORF32@2@B	; DirectX::Colors::LightGreen
PUBLIC	?boolalpha@?$_Iosb@H@std@@2W4_Fmtflags@12@B	; std::_Iosb<int>::boolalpha
PUBLIC	?LightGray@Colors@DirectX@@3UXMVECTORF32@2@B	; DirectX::Colors::LightGray
PUBLIC	?LightPink@Colors@DirectX@@3UXMVECTORF32@2@B	; DirectX::Colors::LightPink
PUBLIC	?LightSalmon@Colors@DirectX@@3UXMVECTORF32@2@B	; DirectX::Colors::LightSalmon
PUBLIC	?min_exponent@?$numeric_limits@M@std@@2HB	; std::numeric_limits<float>::min_exponent
PUBLIC	?_Stdio@?$_Iosb@H@std@@2W4_Fmtflags@12@B	; std::_Iosb<int>::_Stdio
PUBLIC	?LightSeaGreen@Colors@DirectX@@3UXMVECTORF32@2@B ; DirectX::Colors::LightSeaGreen
PUBLIC	?LightSkyBlue@Colors@DirectX@@3UXMVECTORF32@2@B	; DirectX::Colors::LightSkyBlue
PUBLIC	?LightSlateGray@Colors@DirectX@@3UXMVECTORF32@2@B ; DirectX::Colors::LightSlateGray
PUBLIC	?adjustfield@?$_Iosb@H@std@@2W4_Fmtflags@12@B	; std::_Iosb<int>::adjustfield
PUBLIC	?LightSteelBlue@Colors@DirectX@@3UXMVECTORF32@2@B ; DirectX::Colors::LightSteelBlue
PUBLIC	?min_exponent10@?$numeric_limits@M@std@@2HB	; std::numeric_limits<float>::min_exponent10
PUBLIC	?LightYellow@Colors@DirectX@@3UXMVECTORF32@2@B	; DirectX::Colors::LightYellow
PUBLIC	?Lime@Colors@DirectX@@3UXMVECTORF32@2@B		; DirectX::Colors::Lime
PUBLIC	?basefield@?$_Iosb@H@std@@2W4_Fmtflags@12@B	; std::_Iosb<int>::basefield
PUBLIC	?LimeGreen@Colors@DirectX@@3UXMVECTORF32@2@B	; DirectX::Colors::LimeGreen
PUBLIC	?value@?$_Maximum@$S@std@@2IB			; std::_Maximum<>::value
PUBLIC	?Linen@Colors@DirectX@@3UXMVECTORF32@2@B	; DirectX::Colors::Linen
PUBLIC	?Magenta@Colors@DirectX@@3UXMVECTORF32@2@B	; DirectX::Colors::Magenta
PUBLIC	?floatfield@?$_Iosb@H@std@@2W4_Fmtflags@12@B	; std::_Iosb<int>::floatfield
PUBLIC	?Maroon@Colors@DirectX@@3UXMVECTORF32@2@B	; DirectX::Colors::Maroon
PUBLIC	?MediumAquamarine@Colors@DirectX@@3UXMVECTORF32@2@B ; DirectX::Colors::MediumAquamarine
PUBLIC	?MediumBlue@Colors@DirectX@@3UXMVECTORF32@2@B	; DirectX::Colors::MediumBlue
PUBLIC	?MediumOrchid@Colors@DirectX@@3UXMVECTORF32@2@B	; DirectX::Colors::MediumOrchid
PUBLIC	?MediumPurple@Colors@DirectX@@3UXMVECTORF32@2@B	; DirectX::Colors::MediumPurple
PUBLIC	?goodbit@?$_Iosb@H@std@@2W4_Iostate@12@B	; std::_Iosb<int>::goodbit
PUBLIC	?MediumSeaGreen@Colors@DirectX@@3UXMVECTORF32@2@B ; DirectX::Colors::MediumSeaGreen
PUBLIC	?MediumSlateBlue@Colors@DirectX@@3UXMVECTORF32@2@B ; DirectX::Colors::MediumSlateBlue
PUBLIC	?MediumSpringGreen@Colors@DirectX@@3UXMVECTORF32@2@B ; DirectX::Colors::MediumSpringGreen
PUBLIC	?eofbit@?$_Iosb@H@std@@2W4_Iostate@12@B		; std::_Iosb<int>::eofbit
PUBLIC	?MediumTurquoise@Colors@DirectX@@3UXMVECTORF32@2@B ; DirectX::Colors::MediumTurquoise
PUBLIC	?MediumVioletRed@Colors@DirectX@@3UXMVECTORF32@2@B ; DirectX::Colors::MediumVioletRed
PUBLIC	?MidnightBlue@Colors@DirectX@@3UXMVECTORF32@2@B	; DirectX::Colors::MidnightBlue
PUBLIC	?failbit@?$_Iosb@H@std@@2W4_Iostate@12@B	; std::_Iosb<int>::failbit
PUBLIC	?MintCream@Colors@DirectX@@3UXMVECTORF32@2@B	; DirectX::Colors::MintCream
PUBLIC	?MistyRose@Colors@DirectX@@3UXMVECTORF32@2@B	; DirectX::Colors::MistyRose
PUBLIC	?Moccasin@Colors@DirectX@@3UXMVECTORF32@2@B	; DirectX::Colors::Moccasin
PUBLIC	?badbit@?$_Iosb@H@std@@2W4_Iostate@12@B		; std::_Iosb<int>::badbit
PUBLIC	?NavajoWhite@Colors@DirectX@@3UXMVECTORF32@2@B	; DirectX::Colors::NavajoWhite
PUBLIC	?Navy@Colors@DirectX@@3UXMVECTORF32@2@B		; DirectX::Colors::Navy
PUBLIC	?OldLace@Colors@DirectX@@3UXMVECTORF32@2@B	; DirectX::Colors::OldLace
PUBLIC	?_Hardfail@?$_Iosb@H@std@@2W4_Iostate@12@B	; std::_Iosb<int>::_Hardfail
PUBLIC	?Olive@Colors@DirectX@@3UXMVECTORF32@2@B	; DirectX::Colors::Olive
PUBLIC	?OliveDrab@Colors@DirectX@@3UXMVECTORF32@2@B	; DirectX::Colors::OliveDrab
PUBLIC	?Orange@Colors@DirectX@@3UXMVECTORF32@2@B	; DirectX::Colors::Orange
PUBLIC	?OrangeRed@Colors@DirectX@@3UXMVECTORF32@2@B	; DirectX::Colors::OrangeRed
PUBLIC	?Orchid@Colors@DirectX@@3UXMVECTORF32@2@B	; DirectX::Colors::Orchid
PUBLIC	?in@?$_Iosb@H@std@@2W4_Openmode@12@B		; std::_Iosb<int>::in
PUBLIC	?PaleGoldenrod@Colors@DirectX@@3UXMVECTORF32@2@B ; DirectX::Colors::PaleGoldenrod
PUBLIC	?PaleGreen@Colors@DirectX@@3UXMVECTORF32@2@B	; DirectX::Colors::PaleGreen
PUBLIC	?PaleTurquoise@Colors@DirectX@@3UXMVECTORF32@2@B ; DirectX::Colors::PaleTurquoise
PUBLIC	?digits@?$numeric_limits@N@std@@2HB		; std::numeric_limits<double>::digits
PUBLIC	?out@?$_Iosb@H@std@@2W4_Openmode@12@B		; std::_Iosb<int>::out
PUBLIC	?PaleVioletRed@Colors@DirectX@@3UXMVECTORF32@2@B ; DirectX::Colors::PaleVioletRed
PUBLIC	?PapayaWhip@Colors@DirectX@@3UXMVECTORF32@2@B	; DirectX::Colors::PapayaWhip
PUBLIC	?PeachPuff@Colors@DirectX@@3UXMVECTORF32@2@B	; DirectX::Colors::PeachPuff
PUBLIC	?ate@?$_Iosb@H@std@@2W4_Openmode@12@B		; std::_Iosb<int>::ate
PUBLIC	?digits10@?$numeric_limits@N@std@@2HB		; std::numeric_limits<double>::digits10
PUBLIC	?Peru@Colors@DirectX@@3UXMVECTORF32@2@B		; DirectX::Colors::Peru
PUBLIC	?Pink@Colors@DirectX@@3UXMVECTORF32@2@B		; DirectX::Colors::Pink
PUBLIC	?Plum@Colors@DirectX@@3UXMVECTORF32@2@B		; DirectX::Colors::Plum
PUBLIC	?max_digits10@?$numeric_limits@N@std@@2HB	; std::numeric_limits<double>::max_digits10
PUBLIC	?app@?$_Iosb@H@std@@2W4_Openmode@12@B		; std::_Iosb<int>::app
PUBLIC	?PowderBlue@Colors@DirectX@@3UXMVECTORF32@2@B	; DirectX::Colors::PowderBlue
PUBLIC	?Purple@Colors@DirectX@@3UXMVECTORF32@2@B	; DirectX::Colors::Purple
PUBLIC	?value@?$integral_constant@I$0A@@std@@2IB	; std::integral_constant<unsigned int,0>::value
PUBLIC	?Red@Colors@DirectX@@3UXMVECTORF32@2@B		; DirectX::Colors::Red
PUBLIC	?trunc@?$_Iosb@H@std@@2W4_Openmode@12@B		; std::_Iosb<int>::trunc
PUBLIC	?RosyBrown@Colors@DirectX@@3UXMVECTORF32@2@B	; DirectX::Colors::RosyBrown
PUBLIC	?max_exponent@?$numeric_limits@N@std@@2HB	; std::numeric_limits<double>::max_exponent
PUBLIC	?RoyalBlue@Colors@DirectX@@3UXMVECTORF32@2@B	; DirectX::Colors::RoyalBlue
PUBLIC	?SaddleBrown@Colors@DirectX@@3UXMVECTORF32@2@B	; DirectX::Colors::SaddleBrown
PUBLIC	?_Nocreate@?$_Iosb@H@std@@2W4_Openmode@12@B	; std::_Iosb<int>::_Nocreate
PUBLIC	?Salmon@Colors@DirectX@@3UXMVECTORF32@2@B	; DirectX::Colors::Salmon
PUBLIC	?SandyBrown@Colors@DirectX@@3UXMVECTORF32@2@B	; DirectX::Colors::SandyBrown
PUBLIC	?max_exponent10@?$numeric_limits@N@std@@2HB	; std::numeric_limits<double>::max_exponent10
PUBLIC	?SeaGreen@Colors@DirectX@@3UXMVECTORF32@2@B	; DirectX::Colors::SeaGreen
PUBLIC	?_Noreplace@?$_Iosb@H@std@@2W4_Openmode@12@B	; std::_Iosb<int>::_Noreplace
PUBLIC	?SeaShell@Colors@DirectX@@3UXMVECTORF32@2@B	; DirectX::Colors::SeaShell
PUBLIC	?Sienna@Colors@DirectX@@3UXMVECTORF32@2@B	; DirectX::Colors::Sienna
PUBLIC	?Silver@Colors@DirectX@@3UXMVECTORF32@2@B	; DirectX::Colors::Silver
PUBLIC	?min_exponent@?$numeric_limits@N@std@@2HB	; std::numeric_limits<double>::min_exponent
PUBLIC	?binary@?$_Iosb@H@std@@2W4_Openmode@12@B	; std::_Iosb<int>::binary
PUBLIC	?SkyBlue@Colors@DirectX@@3UXMVECTORF32@2@B	; DirectX::Colors::SkyBlue
PUBLIC	?SlateBlue@Colors@DirectX@@3UXMVECTORF32@2@B	; DirectX::Colors::SlateBlue
PUBLIC	?SlateGray@Colors@DirectX@@3UXMVECTORF32@2@B	; DirectX::Colors::SlateGray
PUBLIC	?Snow@Colors@DirectX@@3UXMVECTORF32@2@B		; DirectX::Colors::Snow
PUBLIC	?min_exponent10@?$numeric_limits@N@std@@2HB	; std::numeric_limits<double>::min_exponent10
PUBLIC	?SpringGreen@Colors@DirectX@@3UXMVECTORF32@2@B	; DirectX::Colors::SpringGreen
PUBLIC	?beg@?$_Iosb@H@std@@2W4_Seekdir@12@B		; std::_Iosb<int>::beg
PUBLIC	?SteelBlue@Colors@DirectX@@3UXMVECTORF32@2@B	; DirectX::Colors::SteelBlue
PUBLIC	?Tan@Colors@DirectX@@3UXMVECTORF32@2@B		; DirectX::Colors::Tan
PUBLIC	?Teal@Colors@DirectX@@3UXMVECTORF32@2@B		; DirectX::Colors::Teal
PUBLIC	?cur@?$_Iosb@H@std@@2W4_Seekdir@12@B		; std::_Iosb<int>::cur
PUBLIC	?Thistle@Colors@DirectX@@3UXMVECTORF32@2@B	; DirectX::Colors::Thistle
PUBLIC	?Tomato@Colors@DirectX@@3UXMVECTORF32@2@B	; DirectX::Colors::Tomato
PUBLIC	?Transparent@Colors@DirectX@@3UXMVECTORF32@2@B	; DirectX::Colors::Transparent
PUBLIC	?end@?$_Iosb@H@std@@2W4_Seekdir@12@B		; std::_Iosb<int>::end
PUBLIC	?Turquoise@Colors@DirectX@@3UXMVECTORF32@2@B	; DirectX::Colors::Turquoise
PUBLIC	?Violet@Colors@DirectX@@3UXMVECTORF32@2@B	; DirectX::Colors::Violet
PUBLIC	?Wheat@Colors@DirectX@@3UXMVECTORF32@2@B	; DirectX::Colors::Wheat
PUBLIC	?White@Colors@DirectX@@3UXMVECTORF32@2@B	; DirectX::Colors::White
PUBLIC	?WhiteSmoke@Colors@DirectX@@3UXMVECTORF32@2@B	; DirectX::Colors::WhiteSmoke
PUBLIC	?Yellow@Colors@DirectX@@3UXMVECTORF32@2@B	; DirectX::Colors::Yellow
PUBLIC	?YellowGreen@Colors@DirectX@@3UXMVECTORF32@2@B	; DirectX::Colors::YellowGreen
PUBLIC	?digits@?$numeric_limits@O@std@@2HB		; std::numeric_limits<long double>::digits
PUBLIC	?digits10@?$numeric_limits@O@std@@2HB		; std::numeric_limits<long double>::digits10
PUBLIC	?max_digits10@?$numeric_limits@O@std@@2HB	; std::numeric_limits<long double>::max_digits10
PUBLIC	?max_exponent@?$numeric_limits@O@std@@2HB	; std::numeric_limits<long double>::max_exponent
PUBLIC	?collate@?$_Locbase@H@std@@2HB			; std::_Locbase<int>::collate
PUBLIC	?max_exponent10@?$numeric_limits@O@std@@2HB	; std::numeric_limits<long double>::max_exponent10
PUBLIC	?ctype@?$_Locbase@H@std@@2HB			; std::_Locbase<int>::ctype
PUBLIC	?monetary@?$_Locbase@H@std@@2HB			; std::_Locbase<int>::monetary
PUBLIC	?min_exponent@?$numeric_limits@O@std@@2HB	; std::numeric_limits<long double>::min_exponent
PUBLIC	?numeric@?$_Locbase@H@std@@2HB			; std::_Locbase<int>::numeric
PUBLIC	?time@?$_Locbase@H@std@@2HB			; std::_Locbase<int>::time
PUBLIC	?min_exponent10@?$numeric_limits@O@std@@2HB	; std::numeric_limits<long double>::min_exponent10
PUBLIC	?messages@?$_Locbase@H@std@@2HB			; std::_Locbase<int>::messages
PUBLIC	?all@?$_Locbase@H@std@@2HB			; std::_Locbase<int>::all
PUBLIC	?none@?$_Locbase@H@std@@2HB			; std::_Locbase<int>::none
PUBLIC	?MAX_VERTEX_ELTS@CModel@@0HB			; CModel::MAX_VERTEX_ELTS
PUBLIC	?table_size@?$ctype@D@std@@2IB			; std::ctype<char>::table_size
PUBLIC	?has_denorm@_Num_base@std@@2W4float_denorm_style@2@B ; std::_Num_base::has_denorm
PUBLIC	?has_denorm_loss@_Num_base@std@@2_NB		; std::_Num_base::has_denorm_loss
PUBLIC	?has_infinity@_Num_base@std@@2_NB		; std::_Num_base::has_infinity
PUBLIC	?has_quiet_NaN@_Num_base@std@@2_NB		; std::_Num_base::has_quiet_NaN
PUBLIC	?has_signaling_NaN@_Num_base@std@@2_NB		; std::_Num_base::has_signaling_NaN
PUBLIC	?is_bounded@_Num_base@std@@2_NB			; std::_Num_base::is_bounded
PUBLIC	?is_exact@_Num_base@std@@2_NB			; std::_Num_base::is_exact
PUBLIC	?is_iec559@_Num_base@std@@2_NB			; std::_Num_base::is_iec559
PUBLIC	?is_integer@_Num_base@std@@2_NB			; std::_Num_base::is_integer
PUBLIC	?is_modulo@_Num_base@std@@2_NB			; std::_Num_base::is_modulo
PUBLIC	?is_signed@_Num_base@std@@2_NB			; std::_Num_base::is_signed
PUBLIC	?is_specialized@_Num_base@std@@2_NB		; std::_Num_base::is_specialized
PUBLIC	?tinyness_before@_Num_base@std@@2_NB		; std::_Num_base::tinyness_before
PUBLIC	?traps@_Num_base@std@@2_NB			; std::_Num_base::traps
PUBLIC	?round_style@_Num_base@std@@2W4float_round_style@2@B ; std::_Num_base::round_style
PUBLIC	?digits@_Num_base@std@@2HB			; std::_Num_base::digits
PUBLIC	?digits10@_Num_base@std@@2HB			; std::_Num_base::digits10
PUBLIC	?max_digits10@_Num_base@std@@2HB		; std::_Num_base::max_digits10
PUBLIC	?max_exponent@_Num_base@std@@2HB		; std::_Num_base::max_exponent
PUBLIC	?max_exponent10@_Num_base@std@@2HB		; std::_Num_base::max_exponent10
PUBLIC	?min_exponent@_Num_base@std@@2HB		; std::_Num_base::min_exponent
PUBLIC	?min_exponent10@_Num_base@std@@2HB		; std::_Num_base::min_exponent10
PUBLIC	?radix@_Num_base@std@@2HB			; std::_Num_base::radix
PUBLIC	?is_bounded@_Num_int_base@std@@2_NB		; std::_Num_int_base::is_bounded
PUBLIC	?is_exact@_Num_int_base@std@@2_NB		; std::_Num_int_base::is_exact
PUBLIC	?is_integer@_Num_int_base@std@@2_NB		; std::_Num_int_base::is_integer
PUBLIC	?is_modulo@_Num_int_base@std@@2_NB		; std::_Num_int_base::is_modulo
PUBLIC	?is_specialized@_Num_int_base@std@@2_NB		; std::_Num_int_base::is_specialized
PUBLIC	?radix@_Num_int_base@std@@2HB			; std::_Num_int_base::radix
PUBLIC	?has_denorm@_Num_float_base@std@@2W4float_denorm_style@2@B ; std::_Num_float_base::has_denorm
PUBLIC	?has_denorm_loss@_Num_float_base@std@@2_NB	; std::_Num_float_base::has_denorm_loss
PUBLIC	?has_infinity@_Num_float_base@std@@2_NB		; std::_Num_float_base::has_infinity
PUBLIC	?has_quiet_NaN@_Num_float_base@std@@2_NB	; std::_Num_float_base::has_quiet_NaN
PUBLIC	?has_signaling_NaN@_Num_float_base@std@@2_NB	; std::_Num_float_base::has_signaling_NaN
PUBLIC	?is_bounded@_Num_float_base@std@@2_NB		; std::_Num_float_base::is_bounded
PUBLIC	?is_exact@_Num_float_base@std@@2_NB		; std::_Num_float_base::is_exact
PUBLIC	?is_iec559@_Num_float_base@std@@2_NB		; std::_Num_float_base::is_iec559
PUBLIC	?is_integer@_Num_float_base@std@@2_NB		; std::_Num_float_base::is_integer
PUBLIC	?is_modulo@_Num_float_base@std@@2_NB		; std::_Num_float_base::is_modulo
PUBLIC	?is_signed@_Num_float_base@std@@2_NB		; std::_Num_float_base::is_signed
PUBLIC	?is_specialized@_Num_float_base@std@@2_NB	; std::_Num_float_base::is_specialized
PUBLIC	?tinyness_before@_Num_float_base@std@@2_NB	; std::_Num_float_base::tinyness_before
PUBLIC	?traps@_Num_float_base@std@@2_NB		; std::_Num_float_base::traps
PUBLIC	?round_style@_Num_float_base@std@@2W4float_round_style@2@B ; std::_Num_float_base::round_style
PUBLIC	?radix@_Num_float_base@std@@2HB			; std::_Num_float_base::radix
PUBLIC	?is_signed@?$numeric_limits@D@std@@2_NB		; std::numeric_limits<char>::is_signed
PUBLIC	?digits@?$numeric_limits@D@std@@2HB		; std::numeric_limits<char>::digits
PUBLIC	?digits10@?$numeric_limits@D@std@@2HB		; std::numeric_limits<char>::digits10
PUBLIC	?is_signed@?$numeric_limits@_W@std@@2_NB	; std::numeric_limits<wchar_t>::is_signed
PUBLIC	?digits@?$numeric_limits@_W@std@@2HB		; std::numeric_limits<wchar_t>::digits
PUBLIC	?digits10@?$numeric_limits@_W@std@@2HB		; std::numeric_limits<wchar_t>::digits10
PUBLIC	?is_modulo@?$numeric_limits@_N@std@@2_NB	; std::numeric_limits<bool>::is_modulo
PUBLIC	?is_signed@?$numeric_limits@_N@std@@2_NB	; std::numeric_limits<bool>::is_signed
PUBLIC	?digits@?$numeric_limits@_N@std@@2HB		; std::numeric_limits<bool>::digits
PUBLIC	?digits10@?$numeric_limits@_N@std@@2HB		; std::numeric_limits<bool>::digits10
PUBLIC	?is_signed@?$numeric_limits@C@std@@2_NB		; std::numeric_limits<signed char>::is_signed
PUBLIC	?digits@?$numeric_limits@C@std@@2HB		; std::numeric_limits<signed char>::digits
PUBLIC	?digits10@?$numeric_limits@C@std@@2HB		; std::numeric_limits<signed char>::digits10
PUBLIC	?is_signed@?$numeric_limits@E@std@@2_NB		; std::numeric_limits<unsigned char>::is_signed
PUBLIC	?digits@?$numeric_limits@E@std@@2HB		; std::numeric_limits<unsigned char>::digits
PUBLIC	?digits10@?$numeric_limits@E@std@@2HB		; std::numeric_limits<unsigned char>::digits10
PUBLIC	?is_signed@?$numeric_limits@F@std@@2_NB		; std::numeric_limits<short>::is_signed
PUBLIC	?digits@?$numeric_limits@F@std@@2HB		; std::numeric_limits<short>::digits
PUBLIC	?digits10@?$numeric_limits@F@std@@2HB		; std::numeric_limits<short>::digits10
PUBLIC	?g_XMSinCoefficients0@DirectX@@3UXMVECTORF32@1@B ; DirectX::g_XMSinCoefficients0
PUBLIC	?g_XMSinCoefficients1@DirectX@@3UXMVECTORF32@1@B ; DirectX::g_XMSinCoefficients1
PUBLIC	?g_XMCosCoefficients0@DirectX@@3UXMVECTORF32@1@B ; DirectX::g_XMCosCoefficients0
PUBLIC	?g_XMCosCoefficients1@DirectX@@3UXMVECTORF32@1@B ; DirectX::g_XMCosCoefficients1
PUBLIC	?g_XMTanCoefficients0@DirectX@@3UXMVECTORF32@1@B ; DirectX::g_XMTanCoefficients0
PUBLIC	?g_XMTanCoefficients1@DirectX@@3UXMVECTORF32@1@B ; DirectX::g_XMTanCoefficients1
PUBLIC	?g_XMTanCoefficients2@DirectX@@3UXMVECTORF32@1@B ; DirectX::g_XMTanCoefficients2
PUBLIC	?g_XMArcCoefficients0@DirectX@@3UXMVECTORF32@1@B ; DirectX::g_XMArcCoefficients0
PUBLIC	?g_XMArcCoefficients1@DirectX@@3UXMVECTORF32@1@B ; DirectX::g_XMArcCoefficients1
PUBLIC	?g_XMATanCoefficients0@DirectX@@3UXMVECTORF32@1@B ; DirectX::g_XMATanCoefficients0
PUBLIC	?g_XMATanCoefficients1@DirectX@@3UXMVECTORF32@1@B ; DirectX::g_XMATanCoefficients1
PUBLIC	?g_XMATanEstCoefficients0@DirectX@@3UXMVECTORF32@1@B ; DirectX::g_XMATanEstCoefficients0
PUBLIC	?g_XMATanEstCoefficients1@DirectX@@3UXMVECTORF32@1@B ; DirectX::g_XMATanEstCoefficients1
PUBLIC	?g_XMArcEstCoefficients@DirectX@@3UXMVECTORF32@1@B ; DirectX::g_XMArcEstCoefficients
PUBLIC	?g_XMIdentityR0@DirectX@@3UXMVECTORF32@1@B	; DirectX::g_XMIdentityR0
PUBLIC	?g_XMIdentityR1@DirectX@@3UXMVECTORF32@1@B	; DirectX::g_XMIdentityR1
PUBLIC	?g_XMIdentityR2@DirectX@@3UXMVECTORF32@1@B	; DirectX::g_XMIdentityR2
PUBLIC	?g_XMIdentityR3@DirectX@@3UXMVECTORF32@1@B	; DirectX::g_XMIdentityR3
PUBLIC	?g_XMNegIdentityR0@DirectX@@3UXMVECTORF32@1@B	; DirectX::g_XMNegIdentityR0
PUBLIC	?is_signed@?$numeric_limits@G@std@@2_NB		; std::numeric_limits<unsigned short>::is_signed
PUBLIC	?g_XMNegIdentityR1@DirectX@@3UXMVECTORF32@1@B	; DirectX::g_XMNegIdentityR1
PUBLIC	?g_XMNegIdentityR2@DirectX@@3UXMVECTORF32@1@B	; DirectX::g_XMNegIdentityR2
PUBLIC	?g_XMNegIdentityR3@DirectX@@3UXMVECTORF32@1@B	; DirectX::g_XMNegIdentityR3
PUBLIC	?g_XMNegativeZero@DirectX@@3UXMVECTORI32@1@B	; DirectX::g_XMNegativeZero
PUBLIC	?digits@?$numeric_limits@G@std@@2HB		; std::numeric_limits<unsigned short>::digits
PUBLIC	?g_XMNegate3@DirectX@@3UXMVECTORI32@1@B		; DirectX::g_XMNegate3
PUBLIC	?g_XMMask3@DirectX@@3UXMVECTORI32@1@B		; DirectX::g_XMMask3
PUBLIC	?g_XMMaskX@DirectX@@3UXMVECTORI32@1@B		; DirectX::g_XMMaskX
PUBLIC	?g_XMMaskY@DirectX@@3UXMVECTORI32@1@B		; DirectX::g_XMMaskY
PUBLIC	?digits10@?$numeric_limits@G@std@@2HB		; std::numeric_limits<unsigned short>::digits10
PUBLIC	?g_XMMaskZ@DirectX@@3UXMVECTORI32@1@B		; DirectX::g_XMMaskZ
PUBLIC	?g_XMMaskW@DirectX@@3UXMVECTORI32@1@B		; DirectX::g_XMMaskW
PUBLIC	?g_XMOne@DirectX@@3UXMVECTORF32@1@B		; DirectX::g_XMOne
PUBLIC	?g_XMOne3@DirectX@@3UXMVECTORF32@1@B		; DirectX::g_XMOne3
PUBLIC	?g_XMZero@DirectX@@3UXMVECTORF32@1@B		; DirectX::g_XMZero
PUBLIC	?g_XMTwo@DirectX@@3UXMVECTORF32@1@B		; DirectX::g_XMTwo
PUBLIC	?g_XMFour@DirectX@@3UXMVECTORF32@1@B		; DirectX::g_XMFour
PUBLIC	?g_XMSix@DirectX@@3UXMVECTORF32@1@B		; DirectX::g_XMSix
PUBLIC	?g_XMNegativeOne@DirectX@@3UXMVECTORF32@1@B	; DirectX::g_XMNegativeOne
PUBLIC	?g_XMOneHalf@DirectX@@3UXMVECTORF32@1@B		; DirectX::g_XMOneHalf
PUBLIC	?g_XMNegativeOneHalf@DirectX@@3UXMVECTORF32@1@B	; DirectX::g_XMNegativeOneHalf
PUBLIC	?is_signed@?$numeric_limits@H@std@@2_NB		; std::numeric_limits<int>::is_signed
;	COMDAT ?is_signed@?$numeric_limits@H@std@@2_NB
CONST	SEGMENT
?is_signed@?$numeric_limits@H@std@@2_NB DB 01H		; std::numeric_limits<int>::is_signed
CONST	ENDS
;	COMDAT ?g_XMNegativeOneHalf@DirectX@@3UXMVECTORF32@1@B
CONST	SEGMENT
?g_XMNegativeOneHalf@DirectX@@3UXMVECTORF32@1@B DD 0bf000000r ; -0.5 ; DirectX::g_XMNegativeOneHalf
	DD	0bf000000r			; -0.5
	DD	0bf000000r			; -0.5
	DD	0bf000000r			; -0.5
CONST	ENDS
;	COMDAT ?g_XMOneHalf@DirectX@@3UXMVECTORF32@1@B
CONST	SEGMENT
?g_XMOneHalf@DirectX@@3UXMVECTORF32@1@B DD 03f000000r ; 0.5 ; DirectX::g_XMOneHalf
	DD	03f000000r			; 0.5
	DD	03f000000r			; 0.5
	DD	03f000000r			; 0.5
CONST	ENDS
;	COMDAT ?g_XMNegativeOne@DirectX@@3UXMVECTORF32@1@B
CONST	SEGMENT
?g_XMNegativeOne@DirectX@@3UXMVECTORF32@1@B DD 0bf800000r ; -1 ; DirectX::g_XMNegativeOne
	DD	0bf800000r			; -1
	DD	0bf800000r			; -1
	DD	0bf800000r			; -1
CONST	ENDS
;	COMDAT ?g_XMSix@DirectX@@3UXMVECTORF32@1@B
CONST	SEGMENT
?g_XMSix@DirectX@@3UXMVECTORF32@1@B DD 040c00000r ; 6	; DirectX::g_XMSix
	DD	040c00000r			; 6
	DD	040c00000r			; 6
	DD	040c00000r			; 6
CONST	ENDS
;	COMDAT ?g_XMFour@DirectX@@3UXMVECTORF32@1@B
CONST	SEGMENT
?g_XMFour@DirectX@@3UXMVECTORF32@1@B DD 040800000r ; 4	; DirectX::g_XMFour
	DD	040800000r			; 4
	DD	040800000r			; 4
	DD	040800000r			; 4
CONST	ENDS
;	COMDAT ?g_XMTwo@DirectX@@3UXMVECTORF32@1@B
CONST	SEGMENT
?g_XMTwo@DirectX@@3UXMVECTORF32@1@B DD 040000000r ; 2	; DirectX::g_XMTwo
	DD	040000000r			; 2
	DD	040000000r			; 2
	DD	040000000r			; 2
CONST	ENDS
;	COMDAT ?g_XMZero@DirectX@@3UXMVECTORF32@1@B
CONST	SEGMENT
?g_XMZero@DirectX@@3UXMVECTORF32@1@B DD 000000000r ; 0	; DirectX::g_XMZero
	DD	000000000r			; 0
	DD	000000000r			; 0
	DD	000000000r			; 0
CONST	ENDS
;	COMDAT ?g_XMOne3@DirectX@@3UXMVECTORF32@1@B
CONST	SEGMENT
?g_XMOne3@DirectX@@3UXMVECTORF32@1@B DD 03f800000r ; 1	; DirectX::g_XMOne3
	DD	03f800000r			; 1
	DD	03f800000r			; 1
	DD	000000000r			; 0
CONST	ENDS
;	COMDAT ?g_XMOne@DirectX@@3UXMVECTORF32@1@B
CONST	SEGMENT
?g_XMOne@DirectX@@3UXMVECTORF32@1@B DD 03f800000r ; 1	; DirectX::g_XMOne
	DD	03f800000r			; 1
	DD	03f800000r			; 1
	DD	03f800000r			; 1
CONST	ENDS
;	COMDAT ?g_XMMaskW@DirectX@@3UXMVECTORI32@1@B
CONST	SEGMENT
?g_XMMaskW@DirectX@@3UXMVECTORI32@1@B DD 00H		; DirectX::g_XMMaskW
	DD	00H
	DD	00H
	DD	0ffffffffH
CONST	ENDS
;	COMDAT ?g_XMMaskZ@DirectX@@3UXMVECTORI32@1@B
CONST	SEGMENT
?g_XMMaskZ@DirectX@@3UXMVECTORI32@1@B DD 00H		; DirectX::g_XMMaskZ
	DD	00H
	DD	0ffffffffH
	DD	00H
CONST	ENDS
;	COMDAT ?digits10@?$numeric_limits@G@std@@2HB
CONST	SEGMENT
?digits10@?$numeric_limits@G@std@@2HB DD 04H		; std::numeric_limits<unsigned short>::digits10
CONST	ENDS
;	COMDAT ?g_XMMaskY@DirectX@@3UXMVECTORI32@1@B
CONST	SEGMENT
?g_XMMaskY@DirectX@@3UXMVECTORI32@1@B DD 00H		; DirectX::g_XMMaskY
	DD	0ffffffffH
	DD	00H
	DD	00H
CONST	ENDS
;	COMDAT ?g_XMMaskX@DirectX@@3UXMVECTORI32@1@B
CONST	SEGMENT
?g_XMMaskX@DirectX@@3UXMVECTORI32@1@B DD 0ffffffffH	; DirectX::g_XMMaskX
	DD	00H
	DD	00H
	DD	00H
CONST	ENDS
;	COMDAT ?g_XMMask3@DirectX@@3UXMVECTORI32@1@B
CONST	SEGMENT
?g_XMMask3@DirectX@@3UXMVECTORI32@1@B DD 0ffffffffH	; DirectX::g_XMMask3
	DD	0ffffffffH
	DD	0ffffffffH
	DD	00H
CONST	ENDS
;	COMDAT ?g_XMNegate3@DirectX@@3UXMVECTORI32@1@B
CONST	SEGMENT
?g_XMNegate3@DirectX@@3UXMVECTORI32@1@B DD 080000000H	; DirectX::g_XMNegate3
	DD	080000000H
	DD	080000000H
	DD	00H
CONST	ENDS
;	COMDAT ?digits@?$numeric_limits@G@std@@2HB
CONST	SEGMENT
?digits@?$numeric_limits@G@std@@2HB DD 010H		; std::numeric_limits<unsigned short>::digits
CONST	ENDS
;	COMDAT ?g_XMNegativeZero@DirectX@@3UXMVECTORI32@1@B
CONST	SEGMENT
?g_XMNegativeZero@DirectX@@3UXMVECTORI32@1@B DD 080000000H ; DirectX::g_XMNegativeZero
	DD	080000000H
	DD	080000000H
	DD	080000000H
CONST	ENDS
;	COMDAT ?g_XMNegIdentityR3@DirectX@@3UXMVECTORF32@1@B
CONST	SEGMENT
?g_XMNegIdentityR3@DirectX@@3UXMVECTORF32@1@B DD 000000000r ; 0 ; DirectX::g_XMNegIdentityR3
	DD	000000000r			; 0
	DD	000000000r			; 0
	DD	0bf800000r			; -1
CONST	ENDS
;	COMDAT ?g_XMNegIdentityR2@DirectX@@3UXMVECTORF32@1@B
CONST	SEGMENT
?g_XMNegIdentityR2@DirectX@@3UXMVECTORF32@1@B DD 000000000r ; 0 ; DirectX::g_XMNegIdentityR2
	DD	000000000r			; 0
	DD	0bf800000r			; -1
	DD	000000000r			; 0
CONST	ENDS
;	COMDAT ?g_XMNegIdentityR1@DirectX@@3UXMVECTORF32@1@B
CONST	SEGMENT
?g_XMNegIdentityR1@DirectX@@3UXMVECTORF32@1@B DD 000000000r ; 0 ; DirectX::g_XMNegIdentityR1
	DD	0bf800000r			; -1
	DD	000000000r			; 0
	DD	000000000r			; 0
CONST	ENDS
;	COMDAT ?is_signed@?$numeric_limits@G@std@@2_NB
CONST	SEGMENT
?is_signed@?$numeric_limits@G@std@@2_NB DB 00H		; std::numeric_limits<unsigned short>::is_signed
CONST	ENDS
;	COMDAT ?g_XMNegIdentityR0@DirectX@@3UXMVECTORF32@1@B
CONST	SEGMENT
?g_XMNegIdentityR0@DirectX@@3UXMVECTORF32@1@B DD 0bf800000r ; -1 ; DirectX::g_XMNegIdentityR0
	DD	000000000r			; 0
	DD	000000000r			; 0
	DD	000000000r			; 0
CONST	ENDS
;	COMDAT ?g_XMIdentityR3@DirectX@@3UXMVECTORF32@1@B
CONST	SEGMENT
?g_XMIdentityR3@DirectX@@3UXMVECTORF32@1@B DD 000000000r ; 0 ; DirectX::g_XMIdentityR3
	DD	000000000r			; 0
	DD	000000000r			; 0
	DD	03f800000r			; 1
CONST	ENDS
;	COMDAT ?g_XMIdentityR2@DirectX@@3UXMVECTORF32@1@B
CONST	SEGMENT
?g_XMIdentityR2@DirectX@@3UXMVECTORF32@1@B DD 000000000r ; 0 ; DirectX::g_XMIdentityR2
	DD	000000000r			; 0
	DD	03f800000r			; 1
	DD	000000000r			; 0
CONST	ENDS
;	COMDAT ?g_XMIdentityR1@DirectX@@3UXMVECTORF32@1@B
CONST	SEGMENT
?g_XMIdentityR1@DirectX@@3UXMVECTORF32@1@B DD 000000000r ; 0 ; DirectX::g_XMIdentityR1
	DD	03f800000r			; 1
	DD	000000000r			; 0
	DD	000000000r			; 0
CONST	ENDS
;	COMDAT ?g_XMIdentityR0@DirectX@@3UXMVECTORF32@1@B
CONST	SEGMENT
?g_XMIdentityR0@DirectX@@3UXMVECTORF32@1@B DD 03f800000r ; 1 ; DirectX::g_XMIdentityR0
	DD	000000000r			; 0
	DD	000000000r			; 0
	DD	000000000r			; 0
CONST	ENDS
;	COMDAT ?g_XMArcEstCoefficients@DirectX@@3UXMVECTORF32@1@B
CONST	SEGMENT
?g_XMArcEstCoefficients@DirectX@@3UXMVECTORF32@1@B DD 03fc90da4r ; 1.57073 ; DirectX::g_XMArcEstCoefficients
	DD	0be593484r			; -0.212114
	DD	03d981627r			; 0.074261
	DD	0bc996e30r			; -0.0187293
CONST	ENDS
;	COMDAT ?g_XMATanEstCoefficients1@DirectX@@3UXMVECTORF32@1@B
CONST	SEGMENT
?g_XMATanEstCoefficients1@DirectX@@3UXMVECTORF32@1@B DD 0bea91d04r ; -0.330299 ; DirectX::g_XMATanEstCoefficients1
	DD	03e3876e2r			; 0.180141
	DD	0bdae5a36r			; -0.085133
	DD	03caaae5fr			; 0.0208351
CONST	ENDS
;	COMDAT ?g_XMATanEstCoefficients0@DirectX@@3UXMVECTORF32@1@B
CONST	SEGMENT
?g_XMATanEstCoefficients0@DirectX@@3UXMVECTORF32@1@B DD 03f7ff738r ; 0.999866 ; DirectX::g_XMATanEstCoefficients0
	DD	03f7ff738r			; 0.999866
	DD	03f7ff738r			; 0.999866
	DD	03f7ff738r			; 0.999866
CONST	ENDS
;	COMDAT ?g_XMATanCoefficients1@DirectX@@3UXMVECTORF32@1@B
CONST	SEGMENT
?g_XMATanCoefficients1@DirectX@@3UXMVECTORF32@1@B DD 0bd9a3174r ; -0.0752896 ; DirectX::g_XMATanCoefficients1
	DD	03d2fc1fer			; 0.0429096
	DD	0bc846e02r			; -0.0161657
	DD	03b3bd74ar			; 0.00286623
CONST	ENDS
;	COMDAT ?g_XMATanCoefficients0@DirectX@@3UXMVECTORF32@1@B
CONST	SEGMENT
?g_XMATanCoefficients0@DirectX@@3UXMVECTORF32@1@B DD 0beaaaa6cr ; -0.333331 ; DirectX::g_XMATanCoefficients0
	DD	03e4cbbe5r			; 0.199936
	DD	0be117fc7r			; -0.142089
	DD	03dda3d83r			; 0.106563
CONST	ENDS
;	COMDAT ?g_XMArcCoefficients1@DirectX@@3UXMVECTORF32@1@B
CONST	SEGMENT
?g_XMArcCoefficients1@DirectX@@3UXMVECTORF32@1@B DD 03cfd10f8r ; 0.0308919 ; DirectX::g_XMArcCoefficients1
	DD	0bc8bfc66r			; -0.0170881
	DD	03bda90c5r			; 0.00667009
	DD	0baa57a2cr			; -0.00126249
CONST	ENDS
;	COMDAT ?g_XMArcCoefficients0@DirectX@@3UXMVECTORF32@1@B
CONST	SEGMENT
?g_XMArcCoefficients0@DirectX@@3UXMVECTORF32@1@B DD 03fc90fdar ; 1.5708 ; DirectX::g_XMArcCoefficients0
	DD	0be5bbfcar			; -0.214599
	DD	03db63a9er			; 0.088979
	DD	0bd4d8392r			; -0.0501743
CONST	ENDS
;	COMDAT ?g_XMTanCoefficients2@DirectX@@3UXMVECTORF32@1@B
CONST	SEGMENT
?g_XMTanCoefficients2@DirectX@@3UXMVECTORF32@1@B DD 03a1aac12r ; 0.000590027 ; DirectX::g_XMTanCoefficients2
	DD	0397abeb9r			; 0.000239129
	DD	038cb3f0cr			; 9.69154e-005
	DD	03824bec9r			; 3.92783e-005
CONST	ENDS
;	COMDAT ?g_XMTanCoefficients1@DirectX@@3UXMVECTORF32@1@B
CONST	SEGMENT
?g_XMTanCoefficients1@DirectX@@3UXMVECTORF32@1@B DD 03cb327a4r ; 0.0218695 ; DirectX::g_XMTanCoefficients1
	DD	03c11371br			; 0.00886324
	DD	03b6b69e9r			; 0.00359213
	DD	03abed1b3r			; 0.00145583
CONST	ENDS
;	COMDAT ?g_XMTanCoefficients0@DirectX@@3UXMVECTORF32@1@B
CONST	SEGMENT
?g_XMTanCoefficients0@DirectX@@3UXMVECTORF32@1@B DD 03f800000r ; 1 ; DirectX::g_XMTanCoefficients0
	DD	03eaaaaabr			; 0.333333
	DD	03e088889r			; 0.133333
	DD	03d5d0dd1r			; 0.0539683
CONST	ENDS
;	COMDAT ?g_XMCosCoefficients1@DirectX@@3UXMVECTORF32@1@B
CONST	SEGMENT
?g_XMCosCoefficients1@DirectX@@3UXMVECTORF32@1@B DD 0b48bdd11r ; -2.60516e-007 ; DirectX::g_XMCosCoefficients1
	DD	0befff67er			; -0.499927
	DD	03d29f587r			; 0.0414939
	DD	0baa69fdbr			; -0.00127124
CONST	ENDS
;	COMDAT ?g_XMCosCoefficients0@DirectX@@3UXMVECTORF32@1@B
CONST	SEGMENT
?g_XMCosCoefficients0@DirectX@@3UXMVECTORF32@1@B DD 0bf000000r ; -0.5 ; DirectX::g_XMCosCoefficients0
	DD	03d2aaaa3r			; 0.0416666
	DD	0bab609aar			; -0.00138884
	DD	037cfb4c2r			; 2.47605e-005
CONST	ENDS
;	COMDAT ?g_XMSinCoefficients1@DirectX@@3UXMVECTORF32@1@B
CONST	SEGMENT
?g_XMSinCoefficients1@DirectX@@3UXMVECTORF32@1@B DD 0b2cd365br ; -2.38899e-008 ; DirectX::g_XMSinCoefficients1
	DD	0be2aa888r			; -0.166659
	DD	03c08373cr			; 0.00831395
	DD	0b9423ec8r			; -0.000185247
CONST	ENDS
;	COMDAT ?g_XMSinCoefficients0@DirectX@@3UXMVECTORF32@1@B
CONST	SEGMENT
?g_XMSinCoefficients0@DirectX@@3UXMVECTORF32@1@B DD 0be2aaaabr ; -0.166667 ; DirectX::g_XMSinCoefficients0
	DD	03c088886r			; 0.00833333
	DD	0b9500bf1r			; -0.000198409
	DD	03638b88er			; 2.75256e-006
CONST	ENDS
;	COMDAT ?digits10@?$numeric_limits@F@std@@2HB
CONST	SEGMENT
?digits10@?$numeric_limits@F@std@@2HB DD 04H		; std::numeric_limits<short>::digits10
CONST	ENDS
;	COMDAT ?digits@?$numeric_limits@F@std@@2HB
CONST	SEGMENT
?digits@?$numeric_limits@F@std@@2HB DD 0fH		; std::numeric_limits<short>::digits
CONST	ENDS
;	COMDAT ?is_signed@?$numeric_limits@F@std@@2_NB
CONST	SEGMENT
?is_signed@?$numeric_limits@F@std@@2_NB DB 01H		; std::numeric_limits<short>::is_signed
CONST	ENDS
;	COMDAT ?digits10@?$numeric_limits@E@std@@2HB
CONST	SEGMENT
?digits10@?$numeric_limits@E@std@@2HB DD 02H		; std::numeric_limits<unsigned char>::digits10
CONST	ENDS
;	COMDAT ?digits@?$numeric_limits@E@std@@2HB
CONST	SEGMENT
?digits@?$numeric_limits@E@std@@2HB DD 08H		; std::numeric_limits<unsigned char>::digits
CONST	ENDS
;	COMDAT ?is_signed@?$numeric_limits@E@std@@2_NB
CONST	SEGMENT
?is_signed@?$numeric_limits@E@std@@2_NB DB 00H		; std::numeric_limits<unsigned char>::is_signed
CONST	ENDS
;	COMDAT ?digits10@?$numeric_limits@C@std@@2HB
CONST	SEGMENT
?digits10@?$numeric_limits@C@std@@2HB DD 02H		; std::numeric_limits<signed char>::digits10
CONST	ENDS
;	COMDAT ?digits@?$numeric_limits@C@std@@2HB
CONST	SEGMENT
?digits@?$numeric_limits@C@std@@2HB DD 07H		; std::numeric_limits<signed char>::digits
CONST	ENDS
;	COMDAT ?is_signed@?$numeric_limits@C@std@@2_NB
CONST	SEGMENT
?is_signed@?$numeric_limits@C@std@@2_NB DB 01H		; std::numeric_limits<signed char>::is_signed
CONST	ENDS
;	COMDAT ?digits10@?$numeric_limits@_N@std@@2HB
CONST	SEGMENT
?digits10@?$numeric_limits@_N@std@@2HB DD 00H		; std::numeric_limits<bool>::digits10
CONST	ENDS
;	COMDAT ?digits@?$numeric_limits@_N@std@@2HB
CONST	SEGMENT
?digits@?$numeric_limits@_N@std@@2HB DD 01H		; std::numeric_limits<bool>::digits
CONST	ENDS
;	COMDAT ?is_signed@?$numeric_limits@_N@std@@2_NB
CONST	SEGMENT
?is_signed@?$numeric_limits@_N@std@@2_NB DB 00H		; std::numeric_limits<bool>::is_signed
CONST	ENDS
;	COMDAT ?is_modulo@?$numeric_limits@_N@std@@2_NB
CONST	SEGMENT
?is_modulo@?$numeric_limits@_N@std@@2_NB DB 00H		; std::numeric_limits<bool>::is_modulo
CONST	ENDS
;	COMDAT ?digits10@?$numeric_limits@_W@std@@2HB
CONST	SEGMENT
?digits10@?$numeric_limits@_W@std@@2HB DD 04H		; std::numeric_limits<wchar_t>::digits10
CONST	ENDS
;	COMDAT ?digits@?$numeric_limits@_W@std@@2HB
CONST	SEGMENT
?digits@?$numeric_limits@_W@std@@2HB DD 010H		; std::numeric_limits<wchar_t>::digits
CONST	ENDS
;	COMDAT ?is_signed@?$numeric_limits@_W@std@@2_NB
CONST	SEGMENT
?is_signed@?$numeric_limits@_W@std@@2_NB DB 00H		; std::numeric_limits<wchar_t>::is_signed
CONST	ENDS
;	COMDAT ?digits10@?$numeric_limits@D@std@@2HB
CONST	SEGMENT
?digits10@?$numeric_limits@D@std@@2HB DD 02H		; std::numeric_limits<char>::digits10
CONST	ENDS
;	COMDAT ?digits@?$numeric_limits@D@std@@2HB
CONST	SEGMENT
?digits@?$numeric_limits@D@std@@2HB DD 07H		; std::numeric_limits<char>::digits
CONST	ENDS
;	COMDAT ?is_signed@?$numeric_limits@D@std@@2_NB
CONST	SEGMENT
?is_signed@?$numeric_limits@D@std@@2_NB DB 01H		; std::numeric_limits<char>::is_signed
CONST	ENDS
;	COMDAT ?radix@_Num_float_base@std@@2HB
CONST	SEGMENT
?radix@_Num_float_base@std@@2HB DD 02H			; std::_Num_float_base::radix
CONST	ENDS
;	COMDAT ?round_style@_Num_float_base@std@@2W4float_round_style@2@B
CONST	SEGMENT
?round_style@_Num_float_base@std@@2W4float_round_style@2@B DD 01H ; std::_Num_float_base::round_style
CONST	ENDS
;	COMDAT ?traps@_Num_float_base@std@@2_NB
CONST	SEGMENT
?traps@_Num_float_base@std@@2_NB DB 00H			; std::_Num_float_base::traps
CONST	ENDS
;	COMDAT ?tinyness_before@_Num_float_base@std@@2_NB
CONST	SEGMENT
?tinyness_before@_Num_float_base@std@@2_NB DB 01H	; std::_Num_float_base::tinyness_before
CONST	ENDS
;	COMDAT ?is_specialized@_Num_float_base@std@@2_NB
CONST	SEGMENT
?is_specialized@_Num_float_base@std@@2_NB DB 01H	; std::_Num_float_base::is_specialized
CONST	ENDS
;	COMDAT ?is_signed@_Num_float_base@std@@2_NB
CONST	SEGMENT
?is_signed@_Num_float_base@std@@2_NB DB 01H		; std::_Num_float_base::is_signed
CONST	ENDS
;	COMDAT ?is_modulo@_Num_float_base@std@@2_NB
CONST	SEGMENT
?is_modulo@_Num_float_base@std@@2_NB DB 00H		; std::_Num_float_base::is_modulo
CONST	ENDS
;	COMDAT ?is_integer@_Num_float_base@std@@2_NB
CONST	SEGMENT
?is_integer@_Num_float_base@std@@2_NB DB 00H		; std::_Num_float_base::is_integer
CONST	ENDS
;	COMDAT ?is_iec559@_Num_float_base@std@@2_NB
CONST	SEGMENT
?is_iec559@_Num_float_base@std@@2_NB DB 01H		; std::_Num_float_base::is_iec559
CONST	ENDS
;	COMDAT ?is_exact@_Num_float_base@std@@2_NB
CONST	SEGMENT
?is_exact@_Num_float_base@std@@2_NB DB 00H		; std::_Num_float_base::is_exact
CONST	ENDS
;	COMDAT ?is_bounded@_Num_float_base@std@@2_NB
CONST	SEGMENT
?is_bounded@_Num_float_base@std@@2_NB DB 01H		; std::_Num_float_base::is_bounded
CONST	ENDS
;	COMDAT ?has_signaling_NaN@_Num_float_base@std@@2_NB
CONST	SEGMENT
?has_signaling_NaN@_Num_float_base@std@@2_NB DB 01H	; std::_Num_float_base::has_signaling_NaN
CONST	ENDS
;	COMDAT ?has_quiet_NaN@_Num_float_base@std@@2_NB
CONST	SEGMENT
?has_quiet_NaN@_Num_float_base@std@@2_NB DB 01H		; std::_Num_float_base::has_quiet_NaN
CONST	ENDS
;	COMDAT ?has_infinity@_Num_float_base@std@@2_NB
CONST	SEGMENT
?has_infinity@_Num_float_base@std@@2_NB DB 01H		; std::_Num_float_base::has_infinity
CONST	ENDS
;	COMDAT ?has_denorm_loss@_Num_float_base@std@@2_NB
CONST	SEGMENT
?has_denorm_loss@_Num_float_base@std@@2_NB DB 01H	; std::_Num_float_base::has_denorm_loss
CONST	ENDS
;	COMDAT ?has_denorm@_Num_float_base@std@@2W4float_denorm_style@2@B
CONST	SEGMENT
?has_denorm@_Num_float_base@std@@2W4float_denorm_style@2@B DD 01H ; std::_Num_float_base::has_denorm
CONST	ENDS
;	COMDAT ?radix@_Num_int_base@std@@2HB
CONST	SEGMENT
?radix@_Num_int_base@std@@2HB DD 02H			; std::_Num_int_base::radix
CONST	ENDS
;	COMDAT ?is_specialized@_Num_int_base@std@@2_NB
CONST	SEGMENT
?is_specialized@_Num_int_base@std@@2_NB DB 01H		; std::_Num_int_base::is_specialized
CONST	ENDS
;	COMDAT ?is_modulo@_Num_int_base@std@@2_NB
CONST	SEGMENT
?is_modulo@_Num_int_base@std@@2_NB DB 01H		; std::_Num_int_base::is_modulo
CONST	ENDS
;	COMDAT ?is_integer@_Num_int_base@std@@2_NB
CONST	SEGMENT
?is_integer@_Num_int_base@std@@2_NB DB 01H		; std::_Num_int_base::is_integer
CONST	ENDS
;	COMDAT ?is_exact@_Num_int_base@std@@2_NB
CONST	SEGMENT
?is_exact@_Num_int_base@std@@2_NB DB 01H		; std::_Num_int_base::is_exact
CONST	ENDS
;	COMDAT ?is_bounded@_Num_int_base@std@@2_NB
CONST	SEGMENT
?is_bounded@_Num_int_base@std@@2_NB DB 01H		; std::_Num_int_base::is_bounded
CONST	ENDS
;	COMDAT ?radix@_Num_base@std@@2HB
CONST	SEGMENT
?radix@_Num_base@std@@2HB DD 00H			; std::_Num_base::radix
CONST	ENDS
;	COMDAT ?min_exponent10@_Num_base@std@@2HB
CONST	SEGMENT
?min_exponent10@_Num_base@std@@2HB DD 00H		; std::_Num_base::min_exponent10
CONST	ENDS
;	COMDAT ?min_exponent@_Num_base@std@@2HB
CONST	SEGMENT
?min_exponent@_Num_base@std@@2HB DD 00H			; std::_Num_base::min_exponent
CONST	ENDS
;	COMDAT ?max_exponent10@_Num_base@std@@2HB
CONST	SEGMENT
?max_exponent10@_Num_base@std@@2HB DD 00H		; std::_Num_base::max_exponent10
CONST	ENDS
CONST	SEGMENT
_XM_PI	DD	040490fdbr			; 3.14159
_XM_2PI	DD	040c90fdbr			; 6.28319
_XM_1DIVPI DD	03ea2f983r			; 0.31831
_XM_1DIV2PI DD	03e22f983r			; 0.159155
_XM_PIDIV2 DD	03fc90fdbr			; 1.5708
_XM_PIDIV4 DD	03f490fdbr			; 0.785398
CONST	ENDS
;	COMDAT ?max_exponent@_Num_base@std@@2HB
CONST	SEGMENT
?max_exponent@_Num_base@std@@2HB DD 00H			; std::_Num_base::max_exponent
CONST	ENDS
;	COMDAT ?max_digits10@_Num_base@std@@2HB
CONST	SEGMENT
?max_digits10@_Num_base@std@@2HB DD 00H			; std::_Num_base::max_digits10
CONST	ENDS
;	COMDAT ?digits10@_Num_base@std@@2HB
CONST	SEGMENT
?digits10@_Num_base@std@@2HB DD 00H			; std::_Num_base::digits10
CONST	ENDS
;	COMDAT ?digits@_Num_base@std@@2HB
CONST	SEGMENT
?digits@_Num_base@std@@2HB DD 00H			; std::_Num_base::digits
CONST	ENDS
;	COMDAT ?round_style@_Num_base@std@@2W4float_round_style@2@B
CONST	SEGMENT
?round_style@_Num_base@std@@2W4float_round_style@2@B DD 00H ; std::_Num_base::round_style
CONST	ENDS
;	COMDAT ?traps@_Num_base@std@@2_NB
CONST	SEGMENT
?traps@_Num_base@std@@2_NB DB 00H			; std::_Num_base::traps
CONST	ENDS
;	COMDAT ?tinyness_before@_Num_base@std@@2_NB
CONST	SEGMENT
?tinyness_before@_Num_base@std@@2_NB DB 00H		; std::_Num_base::tinyness_before
CONST	ENDS
;	COMDAT ?is_specialized@_Num_base@std@@2_NB
CONST	SEGMENT
?is_specialized@_Num_base@std@@2_NB DB 00H		; std::_Num_base::is_specialized
CONST	ENDS
;	COMDAT ?is_signed@_Num_base@std@@2_NB
CONST	SEGMENT
?is_signed@_Num_base@std@@2_NB DB 00H			; std::_Num_base::is_signed
CONST	ENDS
;	COMDAT ?is_modulo@_Num_base@std@@2_NB
CONST	SEGMENT
?is_modulo@_Num_base@std@@2_NB DB 00H			; std::_Num_base::is_modulo
CONST	ENDS
;	COMDAT ?is_integer@_Num_base@std@@2_NB
CONST	SEGMENT
?is_integer@_Num_base@std@@2_NB DB 00H			; std::_Num_base::is_integer
CONST	ENDS
;	COMDAT ?is_iec559@_Num_base@std@@2_NB
CONST	SEGMENT
?is_iec559@_Num_base@std@@2_NB DB 00H			; std::_Num_base::is_iec559
CONST	ENDS
;	COMDAT ?is_exact@_Num_base@std@@2_NB
CONST	SEGMENT
?is_exact@_Num_base@std@@2_NB DB 00H			; std::_Num_base::is_exact
CONST	ENDS
;	COMDAT ?is_bounded@_Num_base@std@@2_NB
CONST	SEGMENT
?is_bounded@_Num_base@std@@2_NB DB 00H			; std::_Num_base::is_bounded
CONST	ENDS
;	COMDAT ?has_signaling_NaN@_Num_base@std@@2_NB
CONST	SEGMENT
?has_signaling_NaN@_Num_base@std@@2_NB DB 00H		; std::_Num_base::has_signaling_NaN
CONST	ENDS
;	COMDAT ?has_quiet_NaN@_Num_base@std@@2_NB
CONST	SEGMENT
?has_quiet_NaN@_Num_base@std@@2_NB DB 00H		; std::_Num_base::has_quiet_NaN
CONST	ENDS
;	COMDAT ?has_infinity@_Num_base@std@@2_NB
CONST	SEGMENT
?has_infinity@_Num_base@std@@2_NB DB 00H		; std::_Num_base::has_infinity
CONST	ENDS
;	COMDAT ?has_denorm_loss@_Num_base@std@@2_NB
CONST	SEGMENT
?has_denorm_loss@_Num_base@std@@2_NB DB 00H		; std::_Num_base::has_denorm_loss
CONST	ENDS
;	COMDAT ?has_denorm@_Num_base@std@@2W4float_denorm_style@2@B
CONST	SEGMENT
?has_denorm@_Num_base@std@@2W4float_denorm_style@2@B DD 00H ; std::_Num_base::has_denorm
CONST	ENDS
;	COMDAT ?table_size@?$ctype@D@std@@2IB
CONST	SEGMENT
?table_size@?$ctype@D@std@@2IB DD 0100H			; std::ctype<char>::table_size
CONST	ENDS
;	COMDAT ?MAX_VERTEX_ELTS@CModel@@0HB
CONST	SEGMENT
?MAX_VERTEX_ELTS@CModel@@0HB DD 040H			; CModel::MAX_VERTEX_ELTS
CONST	ENDS
;	COMDAT ?none@?$_Locbase@H@std@@2HB
CONST	SEGMENT
?none@?$_Locbase@H@std@@2HB DD 00H			; std::_Locbase<int>::none
CONST	ENDS
;	COMDAT ?all@?$_Locbase@H@std@@2HB
CONST	SEGMENT
?all@?$_Locbase@H@std@@2HB DD 03fH			; std::_Locbase<int>::all
CONST	ENDS
;	COMDAT ?messages@?$_Locbase@H@std@@2HB
CONST	SEGMENT
?messages@?$_Locbase@H@std@@2HB DD 020H			; std::_Locbase<int>::messages
CONST	ENDS
;	COMDAT ?min_exponent10@?$numeric_limits@O@std@@2HB
CONST	SEGMENT
?min_exponent10@?$numeric_limits@O@std@@2HB DD 0fffffecdH ; std::numeric_limits<long double>::min_exponent10
CONST	ENDS
;	COMDAT ?time@?$_Locbase@H@std@@2HB
CONST	SEGMENT
?time@?$_Locbase@H@std@@2HB DD 010H			; std::_Locbase<int>::time
CONST	ENDS
;	COMDAT ?numeric@?$_Locbase@H@std@@2HB
CONST	SEGMENT
?numeric@?$_Locbase@H@std@@2HB DD 08H			; std::_Locbase<int>::numeric
CONST	ENDS
;	COMDAT ?min_exponent@?$numeric_limits@O@std@@2HB
CONST	SEGMENT
?min_exponent@?$numeric_limits@O@std@@2HB DD 0fffffc03H	; std::numeric_limits<long double>::min_exponent
CONST	ENDS
;	COMDAT ?monetary@?$_Locbase@H@std@@2HB
CONST	SEGMENT
?monetary@?$_Locbase@H@std@@2HB DD 04H			; std::_Locbase<int>::monetary
CONST	ENDS
;	COMDAT ?ctype@?$_Locbase@H@std@@2HB
CONST	SEGMENT
?ctype@?$_Locbase@H@std@@2HB DD 02H			; std::_Locbase<int>::ctype
CONST	ENDS
;	COMDAT ?max_exponent10@?$numeric_limits@O@std@@2HB
CONST	SEGMENT
?max_exponent10@?$numeric_limits@O@std@@2HB DD 0134H	; std::numeric_limits<long double>::max_exponent10
CONST	ENDS
;	COMDAT ?collate@?$_Locbase@H@std@@2HB
CONST	SEGMENT
?collate@?$_Locbase@H@std@@2HB DD 01H			; std::_Locbase<int>::collate
CONST	ENDS
;	COMDAT ?max_exponent@?$numeric_limits@O@std@@2HB
CONST	SEGMENT
?max_exponent@?$numeric_limits@O@std@@2HB DD 0400H	; std::numeric_limits<long double>::max_exponent
CONST	ENDS
;	COMDAT ?max_digits10@?$numeric_limits@O@std@@2HB
CONST	SEGMENT
?max_digits10@?$numeric_limits@O@std@@2HB DD 011H	; std::numeric_limits<long double>::max_digits10
CONST	ENDS
;	COMDAT ?digits10@?$numeric_limits@O@std@@2HB
CONST	SEGMENT
?digits10@?$numeric_limits@O@std@@2HB DD 0fH		; std::numeric_limits<long double>::digits10
CONST	ENDS
;	COMDAT ?digits@?$numeric_limits@O@std@@2HB
CONST	SEGMENT
?digits@?$numeric_limits@O@std@@2HB DD 035H		; std::numeric_limits<long double>::digits
CONST	ENDS
;	COMDAT ?YellowGreen@Colors@DirectX@@3UXMVECTORF32@2@B
CONST	SEGMENT
?YellowGreen@Colors@DirectX@@3UXMVECTORF32@2@B DD 03f1a9a9br ; 0.603922 ; DirectX::Colors::YellowGreen
	DD	03f4dcdcfr			; 0.803922
	DD	03e48c8car			; 0.196078
	DD	03f800000r			; 1
CONST	ENDS
;	COMDAT ?Yellow@Colors@DirectX@@3UXMVECTORF32@2@B
CONST	SEGMENT
?Yellow@Colors@DirectX@@3UXMVECTORF32@2@B DD 03f800000r ; 1 ; DirectX::Colors::Yellow
	DD	03f800000r			; 1
	DD	000000000r			; 0
	DD	03f800000r			; 1
CONST	ENDS
;	COMDAT ?WhiteSmoke@Colors@DirectX@@3UXMVECTORF32@2@B
CONST	SEGMENT
?WhiteSmoke@Colors@DirectX@@3UXMVECTORF32@2@B DD 03f75f5f7r ; 0.960784 ; DirectX::Colors::WhiteSmoke
	DD	03f75f5f7r			; 0.960784
	DD	03f75f5f7r			; 0.960784
	DD	03f800000r			; 1
CONST	ENDS
;	COMDAT ?White@Colors@DirectX@@3UXMVECTORF32@2@B
CONST	SEGMENT
?White@Colors@DirectX@@3UXMVECTORF32@2@B DD 03f800000r ; 1 ; DirectX::Colors::White
	DD	03f800000r			; 1
	DD	03f800000r			; 1
	DD	03f800000r			; 1
CONST	ENDS
;	COMDAT ?Wheat@Colors@DirectX@@3UXMVECTORF32@2@B
CONST	SEGMENT
?Wheat@Colors@DirectX@@3UXMVECTORF32@2@B DD 03f75f5f7r ; 0.960784 ; DirectX::Colors::Wheat
	DD	03f5edee0r			; 0.870588
	DD	03f33b3b4r			; 0.701961
	DD	03f800000r			; 1
CONST	ENDS
;	COMDAT ?Violet@Colors@DirectX@@3UXMVECTORF32@2@B
CONST	SEGMENT
?Violet@Colors@DirectX@@3UXMVECTORF32@2@B DD 03f6eeef0r ; 0.933333 ; DirectX::Colors::Violet
	DD	03f028283r			; 0.509804
	DD	03f6eeef0r			; 0.933333
	DD	03f800000r			; 1
CONST	ENDS
;	COMDAT ?Turquoise@Colors@DirectX@@3UXMVECTORF32@2@B
CONST	SEGMENT
?Turquoise@Colors@DirectX@@3UXMVECTORF32@2@B DD 03e808081r ; 0.25098 ; DirectX::Colors::Turquoise
	DD	03f60e0e2r			; 0.878431
	DD	03f50d0d2r			; 0.815686
	DD	03f800000r			; 1
CONST	ENDS
;	COMDAT ?end@?$_Iosb@H@std@@2W4_Seekdir@12@B
CONST	SEGMENT
?end@?$_Iosb@H@std@@2W4_Seekdir@12@B DD 02H		; std::_Iosb<int>::end
CONST	ENDS
;	COMDAT ?Transparent@Colors@DirectX@@3UXMVECTORF32@2@B
CONST	SEGMENT
?Transparent@Colors@DirectX@@3UXMVECTORF32@2@B DD 000000000r ; 0 ; DirectX::Colors::Transparent
	DD	000000000r			; 0
	DD	000000000r			; 0
	DD	000000000r			; 0
CONST	ENDS
;	COMDAT ?Tomato@Colors@DirectX@@3UXMVECTORF32@2@B
CONST	SEGMENT
?Tomato@Colors@DirectX@@3UXMVECTORF32@2@B DD 03f800000r ; 1 ; DirectX::Colors::Tomato
	DD	03ec6c6c8r			; 0.388235
	DD	03e8e8e8fr			; 0.278431
	DD	03f800000r			; 1
CONST	ENDS
;	COMDAT ?Thistle@Colors@DirectX@@3UXMVECTORF32@2@B
CONST	SEGMENT
?Thistle@Colors@DirectX@@3UXMVECTORF32@2@B DD 03f58d8dar ; 0.847059 ; DirectX::Colors::Thistle
	DD	03f3fbfc0r			; 0.74902
	DD	03f58d8dar			; 0.847059
	DD	03f800000r			; 1
CONST	ENDS
;	COMDAT ?cur@?$_Iosb@H@std@@2W4_Seekdir@12@B
CONST	SEGMENT
?cur@?$_Iosb@H@std@@2W4_Seekdir@12@B DD 01H		; std::_Iosb<int>::cur
CONST	ENDS
;	COMDAT ?Teal@Colors@DirectX@@3UXMVECTORF32@2@B
CONST	SEGMENT
?Teal@Colors@DirectX@@3UXMVECTORF32@2@B DD 000000000r ; 0 ; DirectX::Colors::Teal
	DD	03f008081r			; 0.501961
	DD	03f008081r			; 0.501961
	DD	03f800000r			; 1
CONST	ENDS
;	COMDAT ?Tan@Colors@DirectX@@3UXMVECTORF32@2@B
CONST	SEGMENT
?Tan@Colors@DirectX@@3UXMVECTORF32@2@B DD 03f52d2d4r ; 0.823529 ; DirectX::Colors::Tan
	DD	03f34b4b5r			; 0.705882
	DD	03f0c8c8dr			; 0.54902
	DD	03f800000r			; 1
CONST	ENDS
;	COMDAT ?SteelBlue@Colors@DirectX@@3UXMVECTORF32@2@B
CONST	SEGMENT
?SteelBlue@Colors@DirectX@@3UXMVECTORF32@2@B DD 03e8c8c8dr ; 0.27451 ; DirectX::Colors::SteelBlue
	DD	03f028283r			; 0.509804
	DD	03f34b4b5r			; 0.705882
	DD	03f800000r			; 1
CONST	ENDS
;	COMDAT ?beg@?$_Iosb@H@std@@2W4_Seekdir@12@B
CONST	SEGMENT
?beg@?$_Iosb@H@std@@2W4_Seekdir@12@B DD 00H		; std::_Iosb<int>::beg
CONST	ENDS
;	COMDAT ?SpringGreen@Colors@DirectX@@3UXMVECTORF32@2@B
CONST	SEGMENT
?SpringGreen@Colors@DirectX@@3UXMVECTORF32@2@B DD 000000000r ; 0 ; DirectX::Colors::SpringGreen
	DD	03f800000r			; 1
	DD	03efeff00r			; 0.498039
	DD	03f800000r			; 1
CONST	ENDS
;	COMDAT ?min_exponent10@?$numeric_limits@N@std@@2HB
CONST	SEGMENT
?min_exponent10@?$numeric_limits@N@std@@2HB DD 0fffffecdH ; std::numeric_limits<double>::min_exponent10
CONST	ENDS
;	COMDAT ?Snow@Colors@DirectX@@3UXMVECTORF32@2@B
CONST	SEGMENT
?Snow@Colors@DirectX@@3UXMVECTORF32@2@B DD 03f800000r ; 1 ; DirectX::Colors::Snow
	DD	03f7afafcr			; 0.980392
	DD	03f7afafcr			; 0.980392
	DD	03f800000r			; 1
CONST	ENDS
;	COMDAT ?SlateGray@Colors@DirectX@@3UXMVECTORF32@2@B
CONST	SEGMENT
?SlateGray@Colors@DirectX@@3UXMVECTORF32@2@B DD 03ee0e0e2r ; 0.439216 ; DirectX::Colors::SlateGray
	DD	03f008081r			; 0.501961
	DD	03f109091r			; 0.564706
	DD	03f800000r			; 1
CONST	ENDS
;	COMDAT ?SlateBlue@Colors@DirectX@@3UXMVECTORF32@2@B
CONST	SEGMENT
?SlateBlue@Colors@DirectX@@3UXMVECTORF32@2@B DD 03ed4d4d6r ; 0.415686 ; DirectX::Colors::SlateBlue
	DD	03eb4b4b5r			; 0.352941
	DD	03f4dcdcfr			; 0.803922
	DD	03f800000r			; 1
CONST	ENDS
;	COMDAT ?SkyBlue@Colors@DirectX@@3UXMVECTORF32@2@B
CONST	SEGMENT
?SkyBlue@Colors@DirectX@@3UXMVECTORF32@2@B DD 03f078788r ; 0.529412 ; DirectX::Colors::SkyBlue
	DD	03f4eced0r			; 0.807843
	DD	03f6bebedr			; 0.921569
	DD	03f800000r			; 1
CONST	ENDS
;	COMDAT ?binary@?$_Iosb@H@std@@2W4_Openmode@12@B
CONST	SEGMENT
?binary@?$_Iosb@H@std@@2W4_Openmode@12@B DD 020H	; std::_Iosb<int>::binary
CONST	ENDS
;	COMDAT ?min_exponent@?$numeric_limits@N@std@@2HB
CONST	SEGMENT
?min_exponent@?$numeric_limits@N@std@@2HB DD 0fffffc03H	; std::numeric_limits<double>::min_exponent
CONST	ENDS
;	COMDAT ?Silver@Colors@DirectX@@3UXMVECTORF32@2@B
CONST	SEGMENT
?Silver@Colors@DirectX@@3UXMVECTORF32@2@B DD 03f40c0c2r ; 0.752941 ; DirectX::Colors::Silver
	DD	03f40c0c2r			; 0.752941
	DD	03f40c0c2r			; 0.752941
	DD	03f800000r			; 1
CONST	ENDS
;	COMDAT ?Sienna@Colors@DirectX@@3UXMVECTORF32@2@B
CONST	SEGMENT
?Sienna@Colors@DirectX@@3UXMVECTORF32@2@B DD 03f20a0a1r ; 0.627451 ; DirectX::Colors::Sienna
	DD	03ea4a4a5r			; 0.321569
	DD	03e34b4b5r			; 0.176471
	DD	03f800000r			; 1
CONST	ENDS
;	COMDAT ?SeaShell@Colors@DirectX@@3UXMVECTORF32@2@B
CONST	SEGMENT
?SeaShell@Colors@DirectX@@3UXMVECTORF32@2@B DD 03f800000r ; 1 ; DirectX::Colors::SeaShell
	DD	03f75f5f7r			; 0.960784
	DD	03f6eeef0r			; 0.933333
	DD	03f800000r			; 1
CONST	ENDS
;	COMDAT ?_Noreplace@?$_Iosb@H@std@@2W4_Openmode@12@B
CONST	SEGMENT
?_Noreplace@?$_Iosb@H@std@@2W4_Openmode@12@B DD 080H	; std::_Iosb<int>::_Noreplace
CONST	ENDS
;	COMDAT ?SeaGreen@Colors@DirectX@@3UXMVECTORF32@2@B
CONST	SEGMENT
?SeaGreen@Colors@DirectX@@3UXMVECTORF32@2@B DD 03e38b8b9r ; 0.180392 ; DirectX::Colors::SeaGreen
	DD	03f0b8b8cr			; 0.545098
	DD	03eaeaeafr			; 0.341176
	DD	03f800000r			; 1
CONST	ENDS
;	COMDAT ?max_exponent10@?$numeric_limits@N@std@@2HB
CONST	SEGMENT
?max_exponent10@?$numeric_limits@N@std@@2HB DD 0134H	; std::numeric_limits<double>::max_exponent10
CONST	ENDS
;	COMDAT ?SandyBrown@Colors@DirectX@@3UXMVECTORF32@2@B
CONST	SEGMENT
?SandyBrown@Colors@DirectX@@3UXMVECTORF32@2@B DD 03f74f4f6r ; 0.956863 ; DirectX::Colors::SandyBrown
	DD	03f24a4a5r			; 0.643137
	DD	03ec0c0c2r			; 0.376471
	DD	03f800000r			; 1
CONST	ENDS
;	COMDAT ?Salmon@Colors@DirectX@@3UXMVECTORF32@2@B
CONST	SEGMENT
?Salmon@Colors@DirectX@@3UXMVECTORF32@2@B DD 03f7afafcr ; 0.980392 ; DirectX::Colors::Salmon
	DD	03f008081r			; 0.501961
	DD	03ee4e4e6r			; 0.447059
	DD	03f800000r			; 1
CONST	ENDS
;	COMDAT ?_Nocreate@?$_Iosb@H@std@@2W4_Openmode@12@B
CONST	SEGMENT
?_Nocreate@?$_Iosb@H@std@@2W4_Openmode@12@B DD 040H	; std::_Iosb<int>::_Nocreate
CONST	ENDS
;	COMDAT ?SaddleBrown@Colors@DirectX@@3UXMVECTORF32@2@B
CONST	SEGMENT
?SaddleBrown@Colors@DirectX@@3UXMVECTORF32@2@B DD 03f0b8b8cr ; 0.545098 ; DirectX::Colors::SaddleBrown
	DD	03e8a8a8br			; 0.270588
	DD	03d989899r			; 0.0745098
	DD	03f800000r			; 1
CONST	ENDS
;	COMDAT ?RoyalBlue@Colors@DirectX@@3UXMVECTORF32@2@B
CONST	SEGMENT
?RoyalBlue@Colors@DirectX@@3UXMVECTORF32@2@B DD 03e828283r ; 0.254902 ; DirectX::Colors::RoyalBlue
	DD	03ed2d2d4r			; 0.411765
	DD	03f61e1e3r			; 0.882353
	DD	03f800000r			; 1
CONST	ENDS
;	COMDAT ?max_exponent@?$numeric_limits@N@std@@2HB
CONST	SEGMENT
?max_exponent@?$numeric_limits@N@std@@2HB DD 0400H	; std::numeric_limits<double>::max_exponent
CONST	ENDS
;	COMDAT ?RosyBrown@Colors@DirectX@@3UXMVECTORF32@2@B
CONST	SEGMENT
?RosyBrown@Colors@DirectX@@3UXMVECTORF32@2@B DD 03f3cbcbdr ; 0.737255 ; DirectX::Colors::RosyBrown
	DD	03f0f8f90r			; 0.560784
	DD	03f0f8f90r			; 0.560784
	DD	03f800000r			; 1
CONST	ENDS
;	COMDAT ?trunc@?$_Iosb@H@std@@2W4_Openmode@12@B
CONST	SEGMENT
?trunc@?$_Iosb@H@std@@2W4_Openmode@12@B DD 010H		; std::_Iosb<int>::trunc
CONST	ENDS
;	COMDAT ?Red@Colors@DirectX@@3UXMVECTORF32@2@B
CONST	SEGMENT
?Red@Colors@DirectX@@3UXMVECTORF32@2@B DD 03f800000r ; 1 ; DirectX::Colors::Red
	DD	000000000r			; 0
	DD	000000000r			; 0
	DD	03f800000r			; 1
CONST	ENDS
;	COMDAT ?value@?$integral_constant@I$0A@@std@@2IB
CONST	SEGMENT
?value@?$integral_constant@I$0A@@std@@2IB DD 00H	; std::integral_constant<unsigned int,0>::value
CONST	ENDS
;	COMDAT ?Purple@Colors@DirectX@@3UXMVECTORF32@2@B
CONST	SEGMENT
?Purple@Colors@DirectX@@3UXMVECTORF32@2@B DD 03f008081r ; 0.501961 ; DirectX::Colors::Purple
	DD	000000000r			; 0
	DD	03f008081r			; 0.501961
	DD	03f800000r			; 1
CONST	ENDS
;	COMDAT ?PowderBlue@Colors@DirectX@@3UXMVECTORF32@2@B
CONST	SEGMENT
?PowderBlue@Colors@DirectX@@3UXMVECTORF32@2@B DD 03f30b0b1r ; 0.690196 ; DirectX::Colors::PowderBlue
	DD	03f60e0e2r			; 0.878431
	DD	03f66e6e8r			; 0.901961
	DD	03f800000r			; 1
CONST	ENDS
;	COMDAT ?app@?$_Iosb@H@std@@2W4_Openmode@12@B
CONST	SEGMENT
?app@?$_Iosb@H@std@@2W4_Openmode@12@B DD 08H		; std::_Iosb<int>::app
CONST	ENDS
;	COMDAT ?max_digits10@?$numeric_limits@N@std@@2HB
CONST	SEGMENT
?max_digits10@?$numeric_limits@N@std@@2HB DD 011H	; std::numeric_limits<double>::max_digits10
CONST	ENDS
;	COMDAT ?Plum@Colors@DirectX@@3UXMVECTORF32@2@B
CONST	SEGMENT
?Plum@Colors@DirectX@@3UXMVECTORF32@2@B DD 03f5ddddfr ; 0.866667 ; DirectX::Colors::Plum
	DD	03f20a0a1r			; 0.627451
	DD	03f5ddddfr			; 0.866667
	DD	03f800000r			; 1
CONST	ENDS
;	COMDAT ?Pink@Colors@DirectX@@3UXMVECTORF32@2@B
CONST	SEGMENT
?Pink@Colors@DirectX@@3UXMVECTORF32@2@B DD 03f800000r ; 1 ; DirectX::Colors::Pink
	DD	03f40c0c2r			; 0.752941
	DD	03f4bcbcdr			; 0.796079
	DD	03f800000r			; 1
CONST	ENDS
;	COMDAT ?Peru@Colors@DirectX@@3UXMVECTORF32@2@B
CONST	SEGMENT
?Peru@Colors@DirectX@@3UXMVECTORF32@2@B DD 03f4dcdcfr ; 0.803922 ; DirectX::Colors::Peru
	DD	03f058586r			; 0.521569
	DD	03e7cfcfer			; 0.247059
	DD	03f800000r			; 1
CONST	ENDS
;	COMDAT ?digits10@?$numeric_limits@N@std@@2HB
CONST	SEGMENT
?digits10@?$numeric_limits@N@std@@2HB DD 0fH		; std::numeric_limits<double>::digits10
CONST	ENDS
;	COMDAT ?ate@?$_Iosb@H@std@@2W4_Openmode@12@B
CONST	SEGMENT
?ate@?$_Iosb@H@std@@2W4_Openmode@12@B DD 04H		; std::_Iosb<int>::ate
CONST	ENDS
;	COMDAT ?PeachPuff@Colors@DirectX@@3UXMVECTORF32@2@B
CONST	SEGMENT
?PeachPuff@Colors@DirectX@@3UXMVECTORF32@2@B DD 03f800000r ; 1 ; DirectX::Colors::PeachPuff
	DD	03f5adadcr			; 0.854902
	DD	03f39b9bar			; 0.72549
	DD	03f800000r			; 1
CONST	ENDS
;	COMDAT ?PapayaWhip@Colors@DirectX@@3UXMVECTORF32@2@B
CONST	SEGMENT
?PapayaWhip@Colors@DirectX@@3UXMVECTORF32@2@B DD 03f800000r ; 1 ; DirectX::Colors::PapayaWhip
	DD	03f6feff1r			; 0.937255
	DD	03f55d5d7r			; 0.835294
	DD	03f800000r			; 1
CONST	ENDS
;	COMDAT ?PaleVioletRed@Colors@DirectX@@3UXMVECTORF32@2@B
CONST	SEGMENT
?PaleVioletRed@Colors@DirectX@@3UXMVECTORF32@2@B DD 03f5bdbddr ; 0.858824 ; DirectX::Colors::PaleVioletRed
	DD	03ee0e0e2r			; 0.439216
	DD	03f139394r			; 0.576471
	DD	03f800000r			; 1
CONST	ENDS
;	COMDAT ?out@?$_Iosb@H@std@@2W4_Openmode@12@B
CONST	SEGMENT
?out@?$_Iosb@H@std@@2W4_Openmode@12@B DD 02H		; std::_Iosb<int>::out
CONST	ENDS
;	COMDAT ?digits@?$numeric_limits@N@std@@2HB
CONST	SEGMENT
?digits@?$numeric_limits@N@std@@2HB DD 035H		; std::numeric_limits<double>::digits
CONST	ENDS
;	COMDAT ?PaleTurquoise@Colors@DirectX@@3UXMVECTORF32@2@B
CONST	SEGMENT
?PaleTurquoise@Colors@DirectX@@3UXMVECTORF32@2@B DD 03f2fafb0r ; 0.686275 ; DirectX::Colors::PaleTurquoise
	DD	03f6eeef0r			; 0.933333
	DD	03f6eeef0r			; 0.933333
	DD	03f800000r			; 1
CONST	ENDS
;	COMDAT ?PaleGreen@Colors@DirectX@@3UXMVECTORF32@2@B
CONST	SEGMENT
?PaleGreen@Colors@DirectX@@3UXMVECTORF32@2@B DD 03f189899r ; 0.596078 ; DirectX::Colors::PaleGreen
	DD	03f7bfbfdr			; 0.984314
	DD	03f189899r			; 0.596078
	DD	03f800000r			; 1
CONST	ENDS
;	COMDAT ?PaleGoldenrod@Colors@DirectX@@3UXMVECTORF32@2@B
CONST	SEGMENT
?PaleGoldenrod@Colors@DirectX@@3UXMVECTORF32@2@B DD 03f6eeef0r ; 0.933333 ; DirectX::Colors::PaleGoldenrod
	DD	03f68e8ear			; 0.909804
	DD	03f2aaaabr			; 0.666667
	DD	03f800000r			; 1
CONST	ENDS
;	COMDAT ?in@?$_Iosb@H@std@@2W4_Openmode@12@B
CONST	SEGMENT
?in@?$_Iosb@H@std@@2W4_Openmode@12@B DD 01H		; std::_Iosb<int>::in
CONST	ENDS
;	COMDAT ?Orchid@Colors@DirectX@@3UXMVECTORF32@2@B
CONST	SEGMENT
?Orchid@Colors@DirectX@@3UXMVECTORF32@2@B DD 03f5adadcr ; 0.854902 ; DirectX::Colors::Orchid
	DD	03ee0e0e2r			; 0.439216
	DD	03f56d6d8r			; 0.839216
	DD	03f800000r			; 1
CONST	ENDS
;	COMDAT ?OrangeRed@Colors@DirectX@@3UXMVECTORF32@2@B
CONST	SEGMENT
?OrangeRed@Colors@DirectX@@3UXMVECTORF32@2@B DD 03f800000r ; 1 ; DirectX::Colors::OrangeRed
	DD	03e8a8a8br			; 0.270588
	DD	000000000r			; 0
	DD	03f800000r			; 1
CONST	ENDS
;	COMDAT ?Orange@Colors@DirectX@@3UXMVECTORF32@2@B
CONST	SEGMENT
?Orange@Colors@DirectX@@3UXMVECTORF32@2@B DD 03f800000r ; 1 ; DirectX::Colors::Orange
	DD	03f25a5a6r			; 0.647059
	DD	000000000r			; 0
	DD	03f800000r			; 1
CONST	ENDS
;	COMDAT ?OliveDrab@Colors@DirectX@@3UXMVECTORF32@2@B
CONST	SEGMENT
?OliveDrab@Colors@DirectX@@3UXMVECTORF32@2@B DD 03ed6d6d8r ; 0.419608 ; DirectX::Colors::OliveDrab
	DD	03f0e8e8fr			; 0.556863
	DD	03e0c8c8dr			; 0.137255
	DD	03f800000r			; 1
CONST	ENDS
;	COMDAT ?Olive@Colors@DirectX@@3UXMVECTORF32@2@B
CONST	SEGMENT
?Olive@Colors@DirectX@@3UXMVECTORF32@2@B DD 03f008081r ; 0.501961 ; DirectX::Colors::Olive
	DD	03f008081r			; 0.501961
	DD	000000000r			; 0
	DD	03f800000r			; 1
CONST	ENDS
;	COMDAT ?_Hardfail@?$_Iosb@H@std@@2W4_Iostate@12@B
CONST	SEGMENT
?_Hardfail@?$_Iosb@H@std@@2W4_Iostate@12@B DD 010H	; std::_Iosb<int>::_Hardfail
CONST	ENDS
;	COMDAT ?OldLace@Colors@DirectX@@3UXMVECTORF32@2@B
CONST	SEGMENT
?OldLace@Colors@DirectX@@3UXMVECTORF32@2@B DD 03f7dfdffr ; 0.992157 ; DirectX::Colors::OldLace
	DD	03f75f5f7r			; 0.960784
	DD	03f66e6e8r			; 0.901961
	DD	03f800000r			; 1
CONST	ENDS
;	COMDAT ?Navy@Colors@DirectX@@3UXMVECTORF32@2@B
CONST	SEGMENT
?Navy@Colors@DirectX@@3UXMVECTORF32@2@B DD 000000000r ; 0 ; DirectX::Colors::Navy
	DD	000000000r			; 0
	DD	03f008081r			; 0.501961
	DD	03f800000r			; 1
CONST	ENDS
;	COMDAT ?NavajoWhite@Colors@DirectX@@3UXMVECTORF32@2@B
CONST	SEGMENT
?NavajoWhite@Colors@DirectX@@3UXMVECTORF32@2@B DD 03f800000r ; 1 ; DirectX::Colors::NavajoWhite
	DD	03f5edee0r			; 0.870588
	DD	03f2dadaer			; 0.678431
	DD	03f800000r			; 1
CONST	ENDS
;	COMDAT ?badbit@?$_Iosb@H@std@@2W4_Iostate@12@B
CONST	SEGMENT
?badbit@?$_Iosb@H@std@@2W4_Iostate@12@B DD 04H		; std::_Iosb<int>::badbit
CONST	ENDS
;	COMDAT ?Moccasin@Colors@DirectX@@3UXMVECTORF32@2@B
CONST	SEGMENT
?Moccasin@Colors@DirectX@@3UXMVECTORF32@2@B DD 03f800000r ; 1 ; DirectX::Colors::Moccasin
	DD	03f64e4e6r			; 0.894118
	DD	03f35b5b6r			; 0.709804
	DD	03f800000r			; 1
CONST	ENDS
;	COMDAT ?MistyRose@Colors@DirectX@@3UXMVECTORF32@2@B
CONST	SEGMENT
?MistyRose@Colors@DirectX@@3UXMVECTORF32@2@B DD 03f800000r ; 1 ; DirectX::Colors::MistyRose
	DD	03f64e4e6r			; 0.894118
	DD	03f61e1e3r			; 0.882353
	DD	03f800000r			; 1
CONST	ENDS
;	COMDAT ?MintCream@Colors@DirectX@@3UXMVECTORF32@2@B
CONST	SEGMENT
?MintCream@Colors@DirectX@@3UXMVECTORF32@2@B DD 03f75f5f7r ; 0.960784 ; DirectX::Colors::MintCream
	DD	03f800000r			; 1
	DD	03f7afafcr			; 0.980392
	DD	03f800000r			; 1
CONST	ENDS
;	COMDAT ?failbit@?$_Iosb@H@std@@2W4_Iostate@12@B
CONST	SEGMENT
?failbit@?$_Iosb@H@std@@2W4_Iostate@12@B DD 02H		; std::_Iosb<int>::failbit
CONST	ENDS
;	COMDAT ?MidnightBlue@Colors@DirectX@@3UXMVECTORF32@2@B
CONST	SEGMENT
?MidnightBlue@Colors@DirectX@@3UXMVECTORF32@2@B DD 03dc8c8car ; 0.0980392 ; DirectX::Colors::MidnightBlue
	DD	03dc8c8car			; 0.0980392
	DD	03ee0e0e2r			; 0.439216
	DD	03f800000r			; 1
CONST	ENDS
;	COMDAT ?MediumVioletRed@Colors@DirectX@@3UXMVECTORF32@2@B
CONST	SEGMENT
?MediumVioletRed@Colors@DirectX@@3UXMVECTORF32@2@B DD 03f47c7c9r ; 0.780392 ; DirectX::Colors::MediumVioletRed
	DD	03da8a8a9r			; 0.0823529
	DD	03f058586r			; 0.521569
	DD	03f800000r			; 1
CONST	ENDS
;	COMDAT ?MediumTurquoise@Colors@DirectX@@3UXMVECTORF32@2@B
CONST	SEGMENT
?MediumTurquoise@Colors@DirectX@@3UXMVECTORF32@2@B DD 03e909091r ; 0.282353 ; DirectX::Colors::MediumTurquoise
	DD	03f51d1d3r			; 0.819608
	DD	03f4ccccer			; 0.8
	DD	03f800000r			; 1
CONST	ENDS
;	COMDAT ?eofbit@?$_Iosb@H@std@@2W4_Iostate@12@B
CONST	SEGMENT
?eofbit@?$_Iosb@H@std@@2W4_Iostate@12@B DD 01H		; std::_Iosb<int>::eofbit
CONST	ENDS
;	COMDAT ?MediumSpringGreen@Colors@DirectX@@3UXMVECTORF32@2@B
CONST	SEGMENT
?MediumSpringGreen@Colors@DirectX@@3UXMVECTORF32@2@B DD 000000000r ; 0 ; DirectX::Colors::MediumSpringGreen
	DD	03f7afafcr			; 0.980392
	DD	03f1a9a9br			; 0.603922
	DD	03f800000r			; 1
CONST	ENDS
;	COMDAT ?MediumSlateBlue@Colors@DirectX@@3UXMVECTORF32@2@B
CONST	SEGMENT
?MediumSlateBlue@Colors@DirectX@@3UXMVECTORF32@2@B DD 03ef6f6f8r ; 0.482353 ; DirectX::Colors::MediumSlateBlue
	DD	03ed0d0d2r			; 0.407843
	DD	03f6eeef0r			; 0.933333
	DD	03f800000r			; 1
CONST	ENDS
;	COMDAT ?MediumSeaGreen@Colors@DirectX@@3UXMVECTORF32@2@B
CONST	SEGMENT
?MediumSeaGreen@Colors@DirectX@@3UXMVECTORF32@2@B DD 03e70f0f2r ; 0.235294 ; DirectX::Colors::MediumSeaGreen
	DD	03f33b3b4r			; 0.701961
	DD	03ee2e2e4r			; 0.443137
	DD	03f800000r			; 1
CONST	ENDS
;	COMDAT ?goodbit@?$_Iosb@H@std@@2W4_Iostate@12@B
CONST	SEGMENT
?goodbit@?$_Iosb@H@std@@2W4_Iostate@12@B DD 00H		; std::_Iosb<int>::goodbit
CONST	ENDS
;	COMDAT ?MediumPurple@Colors@DirectX@@3UXMVECTORF32@2@B
CONST	SEGMENT
?MediumPurple@Colors@DirectX@@3UXMVECTORF32@2@B DD 03f139394r ; 0.576471 ; DirectX::Colors::MediumPurple
	DD	03ee0e0e2r			; 0.439216
	DD	03f5bdbddr			; 0.858824
	DD	03f800000r			; 1
CONST	ENDS
;	COMDAT ?MediumOrchid@Colors@DirectX@@3UXMVECTORF32@2@B
CONST	SEGMENT
?MediumOrchid@Colors@DirectX@@3UXMVECTORF32@2@B DD 03f3ababbr ; 0.729412 ; DirectX::Colors::MediumOrchid
	DD	03eaaaaabr			; 0.333333
	DD	03f53d3d5r			; 0.827451
	DD	03f800000r			; 1
CONST	ENDS
;	COMDAT ?MediumBlue@Colors@DirectX@@3UXMVECTORF32@2@B
CONST	SEGMENT
?MediumBlue@Colors@DirectX@@3UXMVECTORF32@2@B DD 000000000r ; 0 ; DirectX::Colors::MediumBlue
	DD	000000000r			; 0
	DD	03f4dcdcfr			; 0.803922
	DD	03f800000r			; 1
CONST	ENDS
;	COMDAT ?MediumAquamarine@Colors@DirectX@@3UXMVECTORF32@2@B
CONST	SEGMENT
?MediumAquamarine@Colors@DirectX@@3UXMVECTORF32@2@B DD 03ecccccer ; 0.4 ; DirectX::Colors::MediumAquamarine
	DD	03f4dcdcfr			; 0.803922
	DD	03f2aaaabr			; 0.666667
	DD	03f800000r			; 1
CONST	ENDS
;	COMDAT ?Maroon@Colors@DirectX@@3UXMVECTORF32@2@B
CONST	SEGMENT
?Maroon@Colors@DirectX@@3UXMVECTORF32@2@B DD 03f008081r ; 0.501961 ; DirectX::Colors::Maroon
	DD	000000000r			; 0
	DD	000000000r			; 0
	DD	03f800000r			; 1
CONST	ENDS
;	COMDAT ?floatfield@?$_Iosb@H@std@@2W4_Fmtflags@12@B
CONST	SEGMENT
?floatfield@?$_Iosb@H@std@@2W4_Fmtflags@12@B DD 03000H	; std::_Iosb<int>::floatfield
CONST	ENDS
;	COMDAT ?Magenta@Colors@DirectX@@3UXMVECTORF32@2@B
CONST	SEGMENT
?Magenta@Colors@DirectX@@3UXMVECTORF32@2@B DD 03f800000r ; 1 ; DirectX::Colors::Magenta
	DD	000000000r			; 0
	DD	03f800000r			; 1
	DD	03f800000r			; 1
CONST	ENDS
;	COMDAT ?Linen@Colors@DirectX@@3UXMVECTORF32@2@B
CONST	SEGMENT
?Linen@Colors@DirectX@@3UXMVECTORF32@2@B DD 03f7afafcr ; 0.980392 ; DirectX::Colors::Linen
	DD	03f70f0f2r			; 0.941177
	DD	03f66e6e8r			; 0.901961
	DD	03f800000r			; 1
CONST	ENDS
;	COMDAT ?value@?$_Maximum@$S@std@@2IB
CONST	SEGMENT
?value@?$_Maximum@$S@std@@2IB DD 00H			; std::_Maximum<>::value
CONST	ENDS
;	COMDAT ?LimeGreen@Colors@DirectX@@3UXMVECTORF32@2@B
CONST	SEGMENT
?LimeGreen@Colors@DirectX@@3UXMVECTORF32@2@B DD 03e48c8car ; 0.196078 ; DirectX::Colors::LimeGreen
	DD	03f4dcdcfr			; 0.803922
	DD	03e48c8car			; 0.196078
	DD	03f800000r			; 1
CONST	ENDS
;	COMDAT ?basefield@?$_Iosb@H@std@@2W4_Fmtflags@12@B
CONST	SEGMENT
?basefield@?$_Iosb@H@std@@2W4_Fmtflags@12@B DD 0e00H	; std::_Iosb<int>::basefield
CONST	ENDS
;	COMDAT ?Lime@Colors@DirectX@@3UXMVECTORF32@2@B
CONST	SEGMENT
?Lime@Colors@DirectX@@3UXMVECTORF32@2@B DD 000000000r ; 0 ; DirectX::Colors::Lime
	DD	03f800000r			; 1
	DD	000000000r			; 0
	DD	03f800000r			; 1
CONST	ENDS
;	COMDAT ?LightYellow@Colors@DirectX@@3UXMVECTORF32@2@B
CONST	SEGMENT
?LightYellow@Colors@DirectX@@3UXMVECTORF32@2@B DD 03f800000r ; 1 ; DirectX::Colors::LightYellow
	DD	03f800000r			; 1
	DD	03f60e0e2r			; 0.878431
	DD	03f800000r			; 1
CONST	ENDS
;	COMDAT ?min_exponent10@?$numeric_limits@M@std@@2HB
CONST	SEGMENT
?min_exponent10@?$numeric_limits@M@std@@2HB DD 0ffffffdbH ; std::numeric_limits<float>::min_exponent10
CONST	ENDS
;	COMDAT ?LightSteelBlue@Colors@DirectX@@3UXMVECTORF32@2@B
CONST	SEGMENT
?LightSteelBlue@Colors@DirectX@@3UXMVECTORF32@2@B DD 03f30b0b1r ; 0.690196 ; DirectX::Colors::LightSteelBlue
	DD	03f44c4c6r			; 0.768628
	DD	03f5edee0r			; 0.870588
	DD	03f800000r			; 1
CONST	ENDS
;	COMDAT ?adjustfield@?$_Iosb@H@std@@2W4_Fmtflags@12@B
CONST	SEGMENT
?adjustfield@?$_Iosb@H@std@@2W4_Fmtflags@12@B DD 01c0H	; std::_Iosb<int>::adjustfield
CONST	ENDS
;	COMDAT ?LightSlateGray@Colors@DirectX@@3UXMVECTORF32@2@B
CONST	SEGMENT
?LightSlateGray@Colors@DirectX@@3UXMVECTORF32@2@B DD 03eeeeef0r ; 0.466667 ; DirectX::Colors::LightSlateGray
	DD	03f088889r			; 0.533333
	DD	03f19999ar			; 0.6
	DD	03f800000r			; 1
CONST	ENDS
;	COMDAT ?LightSkyBlue@Colors@DirectX@@3UXMVECTORF32@2@B
CONST	SEGMENT
?LightSkyBlue@Colors@DirectX@@3UXMVECTORF32@2@B DD 03f078788r ; 0.529412 ; DirectX::Colors::LightSkyBlue
	DD	03f4eced0r			; 0.807843
	DD	03f7afafcr			; 0.980392
	DD	03f800000r			; 1
CONST	ENDS
;	COMDAT ?LightSeaGreen@Colors@DirectX@@3UXMVECTORF32@2@B
CONST	SEGMENT
?LightSeaGreen@Colors@DirectX@@3UXMVECTORF32@2@B DD 03e008081r ; 0.12549 ; DirectX::Colors::LightSeaGreen
	DD	03f32b2b3r			; 0.698039
	DD	03f2aaaabr			; 0.666667
	DD	03f800000r			; 1
CONST	ENDS
;	COMDAT ?_Stdio@?$_Iosb@H@std@@2W4_Fmtflags@12@B
CONST	SEGMENT
?_Stdio@?$_Iosb@H@std@@2W4_Fmtflags@12@B DD 08000H	; std::_Iosb<int>::_Stdio
CONST	ENDS
;	COMDAT ?min_exponent@?$numeric_limits@M@std@@2HB
CONST	SEGMENT
?min_exponent@?$numeric_limits@M@std@@2HB DD 0ffffff83H	; std::numeric_limits<float>::min_exponent
CONST	ENDS
;	COMDAT ?LightSalmon@Colors@DirectX@@3UXMVECTORF32@2@B
CONST	SEGMENT
?LightSalmon@Colors@DirectX@@3UXMVECTORF32@2@B DD 03f800000r ; 1 ; DirectX::Colors::LightSalmon
	DD	03f20a0a1r			; 0.627451
	DD	03ef4f4f6r			; 0.478431
	DD	03f800000r			; 1
CONST	ENDS
;	COMDAT ?LightPink@Colors@DirectX@@3UXMVECTORF32@2@B
CONST	SEGMENT
?LightPink@Colors@DirectX@@3UXMVECTORF32@2@B DD 03f800000r ; 1 ; DirectX::Colors::LightPink
	DD	03f36b6b7r			; 0.713726
	DD	03f41c1c3r			; 0.756863
	DD	03f800000r			; 1
CONST	ENDS
;	COMDAT ?LightGray@Colors@DirectX@@3UXMVECTORF32@2@B
CONST	SEGMENT
?LightGray@Colors@DirectX@@3UXMVECTORF32@2@B DD 03f53d3d5r ; 0.827451 ; DirectX::Colors::LightGray
	DD	03f53d3d5r			; 0.827451
	DD	03f53d3d5r			; 0.827451
	DD	03f800000r			; 1
CONST	ENDS
;	COMDAT ?boolalpha@?$_Iosb@H@std@@2W4_Fmtflags@12@B
CONST	SEGMENT
?boolalpha@?$_Iosb@H@std@@2W4_Fmtflags@12@B DD 04000H	; std::_Iosb<int>::boolalpha
CONST	ENDS
;	COMDAT ?LightGreen@Colors@DirectX@@3UXMVECTORF32@2@B
CONST	SEGMENT
?LightGreen@Colors@DirectX@@3UXMVECTORF32@2@B DD 03f109091r ; 0.564706 ; DirectX::Colors::LightGreen
	DD	03f6eeef0r			; 0.933333
	DD	03f109091r			; 0.564706
	DD	03f800000r			; 1
CONST	ENDS
;	COMDAT ?max_exponent10@?$numeric_limits@M@std@@2HB
CONST	SEGMENT
?max_exponent10@?$numeric_limits@M@std@@2HB DD 026H	; std::numeric_limits<float>::max_exponent10
CONST	ENDS
;	COMDAT ?LightGoldenrodYellow@Colors@DirectX@@3UXMVECTORF32@2@B
CONST	SEGMENT
?LightGoldenrodYellow@Colors@DirectX@@3UXMVECTORF32@2@B DD 03f7afafcr ; 0.980392 ; DirectX::Colors::LightGoldenrodYellow
	DD	03f7afafcr			; 0.980392
	DD	03f52d2d4r			; 0.823529
	DD	03f800000r			; 1
CONST	ENDS
;	COMDAT ?LightCyan@Colors@DirectX@@3UXMVECTORF32@2@B
CONST	SEGMENT
?LightCyan@Colors@DirectX@@3UXMVECTORF32@2@B DD 03f60e0e2r ; 0.878431 ; DirectX::Colors::LightCyan
	DD	03f800000r			; 1
	DD	03f800000r			; 1
	DD	03f800000r			; 1
CONST	ENDS
;	COMDAT ?hexfloat@?$_Iosb@H@std@@2W4_Fmtflags@12@B
CONST	SEGMENT
?hexfloat@?$_Iosb@H@std@@2W4_Fmtflags@12@B DD 03000H	; std::_Iosb<int>::hexfloat
CONST	ENDS
;	COMDAT ?LightCoral@Colors@DirectX@@3UXMVECTORF32@2@B
CONST	SEGMENT
?LightCoral@Colors@DirectX@@3UXMVECTORF32@2@B DD 03f70f0f2r ; 0.941177 ; DirectX::Colors::LightCoral
	DD	03f008081r			; 0.501961
	DD	03f008081r			; 0.501961
	DD	03f800000r			; 1
CONST	ENDS
;	COMDAT ?LightBlue@Colors@DirectX@@3UXMVECTORF32@2@B
CONST	SEGMENT
?LightBlue@Colors@DirectX@@3UXMVECTORF32@2@B DD 03f2dadaer ; 0.678431 ; DirectX::Colors::LightBlue
	DD	03f58d8dar			; 0.847059
	DD	03f66e6e8r			; 0.901961
	DD	03f800000r			; 1
CONST	ENDS
;	COMDAT ?max_exponent@?$numeric_limits@M@std@@2HB
CONST	SEGMENT
?max_exponent@?$numeric_limits@M@std@@2HB DD 080H	; std::numeric_limits<float>::max_exponent
CONST	ENDS
;	COMDAT ?LemonChiffon@Colors@DirectX@@3UXMVECTORF32@2@B
CONST	SEGMENT
?LemonChiffon@Colors@DirectX@@3UXMVECTORF32@2@B DD 03f800000r ; 1 ; DirectX::Colors::LemonChiffon
	DD	03f7afafcr			; 0.980392
	DD	03f4dcdcfr			; 0.803922
	DD	03f800000r			; 1
CONST	ENDS
;	COMDAT ?fixed@?$_Iosb@H@std@@2W4_Fmtflags@12@B
CONST	SEGMENT
?fixed@?$_Iosb@H@std@@2W4_Fmtflags@12@B DD 02000H	; std::_Iosb<int>::fixed
CONST	ENDS
;	COMDAT ?LawnGreen@Colors@DirectX@@3UXMVECTORF32@2@B
CONST	SEGMENT
?LawnGreen@Colors@DirectX@@3UXMVECTORF32@2@B DD 03ef8f8far ; 0.486275 ; DirectX::Colors::LawnGreen
	DD	03f7cfcfer			; 0.988235
	DD	000000000r			; 0
	DD	03f800000r			; 1
CONST	ENDS
;	COMDAT ?LavenderBlush@Colors@DirectX@@3UXMVECTORF32@2@B
CONST	SEGMENT
?LavenderBlush@Colors@DirectX@@3UXMVECTORF32@2@B DD 03f800000r ; 1 ; DirectX::Colors::LavenderBlush
	DD	03f70f0f2r			; 0.941177
	DD	03f75f5f7r			; 0.960784
	DD	03f800000r			; 1
CONST	ENDS
;	COMDAT ?Lavender@Colors@DirectX@@3UXMVECTORF32@2@B
CONST	SEGMENT
?Lavender@Colors@DirectX@@3UXMVECTORF32@2@B DD 03f66e6e8r ; 0.901961 ; DirectX::Colors::Lavender
	DD	03f66e6e8r			; 0.901961
	DD	03f7afafcr			; 0.980392
	DD	03f800000r			; 1
CONST	ENDS
;	COMDAT ?scientific@?$_Iosb@H@std@@2W4_Fmtflags@12@B
CONST	SEGMENT
?scientific@?$_Iosb@H@std@@2W4_Fmtflags@12@B DD 01000H	; std::_Iosb<int>::scientific
CONST	ENDS
;	COMDAT ?max_digits10@?$numeric_limits@M@std@@2HB
CONST	SEGMENT
?max_digits10@?$numeric_limits@M@std@@2HB DD 09H	; std::numeric_limits<float>::max_digits10
CONST	ENDS
;	COMDAT ?Khaki@Colors@DirectX@@3UXMVECTORF32@2@B
CONST	SEGMENT
?Khaki@Colors@DirectX@@3UXMVECTORF32@2@B DD 03f70f0f2r ; 0.941177 ; DirectX::Colors::Khaki
	DD	03f66e6e8r			; 0.901961
	DD	03f0c8c8dr			; 0.54902
	DD	03f800000r			; 1
CONST	ENDS
;	COMDAT ?Ivory@Colors@DirectX@@3UXMVECTORF32@2@B
CONST	SEGMENT
?Ivory@Colors@DirectX@@3UXMVECTORF32@2@B DD 03f800000r ; 1 ; DirectX::Colors::Ivory
	DD	03f800000r			; 1
	DD	03f70f0f2r			; 0.941177
	DD	03f800000r			; 1
CONST	ENDS
;	COMDAT ?Indigo@Colors@DirectX@@3UXMVECTORF32@2@B
CONST	SEGMENT
?Indigo@Colors@DirectX@@3UXMVECTORF32@2@B DD 03e969697r ; 0.294118 ; DirectX::Colors::Indigo
	DD	000000000r			; 0
	DD	03f028283r			; 0.509804
	DD	03f800000r			; 1
CONST	ENDS
;	COMDAT ?hex@?$_Iosb@H@std@@2W4_Fmtflags@12@B
CONST	SEGMENT
?hex@?$_Iosb@H@std@@2W4_Fmtflags@12@B DD 0800H		; std::_Iosb<int>::hex
CONST	ENDS
;	COMDAT ?digits10@?$numeric_limits@M@std@@2HB
CONST	SEGMENT
?digits10@?$numeric_limits@M@std@@2HB DD 06H		; std::numeric_limits<float>::digits10
CONST	ENDS
;	COMDAT ?IndianRed@Colors@DirectX@@3UXMVECTORF32@2@B
CONST	SEGMENT
?IndianRed@Colors@DirectX@@3UXMVECTORF32@2@B DD 03f4dcdcfr ; 0.803922 ; DirectX::Colors::IndianRed
	DD	03eb8b8b9r			; 0.360784
	DD	03eb8b8b9r			; 0.360784
	DD	03f800000r			; 1
CONST	ENDS
;	COMDAT ?value@?$integral_constant@I$00@std@@2IB
CONST	SEGMENT
?value@?$integral_constant@I$00@std@@2IB DD 01H		; std::integral_constant<unsigned int,1>::value
CONST	ENDS
;	COMDAT ?HotPink@Colors@DirectX@@3UXMVECTORF32@2@B
CONST	SEGMENT
?HotPink@Colors@DirectX@@3UXMVECTORF32@2@B DD 03f800000r ; 1 ; DirectX::Colors::HotPink
	DD	03ed2d2d4r			; 0.411765
	DD	03f34b4b5r			; 0.705882
	DD	03f800000r			; 1
CONST	ENDS
;	COMDAT ?Honeydew@Colors@DirectX@@3UXMVECTORF32@2@B
CONST	SEGMENT
?Honeydew@Colors@DirectX@@3UXMVECTORF32@2@B DD 03f70f0f2r ; 0.941177 ; DirectX::Colors::Honeydew
	DD	03f800000r			; 1
	DD	03f70f0f2r			; 0.941177
	DD	03f800000r			; 1
CONST	ENDS
;	COMDAT ?digits@?$numeric_limits@M@std@@2HB
CONST	SEGMENT
?digits@?$numeric_limits@M@std@@2HB DD 018H		; std::numeric_limits<float>::digits
CONST	ENDS
;	COMDAT ?oct@?$_Iosb@H@std@@2W4_Fmtflags@12@B
CONST	SEGMENT
?oct@?$_Iosb@H@std@@2W4_Fmtflags@12@B DD 0400H		; std::_Iosb<int>::oct
CONST	ENDS
;	COMDAT ?GreenYellow@Colors@DirectX@@3UXMVECTORF32@2@B
CONST	SEGMENT
?GreenYellow@Colors@DirectX@@3UXMVECTORF32@2@B DD 03f2dadaer ; 0.678431 ; DirectX::Colors::GreenYellow
	DD	03f800000r			; 1
	DD	03e3cbcbdr			; 0.184314
	DD	03f800000r			; 1
CONST	ENDS
;	COMDAT ?Green@Colors@DirectX@@3UXMVECTORF32@2@B
CONST	SEGMENT
?Green@Colors@DirectX@@3UXMVECTORF32@2@B DD 000000000r ; 0 ; DirectX::Colors::Green
	DD	03f008081r			; 0.501961
	DD	000000000r			; 0
	DD	03f800000r			; 1
CONST	ENDS
;	COMDAT ?Gray@Colors@DirectX@@3UXMVECTORF32@2@B
CONST	SEGMENT
?Gray@Colors@DirectX@@3UXMVECTORF32@2@B DD 03f008081r ; 0.501961 ; DirectX::Colors::Gray
	DD	03f008081r			; 0.501961
	DD	03f008081r			; 0.501961
	DD	03f800000r			; 1
CONST	ENDS
;	COMDAT ?dec@?$_Iosb@H@std@@2W4_Fmtflags@12@B
CONST	SEGMENT
?dec@?$_Iosb@H@std@@2W4_Fmtflags@12@B DD 0200H		; std::_Iosb<int>::dec
CONST	ENDS
;	COMDAT ?Goldenrod@Colors@DirectX@@3UXMVECTORF32@2@B
CONST	SEGMENT
?Goldenrod@Colors@DirectX@@3UXMVECTORF32@2@B DD 03f5adadcr ; 0.854902 ; DirectX::Colors::Goldenrod
	DD	03f25a5a6r			; 0.647059
	DD	03e008081r			; 0.12549
	DD	03f800000r			; 1
CONST	ENDS
;	COMDAT ?Gold@Colors@DirectX@@3UXMVECTORF32@2@B
CONST	SEGMENT
?Gold@Colors@DirectX@@3UXMVECTORF32@2@B DD 03f800000r ; 1 ; DirectX::Colors::Gold
	DD	03f57d7d9r			; 0.843137
	DD	000000000r			; 0
	DD	03f800000r			; 1
CONST	ENDS
;	COMDAT ?GhostWhite@Colors@DirectX@@3UXMVECTORF32@2@B
CONST	SEGMENT
?GhostWhite@Colors@DirectX@@3UXMVECTORF32@2@B DD 03f78f8far ; 0.972549 ; DirectX::Colors::GhostWhite
	DD	03f78f8far			; 0.972549
	DD	03f800000r			; 1
	DD	03f800000r			; 1
CONST	ENDS
;	COMDAT ?internal@?$_Iosb@H@std@@2W4_Fmtflags@12@B
CONST	SEGMENT
?internal@?$_Iosb@H@std@@2W4_Fmtflags@12@B DD 0100H	; std::_Iosb<int>::internal
CONST	ENDS
;	COMDAT ?Gainsboro@Colors@DirectX@@3UXMVECTORF32@2@B
CONST	SEGMENT
?Gainsboro@Colors@DirectX@@3UXMVECTORF32@2@B DD 03f5cdcder ; 0.862745 ; DirectX::Colors::Gainsboro
	DD	03f5cdcder			; 0.862745
	DD	03f5cdcder			; 0.862745
	DD	03f800000r			; 1
CONST	ENDS
;	COMDAT ?Fuchsia@Colors@DirectX@@3UXMVECTORF32@2@B
CONST	SEGMENT
?Fuchsia@Colors@DirectX@@3UXMVECTORF32@2@B DD 03f800000r ; 1 ; DirectX::Colors::Fuchsia
	DD	000000000r			; 0
	DD	03f800000r			; 1
	DD	03f800000r			; 1
CONST	ENDS
;	COMDAT ?ForestGreen@Colors@DirectX@@3UXMVECTORF32@2@B
CONST	SEGMENT
?ForestGreen@Colors@DirectX@@3UXMVECTORF32@2@B DD 03e088889r ; 0.133333 ; DirectX::Colors::ForestGreen
	DD	03f0b8b8cr			; 0.545098
	DD	03e088889r			; 0.133333
	DD	03f800000r			; 1
CONST	ENDS
;	COMDAT ?right@?$_Iosb@H@std@@2W4_Fmtflags@12@B
CONST	SEGMENT
?right@?$_Iosb@H@std@@2W4_Fmtflags@12@B DD 080H		; std::_Iosb<int>::right
CONST	ENDS
;	COMDAT ?FloralWhite@Colors@DirectX@@3UXMVECTORF32@2@B
CONST	SEGMENT
?FloralWhite@Colors@DirectX@@3UXMVECTORF32@2@B DD 03f800000r ; 1 ; DirectX::Colors::FloralWhite
	DD	03f7afafcr			; 0.980392
	DD	03f70f0f2r			; 0.941177
	DD	03f800000r			; 1
CONST	ENDS
;	COMDAT ?Firebrick@Colors@DirectX@@3UXMVECTORF32@2@B
CONST	SEGMENT
?Firebrick@Colors@DirectX@@3UXMVECTORF32@2@B DD 03f32b2b3r ; 0.698039 ; DirectX::Colors::Firebrick
	DD	03e088889r			; 0.133333
	DD	03e088889r			; 0.133333
	DD	03f800000r			; 1
CONST	ENDS
;	COMDAT ?DodgerBlue@Colors@DirectX@@3UXMVECTORF32@2@B
CONST	SEGMENT
?DodgerBlue@Colors@DirectX@@3UXMVECTORF32@2@B DD 03df0f0f2r ; 0.117647 ; DirectX::Colors::DodgerBlue
	DD	03f109091r			; 0.564706
	DD	03f800000r			; 1
	DD	03f800000r			; 1
CONST	ENDS
;	COMDAT ?left@?$_Iosb@H@std@@2W4_Fmtflags@12@B
CONST	SEGMENT
?left@?$_Iosb@H@std@@2W4_Fmtflags@12@B DD 040H		; std::_Iosb<int>::left
CONST	ENDS
;	COMDAT ?DimGray@Colors@DirectX@@3UXMVECTORF32@2@B
CONST	SEGMENT
?DimGray@Colors@DirectX@@3UXMVECTORF32@2@B DD 03ed2d2d4r ; 0.411765 ; DirectX::Colors::DimGray
	DD	03ed2d2d4r			; 0.411765
	DD	03ed2d2d4r			; 0.411765
	DD	03f800000r			; 1
CONST	ENDS
;	COMDAT ?DeepSkyBlue@Colors@DirectX@@3UXMVECTORF32@2@B
CONST	SEGMENT
?DeepSkyBlue@Colors@DirectX@@3UXMVECTORF32@2@B DD 000000000r ; 0 ; DirectX::Colors::DeepSkyBlue
	DD	03f3fbfc0r			; 0.74902
	DD	03f800000r			; 1
	DD	03f800000r			; 1
CONST	ENDS
;	COMDAT ?DeepPink@Colors@DirectX@@3UXMVECTORF32@2@B
CONST	SEGMENT
?DeepPink@Colors@DirectX@@3UXMVECTORF32@2@B DD 03f800000r ; 1 ; DirectX::Colors::DeepPink
	DD	03da0a0a1r			; 0.0784314
	DD	03f139394r			; 0.576471
	DD	03f800000r			; 1
CONST	ENDS
;	COMDAT ?showpos@?$_Iosb@H@std@@2W4_Fmtflags@12@B
CONST	SEGMENT
?showpos@?$_Iosb@H@std@@2W4_Fmtflags@12@B DD 020H	; std::_Iosb<int>::showpos
CONST	ENDS
;	COMDAT ?DarkViolet@Colors@DirectX@@3UXMVECTORF32@2@B
CONST	SEGMENT
?DarkViolet@Colors@DirectX@@3UXMVECTORF32@2@B DD 03f149495r ; 0.580392 ; DirectX::Colors::DarkViolet
	DD	000000000r			; 0
	DD	03f53d3d5r			; 0.827451
	DD	03f800000r			; 1
CONST	ENDS
;	COMDAT ?DarkTurquoise@Colors@DirectX@@3UXMVECTORF32@2@B
CONST	SEGMENT
?DarkTurquoise@Colors@DirectX@@3UXMVECTORF32@2@B DD 000000000r ; 0 ; DirectX::Colors::DarkTurquoise
	DD	03f4eced0r			; 0.807843
	DD	03f51d1d3r			; 0.819608
	DD	03f800000r			; 1
CONST	ENDS
;	COMDAT ?DarkSlateGray@Colors@DirectX@@3UXMVECTORF32@2@B
CONST	SEGMENT
?DarkSlateGray@Colors@DirectX@@3UXMVECTORF32@2@B DD 03e3cbcbdr ; 0.184314 ; DirectX::Colors::DarkSlateGray
	DD	03e9e9e9fr			; 0.309804
	DD	03e9e9e9fr			; 0.309804
	DD	03f800000r			; 1
CONST	ENDS
;	COMDAT ?showpoint@?$_Iosb@H@std@@2W4_Fmtflags@12@B
CONST	SEGMENT
?showpoint@?$_Iosb@H@std@@2W4_Fmtflags@12@B DD 010H	; std::_Iosb<int>::showpoint
CONST	ENDS
;	COMDAT ?DarkSlateBlue@Colors@DirectX@@3UXMVECTORF32@2@B
CONST	SEGMENT
?DarkSlateBlue@Colors@DirectX@@3UXMVECTORF32@2@B DD 03e909091r ; 0.282353 ; DirectX::Colors::DarkSlateBlue
	DD	03e74f4f6r			; 0.239216
	DD	03f0b8b8cr			; 0.545098
	DD	03f800000r			; 1
CONST	ENDS
;	COMDAT ?DarkSeaGreen@Colors@DirectX@@3UXMVECTORF32@2@B
CONST	SEGMENT
?DarkSeaGreen@Colors@DirectX@@3UXMVECTORF32@2@B DD 03f0f8f90r ; 0.560784 ; DirectX::Colors::DarkSeaGreen
	DD	03f3cbcbdr			; 0.737255
	DD	03f0b8b8cr			; 0.545098
	DD	03f800000r			; 1
CONST	ENDS
;	COMDAT ?DarkSalmon@Colors@DirectX@@3UXMVECTORF32@2@B
CONST	SEGMENT
?DarkSalmon@Colors@DirectX@@3UXMVECTORF32@2@B DD 03f69e9ebr ; 0.913726 ; DirectX::Colors::DarkSalmon
	DD	03f169697r			; 0.588235
	DD	03ef4f4f6r			; 0.478431
	DD	03f800000r			; 1
CONST	ENDS
;	COMDAT ?showbase@?$_Iosb@H@std@@2W4_Fmtflags@12@B
CONST	SEGMENT
?showbase@?$_Iosb@H@std@@2W4_Fmtflags@12@B DD 08H	; std::_Iosb<int>::showbase
CONST	ENDS
;	COMDAT ?DarkRed@Colors@DirectX@@3UXMVECTORF32@2@B
CONST	SEGMENT
?DarkRed@Colors@DirectX@@3UXMVECTORF32@2@B DD 03f0b8b8cr ; 0.545098 ; DirectX::Colors::DarkRed
	DD	000000000r			; 0
	DD	000000000r			; 0
	DD	03f800000r			; 1
CONST	ENDS
;	COMDAT ?DarkOrchid@Colors@DirectX@@3UXMVECTORF32@2@B
CONST	SEGMENT
?DarkOrchid@Colors@DirectX@@3UXMVECTORF32@2@B DD 03f19999ar ; 0.6 ; DirectX::Colors::DarkOrchid
	DD	03e48c8car			; 0.196078
	DD	03f4ccccer			; 0.8
	DD	03f800000r			; 1
CONST	ENDS
;	COMDAT ?DarkOrange@Colors@DirectX@@3UXMVECTORF32@2@B
CONST	SEGMENT
?DarkOrange@Colors@DirectX@@3UXMVECTORF32@2@B DD 03f800000r ; 1 ; DirectX::Colors::DarkOrange
	DD	03f0c8c8dr			; 0.54902
	DD	000000000r			; 0
	DD	03f800000r			; 1
CONST	ENDS
;	COMDAT ?uppercase@?$_Iosb@H@std@@2W4_Fmtflags@12@B
CONST	SEGMENT
?uppercase@?$_Iosb@H@std@@2W4_Fmtflags@12@B DD 04H	; std::_Iosb<int>::uppercase
CONST	ENDS
;	COMDAT ?DarkOliveGreen@Colors@DirectX@@3UXMVECTORF32@2@B
CONST	SEGMENT
?DarkOliveGreen@Colors@DirectX@@3UXMVECTORF32@2@B DD 03eaaaaabr ; 0.333333 ; DirectX::Colors::DarkOliveGreen
	DD	03ed6d6d8r			; 0.419608
	DD	03e3cbcbdr			; 0.184314
	DD	03f800000r			; 1
CONST	ENDS
;	COMDAT ?DarkMagenta@Colors@DirectX@@3UXMVECTORF32@2@B
CONST	SEGMENT
?DarkMagenta@Colors@DirectX@@3UXMVECTORF32@2@B DD 03f0b8b8cr ; 0.545098 ; DirectX::Colors::DarkMagenta
	DD	000000000r			; 0
	DD	03f0b8b8cr			; 0.545098
	DD	03f800000r			; 1
CONST	ENDS
;	COMDAT ?DarkKhaki@Colors@DirectX@@3UXMVECTORF32@2@B
CONST	SEGMENT
?DarkKhaki@Colors@DirectX@@3UXMVECTORF32@2@B DD 03f3dbdber ; 0.741176 ; DirectX::Colors::DarkKhaki
	DD	03f37b7b8r			; 0.717647
	DD	03ed6d6d8r			; 0.419608
	DD	03f800000r			; 1
CONST	ENDS
;	COMDAT ?unitbuf@?$_Iosb@H@std@@2W4_Fmtflags@12@B
CONST	SEGMENT
?unitbuf@?$_Iosb@H@std@@2W4_Fmtflags@12@B DD 02H	; std::_Iosb<int>::unitbuf
CONST	ENDS
;	COMDAT ?DarkGreen@Colors@DirectX@@3UXMVECTORF32@2@B
CONST	SEGMENT
?DarkGreen@Colors@DirectX@@3UXMVECTORF32@2@B DD 000000000r ; 0 ; DirectX::Colors::DarkGreen
	DD	03ec8c8car			; 0.392157
	DD	000000000r			; 0
	DD	03f800000r			; 1
CONST	ENDS
;	COMDAT ?DarkGray@Colors@DirectX@@3UXMVECTORF32@2@B
CONST	SEGMENT
?DarkGray@Colors@DirectX@@3UXMVECTORF32@2@B DD 03f29a9aar ; 0.662745 ; DirectX::Colors::DarkGray
	DD	03f29a9aar			; 0.662745
	DD	03f29a9aar			; 0.662745
	DD	03f800000r			; 1
CONST	ENDS
;	COMDAT ?DarkGoldenrod@Colors@DirectX@@3UXMVECTORF32@2@B
CONST	SEGMENT
?DarkGoldenrod@Colors@DirectX@@3UXMVECTORF32@2@B DD 03f38b8b9r ; 0.721569 ; DirectX::Colors::DarkGoldenrod
	DD	03f068687r			; 0.52549
	DD	03d30b0b1r			; 0.0431373
	DD	03f800000r			; 1
CONST	ENDS
;	COMDAT ?skipws@?$_Iosb@H@std@@2W4_Fmtflags@12@B
CONST	SEGMENT
?skipws@?$_Iosb@H@std@@2W4_Fmtflags@12@B DD 01H		; std::_Iosb<int>::skipws
CONST	ENDS
;	COMDAT ?digits10@?$numeric_limits@_K@std@@2HB
CONST	SEGMENT
?digits10@?$numeric_limits@_K@std@@2HB DD 013H		; std::numeric_limits<unsigned __int64>::digits10
CONST	ENDS
;	COMDAT ?DarkCyan@Colors@DirectX@@3UXMVECTORF32@2@B
CONST	SEGMENT
?DarkCyan@Colors@DirectX@@3UXMVECTORF32@2@B DD 000000000r ; 0 ; DirectX::Colors::DarkCyan
	DD	03f0b8b8cr			; 0.545098
	DD	03f0b8b8cr			; 0.545098
	DD	03f800000r			; 1
CONST	ENDS
;	COMDAT ?DarkBlue@Colors@DirectX@@3UXMVECTORF32@2@B
CONST	SEGMENT
?DarkBlue@Colors@DirectX@@3UXMVECTORF32@2@B DD 000000000r ; 0 ; DirectX::Colors::DarkBlue
	DD	000000000r			; 0
	DD	03f0b8b8cr			; 0.545098
	DD	03f800000r			; 1
CONST	ENDS
;	COMDAT ?Cyan@Colors@DirectX@@3UXMVECTORF32@2@B
CONST	SEGMENT
?Cyan@Colors@DirectX@@3UXMVECTORF32@2@B DD 000000000r ; 0 ; DirectX::Colors::Cyan
	DD	03f800000r			; 1
	DD	03f800000r			; 1
	DD	03f800000r			; 1
CONST	ENDS
;	COMDAT ?Crimson@Colors@DirectX@@3UXMVECTORF32@2@B
CONST	SEGMENT
?Crimson@Colors@DirectX@@3UXMVECTORF32@2@B DD 03f5cdcder ; 0.862745 ; DirectX::Colors::Crimson
	DD	03da0a0a1r			; 0.0784314
	DD	03e70f0f2r			; 0.235294
	DD	03f800000r			; 1
CONST	ENDS
;	COMDAT ?digits@?$numeric_limits@_K@std@@2HB
CONST	SEGMENT
?digits@?$numeric_limits@_K@std@@2HB DD 040H		; std::numeric_limits<unsigned __int64>::digits
CONST	ENDS
;	COMDAT ?Cornsilk@Colors@DirectX@@3UXMVECTORF32@2@B
CONST	SEGMENT
?Cornsilk@Colors@DirectX@@3UXMVECTORF32@2@B DD 03f800000r ; 1 ; DirectX::Colors::Cornsilk
	DD	03f78f8far			; 0.972549
	DD	03f5cdcder			; 0.862745
	DD	03f800000r			; 1
CONST	ENDS
;	COMDAT ?CornflowerBlue@Colors@DirectX@@3UXMVECTORF32@2@B
CONST	SEGMENT
?CornflowerBlue@Colors@DirectX@@3UXMVECTORF32@2@B DD 03ec8c8car ; 0.392157 ; DirectX::Colors::CornflowerBlue
	DD	03f159596r			; 0.584314
	DD	03f6dedefr			; 0.929412
	DD	03f800000r			; 1
CONST	ENDS
;	COMDAT ?Coral@Colors@DirectX@@3UXMVECTORF32@2@B
CONST	SEGMENT
?Coral@Colors@DirectX@@3UXMVECTORF32@2@B DD 03f800000r ; 1 ; DirectX::Colors::Coral
	DD	03efeff00r			; 0.498039
	DD	03ea0a0a1r			; 0.313726
	DD	03f800000r			; 1
CONST	ENDS
;	COMDAT ?Chocolate@Colors@DirectX@@3UXMVECTORF32@2@B
CONST	SEGMENT
?Chocolate@Colors@DirectX@@3UXMVECTORF32@2@B DD 03f52d2d4r ; 0.823529 ; DirectX::Colors::Chocolate
	DD	03ed2d2d4r			; 0.411765
	DD	03df0f0f2r			; 0.117647
	DD	03f800000r			; 1
CONST	ENDS
;	COMDAT ?is_signed@?$numeric_limits@_K@std@@2_NB
CONST	SEGMENT
?is_signed@?$numeric_limits@_K@std@@2_NB DB 00H		; std::numeric_limits<unsigned __int64>::is_signed
CONST	ENDS
;	COMDAT ?Chartreuse@Colors@DirectX@@3UXMVECTORF32@2@B
CONST	SEGMENT
?Chartreuse@Colors@DirectX@@3UXMVECTORF32@2@B DD 03efeff00r ; 0.498039 ; DirectX::Colors::Chartreuse
	DD	03f800000r			; 1
	DD	000000000r			; 0
	DD	03f800000r			; 1
CONST	ENDS
;	COMDAT ?CadetBlue@Colors@DirectX@@3UXMVECTORF32@2@B
CONST	SEGMENT
?CadetBlue@Colors@DirectX@@3UXMVECTORF32@2@B DD 03ebebebfr ; 0.372549 ; DirectX::Colors::CadetBlue
	DD	03f1e9e9fr			; 0.619608
	DD	03f20a0a1r			; 0.627451
	DD	03f800000r			; 1
CONST	ENDS
;	COMDAT ?BurlyWood@Colors@DirectX@@3UXMVECTORF32@2@B
CONST	SEGMENT
?BurlyWood@Colors@DirectX@@3UXMVECTORF32@2@B DD 03f5edee0r ; 0.870588 ; DirectX::Colors::BurlyWood
	DD	03f38b8b9r			; 0.721569
	DD	03f078788r			; 0.529412
	DD	03f800000r			; 1
CONST	ENDS
;	COMDAT ?Brown@Colors@DirectX@@3UXMVECTORF32@2@B
CONST	SEGMENT
?Brown@Colors@DirectX@@3UXMVECTORF32@2@B DD 03f25a5a6r ; 0.647059 ; DirectX::Colors::Brown
	DD	03e28a8a9r			; 0.164706
	DD	03e28a8a9r			; 0.164706
	DD	03f800000r			; 1
CONST	ENDS
;	COMDAT ?BlueViolet@Colors@DirectX@@3UXMVECTORF32@2@B
CONST	SEGMENT
?BlueViolet@Colors@DirectX@@3UXMVECTORF32@2@B DD 03f0a8a8br ; 0.541176 ; DirectX::Colors::BlueViolet
	DD	03e2cacadr			; 0.168627
	DD	03f62e2e4r			; 0.886275
	DD	03f800000r			; 1
CONST	ENDS
;	COMDAT ?Blue@Colors@DirectX@@3UXMVECTORF32@2@B
CONST	SEGMENT
?Blue@Colors@DirectX@@3UXMVECTORF32@2@B DD 000000000r ; 0 ; DirectX::Colors::Blue
	DD	000000000r			; 0
	DD	03f800000r			; 1
	DD	03f800000r			; 1
CONST	ENDS
;	COMDAT ?BlanchedAlmond@Colors@DirectX@@3UXMVECTORF32@2@B
CONST	SEGMENT
?BlanchedAlmond@Colors@DirectX@@3UXMVECTORF32@2@B DD 03f800000r ; 1 ; DirectX::Colors::BlanchedAlmond
	DD	03f6bebedr			; 0.921569
	DD	03f4dcdcfr			; 0.803922
	DD	03f800000r			; 1
CONST	ENDS
;	COMDAT ?Black@Colors@DirectX@@3UXMVECTORF32@2@B
CONST	SEGMENT
?Black@Colors@DirectX@@3UXMVECTORF32@2@B DD 000000000r ; 0 ; DirectX::Colors::Black
	DD	000000000r			; 0
	DD	000000000r			; 0
	DD	03f800000r			; 1
CONST	ENDS
;	COMDAT ?Bisque@Colors@DirectX@@3UXMVECTORF32@2@B
CONST	SEGMENT
?Bisque@Colors@DirectX@@3UXMVECTORF32@2@B DD 03f800000r ; 1 ; DirectX::Colors::Bisque
	DD	03f64e4e6r			; 0.894118
	DD	03f44c4c6r			; 0.768628
	DD	03f800000r			; 1
CONST	ENDS
;	COMDAT ?Beige@Colors@DirectX@@3UXMVECTORF32@2@B
CONST	SEGMENT
?Beige@Colors@DirectX@@3UXMVECTORF32@2@B DD 03f75f5f7r ; 0.960784 ; DirectX::Colors::Beige
	DD	03f75f5f7r			; 0.960784
	DD	03f5cdcder			; 0.862745
	DD	03f800000r			; 1
CONST	ENDS
;	COMDAT ?Azure@Colors@DirectX@@3UXMVECTORF32@2@B
CONST	SEGMENT
?Azure@Colors@DirectX@@3UXMVECTORF32@2@B DD 03f70f0f2r ; 0.941177 ; DirectX::Colors::Azure
	DD	03f800000r			; 1
	DD	03f800000r			; 1
	DD	03f800000r			; 1
CONST	ENDS
;	COMDAT ?Aquamarine@Colors@DirectX@@3UXMVECTORF32@2@B
CONST	SEGMENT
?Aquamarine@Colors@DirectX@@3UXMVECTORF32@2@B DD 03efeff00r ; 0.498039 ; DirectX::Colors::Aquamarine
	DD	03f800000r			; 1
	DD	03f54d4d6r			; 0.831373
	DD	03f800000r			; 1
CONST	ENDS
;	COMDAT ?Aqua@Colors@DirectX@@3UXMVECTORF32@2@B
CONST	SEGMENT
?Aqua@Colors@DirectX@@3UXMVECTORF32@2@B DD 000000000r ; 0 ; DirectX::Colors::Aqua
	DD	03f800000r			; 1
	DD	03f800000r			; 1
	DD	03f800000r			; 1
CONST	ENDS
;	COMDAT ?AntiqueWhite@Colors@DirectX@@3UXMVECTORF32@2@B
CONST	SEGMENT
?AntiqueWhite@Colors@DirectX@@3UXMVECTORF32@2@B DD 03f7afafcr ; 0.980392 ; DirectX::Colors::AntiqueWhite
	DD	03f6bebedr			; 0.921569
	DD	03f57d7d9r			; 0.843137
	DD	03f800000r			; 1
CONST	ENDS
;	COMDAT ?AliceBlue@Colors@DirectX@@3UXMVECTORF32@2@B
CONST	SEGMENT
?AliceBlue@Colors@DirectX@@3UXMVECTORF32@2@B DD 03f70f0f2r ; 0.941177 ; DirectX::Colors::AliceBlue
	DD	03f78f8far			; 0.972549
	DD	03f800000r			; 1
	DD	03f800000r			; 1
CONST	ENDS
;	COMDAT ?value@?$integral_constant@I$01@std@@2IB
CONST	SEGMENT
?value@?$integral_constant@I$01@std@@2IB DD 02H		; std::integral_constant<unsigned int,2>::value
CONST	ENDS
;	COMDAT ?digits10@?$numeric_limits@_J@std@@2HB
CONST	SEGMENT
?digits10@?$numeric_limits@_J@std@@2HB DD 012H		; std::numeric_limits<__int64>::digits10
CONST	ENDS
;	COMDAT ?digits@?$numeric_limits@_J@std@@2HB
CONST	SEGMENT
?digits@?$numeric_limits@_J@std@@2HB DD 03fH		; std::numeric_limits<__int64>::digits
CONST	ENDS
;	COMDAT ?is_signed@?$numeric_limits@_J@std@@2_NB
CONST	SEGMENT
?is_signed@?$numeric_limits@_J@std@@2_NB DB 01H		; std::numeric_limits<__int64>::is_signed
CONST	ENDS
;	COMDAT ?digits10@?$numeric_limits@K@std@@2HB
CONST	SEGMENT
?digits10@?$numeric_limits@K@std@@2HB DD 09H		; std::numeric_limits<unsigned long>::digits10
CONST	ENDS
;	COMDAT ?digits@?$numeric_limits@K@std@@2HB
CONST	SEGMENT
?digits@?$numeric_limits@K@std@@2HB DD 020H		; std::numeric_limits<unsigned long>::digits
CONST	ENDS
;	COMDAT ?is_signed@?$numeric_limits@K@std@@2_NB
CONST	SEGMENT
?is_signed@?$numeric_limits@K@std@@2_NB DB 00H		; std::numeric_limits<unsigned long>::is_signed
CONST	ENDS
;	COMDAT ?value@?$integral_constant@I$03@std@@2IB
CONST	SEGMENT
?value@?$integral_constant@I$03@std@@2IB DD 04H		; std::integral_constant<unsigned int,4>::value
CONST	ENDS
;	COMDAT ?value@?$integral_constant@_N$00@std@@2_NB
CONST	SEGMENT
?value@?$integral_constant@_N$00@std@@2_NB DB 01H	; std::integral_constant<bool,1>::value
CONST	ENDS
;	COMDAT ?g_XMInvLgE@DirectX@@3UXMVECTORF32@1@B
CONST	SEGMENT
?g_XMInvLgE@DirectX@@3UXMVECTORF32@1@B DD 03f317218r ; 0.693147 ; DirectX::g_XMInvLgE
	DD	03f317218r			; 0.693147
	DD	03f317218r			; 0.693147
	DD	03f317218r			; 0.693147
CONST	ENDS
;	COMDAT ?g_XMLgE@DirectX@@3UXMVECTORF32@1@B
CONST	SEGMENT
?g_XMLgE@DirectX@@3UXMVECTORF32@1@B DD 03fb8aa3br ; 1.4427 ; DirectX::g_XMLgE
	DD	03fb8aa3br			; 1.4427
	DD	03fb8aa3br			; 1.4427
	DD	03fb8aa3br			; 1.4427
CONST	ENDS
;	COMDAT ?g_XMLogEst7@DirectX@@3UXMVECTORF32@1@B
CONST	SEGMENT
?g_XMLogEst7@DirectX@@3UXMVECTORF32@1@B DD 0bc2d4f59r ; -0.010578 ; DirectX::g_XMLogEst7
	DD	0bc2d4f59r			; -0.010578
	DD	0bc2d4f59r			; -0.010578
	DD	0bc2d4f59r			; -0.010578
CONST	ENDS
;	COMDAT ?g_XMLogEst6@DirectX@@3UXMVECTORF32@1@B
CONST	SEGMENT
?g_XMLogEst6@DirectX@@3UXMVECTORF32@1@B DD 03d6a1405r ; 0.057148 ; DirectX::g_XMLogEst6
	DD	03d6a1405r			; 0.057148
	DD	03d6a1405r			; 0.057148
	DD	03d6a1405r			; 0.057148
CONST	ENDS
;	COMDAT ?g_XMLogEst5@DirectX@@3UXMVECTORF32@1@B
CONST	SEGMENT
?g_XMLogEst5@DirectX@@3UXMVECTORF32@1@B DD 0be153261r ; -0.1457 ; DirectX::g_XMLogEst5
	DD	0be153261r			; -0.1457
	DD	0be153261r			; -0.1457
	DD	0be153261r			; -0.1457
CONST	ENDS
;	COMDAT ?g_XMLogEst4@DirectX@@3UXMVECTORF32@1@B
CONST	SEGMENT
?g_XMLogEst4@DirectX@@3UXMVECTORF32@1@B DD 03e7e8e61r ; 0.24859 ; DirectX::g_XMLogEst4
	DD	03e7e8e61r			; 0.24859
	DD	03e7e8e61r			; 0.24859
	DD	03e7e8e61r			; 0.24859
CONST	ENDS
;	COMDAT ?g_XMLogEst3@DirectX@@3UXMVECTORF32@1@B
CONST	SEGMENT
?g_XMLogEst3@DirectX@@3UXMVECTORF32@1@B DD 0beb359der ; -0.350295 ; DirectX::g_XMLogEst3
	DD	0beb359der			; -0.350295
	DD	0beb359der			; -0.350295
	DD	0beb359der			; -0.350295
CONST	ENDS
;	COMDAT ?g_XMLogEst2@DirectX@@3UXMVECTORF32@1@B
CONST	SEGMENT
?g_XMLogEst2@DirectX@@3UXMVECTORF32@1@B DD 03ef571d2r ; 0.479384 ; DirectX::g_XMLogEst2
	DD	03ef571d2r			; 0.479384
	DD	03ef571d2r			; 0.479384
	DD	03ef571d2r			; 0.479384
CONST	ENDS
;	COMDAT ?g_XMLogEst1@DirectX@@3UXMVECTORF32@1@B
CONST	SEGMENT
?g_XMLogEst1@DirectX@@3UXMVECTORF32@1@B DD 0bf38a351r ; -0.721242 ; DirectX::g_XMLogEst1
	DD	0bf38a351r			; -0.721242
	DD	0bf38a351r			; -0.721242
	DD	0bf38a351r			; -0.721242
CONST	ENDS
;	COMDAT ?g_XMLogEst0@DirectX@@3UXMVECTORF32@1@B
CONST	SEGMENT
?g_XMLogEst0@DirectX@@3UXMVECTORF32@1@B DD 03fb8aa2ar ; 1.44269 ; DirectX::g_XMLogEst0
	DD	03fb8aa2ar			; 1.44269
	DD	03fb8aa2ar			; 1.44269
	DD	03fb8aa2ar			; 1.44269
CONST	ENDS
;	COMDAT ?g_XMExpEst7@DirectX@@3UXMVECTORF32@1@B
CONST	SEGMENT
?g_XMExpEst7@DirectX@@3UXMVECTORF32@1@B DD 0b7364261r ; -1.08635e-005 ; DirectX::g_XMExpEst7
	DD	0b7364261r			; -1.08635e-005
	DD	0b7364261r			; -1.08635e-005
	DD	0b7364261r			; -1.08635e-005
CONST	ENDS
;	COMDAT ?g_XMExpEst6@DirectX@@3UXMVECTORF32@1@B
CONST	SEGMENT
?g_XMExpEst6@DirectX@@3UXMVECTORF32@1@B DD 0391aa7d7r ; 0.000147491 ; DirectX::g_XMExpEst6
	DD	0391aa7d7r			; 0.000147491
	DD	0391aa7d7r			; 0.000147491
	DD	0391aa7d7r			; 0.000147491
CONST	ENDS
;	COMDAT ?g_XMExpEst5@DirectX@@3UXMVECTORF32@1@B
CONST	SEGMENT
?g_XMExpEst5@DirectX@@3UXMVECTORF32@1@B DD 0baae1854r ; -0.00132824 ; DirectX::g_XMExpEst5
	DD	0baae1854r			; -0.00132824
	DD	0baae1854r			; -0.00132824
	DD	0baae1854r			; -0.00132824
CONST	ENDS
;	COMDAT ?value@?$integral_constant@_N$0A@@std@@2_NB
CONST	SEGMENT
?value@?$integral_constant@_N$0A@@std@@2_NB DB 00H	; std::integral_constant<bool,0>::value
CONST	ENDS
;	COMDAT ?g_XMExpEst4@DirectX@@3UXMVECTORF32@1@B
CONST	SEGMENT
?g_XMExpEst4@DirectX@@3UXMVECTORF32@1@B DD 03c1d8c54r ; 0.00961598 ; DirectX::g_XMExpEst4
	DD	03c1d8c54r			; 0.00961598
	DD	03c1d8c54r			; 0.00961598
	DD	03c1d8c54r			; 0.00961598
CONST	ENDS
;	COMDAT ?g_XMExpEst3@DirectX@@3UXMVECTORF32@1@B
CONST	SEGMENT
?g_XMExpEst3@DirectX@@3UXMVECTORF32@1@B DD 0bd6357car ; -0.0555036 ; DirectX::g_XMExpEst3
	DD	0bd6357car			; -0.0555036
	DD	0bd6357car			; -0.0555036
	DD	0bd6357car			; -0.0555036
CONST	ENDS
;	COMDAT ?g_XMExpEst2@DirectX@@3UXMVECTORF32@1@B
CONST	SEGMENT
?g_XMExpEst2@DirectX@@3UXMVECTORF32@1@B DD 03e75fdedr ; 0.240226 ; DirectX::g_XMExpEst2
	DD	03e75fdedr			; 0.240226
	DD	03e75fdedr			; 0.240226
	DD	03e75fdedr			; 0.240226
CONST	ENDS
;	COMDAT ?g_XMExpEst1@DirectX@@3UXMVECTORF32@1@B
CONST	SEGMENT
?g_XMExpEst1@DirectX@@3UXMVECTORF32@1@B DD 0bf317218r ; -0.693147 ; DirectX::g_XMExpEst1
	DD	0bf317218r			; -0.693147
	DD	0bf317218r			; -0.693147
	DD	0bf317218r			; -0.693147
CONST	ENDS
;	COMDAT ?g_XM253@DirectX@@3UXMVECTORI32@1@B
CONST	SEGMENT
?g_XM253@DirectX@@3UXMVECTORI32@1@B DD 0fdH		; DirectX::g_XM253
	DD	0fdH
	DD	0fdH
	DD	0fdH
CONST	ENDS
;	COMDAT ?g_XMBinNeg150@DirectX@@3UXMVECTORI32@1@B
CONST	SEGMENT
?g_XMBinNeg150@DirectX@@3UXMVECTORI32@1@B DD 0c3160000H	; DirectX::g_XMBinNeg150
	DD	0c3160000H
	DD	0c3160000H
	DD	0c3160000H
CONST	ENDS
;	COMDAT ?g_XMBin128@DirectX@@3UXMVECTORI32@1@B
CONST	SEGMENT
?g_XMBin128@DirectX@@3UXMVECTORI32@1@B DD 043000000H	; DirectX::g_XMBin128
	DD	043000000H
	DD	043000000H
	DD	043000000H
CONST	ENDS
;	COMDAT ?g_XMNegQNaN@DirectX@@3UXMVECTORI32@1@B
CONST	SEGMENT
?g_XMNegQNaN@DirectX@@3UXMVECTORI32@1@B DD 0ffc00000H	; DirectX::g_XMNegQNaN
	DD	0ffc00000H
	DD	0ffc00000H
	DD	0ffc00000H
CONST	ENDS
;	COMDAT ?digits10@?$numeric_limits@J@std@@2HB
CONST	SEGMENT
?digits10@?$numeric_limits@J@std@@2HB DD 09H		; std::numeric_limits<long>::digits10
CONST	ENDS
;	COMDAT ?g_XMNegInfinity@DirectX@@3UXMVECTORI32@1@B
CONST	SEGMENT
?g_XMNegInfinity@DirectX@@3UXMVECTORI32@1@B DD 0ff800000H ; DirectX::g_XMNegInfinity
	DD	0ff800000H
	DD	0ff800000H
	DD	0ff800000H
CONST	ENDS
;	COMDAT ?g_XMMinNormal@DirectX@@3UXMVECTORI32@1@B
CONST	SEGMENT
?g_XMMinNormal@DirectX@@3UXMVECTORI32@1@B DD 0800000H	; DirectX::g_XMMinNormal
	DD	0800000H
	DD	0800000H
	DD	0800000H
CONST	ENDS
;	COMDAT ?g_XMNumTrailing@DirectX@@3UXMVECTORI32@1@B
CONST	SEGMENT
?g_XMNumTrailing@DirectX@@3UXMVECTORI32@1@B DD 017H	; DirectX::g_XMNumTrailing
	DD	017H
	DD	017H
	DD	017H
CONST	ENDS
;	COMDAT ?g_XMSubnormalExponent@DirectX@@3UXMVECTORI32@1@B
CONST	SEGMENT
?g_XMSubnormalExponent@DirectX@@3UXMVECTORI32@1@B DD 0ffffff82H ; DirectX::g_XMSubnormalExponent
	DD	0ffffff82H
	DD	0ffffff82H
	DD	0ffffff82H
CONST	ENDS
;	COMDAT ?digits@?$numeric_limits@J@std@@2HB
CONST	SEGMENT
?digits@?$numeric_limits@J@std@@2HB DD 01fH		; std::numeric_limits<long>::digits
CONST	ENDS
;	COMDAT ?g_XMExponentBias@DirectX@@3UXMVECTORI32@1@B
CONST	SEGMENT
?g_XMExponentBias@DirectX@@3UXMVECTORI32@1@B DD 07fH	; DirectX::g_XMExponentBias
	DD	07fH
	DD	07fH
	DD	07fH
CONST	ENDS
;	COMDAT ?g_XMsrgbA1@DirectX@@3UXMVECTORF32@1@B
CONST	SEGMENT
?g_XMsrgbA1@DirectX@@3UXMVECTORF32@1@B DD 03f870a3dr ; 1.055 ; DirectX::g_XMsrgbA1
	DD	03f870a3dr			; 1.055
	DD	03f870a3dr			; 1.055
	DD	03f800000r			; 1
CONST	ENDS
;	COMDAT ?g_XMsrgbA@DirectX@@3UXMVECTORF32@1@B
CONST	SEGMENT
?g_XMsrgbA@DirectX@@3UXMVECTORF32@1@B DD 03d6147aer ; 0.055 ; DirectX::g_XMsrgbA
	DD	03d6147aer			; 0.055
	DD	03d6147aer			; 0.055
	DD	000000000r			; 0
CONST	ENDS
;	COMDAT ?g_XMsrgbScale@DirectX@@3UXMVECTORF32@1@B
CONST	SEGMENT
?g_XMsrgbScale@DirectX@@3UXMVECTORF32@1@B DD 0414eb852r ; 12.92 ; DirectX::g_XMsrgbScale
	DD	0414eb852r			; 12.92
	DD	0414eb852r			; 12.92
	DD	03f800000r			; 1
CONST	ENDS
;	COMDAT ?is_signed@?$numeric_limits@J@std@@2_NB
CONST	SEGMENT
?is_signed@?$numeric_limits@J@std@@2_NB DB 01H		; std::numeric_limits<long>::is_signed
CONST	ENDS
;	COMDAT ?g_XMUnsignedFix@DirectX@@3UXMVECTORF32@1@B
CONST	SEGMENT
?g_XMUnsignedFix@DirectX@@3UXMVECTORF32@1@B DD 04f000000r ; 2.14748e+009 ; DirectX::g_XMUnsignedFix
	DD	04f000000r			; 2.14748e+009
	DD	04f000000r			; 2.14748e+009
	DD	04f000000r			; 2.14748e+009
CONST	ENDS
;	COMDAT ?g_XMMaxUInt@DirectX@@3UXMVECTORF32@1@B
CONST	SEGMENT
?g_XMMaxUInt@DirectX@@3UXMVECTORF32@1@B DD 04f7fffffr ; 4.29497e+009 ; DirectX::g_XMMaxUInt
	DD	04f7fffffr			; 4.29497e+009
	DD	04f7fffffr			; 4.29497e+009
	DD	04f7fffffr			; 4.29497e+009
CONST	ENDS
;	COMDAT ?g_XMMaxInt@DirectX@@3UXMVECTORF32@1@B
CONST	SEGMENT
?g_XMMaxInt@DirectX@@3UXMVECTORF32@1@B DD 04effffffr ; 2.14748e+009 ; DirectX::g_XMMaxInt
	DD	04effffffr			; 2.14748e+009
	DD	04effffffr			; 2.14748e+009
	DD	04effffffr			; 2.14748e+009
CONST	ENDS
;	COMDAT ?g_XMFixUnsigned@DirectX@@3UXMVECTORF32@1@B
CONST	SEGMENT
?g_XMFixUnsigned@DirectX@@3UXMVECTORF32@1@B DD 04f000000r ; 2.14748e+009 ; DirectX::g_XMFixUnsigned
	DD	04f000000r			; 2.14748e+009
	DD	04f000000r			; 2.14748e+009
	DD	04f000000r			; 2.14748e+009
CONST	ENDS
;	COMDAT ?g_XMAddByte4@DirectX@@3UXMVECTORF32@1@B
CONST	SEGMENT
?g_XMAddByte4@DirectX@@3UXMVECTORF32@1@B DD 0c3000000r ; -128 ; DirectX::g_XMAddByte4
	DD	0c7000000r			; -32768
	DD	0cb000000r			; -8.38861e+006
	DD	000000000r			; 0
CONST	ENDS
;	COMDAT ?g_XMXorByte4@DirectX@@3UXMVECTORI32@1@B
CONST	SEGMENT
?g_XMXorByte4@DirectX@@3UXMVECTORI32@1@B DD 080H	; DirectX::g_XMXorByte4
	DD	08000H
	DD	0800000H
	DD	00H
CONST	ENDS
;	COMDAT ?g_XMMaskByte4@DirectX@@3UXMVECTORI32@1@B
CONST	SEGMENT
?g_XMMaskByte4@DirectX@@3UXMVECTORI32@1@B DD 0ffH	; DirectX::g_XMMaskByte4
	DD	0ff00H
	DD	0ff0000H
	DD	0ff000000H
CONST	ENDS
;	COMDAT ?g_XMMulDec4@DirectX@@3UXMVECTORF32@1@B
CONST	SEGMENT
?g_XMMulDec4@DirectX@@3UXMVECTORF32@1@B DD 03f800000r ; 1 ; DirectX::g_XMMulDec4
	DD	03a800000r			; 0.000976563
	DD	035800000r			; 9.53674e-007
	DD	030800000r			; 9.31323e-010
CONST	ENDS
;	COMDAT ?g_XMAddDec4@DirectX@@3UXMVECTORF32@1@B
CONST	SEGMENT
?g_XMAddDec4@DirectX@@3UXMVECTORF32@1@B DD 0c4000000r ; -512 ; DirectX::g_XMAddDec4
	DD	0c9000000r			; -524288
	DD	0ce000000r			; -5.36871e+008
	DD	000000000r			; 0
CONST	ENDS
;	COMDAT ?g_XMAddUDec4@DirectX@@3UXMVECTORF32@1@B
CONST	SEGMENT
?g_XMAddUDec4@DirectX@@3UXMVECTORF32@1@B DD 000000000r ; 0 ; DirectX::g_XMAddUDec4
	DD	000000000r			; 0
	DD	000000000r			; 0
	DD	04f000000r			; 2.14748e+009
CONST	ENDS
;	COMDAT ?g_XMXorDec4@DirectX@@3UXMVECTORI32@1@B
CONST	SEGMENT
?g_XMXorDec4@DirectX@@3UXMVECTORI32@1@B DD 0200H	; DirectX::g_XMXorDec4
	DD	080000H
	DD	020000000H
	DD	00H
CONST	ENDS
;	COMDAT ?g_XMMaskDec4@DirectX@@3UXMVECTORI32@1@B
CONST	SEGMENT
?g_XMMaskDec4@DirectX@@3UXMVECTORI32@1@B DD 03ffH	; DirectX::g_XMMaskDec4
	DD	0ffc00H
	DD	03ff00000H
	DD	0c0000000H
CONST	ENDS
;	COMDAT ?g_XMFlipYW@DirectX@@3UXMVECTORI32@1@B
CONST	SEGMENT
?g_XMFlipYW@DirectX@@3UXMVECTORI32@1@B DD 00H		; DirectX::g_XMFlipYW
	DD	080000000H
	DD	00H
	DD	080000000H
CONST	ENDS
;	COMDAT ?g_XMFlipZW@DirectX@@3UXMVECTORI32@1@B
CONST	SEGMENT
?g_XMFlipZW@DirectX@@3UXMVECTORI32@1@B DD 00H		; DirectX::g_XMFlipZW
	DD	00H
	DD	080000000H
	DD	080000000H
CONST	ENDS
;	COMDAT ?g_XMFlipYZ@DirectX@@3UXMVECTORI32@1@B
CONST	SEGMENT
?g_XMFlipYZ@DirectX@@3UXMVECTORI32@1@B DD 00H		; DirectX::g_XMFlipYZ
	DD	080000000H
	DD	080000000H
	DD	00H
CONST	ENDS
;	COMDAT ?g_XMFlipW@DirectX@@3UXMVECTORI32@1@B
CONST	SEGMENT
?g_XMFlipW@DirectX@@3UXMVECTORI32@1@B DD 00H		; DirectX::g_XMFlipW
	DD	00H
	DD	00H
	DD	080000000H
CONST	ENDS
;	COMDAT ?g_XMFlipZ@DirectX@@3UXMVECTORI32@1@B
CONST	SEGMENT
?g_XMFlipZ@DirectX@@3UXMVECTORI32@1@B DD 00H		; DirectX::g_XMFlipZ
	DD	00H
	DD	080000000H
	DD	00H
CONST	ENDS
;	COMDAT ?g_XMFlipY@DirectX@@3UXMVECTORI32@1@B
CONST	SEGMENT
?g_XMFlipY@DirectX@@3UXMVECTORI32@1@B DD 00H		; DirectX::g_XMFlipY
	DD	080000000H
	DD	00H
	DD	00H
CONST	ENDS
;	COMDAT ?g_XMFixupY16W16@DirectX@@3UXMVECTORF32@1@B
CONST	SEGMENT
?g_XMFixupY16W16@DirectX@@3UXMVECTORF32@1@B DD 03f800000r ; 1 ; DirectX::g_XMFixupY16W16
	DD	03f800000r			; 1
	DD	037800000r			; 1.52588e-005
	DD	037800000r			; 1.52588e-005
CONST	ENDS
;	COMDAT ?g_XMFixupY16@DirectX@@3UXMVECTORF32@1@B
CONST	SEGMENT
?g_XMFixupY16@DirectX@@3UXMVECTORF32@1@B DD 03f800000r ; 1 ; DirectX::g_XMFixupY16
	DD	037800000r			; 1.52588e-005
	DD	000000000r			; 0
	DD	000000000r			; 0
CONST	ENDS
;	COMDAT ?g_XMSelect1011@DirectX@@3UXMVECTORI32@1@B
CONST	SEGMENT
?g_XMSelect1011@DirectX@@3UXMVECTORI32@1@B DD 0ffffffffH ; DirectX::g_XMSelect1011
	DD	00H
	DD	0ffffffffH
	DD	0ffffffffH
CONST	ENDS
;	COMDAT ?g_XMSelect1110@DirectX@@3UXMVECTORI32@1@B
CONST	SEGMENT
?g_XMSelect1110@DirectX@@3UXMVECTORI32@1@B DD 0ffffffffH ; DirectX::g_XMSelect1110
	DD	0ffffffffH
	DD	0ffffffffH
	DD	00H
CONST	ENDS
;	COMDAT ?g_XMSelect1100@DirectX@@3UXMVECTORI32@1@B
CONST	SEGMENT
?g_XMSelect1100@DirectX@@3UXMVECTORI32@1@B DD 0ffffffffH ; DirectX::g_XMSelect1100
	DD	0ffffffffH
	DD	00H
	DD	00H
CONST	ENDS
;	COMDAT ?g_XMSelect1000@DirectX@@3UXMVECTORI32@1@B
CONST	SEGMENT
?g_XMSelect1000@DirectX@@3UXMVECTORI32@1@B DD 0ffffffffH ; DirectX::g_XMSelect1000
	DD	00H
	DD	00H
	DD	00H
CONST	ENDS
;	COMDAT ?g_XMOneHalfMinusEpsilon@DirectX@@3UXMVECTORI32@1@B
CONST	SEGMENT
?g_XMOneHalfMinusEpsilon@DirectX@@3UXMVECTORI32@1@B DD 03efffffdH ; DirectX::g_XMOneHalfMinusEpsilon
	DD	03efffffdH
	DD	03efffffdH
	DD	03efffffdH
CONST	ENDS
;	COMDAT ?g_XMSelect1010@DirectX@@3UXMVECTORI32@1@B
CONST	SEGMENT
?g_XMSelect1010@DirectX@@3UXMVECTORI32@1@B DD 0ffffffffH ; DirectX::g_XMSelect1010
	DD	00H
	DD	0ffffffffH
	DD	00H
CONST	ENDS
;	COMDAT ?g_XMSelect0101@DirectX@@3UXMVECTORI32@1@B
CONST	SEGMENT
?g_XMSelect0101@DirectX@@3UXMVECTORI32@1@B DD 00H	; DirectX::g_XMSelect0101
	DD	0ffffffffH
	DD	00H
	DD	0ffffffffH
CONST	ENDS
;	COMDAT ?g_XMNegateW@DirectX@@3UXMVECTORF32@1@B
CONST	SEGMENT
?g_XMNegateW@DirectX@@3UXMVECTORF32@1@B DD 03f800000r ; 1 ; DirectX::g_XMNegateW
	DD	03f800000r			; 1
	DD	03f800000r			; 1
	DD	0bf800000r			; -1
CONST	ENDS
;	COMDAT ?g_XMNegateZ@DirectX@@3UXMVECTORF32@1@B
CONST	SEGMENT
?g_XMNegateZ@DirectX@@3UXMVECTORF32@1@B DD 03f800000r ; 1 ; DirectX::g_XMNegateZ
	DD	03f800000r			; 1
	DD	0bf800000r			; -1
	DD	03f800000r			; 1
CONST	ENDS
;	COMDAT ?value@?$integral_constant@I$07@std@@2IB
CONST	SEGMENT
?value@?$integral_constant@I$07@std@@2IB DD 08H		; std::integral_constant<unsigned int,8>::value
CONST	ENDS
;	COMDAT ?g_XMNegateY@DirectX@@3UXMVECTORF32@1@B
CONST	SEGMENT
?g_XMNegateY@DirectX@@3UXMVECTORF32@1@B DD 03f800000r ; 1 ; DirectX::g_XMNegateY
	DD	0bf800000r			; -1
	DD	03f800000r			; 1
	DD	03f800000r			; 1
CONST	ENDS
;	COMDAT ?digits10@?$numeric_limits@I@std@@2HB
CONST	SEGMENT
?digits10@?$numeric_limits@I@std@@2HB DD 09H		; std::numeric_limits<unsigned int>::digits10
CONST	ENDS
;	COMDAT ?g_XMNegateX@DirectX@@3UXMVECTORF32@1@B
CONST	SEGMENT
?g_XMNegateX@DirectX@@3UXMVECTORF32@1@B DD 0bf800000r ; -1 ; DirectX::g_XMNegateX
	DD	03f800000r			; 1
	DD	03f800000r			; 1
	DD	03f800000r			; 1
CONST	ENDS
;	COMDAT ?g_XMMaskByte@DirectX@@3UXMVECTORI32@1@B
CONST	SEGMENT
?g_XMMaskByte@DirectX@@3UXMVECTORI32@1@B DD 0ffH	; DirectX::g_XMMaskByte
	DD	0ffH
	DD	0ffH
	DD	0ffH
CONST	ENDS
;	COMDAT ?g_XMNoFraction@DirectX@@3UXMVECTORF32@1@B
CONST	SEGMENT
?g_XMNoFraction@DirectX@@3UXMVECTORF32@1@B DD 04b000000r ; 8.38861e+006 ; DirectX::g_XMNoFraction
	DD	04b000000r			; 8.38861e+006
	DD	04b000000r			; 8.38861e+006
	DD	04b000000r			; 8.38861e+006
CONST	ENDS
;	COMDAT ?g_XMNormalizeX16Y16Z16W16@DirectX@@3UXMVECTORF32@1@B
CONST	SEGMENT
?g_XMNormalizeX16Y16Z16W16@DirectX@@3UXMVECTORF32@1@B DD 038000100r ; 3.05185e-005 ; DirectX::g_XMNormalizeX16Y16Z16W16
	DD	038000100r			; 3.05185e-005
	DD	030000100r			; 4.65675e-010
	DD	030000100r			; 4.65675e-010
CONST	ENDS
;	COMDAT ?digits@?$numeric_limits@I@std@@2HB
CONST	SEGMENT
?digits@?$numeric_limits@I@std@@2HB DD 020H		; std::numeric_limits<unsigned int>::digits
CONST	ENDS
;	COMDAT ?g_XMFixX16Y16Z16W16@DirectX@@3UXMVECTORF32@1@B
CONST	SEGMENT
?g_XMFixX16Y16Z16W16@DirectX@@3UXMVECTORF32@1@B DD 0c7000000r ; -32768 ; DirectX::g_XMFixX16Y16Z16W16
	DD	0c7000000r			; -32768
	DD	000000000r			; 0
	DD	000000000r			; 0
CONST	ENDS
;	COMDAT ?g_XMFlipX16Y16Z16W16@DirectX@@3UXMVECTORI32@1@B
CONST	SEGMENT
?g_XMFlipX16Y16Z16W16@DirectX@@3UXMVECTORI32@1@B DD 08000H ; DirectX::g_XMFlipX16Y16Z16W16
	DD	08000H
	DD	00H
	DD	00H
CONST	ENDS
;	COMDAT ?g_XMMaskX16Y16Z16W16@DirectX@@3UXMVECTORI32@1@B
CONST	SEGMENT
?g_XMMaskX16Y16Z16W16@DirectX@@3UXMVECTORI32@1@B DD 0ffffH ; DirectX::g_XMMaskX16Y16Z16W16
	DD	0ffffH
	DD	0ffff0000H
	DD	0ffff0000H
CONST	ENDS
;	COMDAT ?g_XMNormalizeX16Y16@DirectX@@3UXMVECTORF32@1@B
CONST	SEGMENT
?g_XMNormalizeX16Y16@DirectX@@3UXMVECTORF32@1@B DD 038000100r ; 3.05185e-005 ; DirectX::g_XMNormalizeX16Y16
	DD	030000100r			; 4.65675e-010
	DD	000000000r			; 0
	DD	000000000r			; 0
CONST	ENDS
;	COMDAT ?is_signed@?$numeric_limits@I@std@@2_NB
CONST	SEGMENT
?is_signed@?$numeric_limits@I@std@@2_NB DB 00H		; std::numeric_limits<unsigned int>::is_signed
CONST	ENDS
;	COMDAT ?g_XMFixX16Y16@DirectX@@3UXMVECTORF32@1@B
CONST	SEGMENT
?g_XMFixX16Y16@DirectX@@3UXMVECTORF32@1@B DD 0c7000000r ; -32768 ; DirectX::g_XMFixX16Y16
	DD	000000000r			; 0
	DD	000000000r			; 0
	DD	000000000r			; 0
CONST	ENDS
;	COMDAT ?g_XMFlipX16Y16@DirectX@@3UXMVECTORI32@1@B
CONST	SEGMENT
?g_XMFlipX16Y16@DirectX@@3UXMVECTORI32@1@B DD 08000H	; DirectX::g_XMFlipX16Y16
	DD	00H
	DD	00H
	DD	00H
CONST	ENDS
;	COMDAT ?g_XMMaskX16Y16@DirectX@@3UXMVECTORI32@1@B
CONST	SEGMENT
?g_XMMaskX16Y16@DirectX@@3UXMVECTORI32@1@B DD 0ffffH	; DirectX::g_XMMaskX16Y16
	DD	0ffff0000H
	DD	00H
	DD	00H
CONST	ENDS
;	COMDAT ?g_XMNormalizeA2B10G10R10@DirectX@@3UXMVECTORF32@1@B
CONST	SEGMENT
?g_XMNormalizeA2B10G10R10@DirectX@@3UXMVECTORF32@1@B DD 03b004020r ; 0.00195695 ; DirectX::g_XMNormalizeA2B10G10R10
	DD	036004020r			; 1.91108e-006
	DD	031004020r			; 1.86629e-009
	DD	02faaaaabr			; 3.10441e-010
CONST	ENDS
;	COMDAT ?g_XMFixAA2B10G10R10@DirectX@@3UXMVECTORF32@1@B
CONST	SEGMENT
?g_XMFixAA2B10G10R10@DirectX@@3UXMVECTORF32@1@B DD 0c4000000r ; -512 ; DirectX::g_XMFixAA2B10G10R10
	DD	0c9000000r			; -524288
	DD	0ce000000r			; -5.36871e+008
	DD	04f000000r			; 2.14748e+009
CONST	ENDS
;	COMDAT ?g_XMFlipA2B10G10R10@DirectX@@3UXMVECTORI32@1@B
CONST	SEGMENT
?g_XMFlipA2B10G10R10@DirectX@@3UXMVECTORI32@1@B DD 0200H ; DirectX::g_XMFlipA2B10G10R10
	DD	080000H
	DD	020000000H
	DD	080000000H
CONST	ENDS
;	COMDAT ?g_XMMaskA2B10G10R10@DirectX@@3UXMVECTORI32@1@B
CONST	SEGMENT
?g_XMMaskA2B10G10R10@DirectX@@3UXMVECTORI32@1@B DD 03ffH ; DirectX::g_XMMaskA2B10G10R10
	DD	0ffc00H
	DD	03ff00000H
	DD	0c0000000H
CONST	ENDS
;	COMDAT ?g_XMNormalizeA8R8G8B8@DirectX@@3UXMVECTORF32@1@B
CONST	SEGMENT
?g_XMNormalizeA8R8G8B8@DirectX@@3UXMVECTORF32@1@B DD 033808081r ; 5.98384e-008 ; DirectX::g_XMNormalizeA8R8G8B8
	DD	037808081r			; 1.53186e-005
	DD	03b808081r			; 0.00392157
	DD	02f808081r			; 2.33744e-010
CONST	ENDS
;	COMDAT ?g_XMFixAA8R8G8B8@DirectX@@3UXMVECTORF32@1@B
CONST	SEGMENT
?g_XMFixAA8R8G8B8@DirectX@@3UXMVECTORF32@1@B DD 000000000r ; 0 ; DirectX::g_XMFixAA8R8G8B8
	DD	000000000r			; 0
	DD	000000000r			; 0
	DD	04f000000r			; 2.14748e+009
CONST	ENDS
;	COMDAT ?g_XMFlipA8R8G8B8@DirectX@@3UXMVECTORI32@1@B
CONST	SEGMENT
?g_XMFlipA8R8G8B8@DirectX@@3UXMVECTORI32@1@B DD 00H	; DirectX::g_XMFlipA8R8G8B8
	DD	00H
	DD	00H
	DD	080000000H
CONST	ENDS
;	COMDAT ?g_XMMaskA8R8G8B8@DirectX@@3UXMVECTORI32@1@B
CONST	SEGMENT
?g_XMMaskA8R8G8B8@DirectX@@3UXMVECTORI32@1@B DD 0ff0000H ; DirectX::g_XMMaskA8R8G8B8
	DD	0ff00H
	DD	0ffH
	DD	0ff000000H
CONST	ENDS
;	COMDAT ?g_XMNegOneMask@DirectX@@3UXMVECTORI32@1@B
CONST	SEGMENT
?g_XMNegOneMask@DirectX@@3UXMVECTORI32@1@B DD 0ffffffffH ; DirectX::g_XMNegOneMask
	DD	0ffffffffH
	DD	0ffffffffH
	DD	0ffffffffH
CONST	ENDS
;	COMDAT ?g_XMFltMax@DirectX@@3UXMVECTORI32@1@B
CONST	SEGMENT
?g_XMFltMax@DirectX@@3UXMVECTORI32@1@B DD 07f7fffffH	; DirectX::g_XMFltMax
	DD	07f7fffffH
	DD	07f7fffffH
	DD	07f7fffffH
CONST	ENDS
;	COMDAT ?g_XMFltMin@DirectX@@3UXMVECTORI32@1@B
CONST	SEGMENT
?g_XMFltMin@DirectX@@3UXMVECTORI32@1@B DD 0800000H	; DirectX::g_XMFltMin
	DD	0800000H
	DD	0800000H
	DD	0800000H
CONST	ENDS
;	COMDAT ?g_XMAbsMask@DirectX@@3UXMVECTORI32@1@B
CONST	SEGMENT
?g_XMAbsMask@DirectX@@3UXMVECTORI32@1@B DD 07fffffffH	; DirectX::g_XMAbsMask
	DD	07fffffffH
	DD	07fffffffH
	DD	07fffffffH
CONST	ENDS
;	COMDAT ?g_XMQNaNTest@DirectX@@3UXMVECTORI32@1@B
CONST	SEGMENT
?g_XMQNaNTest@DirectX@@3UXMVECTORI32@1@B DD 07fffffH	; DirectX::g_XMQNaNTest
	DD	07fffffH
	DD	07fffffH
	DD	07fffffH
CONST	ENDS
;	COMDAT ?g_XMQNaN@DirectX@@3UXMVECTORI32@1@B
CONST	SEGMENT
?g_XMQNaN@DirectX@@3UXMVECTORI32@1@B DD 07fc00000H	; DirectX::g_XMQNaN
	DD	07fc00000H
	DD	07fc00000H
	DD	07fc00000H
CONST	ENDS
;	COMDAT ?g_XMInfinity@DirectX@@3UXMVECTORI32@1@B
CONST	SEGMENT
?g_XMInfinity@DirectX@@3UXMVECTORI32@1@B DD 07f800000H	; DirectX::g_XMInfinity
	DD	07f800000H
	DD	07f800000H
	DD	07f800000H
CONST	ENDS
;	COMDAT ?g_XMEpsilon@DirectX@@3UXMVECTORF32@1@B
CONST	SEGMENT
?g_XMEpsilon@DirectX@@3UXMVECTORF32@1@B DD 034000000r ; 1.19209e-007 ; DirectX::g_XMEpsilon
	DD	034000000r			; 1.19209e-007
	DD	034000000r			; 1.19209e-007
	DD	034000000r			; 1.19209e-007
CONST	ENDS
;	COMDAT ?digits10@?$numeric_limits@H@std@@2HB
CONST	SEGMENT
?digits10@?$numeric_limits@H@std@@2HB DD 09H		; std::numeric_limits<int>::digits10
CONST	ENDS
;	COMDAT ?digits@?$numeric_limits@H@std@@2HB
CONST	SEGMENT
?digits@?$numeric_limits@H@std@@2HB DD 01fH		; std::numeric_limits<int>::digits
CONST	ENDS
PUBLIC	_hypot
PUBLIC	_fmodf
PUBLIC	??2@YAPAXIPAX@Z					; operator new
PUBLIC	??3@YAXPAX0@Z					; operator delete
PUBLIC	?length@?$char_traits@D@std@@SAIPBD@Z		; std::char_traits<char>::length
PUBLIC	?copy@?$char_traits@D@std@@SAPADPADPBDI@Z	; std::char_traits<char>::copy
PUBLIC	?move@?$char_traits@D@std@@SAPADPADPBDI@Z	; std::char_traits<char>::move
PUBLIC	?assign@?$char_traits@D@std@@SAXAADABD@Z	; std::char_traits<char>::assign
PUBLIC	??0_Container_proxy@std@@QAE@XZ			; std::_Container_proxy::_Container_proxy
PUBLIC	??0_Container_base12@std@@QAE@XZ		; std::_Container_base12::_Container_base12
PUBLIC	??1_Container_base12@std@@QAE@XZ		; std::_Container_base12::~_Container_base12
PUBLIC	?_Orphan_all@_Container_base12@std@@QAEXXZ	; std::_Container_base12::_Orphan_all
PUBLIC	??0?$allocator@D@std@@QAE@XZ			; std::allocator<char>::allocator<char>
PUBLIC	?deallocate@?$allocator@D@std@@QAEXPADI@Z	; std::allocator<char>::deallocate
PUBLIC	?allocate@?$allocator@D@std@@QAEPADI@Z		; std::allocator<char>::allocate
PUBLIC	?max_size@?$allocator@D@std@@QBEIXZ		; std::allocator<char>::max_size
PUBLIC	?max_size@?$allocator_traits@V?$allocator@D@std@@@std@@SAIABV?$allocator@D@2@@Z ; std::allocator_traits<std::allocator<char> >::max_size
PUBLIC	??0?$_Wrap_alloc@V?$allocator@D@std@@@std@@QAE@XZ ; std::_Wrap_alloc<std::allocator<char> >::_Wrap_alloc<std::allocator<char> >
PUBLIC	?allocate@?$_Wrap_alloc@V?$allocator@D@std@@@std@@QAEPADI@Z ; std::_Wrap_alloc<std::allocator<char> >::allocate
PUBLIC	?deallocate@?$_Wrap_alloc@V?$allocator@D@std@@@std@@QAEXPADI@Z ; std::_Wrap_alloc<std::allocator<char> >::deallocate
PUBLIC	?max_size@?$_Wrap_alloc@V?$allocator@D@std@@@std@@QBEIXZ ; std::_Wrap_alloc<std::allocator<char> >::max_size
PUBLIC	??0?$_String_val@U?$_Simple_types@D@std@@@std@@QAE@XZ ; std::_String_val<std::_Simple_types<char> >::_String_val<std::_Simple_types<char> >
PUBLIC	?_Myptr@?$_String_val@U?$_Simple_types@D@std@@@std@@QAEPADXZ ; std::_String_val<std::_Simple_types<char> >::_Myptr
PUBLIC	?_Myptr@?$_String_val@U?$_Simple_types@D@std@@@std@@QBEPBDXZ ; std::_String_val<std::_Simple_types<char> >::_Myptr
PUBLIC	??1?$_String_val@U?$_Simple_types@D@std@@@std@@QAE@XZ ; std::_String_val<std::_Simple_types<char> >::~_String_val<std::_Simple_types<char> >
PUBLIC	??0?$_String_alloc@$0A@U?$_String_base_types@DV?$allocator@D@std@@@std@@@std@@QAE@ABV?$allocator@D@1@@Z ; std::_String_alloc<0,std::_String_base_types<char,std::allocator<char> > >::_String_alloc<0,std::_String_base_types<char,std::allocator<char> > >
PUBLIC	??1?$_String_alloc@$0A@U?$_String_base_types@DV?$allocator@D@std@@@std@@@std@@QAE@XZ ; std::_String_alloc<0,std::_String_base_types<char,std::allocator<char> > >::~_String_alloc<0,std::_String_base_types<char,std::allocator<char> > >
PUBLIC	?_Alloc_proxy@?$_String_alloc@$0A@U?$_String_base_types@DV?$allocator@D@std@@@std@@@std@@QAEXXZ ; std::_String_alloc<0,std::_String_base_types<char,std::allocator<char> > >::_Alloc_proxy
PUBLIC	?_Free_proxy@?$_String_alloc@$0A@U?$_String_base_types@DV?$allocator@D@std@@@std@@@std@@QAEXXZ ; std::_String_alloc<0,std::_String_base_types<char,std::allocator<char> > >::_Free_proxy
PUBLIC	?_Getal@?$_String_alloc@$0A@U?$_String_base_types@DV?$allocator@D@std@@@std@@@std@@QBE?AU?$_Wrap_alloc@V?$allocator@D@std@@@2@XZ ; std::_String_alloc<0,std::_String_base_types<char,std::allocator<char> > >::_Getal
PUBLIC	??0?$basic_string@DU?$char_traits@D@std@@V?$allocator@D@2@@std@@QAE@PBD@Z ; std::basic_string<char,std::char_traits<char>,std::allocator<char> >::basic_string<char,std::char_traits<char>,std::allocator<char> >
PUBLIC	??1?$basic_string@DU?$char_traits@D@std@@V?$allocator@D@2@@std@@QAE@XZ ; std::basic_string<char,std::char_traits<char>,std::allocator<char> >::~basic_string<char,std::char_traits<char>,std::allocator<char> >
PUBLIC	?assign@?$basic_string@DU?$char_traits@D@std@@V?$allocator@D@2@@std@@QAEAAV12@ABV12@II@Z ; std::basic_string<char,std::char_traits<char>,std::allocator<char> >::assign
PUBLIC	?assign@?$basic_string@DU?$char_traits@D@std@@V?$allocator@D@2@@std@@QAEAAV12@PBDI@Z ; std::basic_string<char,std::char_traits<char>,std::allocator<char> >::assign
PUBLIC	?assign@?$basic_string@DU?$char_traits@D@std@@V?$allocator@D@2@@std@@QAEAAV12@PBD@Z ; std::basic_string<char,std::char_traits<char>,std::allocator<char> >::assign
PUBLIC	?erase@?$basic_string@DU?$char_traits@D@std@@V?$allocator@D@2@@std@@QAEAAV12@I@Z ; std::basic_string<char,std::char_traits<char>,std::allocator<char> >::erase
PUBLIC	?erase@?$basic_string@DU?$char_traits@D@std@@V?$allocator@D@2@@std@@QAEAAV12@II@Z ; std::basic_string<char,std::char_traits<char>,std::allocator<char> >::erase
PUBLIC	?size@?$basic_string@DU?$char_traits@D@std@@V?$allocator@D@2@@std@@QBEIXZ ; std::basic_string<char,std::char_traits<char>,std::allocator<char> >::size
PUBLIC	?max_size@?$basic_string@DU?$char_traits@D@std@@V?$allocator@D@2@@std@@QBEIXZ ; std::basic_string<char,std::char_traits<char>,std::allocator<char> >::max_size
PUBLIC	?_Copy@?$basic_string@DU?$char_traits@D@std@@V?$allocator@D@2@@std@@QAEXII@Z ; std::basic_string<char,std::char_traits<char>,std::allocator<char> >::_Copy
PUBLIC	?_Eos@?$basic_string@DU?$char_traits@D@std@@V?$allocator@D@2@@std@@QAEXI@Z ; std::basic_string<char,std::char_traits<char>,std::allocator<char> >::_Eos
PUBLIC	?_Grow@?$basic_string@DU?$char_traits@D@std@@V?$allocator@D@2@@std@@QAE_NI_N@Z ; std::basic_string<char,std::char_traits<char>,std::allocator<char> >::_Grow
PUBLIC	?_Inside@?$basic_string@DU?$char_traits@D@std@@V?$allocator@D@2@@std@@QAE_NPBD@Z ; std::basic_string<char,std::char_traits<char>,std::allocator<char> >::_Inside
PUBLIC	?_Tidy@?$basic_string@DU?$char_traits@D@std@@V?$allocator@D@2@@std@@QAEX_NI@Z ; std::basic_string<char,std::char_traits<char>,std::allocator<char> >::_Tidy
PUBLIC	?_Xlen@?$basic_string@DU?$char_traits@D@std@@V?$allocator@D@2@@std@@QBEXXZ ; std::basic_string<char,std::char_traits<char>,std::allocator<char> >::_Xlen
PUBLIC	?_Xran@?$basic_string@DU?$char_traits@D@std@@V?$allocator@D@2@@std@@QBEXXZ ; std::basic_string<char,std::char_traits<char>,std::allocator<char> >::_Xran
PUBLIC	??0id@locale@std@@QAE@I@Z			; std::locale::id::id
PUBLIC	??$_Debug_pointer@D@std@@YAXPBDPB_WI@Z		; std::_Debug_pointer<char>
PUBLIC	?generic_category@std@@YAABVerror_category@1@XZ	; std::generic_category
PUBLIC	?system_category@std@@YAABVerror_category@1@XZ	; std::system_category
PUBLIC	??0error_category@std@@QAE@XZ			; std::error_category::error_category
PUBLIC	??1error_category@std@@UAE@XZ			; std::error_category::~error_category
PUBLIC	?default_error_condition@error_category@std@@UBE?AVerror_condition@2@H@Z ; std::error_category::default_error_condition
PUBLIC	?equivalent@error_category@std@@UBE_NHABVerror_condition@2@@Z ; std::error_category::equivalent
PUBLIC	?equivalent@error_category@std@@UBE_NABVerror_code@2@H@Z ; std::error_category::equivalent
PUBLIC	??8error_category@std@@QBE_NABV01@@Z		; std::error_category::operator==
PUBLIC	??_Gerror_category@std@@UAEPAXI@Z		; std::error_category::`scalar deleting destructor'
PUBLIC	?value@error_code@std@@QBEHXZ			; std::error_code::value
PUBLIC	?category@error_code@std@@QBEABVerror_category@2@XZ ; std::error_code::category
PUBLIC	??0error_condition@std@@QAE@HABVerror_category@1@@Z ; std::error_condition::error_condition
PUBLIC	?value@error_condition@std@@QBEHXZ		; std::error_condition::value
PUBLIC	?category@error_condition@std@@QBEABVerror_category@2@XZ ; std::error_condition::category
PUBLIC	??8error_condition@std@@QBE_NABV01@@Z		; std::error_condition::operator==
PUBLIC	??0_Generic_error_category@std@@QAE@XZ		; std::_Generic_error_category::_Generic_error_category
PUBLIC	?name@_Generic_error_category@std@@UBEPBDXZ	; std::_Generic_error_category::name
PUBLIC	?message@_Generic_error_category@std@@UBE?AV?$basic_string@DU?$char_traits@D@std@@V?$allocator@D@2@@2@H@Z ; std::_Generic_error_category::message
PUBLIC	??1_Generic_error_category@std@@UAE@XZ		; std::_Generic_error_category::~_Generic_error_category
PUBLIC	??_G_Generic_error_category@std@@UAEPAXI@Z	; std::_Generic_error_category::`scalar deleting destructor'
PUBLIC	??0_Iostream_error_category@std@@QAE@XZ		; std::_Iostream_error_category::_Iostream_error_category
PUBLIC	?name@_Iostream_error_category@std@@UBEPBDXZ	; std::_Iostream_error_category::name
PUBLIC	?message@_Iostream_error_category@std@@UBE?AV?$basic_string@DU?$char_traits@D@std@@V?$allocator@D@2@@2@H@Z ; std::_Iostream_error_category::message
PUBLIC	??1_Iostream_error_category@std@@UAE@XZ		; std::_Iostream_error_category::~_Iostream_error_category
PUBLIC	??_G_Iostream_error_category@std@@UAEPAXI@Z	; std::_Iostream_error_category::`scalar deleting destructor'
PUBLIC	??0_System_error_category@std@@QAE@XZ		; std::_System_error_category::_System_error_category
PUBLIC	?name@_System_error_category@std@@UBEPBDXZ	; std::_System_error_category::name
PUBLIC	?message@_System_error_category@std@@UBE?AV?$basic_string@DU?$char_traits@D@std@@V?$allocator@D@2@@2@H@Z ; std::_System_error_category::message
PUBLIC	?default_error_condition@_System_error_category@std@@UBE?AVerror_condition@2@H@Z ; std::_System_error_category::default_error_condition
PUBLIC	??1_System_error_category@std@@UAE@XZ		; std::_System_error_category::~_System_error_category
PUBLIC	??_G_System_error_category@std@@UAEPAXI@Z	; std::_System_error_category::`scalar deleting destructor'
PUBLIC	??0XMFLOAT3@DirectX@@QAE@MMM@Z			; DirectX::XMFLOAT3::XMFLOAT3
PUBLIC	??4XMFLOAT3@DirectX@@QAEAAU01@ABU01@@Z		; DirectX::XMFLOAT3::operator=
PUBLIC	?XMVectorSet@DirectX@@YQ?AT__m128@@MMMM@Z	; DirectX::XMVectorSet
PUBLIC	?GetRotation@CModel@@QAE?AUXMFLOAT3@DirectX@@XZ	; CModel::GetRotation
PUBLIC	?SetRotation@CModel@@QAEXUXMFLOAT3@DirectX@@@Z	; CModel::SetRotation
PUBLIC	??_GCModel@@QAEPAXI@Z				; CModel::`scalar deleting destructor'
PUBLIC	??0CRenderObject@@QAE@QADUXMFLOAT3@DirectX@@1PAUID3DX11EffectTechnique@@2PAUID3D11ShaderResourceView@@3_N44@Z ; CRenderObject::CRenderObject
PUBLIC	??1CRenderObject@@QAE@XZ			; CRenderObject::~CRenderObject
PUBLIC	?SetColour@CRenderObject@@QAEXMMM@Z		; CRenderObject::SetColour
PUBLIC	?SetColour@CRenderObject@@QAEXUXMFLOAT3@DirectX@@@Z ; CRenderObject::SetColour
PUBLIC	?SetColour@CRenderObject@@QAEXHHH@Z		; CRenderObject::SetColour
PUBLIC	?Update@CRenderObject@@QAEXM@Z			; CRenderObject::Update
PUBLIC	??$construct@PADAAPAD@?$_Wrap_alloc@V?$allocator@D@std@@@std@@QAEXPAPADAAPAD@Z ; std::_Wrap_alloc<std::allocator<char> >::construct<char *,char * &>
PUBLIC	??$destroy@PAD@?$_Wrap_alloc@V?$allocator@D@std@@@std@@QAEXPAPAD@Z ; std::_Wrap_alloc<std::allocator<char> >::destroy<char *>
PUBLIC	??$addressof@D@std@@YAPADAAD@Z			; std::addressof<char>
PUBLIC	??0?$allocator@U_Container_proxy@std@@@std@@QAE@XZ ; std::allocator<std::_Container_proxy>::allocator<std::_Container_proxy>
PUBLIC	?deallocate@?$allocator@U_Container_proxy@std@@@std@@QAEXPAU_Container_proxy@2@I@Z ; std::allocator<std::_Container_proxy>::deallocate
PUBLIC	?allocate@?$allocator@U_Container_proxy@std@@@std@@QAEPAU_Container_proxy@2@I@Z ; std::allocator<std::_Container_proxy>::allocate
PUBLIC	??$construct@U_Container_proxy@std@@U12@@?$allocator@U_Container_proxy@std@@@std@@QAEXPAU_Container_proxy@1@$$QAU21@@Z ; std::allocator<std::_Container_proxy>::construct<std::_Container_proxy,std::_Container_proxy>
PUBLIC	??$destroy@U_Container_proxy@std@@@?$allocator@U_Container_proxy@std@@@std@@QAEXPAU_Container_proxy@1@@Z ; std::allocator<std::_Container_proxy>::destroy<std::_Container_proxy>
PUBLIC	??$_Allocate@U_Container_proxy@std@@@std@@YAPAU_Container_proxy@0@IPAU10@@Z ; std::_Allocate<std::_Container_proxy>
PUBLIC	??$_Allocate@D@std@@YAPADIPAD@Z			; std::_Allocate<char>
PUBLIC	??$forward@AAPAD@std@@YAAAPADAAPAD@Z		; std::forward<char * &>
PUBLIC	??$construct@PADAAPAD@?$allocator_traits@V?$allocator@D@std@@@std@@SAXAAV?$allocator@D@1@PAPADAAPAD@Z ; std::allocator_traits<std::allocator<char> >::construct<char *,char * &>
PUBLIC	??$destroy@PAD@?$allocator_traits@V?$allocator@D@std@@@std@@SAXAAV?$allocator@D@1@PAPAD@Z ; std::allocator_traits<std::allocator<char> >::destroy<char *>
PUBLIC	??$forward@U_Container_proxy@std@@@std@@YA$$QAU_Container_proxy@0@AAU10@@Z ; std::forward<std::_Container_proxy>
PUBLIC	??$construct@PADAAPAD@?$allocator@D@std@@QAEXPAPADAAPAD@Z ; std::allocator<char>::construct<char *,char * &>
PUBLIC	??$destroy@PAD@?$allocator@D@std@@QAEXPAPAD@Z	; std::allocator<char>::destroy<char *>
PUBLIC	??_7error_category@std@@6B@			; std::error_category::`vftable'
PUBLIC	??_7_Generic_error_category@std@@6B@		; std::_Generic_error_category::`vftable'
PUBLIC	??_C@_07DCLBNMLN@generic?$AA@			; `string'
PUBLIC	??_C@_0O@BFJCFAAK@unknown?5error?$AA@		; `string'
PUBLIC	??_7_Iostream_error_category@std@@6B@		; std::_Iostream_error_category::`vftable'
PUBLIC	??_C@_08LLGCOLLL@iostream?$AA@			; `string'
PUBLIC	??_C@_0BG@PADBLCHM@iostream?5stream?5error?$AA@	; `string'
PUBLIC	??_7_System_error_category@std@@6B@		; std::_System_error_category::`vftable'
PUBLIC	??_C@_06FHFOAHML@system?$AA@			; `string'
PUBLIC	?_Generic_object@?$_Error_objects@H@std@@2V_Generic_error_category@2@A ; std::_Error_objects<int>::_Generic_object
PUBLIC	?_Iostream_object@?$_Error_objects@H@std@@2V_Iostream_error_category@2@A ; std::_Error_objects<int>::_Iostream_object
PUBLIC	?_System_object@?$_Error_objects@H@std@@2V_System_error_category@2@A ; std::_Error_objects<int>::_System_object
PUBLIC	?id@?$num_put@DV?$back_insert_iterator@V?$basic_string@DU?$char_traits@D@std@@V?$allocator@D@2@@std@@@std@@@std@@2V0locale@2@A ; std::num_put<char,std::back_insert_iterator<std::basic_string<char,std::char_traits<char>,std::allocator<char> > > >::id
PUBLIC	?id@?$num_put@_WV?$back_insert_iterator@V?$basic_string@_WU?$char_traits@_W@std@@V?$allocator@_W@2@@std@@@std@@@std@@2V0locale@2@A ; std::num_put<wchar_t,std::back_insert_iterator<std::basic_string<wchar_t,std::char_traits<wchar_t>,std::allocator<wchar_t> > > >::id
PUBLIC	?g_XMTanEstCoefficients@DirectX@@3UXMVECTORF32@1@B ; DirectX::g_XMTanEstCoefficients
PUBLIC	?g_XMPiConstants0@DirectX@@3UXMVECTORF32@1@B	; DirectX::g_XMPiConstants0
PUBLIC	?g_XMNegativeTwoPi@DirectX@@3UXMVECTORF32@1@B	; DirectX::g_XMNegativeTwoPi
PUBLIC	?g_XMNegativePi@DirectX@@3UXMVECTORF32@1@B	; DirectX::g_XMNegativePi
PUBLIC	?g_XMHalfPi@DirectX@@3UXMVECTORF32@1@B		; DirectX::g_XMHalfPi
PUBLIC	?g_XMPi@DirectX@@3UXMVECTORF32@1@B		; DirectX::g_XMPi
PUBLIC	?g_XMReciprocalPi@DirectX@@3UXMVECTORF32@1@B	; DirectX::g_XMReciprocalPi
PUBLIC	?g_XMTwoPi@DirectX@@3UXMVECTORF32@1@B		; DirectX::g_XMTwoPi
PUBLIC	?g_XMReciprocalTwoPi@DirectX@@3UXMVECTORF32@1@B	; DirectX::g_XMReciprocalTwoPi
PUBLIC	??_C@_1IO@JLPDPDPD@?$AAc?$AA?3?$AA?2?$AAp?$AAr?$AAo?$AAg?$AAr?$AAa?$AAm?$AA?5?$AAf?$AAi?$AAl?$AAe?$AAs?$AA?5?$AA?$CI?$AAx?$AA8?$AA6?$AA?$CJ?$AA?2?$AAm?$AAi?$AAc?$AAr?$AAo?$AAs?$AAo?$AAf?$AAt@ ; `string'
PUBLIC	?id@?$numpunct@D@std@@2V0locale@2@A		; std::numpunct<char>::id
PUBLIC	?id@?$numpunct@_W@std@@2V0locale@2@A		; std::numpunct<wchar_t>::id
PUBLIC	??_C@_0BA@JFNIOLAK@string?5too?5long?$AA@	; `string'
PUBLIC	??_C@_0BI@CFPLBAOH@invalid?5string?5position?$AA@ ; `string'
PUBLIC	??_C@_1CK@EOPGIILJ@?$AAi?$AAn?$AAv?$AAa?$AAl?$AAi?$AAd?$AA?5?$AAn?$AAu?$AAl?$AAl?$AA?5?$AAp?$AAo?$AAi?$AAn?$AAt?$AAe?$AAr?$AA?$AA@ ; `string'
PUBLIC	??_R4error_category@std@@6B@			; std::error_category::`RTTI Complete Object Locator'
PUBLIC	??_R0?AVerror_category@std@@@8			; std::error_category `RTTI Type Descriptor'
PUBLIC	??_R3error_category@std@@8			; std::error_category::`RTTI Class Hierarchy Descriptor'
PUBLIC	??_R2error_category@std@@8			; std::error_category::`RTTI Base Class Array'
PUBLIC	??_R1A@?0A@EA@error_category@std@@8		; std::error_category::`RTTI Base Class Descriptor at (0,-1,0,64)'
PUBLIC	??_R4_Generic_error_category@std@@6B@		; std::_Generic_error_category::`RTTI Complete Object Locator'
PUBLIC	??_R0?AV_Generic_error_category@std@@@8		; std::_Generic_error_category `RTTI Type Descriptor'
PUBLIC	??_R3_Generic_error_category@std@@8		; std::_Generic_error_category::`RTTI Class Hierarchy Descriptor'
PUBLIC	??_R2_Generic_error_category@std@@8		; std::_Generic_error_category::`RTTI Base Class Array'
PUBLIC	??_R1A@?0A@EA@_Generic_error_category@std@@8	; std::_Generic_error_category::`RTTI Base Class Descriptor at (0,-1,0,64)'
PUBLIC	??_R4_Iostream_error_category@std@@6B@		; std::_Iostream_error_category::`RTTI Complete Object Locator'
PUBLIC	??_R0?AV_Iostream_error_category@std@@@8	; std::_Iostream_error_category `RTTI Type Descriptor'
PUBLIC	??_R3_Iostream_error_category@std@@8		; std::_Iostream_error_category::`RTTI Class Hierarchy Descriptor'
PUBLIC	??_R2_Iostream_error_category@std@@8		; std::_Iostream_error_category::`RTTI Base Class Array'
PUBLIC	??_R1A@?0A@EA@_Iostream_error_category@std@@8	; std::_Iostream_error_category::`RTTI Base Class Descriptor at (0,-1,0,64)'
PUBLIC	??_R4_System_error_category@std@@6B@		; std::_System_error_category::`RTTI Complete Object Locator'
PUBLIC	??_R0?AV_System_error_category@std@@@8		; std::_System_error_category `RTTI Type Descriptor'
PUBLIC	??_R3_System_error_category@std@@8		; std::_System_error_category::`RTTI Class Hierarchy Descriptor'
PUBLIC	??_R2_System_error_category@std@@8		; std::_System_error_category::`RTTI Base Class Array'
PUBLIC	??_R1A@?0A@EA@_System_error_category@std@@8	; std::_System_error_category::`RTTI Base Class Descriptor at (0,-1,0,64)'
PUBLIC	__real@00000000
PUBLIC	__real@3d4ccccd
PUBLIC	__real@3dcccccd
PUBLIC	__real@3f000000
PUBLIC	__real@3f4ccccd
PUBLIC	__real@3f800000
PUBLIC	__real@3f8020c5
PUBLIC	__xmm@80000000800000008000000080000000
EXTRN	__purecall:PROC
EXTRN	??2@YAPAXI@Z:PROC				; operator new
EXTRN	??3@YAXPAX@Z:PROC				; operator delete
EXTRN	_atexit:PROC
EXTRN	??0_Lockit@std@@QAE@H@Z:PROC			; std::_Lockit::_Lockit
EXTRN	??1_Lockit@std@@QAE@XZ:PROC			; std::_Lockit::~_Lockit
EXTRN	_fmod:PROC
EXTRN	__hypot:PROC
EXTRN	_memcpy:PROC
EXTRN	_strlen:PROC
EXTRN	_memmove:PROC
EXTRN	?_Debug_message@std@@YAXPB_W0I@Z:PROC		; std::_Debug_message
EXTRN	?_Xbad_alloc@std@@YAXXZ:PROC			; std::_Xbad_alloc
EXTRN	?_Xlength_error@std@@YAXPBD@Z:PROC		; std::_Xlength_error
EXTRN	?_Xout_of_range@std@@YAXPBD@Z:PROC		; std::_Xout_of_range
EXTRN	??_Eerror_category@std@@UAEPAXI@Z:PROC		; std::error_category::`vector deleting destructor'
EXTRN	?_Syserror_map@std@@YAPBDH@Z:PROC		; std::_Syserror_map
EXTRN	?_Winerror_map@std@@YAPBDH@Z:PROC		; std::_Winerror_map
EXTRN	??_E_Generic_error_category@std@@UAEPAXI@Z:PROC	; std::_Generic_error_category::`vector deleting destructor'
EXTRN	??_E_Iostream_error_category@std@@UAEPAXI@Z:PROC ; std::_Iostream_error_category::`vector deleting destructor'
EXTRN	??_E_System_error_category@std@@UAEPAXI@Z:PROC	; std::_System_error_category::`vector deleting destructor'
EXTRN	??0CModel@@QAE@UXMFLOAT3@DirectX@@0M@Z:PROC	; CModel::CModel
EXTRN	??1CModel@@QAE@XZ:PROC				; CModel::~CModel
EXTRN	?Load@CModel@@QAE_NABV?$basic_string@DU?$char_traits@D@std@@V?$allocator@D@2@@std@@PAUID3DX11EffectTechnique@@_N@Z:PROC ; CModel::Load
EXTRN	?UpdateMatrix@CModel@@QAEXXZ:PROC		; CModel::UpdateMatrix
EXTRN	?fHSLToRGB@@YAXMMMAAM00@Z:PROC			; fHSLToRGB
EXTRN	@_RTC_CheckStackVars@8:PROC
EXTRN	@__security_check_cookie@4:PROC
EXTRN	__CxxThrowException@8:PROC
EXTRN	__RTC_CheckEsp:PROC
EXTRN	__RTC_InitBase:PROC
EXTRN	__RTC_Shutdown:PROC
EXTRN	___CxxFrameHandler3:PROC
EXTRN	??_7type_info@@6B@:QWORD			; type_info::`vftable'
EXTRN	___security_cookie:DWORD
EXTRN	__fltused:DWORD
_BSS	SEGMENT
_piecewise_construct DB 01H DUP (?)
	ALIGN	4

_allocator_arg DB 01H DUP (?)
_BSS	ENDS
;	COMDAT ?_Generic_object@?$_Error_objects@H@std@@2V_Generic_error_category@2@A
_BSS	SEGMENT
?_Generic_object@?$_Error_objects@H@std@@2V_Generic_error_category@2@A DD 01H DUP (?) ; std::_Error_objects<int>::_Generic_object
_BSS	ENDS
;	COMDAT ?_Iostream_object@?$_Error_objects@H@std@@2V_Iostream_error_category@2@A
_BSS	SEGMENT
?_Iostream_object@?$_Error_objects@H@std@@2V_Iostream_error_category@2@A DD 01H DUP (?) ; std::_Error_objects<int>::_Iostream_object
_BSS	ENDS
;	COMDAT ?_System_object@?$_Error_objects@H@std@@2V_System_error_category@2@A
_BSS	SEGMENT
?_System_object@?$_Error_objects@H@std@@2V_System_error_category@2@A DD 01H DUP (?) ; std::_Error_objects<int>::_System_object
_BSS	ENDS
;	COMDAT ?id@?$num_put@DV?$back_insert_iterator@V?$basic_string@DU?$char_traits@D@std@@V?$allocator@D@2@@std@@@std@@@std@@2V0locale@2@A
_BSS	SEGMENT
?id@?$num_put@DV?$back_insert_iterator@V?$basic_string@DU?$char_traits@D@std@@V?$allocator@D@2@@std@@@std@@@std@@2V0locale@2@A DD 01H DUP (?) ; std::num_put<char,std::back_insert_iterator<std::basic_string<char,std::char_traits<char>,std::allocator<char> > > >::id
_BSS	ENDS
;	COMDAT ?id@?$num_put@_WV?$back_insert_iterator@V?$basic_string@_WU?$char_traits@_W@std@@V?$allocator@_W@2@@std@@@std@@@std@@2V0locale@2@A
_BSS	SEGMENT
?id@?$num_put@_WV?$back_insert_iterator@V?$basic_string@_WU?$char_traits@_W@std@@V?$allocator@_W@2@@std@@@std@@@std@@2V0locale@2@A DD 01H DUP (?) ; std::num_put<wchar_t,std::back_insert_iterator<std::basic_string<wchar_t,std::char_traits<wchar_t>,std::allocator<wchar_t> > > >::id
_BSS	ENDS
_BSS	SEGMENT
	ALIGN	8

_XAXIS	DB	010H DUP (?)
_YAXIS	DB	010H DUP (?)
_ZAXIS	DB	010H DUP (?)
_ORIGIN	DB	0cH DUP (?)
_NO_ROTATION DB	0cH DUP (?)
__BLACK	DB	0cH DUP (?)
__WHITE	DB	0cH DUP (?)
__RED	DB	0cH DUP (?)
__GREEN	DB	0cH DUP (?)
__ORANGE DB	0cH DUP (?)
_BSS	ENDS
;	COMDAT ?id@?$numpunct@D@std@@2V0locale@2@A
_BSS	SEGMENT
?id@?$numpunct@D@std@@2V0locale@2@A DD 01H DUP (?)	; std::numpunct<char>::id
_BSS	ENDS
;	COMDAT ?id@?$numpunct@_W@std@@2V0locale@2@A
_BSS	SEGMENT
?id@?$numpunct@_W@std@@2V0locale@2@A DD 01H DUP (?)	; std::numpunct<wchar_t>::id
_BSS	ENDS
CRT$XCU	SEGMENT
_piecewise_construct$initializer$ DD FLAT:??__Epiecewise_construct@std@@YAXXZ
CRT$XCU	ENDS
;	COMDAT __xmm@80000000800000008000000080000000
CONST	SEGMENT
__xmm@80000000800000008000000080000000 DB 00H, 00H, 00H, 080H, 00H, 00H, 00H
	DB	080H, 00H, 00H, 00H, 080H, 00H, 00H, 00H, 080H
CONST	ENDS
;	COMDAT __real@3f8020c5
CONST	SEGMENT
__real@3f8020c5 DD 03f8020c5r			; 1.001
CONST	ENDS
;	COMDAT __real@3f800000
CONST	SEGMENT
__real@3f800000 DD 03f800000r			; 1
CONST	ENDS
;	COMDAT __real@3f4ccccd
CONST	SEGMENT
__real@3f4ccccd DD 03f4ccccdr			; 0.8
CONST	ENDS
;	COMDAT __real@3f000000
CONST	SEGMENT
__real@3f000000 DD 03f000000r			; 0.5
CONST	ENDS
;	COMDAT __real@3dcccccd
CONST	SEGMENT
__real@3dcccccd DD 03dcccccdr			; 0.1
CONST	ENDS
;	COMDAT __real@3d4ccccd
CONST	SEGMENT
__real@3d4ccccd DD 03d4ccccdr			; 0.05
CONST	ENDS
;	COMDAT __real@00000000
CONST	SEGMENT
__real@00000000 DD 000000000r			; 0
CONST	ENDS
;	COMDAT rtc$TMZ
rtc$TMZ	SEGMENT
__RTC_Shutdown.rtc$TMZ DD FLAT:__RTC_Shutdown
rtc$TMZ	ENDS
;	COMDAT rtc$IMZ
rtc$IMZ	SEGMENT
__RTC_InitBase.rtc$IMZ DD FLAT:__RTC_InitBase
rtc$IMZ	ENDS
;	COMDAT ??_R1A@?0A@EA@_System_error_category@std@@8
rdata$r	SEGMENT
??_R1A@?0A@EA@_System_error_category@std@@8 DD FLAT:??_R0?AV_System_error_category@std@@@8 ; std::_System_error_category::`RTTI Base Class Descriptor at (0,-1,0,64)'
	DD	02H
	DD	00H
	DD	0ffffffffH
	DD	00H
	DD	040H
	DD	FLAT:??_R3_System_error_category@std@@8
rdata$r	ENDS
;	COMDAT ??_R2_System_error_category@std@@8
rdata$r	SEGMENT
??_R2_System_error_category@std@@8 DD FLAT:??_R1A@?0A@EA@_System_error_category@std@@8 ; std::_System_error_category::`RTTI Base Class Array'
	DD	FLAT:??_R1A@?0A@EA@_Generic_error_category@std@@8
	DD	FLAT:??_R1A@?0A@EA@error_category@std@@8
rdata$r	ENDS
;	COMDAT ??_R3_System_error_category@std@@8
rdata$r	SEGMENT
??_R3_System_error_category@std@@8 DD 00H		; std::_System_error_category::`RTTI Class Hierarchy Descriptor'
	DD	00H
	DD	03H
	DD	FLAT:??_R2_System_error_category@std@@8
rdata$r	ENDS
;	COMDAT ??_R0?AV_System_error_category@std@@@8
data$r	SEGMENT
??_R0?AV_System_error_category@std@@@8 DD FLAT:??_7type_info@@6B@ ; std::_System_error_category `RTTI Type Descriptor'
	DD	00H
	DB	'.?AV_System_error_category@std@@', 00H
data$r	ENDS
;	COMDAT ??_R4_System_error_category@std@@6B@
rdata$r	SEGMENT
??_R4_System_error_category@std@@6B@ DD 00H		; std::_System_error_category::`RTTI Complete Object Locator'
	DD	00H
	DD	00H
	DD	FLAT:??_R0?AV_System_error_category@std@@@8
	DD	FLAT:??_R3_System_error_category@std@@8
rdata$r	ENDS
;	COMDAT ??_R1A@?0A@EA@_Iostream_error_category@std@@8
rdata$r	SEGMENT
??_R1A@?0A@EA@_Iostream_error_category@std@@8 DD FLAT:??_R0?AV_Iostream_error_category@std@@@8 ; std::_Iostream_error_category::`RTTI Base Class Descriptor at (0,-1,0,64)'
	DD	02H
	DD	00H
	DD	0ffffffffH
	DD	00H
	DD	040H
	DD	FLAT:??_R3_Iostream_error_category@std@@8
rdata$r	ENDS
;	COMDAT ??_R2_Iostream_error_category@std@@8
rdata$r	SEGMENT
??_R2_Iostream_error_category@std@@8 DD FLAT:??_R1A@?0A@EA@_Iostream_error_category@std@@8 ; std::_Iostream_error_category::`RTTI Base Class Array'
	DD	FLAT:??_R1A@?0A@EA@_Generic_error_category@std@@8
	DD	FLAT:??_R1A@?0A@EA@error_category@std@@8
rdata$r	ENDS
;	COMDAT ??_R3_Iostream_error_category@std@@8
rdata$r	SEGMENT
??_R3_Iostream_error_category@std@@8 DD 00H		; std::_Iostream_error_category::`RTTI Class Hierarchy Descriptor'
	DD	00H
	DD	03H
	DD	FLAT:??_R2_Iostream_error_category@std@@8
rdata$r	ENDS
;	COMDAT ??_R0?AV_Iostream_error_category@std@@@8
data$r	SEGMENT
??_R0?AV_Iostream_error_category@std@@@8 DD FLAT:??_7type_info@@6B@ ; std::_Iostream_error_category `RTTI Type Descriptor'
	DD	00H
	DB	'.?AV_Iostream_error_category@std@@', 00H
data$r	ENDS
;	COMDAT ??_R4_Iostream_error_category@std@@6B@
rdata$r	SEGMENT
??_R4_Iostream_error_category@std@@6B@ DD 00H		; std::_Iostream_error_category::`RTTI Complete Object Locator'
	DD	00H
	DD	00H
	DD	FLAT:??_R0?AV_Iostream_error_category@std@@@8
	DD	FLAT:??_R3_Iostream_error_category@std@@8
rdata$r	ENDS
;	COMDAT ??_R1A@?0A@EA@_Generic_error_category@std@@8
rdata$r	SEGMENT
??_R1A@?0A@EA@_Generic_error_category@std@@8 DD FLAT:??_R0?AV_Generic_error_category@std@@@8 ; std::_Generic_error_category::`RTTI Base Class Descriptor at (0,-1,0,64)'
	DD	01H
	DD	00H
	DD	0ffffffffH
	DD	00H
	DD	040H
	DD	FLAT:??_R3_Generic_error_category@std@@8
rdata$r	ENDS
;	COMDAT ??_R2_Generic_error_category@std@@8
rdata$r	SEGMENT
??_R2_Generic_error_category@std@@8 DD FLAT:??_R1A@?0A@EA@_Generic_error_category@std@@8 ; std::_Generic_error_category::`RTTI Base Class Array'
	DD	FLAT:??_R1A@?0A@EA@error_category@std@@8
rdata$r	ENDS
;	COMDAT ??_R3_Generic_error_category@std@@8
rdata$r	SEGMENT
??_R3_Generic_error_category@std@@8 DD 00H		; std::_Generic_error_category::`RTTI Class Hierarchy Descriptor'
	DD	00H
	DD	02H
	DD	FLAT:??_R2_Generic_error_category@std@@8
rdata$r	ENDS
;	COMDAT ??_R0?AV_Generic_error_category@std@@@8
data$r	SEGMENT
??_R0?AV_Generic_error_category@std@@@8 DD FLAT:??_7type_info@@6B@ ; std::_Generic_error_category `RTTI Type Descriptor'
	DD	00H
	DB	'.?AV_Generic_error_category@std@@', 00H
data$r	ENDS
;	COMDAT ??_R4_Generic_error_category@std@@6B@
rdata$r	SEGMENT
??_R4_Generic_error_category@std@@6B@ DD 00H		; std::_Generic_error_category::`RTTI Complete Object Locator'
	DD	00H
	DD	00H
	DD	FLAT:??_R0?AV_Generic_error_category@std@@@8
	DD	FLAT:??_R3_Generic_error_category@std@@8
rdata$r	ENDS
;	COMDAT ??_R1A@?0A@EA@error_category@std@@8
rdata$r	SEGMENT
??_R1A@?0A@EA@error_category@std@@8 DD FLAT:??_R0?AVerror_category@std@@@8 ; std::error_category::`RTTI Base Class Descriptor at (0,-1,0,64)'
	DD	00H
	DD	00H
	DD	0ffffffffH
	DD	00H
	DD	040H
	DD	FLAT:??_R3error_category@std@@8
rdata$r	ENDS
;	COMDAT ??_R2error_category@std@@8
rdata$r	SEGMENT
??_R2error_category@std@@8 DD FLAT:??_R1A@?0A@EA@error_category@std@@8 ; std::error_category::`RTTI Base Class Array'
rdata$r	ENDS
;	COMDAT ??_R3error_category@std@@8
rdata$r	SEGMENT
??_R3error_category@std@@8 DD 00H			; std::error_category::`RTTI Class Hierarchy Descriptor'
	DD	00H
	DD	01H
	DD	FLAT:??_R2error_category@std@@8
rdata$r	ENDS
;	COMDAT ??_R0?AVerror_category@std@@@8
data$r	SEGMENT
??_R0?AVerror_category@std@@@8 DD FLAT:??_7type_info@@6B@ ; std::error_category `RTTI Type Descriptor'
	DD	00H
	DB	'.?AVerror_category@std@@', 00H
data$r	ENDS
;	COMDAT ??_R4error_category@std@@6B@
rdata$r	SEGMENT
??_R4error_category@std@@6B@ DD 00H			; std::error_category::`RTTI Complete Object Locator'
	DD	00H
	DD	00H
	DD	FLAT:??_R0?AVerror_category@std@@@8
	DD	FLAT:??_R3error_category@std@@8
rdata$r	ENDS
;	COMDAT ??_C@_1CK@EOPGIILJ@?$AAi?$AAn?$AAv?$AAa?$AAl?$AAi?$AAd?$AA?5?$AAn?$AAu?$AAl?$AAl?$AA?5?$AAp?$AAo?$AAi?$AAn?$AAt?$AAe?$AAr?$AA?$AA@
CONST	SEGMENT
??_C@_1CK@EOPGIILJ@?$AAi?$AAn?$AAv?$AAa?$AAl?$AAi?$AAd?$AA?5?$AAn?$AAu?$AAl?$AAl?$AA?5?$AAp?$AAo?$AAi?$AAn?$AAt?$AAe?$AAr?$AA?$AA@ DB 'i'
	DB	00H, 'n', 00H, 'v', 00H, 'a', 00H, 'l', 00H, 'i', 00H, 'd', 00H
	DB	' ', 00H, 'n', 00H, 'u', 00H, 'l', 00H, 'l', 00H, ' ', 00H, 'p'
	DB	00H, 'o', 00H, 'i', 00H, 'n', 00H, 't', 00H, 'e', 00H, 'r', 00H
	DB	00H, 00H					; `string'
CONST	ENDS
;	COMDAT ??_C@_0BI@CFPLBAOH@invalid?5string?5position?$AA@
CONST	SEGMENT
??_C@_0BI@CFPLBAOH@invalid?5string?5position?$AA@ DB 'invalid string posi'
	DB	'tion', 00H					; `string'
CONST	ENDS
;	COMDAT ??_C@_0BA@JFNIOLAK@string?5too?5long?$AA@
CONST	SEGMENT
??_C@_0BA@JFNIOLAK@string?5too?5long?$AA@ DB 'string too long', 00H ; `string'
CONST	ENDS
;	COMDAT ??_C@_1IO@JLPDPDPD@?$AAc?$AA?3?$AA?2?$AAp?$AAr?$AAo?$AAg?$AAr?$AAa?$AAm?$AA?5?$AAf?$AAi?$AAl?$AAe?$AAs?$AA?5?$AA?$CI?$AAx?$AA8?$AA6?$AA?$CJ?$AA?2?$AAm?$AAi?$AAc?$AAr?$AAo?$AAs?$AAo?$AAf?$AAt@
CONST	SEGMENT
??_C@_1IO@JLPDPDPD@?$AAc?$AA?3?$AA?2?$AAp?$AAr?$AAo?$AAg?$AAr?$AAa?$AAm?$AA?5?$AAf?$AAi?$AAl?$AAe?$AAs?$AA?5?$AA?$CI?$AAx?$AA8?$AA6?$AA?$CJ?$AA?2?$AAm?$AAi?$AAc?$AAr?$AAo?$AAs?$AAo?$AAf?$AAt@ DB 'c'
	DB	00H, ':', 00H, '\', 00H, 'p', 00H, 'r', 00H, 'o', 00H, 'g', 00H
	DB	'r', 00H, 'a', 00H, 'm', 00H, ' ', 00H, 'f', 00H, 'i', 00H, 'l'
	DB	00H, 'e', 00H, 's', 00H, ' ', 00H, '(', 00H, 'x', 00H, '8', 00H
	DB	'6', 00H, ')', 00H, '\', 00H, 'm', 00H, 'i', 00H, 'c', 00H, 'r'
	DB	00H, 'o', 00H, 's', 00H, 'o', 00H, 'f', 00H, 't', 00H, ' ', 00H
	DB	'v', 00H, 'i', 00H, 's', 00H, 'u', 00H, 'a', 00H, 'l', 00H, ' '
	DB	00H, 's', 00H, 't', 00H, 'u', 00H, 'd', 00H, 'i', 00H, 'o', 00H
	DB	' ', 00H, '1', 00H, '2', 00H, '.', 00H, '0', 00H, '\', 00H, 'v'
	DB	00H, 'c', 00H, '\', 00H, 'i', 00H, 'n', 00H, 'c', 00H, 'l', 00H
	DB	'u', 00H, 'd', 00H, 'e', 00H, '\', 00H, 'x', 00H, 's', 00H, 't'
	DB	00H, 'r', 00H, 'i', 00H, 'n', 00H, 'g', 00H, 00H, 00H ; `string'
CONST	ENDS
;	COMDAT ?g_XMReciprocalTwoPi@DirectX@@3UXMVECTORF32@1@B
_DATA	SEGMENT
?g_XMReciprocalTwoPi@DirectX@@3UXMVECTORF32@1@B	ORG $+16 ; DirectX::g_XMReciprocalTwoPi
_DATA	ENDS
;	COMDAT ?g_XMTwoPi@DirectX@@3UXMVECTORF32@1@B
_DATA	SEGMENT
?g_XMTwoPi@DirectX@@3UXMVECTORF32@1@B	ORG $+16		; DirectX::g_XMTwoPi
_DATA	ENDS
;	COMDAT ?g_XMReciprocalPi@DirectX@@3UXMVECTORF32@1@B
_DATA	SEGMENT
?g_XMReciprocalPi@DirectX@@3UXMVECTORF32@1@B	ORG $+16	; DirectX::g_XMReciprocalPi
_DATA	ENDS
;	COMDAT ?g_XMPi@DirectX@@3UXMVECTORF32@1@B
_DATA	SEGMENT
?g_XMPi@DirectX@@3UXMVECTORF32@1@B	ORG $+16		; DirectX::g_XMPi
_DATA	ENDS
;	COMDAT ?g_XMHalfPi@DirectX@@3UXMVECTORF32@1@B
_DATA	SEGMENT
?g_XMHalfPi@DirectX@@3UXMVECTORF32@1@B	ORG $+16		; DirectX::g_XMHalfPi
_DATA	ENDS
;	COMDAT ?g_XMNegativePi@DirectX@@3UXMVECTORF32@1@B
_DATA	SEGMENT
?g_XMNegativePi@DirectX@@3UXMVECTORF32@1@B	ORG $+16	; DirectX::g_XMNegativePi
_DATA	ENDS
;	COMDAT ?g_XMNegativeTwoPi@DirectX@@3UXMVECTORF32@1@B
_DATA	SEGMENT
?g_XMNegativeTwoPi@DirectX@@3UXMVECTORF32@1@B	ORG $+16	; DirectX::g_XMNegativeTwoPi
_DATA	ENDS
;	COMDAT ?g_XMPiConstants0@DirectX@@3UXMVECTORF32@1@B
_DATA	SEGMENT
?g_XMPiConstants0@DirectX@@3UXMVECTORF32@1@B	ORG $+16	; DirectX::g_XMPiConstants0
_DATA	ENDS
;	COMDAT ?g_XMTanEstCoefficients@DirectX@@3UXMVECTORF32@1@B
_DATA	SEGMENT
?g_XMTanEstCoefficients@DirectX@@3UXMVECTORF32@1@B DD 0401ef9dbr ; 2.484 ; DirectX::g_XMTanEstCoefficients
	DD	0be482f23r			; -0.195492
	DD	0401de9e6r			; 2.4674
	ORG $+4
_DATA	ENDS
;	COMDAT ??_C@_06FHFOAHML@system?$AA@
CONST	SEGMENT
??_C@_06FHFOAHML@system?$AA@ DB 'system', 00H		; `string'
CONST	ENDS
;	COMDAT ??_7_System_error_category@std@@6B@
CONST	SEGMENT
??_7_System_error_category@std@@6B@ DD FLAT:??_R4_System_error_category@std@@6B@ ; std::_System_error_category::`vftable'
	DD	FLAT:??_E_System_error_category@std@@UAEPAXI@Z
	DD	FLAT:?name@_System_error_category@std@@UBEPBDXZ
	DD	FLAT:?message@_System_error_category@std@@UBE?AV?$basic_string@DU?$char_traits@D@std@@V?$allocator@D@2@@2@H@Z
	DD	FLAT:?default_error_condition@_System_error_category@std@@UBE?AVerror_condition@2@H@Z
	DD	FLAT:?equivalent@error_category@std@@UBE_NABVerror_code@2@H@Z
	DD	FLAT:?equivalent@error_category@std@@UBE_NHABVerror_condition@2@@Z
CONST	ENDS
;	COMDAT ??_C@_0BG@PADBLCHM@iostream?5stream?5error?$AA@
CONST	SEGMENT
??_C@_0BG@PADBLCHM@iostream?5stream?5error?$AA@ DB 'iostream stream error'
	DB	00H						; `string'
CONST	ENDS
;	COMDAT ??_C@_08LLGCOLLL@iostream?$AA@
CONST	SEGMENT
??_C@_08LLGCOLLL@iostream?$AA@ DB 'iostream', 00H	; `string'
CONST	ENDS
;	COMDAT ??_7_Iostream_error_category@std@@6B@
CONST	SEGMENT
??_7_Iostream_error_category@std@@6B@ DD FLAT:??_R4_Iostream_error_category@std@@6B@ ; std::_Iostream_error_category::`vftable'
	DD	FLAT:??_E_Iostream_error_category@std@@UAEPAXI@Z
	DD	FLAT:?name@_Iostream_error_category@std@@UBEPBDXZ
	DD	FLAT:?message@_Iostream_error_category@std@@UBE?AV?$basic_string@DU?$char_traits@D@std@@V?$allocator@D@2@@2@H@Z
	DD	FLAT:?default_error_condition@error_category@std@@UBE?AVerror_condition@2@H@Z
	DD	FLAT:?equivalent@error_category@std@@UBE_NABVerror_code@2@H@Z
	DD	FLAT:?equivalent@error_category@std@@UBE_NHABVerror_condition@2@@Z
CONST	ENDS
;	COMDAT ??_C@_0O@BFJCFAAK@unknown?5error?$AA@
CONST	SEGMENT
??_C@_0O@BFJCFAAK@unknown?5error?$AA@ DB 'unknown error', 00H ; `string'
CONST	ENDS
;	COMDAT ??_C@_07DCLBNMLN@generic?$AA@
CONST	SEGMENT
??_C@_07DCLBNMLN@generic?$AA@ DB 'generic', 00H		; `string'
CONST	ENDS
;	COMDAT ??_7_Generic_error_category@std@@6B@
CONST	SEGMENT
??_7_Generic_error_category@std@@6B@ DD FLAT:??_R4_Generic_error_category@std@@6B@ ; std::_Generic_error_category::`vftable'
	DD	FLAT:??_E_Generic_error_category@std@@UAEPAXI@Z
	DD	FLAT:?name@_Generic_error_category@std@@UBEPBDXZ
	DD	FLAT:?message@_Generic_error_category@std@@UBE?AV?$basic_string@DU?$char_traits@D@std@@V?$allocator@D@2@@2@H@Z
	DD	FLAT:?default_error_condition@error_category@std@@UBE?AVerror_condition@2@H@Z
	DD	FLAT:?equivalent@error_category@std@@UBE_NABVerror_code@2@H@Z
	DD	FLAT:?equivalent@error_category@std@@UBE_NHABVerror_condition@2@@Z
CONST	ENDS
;	COMDAT ??_7error_category@std@@6B@
CONST	SEGMENT
??_7error_category@std@@6B@ DD FLAT:??_R4error_category@std@@6B@ ; std::error_category::`vftable'
	DD	FLAT:??_Eerror_category@std@@UAEPAXI@Z
	DD	FLAT:__purecall
	DD	FLAT:__purecall
	DD	FLAT:?default_error_condition@error_category@std@@UBE?AVerror_condition@2@H@Z
	DD	FLAT:?equivalent@error_category@std@@UBE_NABVerror_code@2@H@Z
	DD	FLAT:?equivalent@error_category@std@@UBE_NHABVerror_condition@2@@Z
CONST	ENDS
;	COMDAT xdata$x
xdata$x	SEGMENT
__unwindtable$??$construct@PADAAPAD@?$allocator@D@std@@QAEXPAPADAAPAD@Z DD 0ffffffffH
	DD	FLAT:__unwindfunclet$??$construct@PADAAPAD@?$allocator@D@std@@QAEXPAPADAAPAD@Z$0
__ehfuncinfo$??$construct@PADAAPAD@?$allocator@D@std@@QAEXPAPADAAPAD@Z DD 019930522H
	DD	01H
	DD	FLAT:__unwindtable$??$construct@PADAAPAD@?$allocator@D@std@@QAEXPAPADAAPAD@Z
	DD	2 DUP(00H)
	DD	2 DUP(00H)
	DD	00H
	DD	01H
xdata$x	ENDS
;	COMDAT xdata$x
xdata$x	SEGMENT
__unwindtable$??$construct@U_Container_proxy@std@@U12@@?$allocator@U_Container_proxy@std@@@std@@QAEXPAU_Container_proxy@1@$$QAU21@@Z DD 0ffffffffH
	DD	FLAT:__unwindfunclet$??$construct@U_Container_proxy@std@@U12@@?$allocator@U_Container_proxy@std@@@std@@QAEXPAU_Container_proxy@1@$$QAU21@@Z$0
__ehfuncinfo$??$construct@U_Container_proxy@std@@U12@@?$allocator@U_Container_proxy@std@@@std@@QAEXPAU_Container_proxy@1@$$QAU21@@Z DD 019930522H
	DD	01H
	DD	FLAT:__unwindtable$??$construct@U_Container_proxy@std@@U12@@?$allocator@U_Container_proxy@std@@@std@@QAEXPAU_Container_proxy@1@$$QAU21@@Z
	DD	2 DUP(00H)
	DD	2 DUP(00H)
	DD	00H
	DD	01H
xdata$x	ENDS
;	COMDAT xdata$x
xdata$x	SEGMENT
__unwindtable$??0CRenderObject@@QAE@QADUXMFLOAT3@DirectX@@1PAUID3DX11EffectTechnique@@2PAUID3D11ShaderResourceView@@3_N44@Z DD 0ffffffffH
	DD	FLAT:__unwindfunclet$??0CRenderObject@@QAE@QADUXMFLOAT3@DirectX@@1PAUID3DX11EffectTechnique@@2PAUID3D11ShaderResourceView@@3_N44@Z$0
	DD	0ffffffffH
	DD	FLAT:__unwindfunclet$??0CRenderObject@@QAE@QADUXMFLOAT3@DirectX@@1PAUID3DX11EffectTechnique@@2PAUID3D11ShaderResourceView@@3_N44@Z$1
__ehfuncinfo$??0CRenderObject@@QAE@QADUXMFLOAT3@DirectX@@1PAUID3DX11EffectTechnique@@2PAUID3D11ShaderResourceView@@3_N44@Z DD 019930522H
	DD	02H
	DD	FLAT:__unwindtable$??0CRenderObject@@QAE@QADUXMFLOAT3@DirectX@@1PAUID3DX11EffectTechnique@@2PAUID3D11ShaderResourceView@@3_N44@Z
	DD	2 DUP(00H)
	DD	2 DUP(00H)
	DD	00H
	DD	01H
xdata$x	ENDS
;	COMDAT xdata$x
xdata$x	SEGMENT
__catchsym$?_Copy@?$basic_string@DU?$char_traits@D@std@@V?$allocator@D@2@@std@@QAEXII@Z$5 DD 040H
	DD	00H
	DD	00H
	DD	FLAT:__catch$?_Copy@?$basic_string@DU?$char_traits@D@std@@V?$allocator@D@2@@std@@QAEXII@Z$0
__catchsym$?_Copy@?$basic_string@DU?$char_traits@D@std@@V?$allocator@D@2@@std@@QAEXII@Z$4 DD 040H
	DD	00H
	DD	00H
	DD	FLAT:__catch$?_Copy@?$basic_string@DU?$char_traits@D@std@@V?$allocator@D@2@@std@@QAEXII@Z$1
__unwindtable$?_Copy@?$basic_string@DU?$char_traits@D@std@@V?$allocator@D@2@@std@@QAEXII@Z DD 0ffffffffH
	DD	00H
	DD	0ffffffffH
	DD	00H
	DD	01H
	DD	00H
	DD	01H
	DD	00H
__ehfuncinfo$?_Copy@?$basic_string@DU?$char_traits@D@std@@V?$allocator@D@2@@std@@QAEXII@Z DD 019930522H
	DD	04H
	DD	FLAT:__unwindtable$?_Copy@?$basic_string@DU?$char_traits@D@std@@V?$allocator@D@2@@std@@QAEXII@Z
	DD	02H
	DD	FLAT:__tryblocktable$?_Copy@?$basic_string@DU?$char_traits@D@std@@V?$allocator@D@2@@std@@QAEXII@Z
	DD	2 DUP(00H)
	DD	00H
	DD	01H
__tryblocktable$?_Copy@?$basic_string@DU?$char_traits@D@std@@V?$allocator@D@2@@std@@QAEXII@Z DD 02H
	DD	02H
	DD	03H
	DD	01H
	DD	FLAT:__catchsym$?_Copy@?$basic_string@DU?$char_traits@D@std@@V?$allocator@D@2@@std@@QAEXII@Z$4
	DD	00H
	DD	00H
	DD	03H
	DD	01H
	DD	FLAT:__catchsym$?_Copy@?$basic_string@DU?$char_traits@D@std@@V?$allocator@D@2@@std@@QAEXII@Z$5
xdata$x	ENDS
;	COMDAT xdata$x
xdata$x	SEGMENT
__unwindtable$??0?$basic_string@DU?$char_traits@D@std@@V?$allocator@D@2@@std@@QAE@PBD@Z DD 0ffffffffH
	DD	FLAT:__unwindfunclet$??0?$basic_string@DU?$char_traits@D@std@@V?$allocator@D@2@@std@@QAE@PBD@Z$0
__ehfuncinfo$??0?$basic_string@DU?$char_traits@D@std@@V?$allocator@D@2@@std@@QAE@PBD@Z DD 019930522H
	DD	01H
	DD	FLAT:__unwindtable$??0?$basic_string@DU?$char_traits@D@std@@V?$allocator@D@2@@std@@QAE@PBD@Z
	DD	2 DUP(00H)
	DD	2 DUP(00H)
	DD	00H
	DD	01H
xdata$x	ENDS
;	COMDAT xdata$x
xdata$x	SEGMENT
__unwindtable$??0?$_String_alloc@$0A@U?$_String_base_types@DV?$allocator@D@std@@@std@@@std@@QAE@ABV?$allocator@D@1@@Z DD 0ffffffffH
	DD	FLAT:__unwindfunclet$??0?$_String_alloc@$0A@U?$_String_base_types@DV?$allocator@D@std@@@std@@@std@@QAE@ABV?$allocator@D@1@@Z$0
__ehfuncinfo$??0?$_String_alloc@$0A@U?$_String_base_types@DV?$allocator@D@std@@@std@@@std@@QAE@ABV?$allocator@D@1@@Z DD 019930522H
	DD	01H
	DD	FLAT:__unwindtable$??0?$_String_alloc@$0A@U?$_String_base_types@DV?$allocator@D@std@@@std@@@std@@QAE@ABV?$allocator@D@1@@Z
	DD	2 DUP(00H)
	DD	2 DUP(00H)
	DD	00H
	DD	01H
xdata$x	ENDS
CRT$XCU	SEGMENT
_allocator_arg$initializer$ DD FLAT:??__Eallocator_arg@std@@YAXXZ
CRT$XCU	ENDS
;	COMDAT CRT$XCU
CRT$XCU	SEGMENT
_g_XMTanEstCoefficients$initializer$ DD FLAT:??__Eg_XMTanEstCoefficients@DirectX@@YAXXZ
CRT$XCU	ENDS
;	COMDAT CRT$XCU
CRT$XCU	SEGMENT
_g_XMPiConstants0$initializer$ DD FLAT:??__Eg_XMPiConstants0@DirectX@@YAXXZ
CRT$XCU	ENDS
;	COMDAT CRT$XCU
CRT$XCU	SEGMENT
_g_XMNegativeTwoPi$initializer$ DD FLAT:??__Eg_XMNegativeTwoPi@DirectX@@YAXXZ
CRT$XCU	ENDS
;	COMDAT CRT$XCU
CRT$XCU	SEGMENT
_g_XMNegativePi$initializer$ DD FLAT:??__Eg_XMNegativePi@DirectX@@YAXXZ
CRT$XCU	ENDS
;	COMDAT CRT$XCU
CRT$XCU	SEGMENT
_g_XMHalfPi$initializer$ DD FLAT:??__Eg_XMHalfPi@DirectX@@YAXXZ
CRT$XCU	ENDS
;	COMDAT CRT$XCU
CRT$XCU	SEGMENT
_g_XMPi$initializer$ DD FLAT:??__Eg_XMPi@DirectX@@YAXXZ
CRT$XCU	ENDS
;	COMDAT CRT$XCU
CRT$XCU	SEGMENT
_g_XMReciprocalPi$initializer$ DD FLAT:??__Eg_XMReciprocalPi@DirectX@@YAXXZ
CRT$XCU	ENDS
;	COMDAT CRT$XCU
CRT$XCU	SEGMENT
_g_XMTwoPi$initializer$ DD FLAT:??__Eg_XMTwoPi@DirectX@@YAXXZ
CRT$XCU	ENDS
;	COMDAT CRT$XCU
CRT$XCU	SEGMENT
_g_XMReciprocalTwoPi$initializer$ DD FLAT:??__Eg_XMReciprocalTwoPi@DirectX@@YAXXZ
CRT$XCU	ENDS
CRT$XCU	SEGMENT
	ORG $-8
_XAXIS$initializer$ DD FLAT:??__EXAXIS@@YAXXZ
CRT$XCU	ENDS
CRT$XCU	SEGMENT
_YAXIS$initializer$ DD FLAT:??__EYAXIS@@YAXXZ
CRT$XCU	ENDS
CRT$XCU	SEGMENT
_ZAXIS$initializer$ DD FLAT:??__EZAXIS@@YAXXZ
CRT$XCU	ENDS
CRT$XCU	SEGMENT
_ORIGIN$initializer$ DD FLAT:??__EORIGIN@@YAXXZ
CRT$XCU	ENDS
CRT$XCU	SEGMENT
_NO_ROTATION$initializer$ DD FLAT:??__ENO_ROTATION@@YAXXZ
CRT$XCU	ENDS
CRT$XCU	SEGMENT
__BLACK$initializer$ DD FLAT:??__E_BLACK@@YAXXZ
CRT$XCU	ENDS
CRT$XCU	SEGMENT
__WHITE$initializer$ DD FLAT:??__E_WHITE@@YAXXZ
CRT$XCU	ENDS
CRT$XCU	SEGMENT
__RED$initializer$ DD FLAT:??__E_RED@@YAXXZ
CRT$XCU	ENDS
CRT$XCU	SEGMENT
__GREEN$initializer$ DD FLAT:??__E_GREEN@@YAXXZ
CRT$XCU	ENDS
CRT$XCU	SEGMENT
__ORANGE$initializer$ DD FLAT:??__E_ORANGE@@YAXXZ
CRT$XCU	ENDS
;	COMDAT CRT$XCU
CRT$XCU	SEGMENT
?_Generic_object$initializer$@?$_Error_objects@H@std@@2P6AXXZA DD FLAT:??__E?_Generic_object@?$_Error_objects@H@std@@2V_Generic_error_category@2@A@@YAXXZ ; std::_Error_objects<int>::_Generic_object$initializer$
CRT$XCU	ENDS
;	COMDAT CRT$XCU
CRT$XCU	SEGMENT
?_Iostream_object$initializer$@?$_Error_objects@H@std@@2P6AXXZA DD FLAT:??__E?_Iostream_object@?$_Error_objects@H@std@@2V_Iostream_error_category@2@A@@YAXXZ ; std::_Error_objects<int>::_Iostream_object$initializer$
CRT$XCU	ENDS
;	COMDAT CRT$XCU
CRT$XCU	SEGMENT
?_System_object$initializer$@?$_Error_objects@H@std@@2P6AXXZA DD FLAT:??__E?_System_object@?$_Error_objects@H@std@@2V_System_error_category@2@A@@YAXXZ ; std::_Error_objects<int>::_System_object$initializer$
CRT$XCU	ENDS
;	COMDAT CRT$XCU
CRT$XCU	SEGMENT
?id$initializer$@?$num_put@DV?$back_insert_iterator@V?$basic_string@DU?$char_traits@D@std@@V?$allocator@D@2@@std@@@std@@@std@@2P6AXXZA DD FLAT:??__E?id@?$num_put@DV?$back_insert_iterator@V?$basic_string@DU?$char_traits@D@std@@V?$allocator@D@2@@std@@@std@@@std@@2V0locale@2@A@@YAXXZ ; std::num_put<char,std::back_insert_iterator<std::basic_string<char,std::char_traits<char>,std::allocator<char> > > >::id$initializer$
CRT$XCU	ENDS
;	COMDAT CRT$XCU
CRT$XCU	SEGMENT
?id$initializer$@?$num_put@_WV?$back_insert_iterator@V?$basic_string@_WU?$char_traits@_W@std@@V?$allocator@_W@2@@std@@@std@@@std@@2P6AXXZA DD FLAT:??__E?id@?$num_put@_WV?$back_insert_iterator@V?$basic_string@_WU?$char_traits@_W@std@@V?$allocator@_W@2@@std@@@std@@@std@@2V0locale@2@A@@YAXXZ ; std::num_put<wchar_t,std::back_insert_iterator<std::basic_string<wchar_t,std::char_traits<wchar_t>,std::allocator<wchar_t> > > >::id$initializer$
CRT$XCU	ENDS
;	COMDAT CRT$XCU
CRT$XCU	SEGMENT
?id$initializer$@?$numpunct@D@std@@2P6AXXZA DD FLAT:??__E?id@?$numpunct@D@std@@2V0locale@2@A@@YAXXZ ; std::numpunct<char>::id$initializer$
CRT$XCU	ENDS
;	COMDAT CRT$XCU
CRT$XCU	SEGMENT
?id$initializer$@?$numpunct@_W@std@@2P6AXXZA DD FLAT:??__E?id@?$numpunct@_W@std@@2V0locale@2@A@@YAXXZ ; std::numpunct<wchar_t>::id$initializer$
CRT$XCU	ENDS
; Function compile flags: /Odtp /RTCsu /ZI
; File c:\program files (x86)\microsoft visual studio 12.0\vc\include\xmemory0
;	COMDAT ??$destroy@PAD@?$allocator@D@std@@QAEXPAPAD@Z
_TEXT	SEGMENT
_this$ = -8						; size = 4
__Ptr$ = 8						; size = 4
??$destroy@PAD@?$allocator@D@std@@QAEXPAPAD@Z PROC	; std::allocator<char>::destroy<char *>, COMDAT
; _this$ = ecx

; 605  : 		void destroy(_Uty *_Ptr)

	push	ebp
	mov	ebp, esp
	sub	esp, 204				; 000000ccH
	push	ebx
	push	esi
	push	edi
	push	ecx
	lea	edi, DWORD PTR [ebp-204]
	mov	ecx, 51					; 00000033H
	mov	eax, -858993460				; ccccccccH
	rep stosd
	pop	ecx
	mov	DWORD PTR _this$[ebp], ecx

; 606  : 		{	// destroy object at _Ptr
; 607  : 		_Ptr->~_Uty();
; 608  : 		}

	pop	edi
	pop	esi
	pop	ebx
	mov	esp, ebp
	pop	ebp
	ret	4
??$destroy@PAD@?$allocator@D@std@@QAEXPAPAD@Z ENDP	; std::allocator<char>::destroy<char *>
_TEXT	ENDS
; Function compile flags: /Odtp /RTCsu /ZI
; File c:\program files (x86)\microsoft visual studio 12.0\vc\include\xmemory0
;	COMDAT ??$construct@PADAAPAD@?$allocator@D@std@@QAEXPAPADAAPAD@Z
_TEXT	SEGMENT
tv73 = -244						; size = 4
$T2 = -236						; size = 4
$T3 = -224						; size = 4
_this$ = -20						; size = 4
__$EHRec$ = -12						; size = 12
__Ptr$ = 8						; size = 4
_<_Args_0>$ = 12					; size = 4
??$construct@PADAAPAD@?$allocator@D@std@@QAEXPAPADAAPAD@Z PROC ; std::allocator<char>::construct<char *,char * &>, COMDAT
; _this$ = ecx

; 598  : 		void construct(_Objty *_Ptr, _Types&&... _Args)

	push	ebp
	mov	ebp, esp
	push	-1
	push	__ehhandler$??$construct@PADAAPAD@?$allocator@D@std@@QAEXPAPADAAPAD@Z
	mov	eax, DWORD PTR fs:0
	push	eax
	sub	esp, 232				; 000000e8H
	push	ebx
	push	esi
	push	edi
	push	ecx
	lea	edi, DWORD PTR [ebp-244]
	mov	ecx, 58					; 0000003aH
	mov	eax, -858993460				; ccccccccH
	rep stosd
	pop	ecx
	mov	eax, DWORD PTR ___security_cookie
	xor	eax, ebp
	push	eax
	lea	eax, DWORD PTR __$EHRec$[ebp]
	mov	DWORD PTR fs:0, eax
	mov	DWORD PTR _this$[ebp], ecx

; 599  : 		{	// construct _Objty(_Types...) at _Ptr
; 600  : 		::new ((void *)_Ptr) _Objty(_STD forward<_Types>(_Args)...);

	mov	eax, DWORD PTR __Ptr$[ebp]
	push	eax
	push	4
	call	??2@YAPAXIPAX@Z				; operator new
	add	esp, 8
	mov	DWORD PTR $T3[ebp], eax
	mov	DWORD PTR __$EHRec$[ebp+8], 0
	cmp	DWORD PTR $T3[ebp], 0
	je	SHORT $LN3@construct
	mov	ecx, DWORD PTR _<_Args_0>$[ebp]
	push	ecx
	call	??$forward@AAPAD@std@@YAAAPADAAPAD@Z	; std::forward<char * &>
	add	esp, 4
	mov	edx, DWORD PTR $T3[ebp]
	mov	eax, DWORD PTR [eax]
	mov	DWORD PTR [edx], eax
	mov	ecx, DWORD PTR $T3[ebp]
	mov	DWORD PTR tv73[ebp], ecx
	jmp	SHORT $LN4@construct
$LN3@construct:
	mov	DWORD PTR tv73[ebp], 0
$LN4@construct:
	mov	edx, DWORD PTR tv73[ebp]
	mov	DWORD PTR $T2[ebp], edx
	mov	DWORD PTR __$EHRec$[ebp+8], -1

; 601  : 		}

	mov	ecx, DWORD PTR __$EHRec$[ebp]
	mov	DWORD PTR fs:0, ecx
	pop	ecx
	pop	edi
	pop	esi
	pop	ebx
	add	esp, 244				; 000000f4H
	cmp	ebp, esp
	call	__RTC_CheckEsp
	mov	esp, ebp
	pop	ebp
	ret	8
_TEXT	ENDS
;	COMDAT text$x
text$x	SEGMENT
__unwindfunclet$??$construct@PADAAPAD@?$allocator@D@std@@QAEXPAPADAAPAD@Z$0:
	mov	eax, DWORD PTR __Ptr$[ebp]
	push	eax
	mov	eax, DWORD PTR $T3[ebp]
	push	eax
	call	??3@YAXPAX0@Z				; operator delete
	add	esp, 8
	ret	0
__ehhandler$??$construct@PADAAPAD@?$allocator@D@std@@QAEXPAPADAAPAD@Z:
	mov	edx, DWORD PTR [esp+8]
	lea	eax, DWORD PTR [edx+12]
	mov	ecx, DWORD PTR [edx-248]
	xor	ecx, eax
	call	@__security_check_cookie@4
	mov	eax, OFFSET __ehfuncinfo$??$construct@PADAAPAD@?$allocator@D@std@@QAEXPAPADAAPAD@Z
	jmp	___CxxFrameHandler3
text$x	ENDS
??$construct@PADAAPAD@?$allocator@D@std@@QAEXPAPADAAPAD@Z ENDP ; std::allocator<char>::construct<char *,char * &>
; Function compile flags: /Odtp /RTCsu /ZI
; File c:\program files (x86)\microsoft visual studio 12.0\vc\include\xlocnum
;	COMDAT ??__E?id@?$numpunct@_W@std@@2V0locale@2@A@@YAXXZ
text$di	SEGMENT
??__E?id@?$numpunct@_W@std@@2V0locale@2@A@@YAXXZ PROC	; `dynamic initializer for 'std::numpunct<wchar_t>::id'', COMDAT

; 155  : 		void _Getvals(wchar_t, const lconv *_Ptr, _Locinfo::_Cvtvec)

	push	ebp
	mov	ebp, esp
	sub	esp, 192				; 000000c0H
	push	ebx
	push	esi
	push	edi
	lea	edi, DWORD PTR [ebp-192]
	mov	ecx, 48					; 00000030H
	mov	eax, -858993460				; ccccccccH
	rep stosd
	push	0
	mov	ecx, OFFSET ?id@?$numpunct@_W@std@@2V0locale@2@A ; std::numpunct<wchar_t>::id
	call	??0id@locale@std@@QAE@I@Z		; std::locale::id::id
	pop	edi
	pop	esi
	pop	ebx
	add	esp, 192				; 000000c0H
	cmp	ebp, esp
	call	__RTC_CheckEsp
	mov	esp, ebp
	pop	ebp
	ret	0
??__E?id@?$numpunct@_W@std@@2V0locale@2@A@@YAXXZ ENDP	; `dynamic initializer for 'std::numpunct<wchar_t>::id''
text$di	ENDS
; Function compile flags: /Odtp /RTCsu /ZI
; File c:\program files (x86)\microsoft visual studio 12.0\vc\include\xlocnum
;	COMDAT ??__E?id@?$numpunct@D@std@@2V0locale@2@A@@YAXXZ
text$di	SEGMENT
??__E?id@?$numpunct@D@std@@2V0locale@2@A@@YAXXZ PROC	; `dynamic initializer for 'std::numpunct<char>::id'', COMDAT

; 155  : 		void _Getvals(wchar_t, const lconv *_Ptr, _Locinfo::_Cvtvec)

	push	ebp
	mov	ebp, esp
	sub	esp, 192				; 000000c0H
	push	ebx
	push	esi
	push	edi
	lea	edi, DWORD PTR [ebp-192]
	mov	ecx, 48					; 00000030H
	mov	eax, -858993460				; ccccccccH
	rep stosd
	push	0
	mov	ecx, OFFSET ?id@?$numpunct@D@std@@2V0locale@2@A ; std::numpunct<char>::id
	call	??0id@locale@std@@QAE@I@Z		; std::locale::id::id
	pop	edi
	pop	esi
	pop	ebx
	add	esp, 192				; 000000c0H
	cmp	ebp, esp
	call	__RTC_CheckEsp
	mov	esp, ebp
	pop	ebp
	ret	0
??__E?id@?$numpunct@D@std@@2V0locale@2@A@@YAXXZ ENDP	; `dynamic initializer for 'std::numpunct<char>::id''
text$di	ENDS
; Function compile flags: /Odtp /RTCsu /ZI
; File c:\program files (x86)\microsoft visual studio 12.0\vc\include\xlocnum
;	COMDAT ??__E?id@?$num_put@_WV?$back_insert_iterator@V?$basic_string@_WU?$char_traits@_W@std@@V?$allocator@_W@2@@std@@@std@@@std@@2V0locale@2@A@@YAXXZ
text$di	SEGMENT
??__E?id@?$num_put@_WV?$back_insert_iterator@V?$basic_string@_WU?$char_traits@_W@std@@V?$allocator@_W@2@@std@@@std@@@std@@2V0locale@2@A@@YAXXZ PROC ; `dynamic initializer for 'std::num_put<wchar_t,std::back_insert_iterator<std::basic_string<wchar_t,std::char_traits<wchar_t>,std::allocator<wchar_t> > > >::id'', COMDAT

; 155  : 		void _Getvals(wchar_t, const lconv *_Ptr, _Locinfo::_Cvtvec)

	push	ebp
	mov	ebp, esp
	sub	esp, 192				; 000000c0H
	push	ebx
	push	esi
	push	edi
	lea	edi, DWORD PTR [ebp-192]
	mov	ecx, 48					; 00000030H
	mov	eax, -858993460				; ccccccccH
	rep stosd
	push	0
	mov	ecx, OFFSET ?id@?$num_put@_WV?$back_insert_iterator@V?$basic_string@_WU?$char_traits@_W@std@@V?$allocator@_W@2@@std@@@std@@@std@@2V0locale@2@A ; std::num_put<wchar_t,std::back_insert_iterator<std::basic_string<wchar_t,std::char_traits<wchar_t>,std::allocator<wchar_t> > > >::id
	call	??0id@locale@std@@QAE@I@Z		; std::locale::id::id
	pop	edi
	pop	esi
	pop	ebx
	add	esp, 192				; 000000c0H
	cmp	ebp, esp
	call	__RTC_CheckEsp
	mov	esp, ebp
	pop	ebp
	ret	0
??__E?id@?$num_put@_WV?$back_insert_iterator@V?$basic_string@_WU?$char_traits@_W@std@@V?$allocator@_W@2@@std@@@std@@@std@@2V0locale@2@A@@YAXXZ ENDP ; `dynamic initializer for 'std::num_put<wchar_t,std::back_insert_iterator<std::basic_string<wchar_t,std::char_traits<wchar_t>,std::allocator<wchar_t> > > >::id''
text$di	ENDS
; Function compile flags: /Odtp /RTCsu /ZI
; File c:\program files (x86)\microsoft visual studio 12.0\vc\include\xlocnum
;	COMDAT ??__E?id@?$num_put@DV?$back_insert_iterator@V?$basic_string@DU?$char_traits@D@std@@V?$allocator@D@2@@std@@@std@@@std@@2V0locale@2@A@@YAXXZ
text$di	SEGMENT
??__E?id@?$num_put@DV?$back_insert_iterator@V?$basic_string@DU?$char_traits@D@std@@V?$allocator@D@2@@std@@@std@@@std@@2V0locale@2@A@@YAXXZ PROC ; `dynamic initializer for 'std::num_put<char,std::back_insert_iterator<std::basic_string<char,std::char_traits<char>,std::allocator<char> > > >::id'', COMDAT

; 155  : 		void _Getvals(wchar_t, const lconv *_Ptr, _Locinfo::_Cvtvec)

	push	ebp
	mov	ebp, esp
	sub	esp, 192				; 000000c0H
	push	ebx
	push	esi
	push	edi
	lea	edi, DWORD PTR [ebp-192]
	mov	ecx, 48					; 00000030H
	mov	eax, -858993460				; ccccccccH
	rep stosd
	push	0
	mov	ecx, OFFSET ?id@?$num_put@DV?$back_insert_iterator@V?$basic_string@DU?$char_traits@D@std@@V?$allocator@D@2@@std@@@std@@@std@@2V0locale@2@A ; std::num_put<char,std::back_insert_iterator<std::basic_string<char,std::char_traits<char>,std::allocator<char> > > >::id
	call	??0id@locale@std@@QAE@I@Z		; std::locale::id::id
	pop	edi
	pop	esi
	pop	ebx
	add	esp, 192				; 000000c0H
	cmp	ebp, esp
	call	__RTC_CheckEsp
	mov	esp, ebp
	pop	ebp
	ret	0
??__E?id@?$num_put@DV?$back_insert_iterator@V?$basic_string@DU?$char_traits@D@std@@V?$allocator@D@2@@std@@@std@@@std@@2V0locale@2@A@@YAXXZ ENDP ; `dynamic initializer for 'std::num_put<char,std::back_insert_iterator<std::basic_string<char,std::char_traits<char>,std::allocator<char> > > >::id''
text$di	ENDS
; Function compile flags: /Odtp /RTCsu /ZI
; File c:\program files (x86)\microsoft visual studio 12.0\vc\include\type_traits
;	COMDAT ??$forward@U_Container_proxy@std@@@std@@YA$$QAU_Container_proxy@0@AAU10@@Z
_TEXT	SEGMENT
__Arg$ = 8						; size = 4
??$forward@U_Container_proxy@std@@@std@@YA$$QAU_Container_proxy@0@AAU10@@Z PROC ; std::forward<std::_Container_proxy>, COMDAT

; 1504 : 	{	// forward an lvalue

	push	ebp
	mov	ebp, esp
	sub	esp, 192				; 000000c0H
	push	ebx
	push	esi
	push	edi
	lea	edi, DWORD PTR [ebp-192]
	mov	ecx, 48					; 00000030H
	mov	eax, -858993460				; ccccccccH
	rep stosd

; 1505 : 	return (static_cast<_Ty&&>(_Arg));

	mov	eax, DWORD PTR __Arg$[ebp]

; 1506 : 	}

	pop	edi
	pop	esi
	pop	ebx
	mov	esp, ebp
	pop	ebp
	ret	0
??$forward@U_Container_proxy@std@@@std@@YA$$QAU_Container_proxy@0@AAU10@@Z ENDP ; std::forward<std::_Container_proxy>
_TEXT	ENDS
; Function compile flags: /Odtp /RTCsu /ZI
; File c:\program files (x86)\microsoft visual studio 12.0\vc\include\xmemory0
;	COMDAT ??$destroy@PAD@?$allocator_traits@V?$allocator@D@std@@@std@@SAXAAV?$allocator@D@1@PAPAD@Z
_TEXT	SEGMENT
__Al$ = 8						; size = 4
__Ptr$ = 12						; size = 4
??$destroy@PAD@?$allocator_traits@V?$allocator@D@std@@@std@@SAXAAV?$allocator@D@1@PAPAD@Z PROC ; std::allocator_traits<std::allocator<char> >::destroy<char *>, COMDAT

; 728  : 		static void destroy(_Alloc& _Al, _Uty *_Ptr)

	push	ebp
	mov	ebp, esp
	sub	esp, 192				; 000000c0H
	push	ebx
	push	esi
	push	edi
	lea	edi, DWORD PTR [ebp-192]
	mov	ecx, 48					; 00000030H
	mov	eax, -858993460				; ccccccccH
	rep stosd

; 729  : 		{	// destroy object at _Ptr
; 730  : 		_Al.destroy(_Ptr);

	mov	eax, DWORD PTR __Ptr$[ebp]
	push	eax
	mov	ecx, DWORD PTR __Al$[ebp]
	call	??$destroy@PAD@?$allocator@D@std@@QAEXPAPAD@Z ; std::allocator<char>::destroy<char *>

; 731  : 		}

	pop	edi
	pop	esi
	pop	ebx
	add	esp, 192				; 000000c0H
	cmp	ebp, esp
	call	__RTC_CheckEsp
	mov	esp, ebp
	pop	ebp
	ret	0
??$destroy@PAD@?$allocator_traits@V?$allocator@D@std@@@std@@SAXAAV?$allocator@D@1@PAPAD@Z ENDP ; std::allocator_traits<std::allocator<char> >::destroy<char *>
_TEXT	ENDS
; Function compile flags: /Odtp /RTCsu /ZI
; File c:\program files (x86)\microsoft visual studio 12.0\vc\include\xmemory0
;	COMDAT ??$construct@PADAAPAD@?$allocator_traits@V?$allocator@D@std@@@std@@SAXAAV?$allocator@D@1@PAPADAAPAD@Z
_TEXT	SEGMENT
__Al$ = 8						; size = 4
__Ptr$ = 12						; size = 4
_<_Args_0>$ = 16					; size = 4
??$construct@PADAAPAD@?$allocator_traits@V?$allocator@D@std@@@std@@SAXAAV?$allocator@D@1@PAPADAAPAD@Z PROC ; std::allocator_traits<std::allocator<char> >::construct<char *,char * &>, COMDAT

; 720  : 		static void construct(_Alloc& _Al, _Objty *_Ptr,

	push	ebp
	mov	ebp, esp
	sub	esp, 192				; 000000c0H
	push	ebx
	push	esi
	push	edi
	lea	edi, DWORD PTR [ebp-192]
	mov	ecx, 48					; 00000030H
	mov	eax, -858993460				; ccccccccH
	rep stosd

; 721  : 			_Types&&... _Args)
; 722  : 		{	// construct _Objty(_Types...) at _Ptr
; 723  : 		_Al.construct(_Ptr, _STD forward<_Types>(_Args)...);

	mov	eax, DWORD PTR _<_Args_0>$[ebp]
	push	eax
	call	??$forward@AAPAD@std@@YAAAPADAAPAD@Z	; std::forward<char * &>
	add	esp, 4
	push	eax
	mov	ecx, DWORD PTR __Ptr$[ebp]
	push	ecx
	mov	ecx, DWORD PTR __Al$[ebp]
	call	??$construct@PADAAPAD@?$allocator@D@std@@QAEXPAPADAAPAD@Z ; std::allocator<char>::construct<char *,char * &>

; 724  : 		}

	pop	edi
	pop	esi
	pop	ebx
	add	esp, 192				; 000000c0H
	cmp	ebp, esp
	call	__RTC_CheckEsp
	mov	esp, ebp
	pop	ebp
	ret	0
??$construct@PADAAPAD@?$allocator_traits@V?$allocator@D@std@@@std@@SAXAAV?$allocator@D@1@PAPADAAPAD@Z ENDP ; std::allocator_traits<std::allocator<char> >::construct<char *,char * &>
_TEXT	ENDS
; Function compile flags: /Odtp /RTCsu /ZI
; File c:\program files (x86)\microsoft visual studio 12.0\vc\include\type_traits
;	COMDAT ??$forward@AAPAD@std@@YAAAPADAAPAD@Z
_TEXT	SEGMENT
__Arg$ = 8						; size = 4
??$forward@AAPAD@std@@YAAAPADAAPAD@Z PROC		; std::forward<char * &>, COMDAT

; 1504 : 	{	// forward an lvalue

	push	ebp
	mov	ebp, esp
	sub	esp, 192				; 000000c0H
	push	ebx
	push	esi
	push	edi
	lea	edi, DWORD PTR [ebp-192]
	mov	ecx, 48					; 00000030H
	mov	eax, -858993460				; ccccccccH
	rep stosd

; 1505 : 	return (static_cast<_Ty&&>(_Arg));

	mov	eax, DWORD PTR __Arg$[ebp]

; 1506 : 	}

	pop	edi
	pop	esi
	pop	ebx
	mov	esp, ebp
	pop	ebp
	ret	0
??$forward@AAPAD@std@@YAAAPADAAPAD@Z ENDP		; std::forward<char * &>
_TEXT	ENDS
; Function compile flags: /Odtp /RTCsu /ZI
;	COMDAT ??__F?_System_object@?$_Error_objects@H@std@@2V_System_error_category@2@A@@YAXXZ
text$yd	SEGMENT
??__F?_System_object@?$_Error_objects@H@std@@2V_System_error_category@2@A@@YAXXZ PROC ; `dynamic atexit destructor for 'std::_Error_objects<int>::_System_object'', COMDAT
	push	ebp
	mov	ebp, esp
	sub	esp, 192				; 000000c0H
	push	ebx
	push	esi
	push	edi
	lea	edi, DWORD PTR [ebp-192]
	mov	ecx, 48					; 00000030H
	mov	eax, -858993460				; ccccccccH
	rep stosd
	mov	ecx, OFFSET ?_System_object@?$_Error_objects@H@std@@2V_System_error_category@2@A ; std::_Error_objects<int>::_System_object
	call	??1_System_error_category@std@@UAE@XZ
	pop	edi
	pop	esi
	pop	ebx
	add	esp, 192				; 000000c0H
	cmp	ebp, esp
	call	__RTC_CheckEsp
	mov	esp, ebp
	pop	ebp
	ret	0
??__F?_System_object@?$_Error_objects@H@std@@2V_System_error_category@2@A@@YAXXZ ENDP ; `dynamic atexit destructor for 'std::_Error_objects<int>::_System_object''
text$yd	ENDS
; Function compile flags: /Odtp /RTCsu /ZI
; File c:\program files (x86)\microsoft visual studio 12.0\vc\include\xmemory0
;	COMDAT ??__E?_System_object@?$_Error_objects@H@std@@2V_System_error_category@2@A@@YAXXZ
text$di	SEGMENT
??__E?_System_object@?$_Error_objects@H@std@@2V_System_error_category@2@A@@YAXXZ PROC ; `dynamic initializer for 'std::_Error_objects<int>::_System_object'', COMDAT

; 611  : 		{	// estimate maximum array size

	push	ebp
	mov	ebp, esp
	sub	esp, 192				; 000000c0H
	push	ebx
	push	esi
	push	edi
	lea	edi, DWORD PTR [ebp-192]
	mov	ecx, 48					; 00000030H
	mov	eax, -858993460				; ccccccccH
	rep stosd
	mov	ecx, OFFSET ?_System_object@?$_Error_objects@H@std@@2V_System_error_category@2@A ; std::_Error_objects<int>::_System_object
	call	??0_System_error_category@std@@QAE@XZ	; std::_System_error_category::_System_error_category
	push	OFFSET ??__F?_System_object@?$_Error_objects@H@std@@2V_System_error_category@2@A@@YAXXZ ; `dynamic atexit destructor for 'std::_Error_objects<int>::_System_object''
	call	_atexit
	add	esp, 4
	pop	edi
	pop	esi
	pop	ebx
	add	esp, 192				; 000000c0H
	cmp	ebp, esp
	call	__RTC_CheckEsp
	mov	esp, ebp
	pop	ebp
	ret	0
??__E?_System_object@?$_Error_objects@H@std@@2V_System_error_category@2@A@@YAXXZ ENDP ; `dynamic initializer for 'std::_Error_objects<int>::_System_object''
text$di	ENDS
; Function compile flags: /Odtp /RTCsu /ZI
;	COMDAT ??__F?_Iostream_object@?$_Error_objects@H@std@@2V_Iostream_error_category@2@A@@YAXXZ
text$yd	SEGMENT
??__F?_Iostream_object@?$_Error_objects@H@std@@2V_Iostream_error_category@2@A@@YAXXZ PROC ; `dynamic atexit destructor for 'std::_Error_objects<int>::_Iostream_object'', COMDAT
	push	ebp
	mov	ebp, esp
	sub	esp, 192				; 000000c0H
	push	ebx
	push	esi
	push	edi
	lea	edi, DWORD PTR [ebp-192]
	mov	ecx, 48					; 00000030H
	mov	eax, -858993460				; ccccccccH
	rep stosd
	mov	ecx, OFFSET ?_Iostream_object@?$_Error_objects@H@std@@2V_Iostream_error_category@2@A ; std::_Error_objects<int>::_Iostream_object
	call	??1_Iostream_error_category@std@@UAE@XZ
	pop	edi
	pop	esi
	pop	ebx
	add	esp, 192				; 000000c0H
	cmp	ebp, esp
	call	__RTC_CheckEsp
	mov	esp, ebp
	pop	ebp
	ret	0
??__F?_Iostream_object@?$_Error_objects@H@std@@2V_Iostream_error_category@2@A@@YAXXZ ENDP ; `dynamic atexit destructor for 'std::_Error_objects<int>::_Iostream_object''
text$yd	ENDS
; Function compile flags: /Odtp /RTCsu /ZI
; File c:\program files (x86)\microsoft visual studio 12.0\vc\include\xmemory0
;	COMDAT ??__E?_Iostream_object@?$_Error_objects@H@std@@2V_Iostream_error_category@2@A@@YAXXZ
text$di	SEGMENT
??__E?_Iostream_object@?$_Error_objects@H@std@@2V_Iostream_error_category@2@A@@YAXXZ PROC ; `dynamic initializer for 'std::_Error_objects<int>::_Iostream_object'', COMDAT

; 611  : 		{	// estimate maximum array size

	push	ebp
	mov	ebp, esp
	sub	esp, 192				; 000000c0H
	push	ebx
	push	esi
	push	edi
	lea	edi, DWORD PTR [ebp-192]
	mov	ecx, 48					; 00000030H
	mov	eax, -858993460				; ccccccccH
	rep stosd
	mov	ecx, OFFSET ?_Iostream_object@?$_Error_objects@H@std@@2V_Iostream_error_category@2@A ; std::_Error_objects<int>::_Iostream_object
	call	??0_Iostream_error_category@std@@QAE@XZ	; std::_Iostream_error_category::_Iostream_error_category
	push	OFFSET ??__F?_Iostream_object@?$_Error_objects@H@std@@2V_Iostream_error_category@2@A@@YAXXZ ; `dynamic atexit destructor for 'std::_Error_objects<int>::_Iostream_object''
	call	_atexit
	add	esp, 4
	pop	edi
	pop	esi
	pop	ebx
	add	esp, 192				; 000000c0H
	cmp	ebp, esp
	call	__RTC_CheckEsp
	mov	esp, ebp
	pop	ebp
	ret	0
??__E?_Iostream_object@?$_Error_objects@H@std@@2V_Iostream_error_category@2@A@@YAXXZ ENDP ; `dynamic initializer for 'std::_Error_objects<int>::_Iostream_object''
text$di	ENDS
; Function compile flags: /Odtp /RTCsu /ZI
;	COMDAT ??__F?_Generic_object@?$_Error_objects@H@std@@2V_Generic_error_category@2@A@@YAXXZ
text$yd	SEGMENT
??__F?_Generic_object@?$_Error_objects@H@std@@2V_Generic_error_category@2@A@@YAXXZ PROC ; `dynamic atexit destructor for 'std::_Error_objects<int>::_Generic_object'', COMDAT
	push	ebp
	mov	ebp, esp
	sub	esp, 192				; 000000c0H
	push	ebx
	push	esi
	push	edi
	lea	edi, DWORD PTR [ebp-192]
	mov	ecx, 48					; 00000030H
	mov	eax, -858993460				; ccccccccH
	rep stosd
	mov	ecx, OFFSET ?_Generic_object@?$_Error_objects@H@std@@2V_Generic_error_category@2@A ; std::_Error_objects<int>::_Generic_object
	call	??1_Generic_error_category@std@@UAE@XZ
	pop	edi
	pop	esi
	pop	ebx
	add	esp, 192				; 000000c0H
	cmp	ebp, esp
	call	__RTC_CheckEsp
	mov	esp, ebp
	pop	ebp
	ret	0
??__F?_Generic_object@?$_Error_objects@H@std@@2V_Generic_error_category@2@A@@YAXXZ ENDP ; `dynamic atexit destructor for 'std::_Error_objects<int>::_Generic_object''
text$yd	ENDS
; Function compile flags: /Odtp /RTCsu /ZI
; File c:\program files (x86)\microsoft visual studio 12.0\vc\include\xmemory0
;	COMDAT ??__E?_Generic_object@?$_Error_objects@H@std@@2V_Generic_error_category@2@A@@YAXXZ
text$di	SEGMENT
??__E?_Generic_object@?$_Error_objects@H@std@@2V_Generic_error_category@2@A@@YAXXZ PROC ; `dynamic initializer for 'std::_Error_objects<int>::_Generic_object'', COMDAT

; 611  : 		{	// estimate maximum array size

	push	ebp
	mov	ebp, esp
	sub	esp, 192				; 000000c0H
	push	ebx
	push	esi
	push	edi
	lea	edi, DWORD PTR [ebp-192]
	mov	ecx, 48					; 00000030H
	mov	eax, -858993460				; ccccccccH
	rep stosd
	mov	ecx, OFFSET ?_Generic_object@?$_Error_objects@H@std@@2V_Generic_error_category@2@A ; std::_Error_objects<int>::_Generic_object
	call	??0_Generic_error_category@std@@QAE@XZ	; std::_Generic_error_category::_Generic_error_category
	push	OFFSET ??__F?_Generic_object@?$_Error_objects@H@std@@2V_Generic_error_category@2@A@@YAXXZ ; `dynamic atexit destructor for 'std::_Error_objects<int>::_Generic_object''
	call	_atexit
	add	esp, 4
	pop	edi
	pop	esi
	pop	ebx
	add	esp, 192				; 000000c0H
	cmp	ebp, esp
	call	__RTC_CheckEsp
	mov	esp, ebp
	pop	ebp
	ret	0
??__E?_Generic_object@?$_Error_objects@H@std@@2V_Generic_error_category@2@A@@YAXXZ ENDP ; `dynamic initializer for 'std::_Error_objects<int>::_Generic_object''
text$di	ENDS
; Function compile flags: /Odtp /RTCsu /ZI
; File c:\program files (x86)\microsoft visual studio 12.0\vc\include\xmemory0
;	COMDAT ??$_Allocate@D@std@@YAPADIPAD@Z
_TEXT	SEGMENT
__Ptr$ = -8						; size = 4
__Count$ = 8						; size = 4
___formal$ = 12						; size = 4
??$_Allocate@D@std@@YAPADIPAD@Z PROC			; std::_Allocate<char>, COMDAT

; 22   : 	{	// allocate storage for _Count elements of type _Ty

	push	ebp
	mov	ebp, esp
	sub	esp, 204				; 000000ccH
	push	ebx
	push	esi
	push	edi
	lea	edi, DWORD PTR [ebp-204]
	mov	ecx, 51					; 00000033H
	mov	eax, -858993460				; ccccccccH
	rep stosd

; 23   : 	void *_Ptr = 0;

	mov	DWORD PTR __Ptr$[ebp], 0

; 24   : 
; 25   : 	if (_Count == 0)

	cmp	DWORD PTR __Count$[ebp], 0
	jne	SHORT $LN4@Allocate

; 26   : 		;
; 27   : 	else if (((size_t)(-1) / sizeof (_Ty) < _Count)

	jmp	SHORT $LN3@Allocate
$LN4@Allocate:

; 28   : 		|| (_Ptr = ::operator new(_Count * sizeof (_Ty))) == 0)

	cmp	DWORD PTR __Count$[ebp], -1
	ja	SHORT $LN1@Allocate
	mov	eax, DWORD PTR __Count$[ebp]
	push	eax
	call	??2@YAPAXI@Z				; operator new
	add	esp, 4
	mov	DWORD PTR __Ptr$[ebp], eax
	cmp	DWORD PTR __Ptr$[ebp], 0
	jne	SHORT $LN3@Allocate
$LN1@Allocate:

; 29   : 		_Xbad_alloc();	// report no memory

	call	?_Xbad_alloc@std@@YAXXZ			; std::_Xbad_alloc
$LN3@Allocate:

; 30   : 
; 31   : 	return ((_Ty *)_Ptr);

	mov	eax, DWORD PTR __Ptr$[ebp]
$LN6@Allocate:

; 32   : 	}

	pop	edi
	pop	esi
	pop	ebx
	add	esp, 204				; 000000ccH
	cmp	ebp, esp
	call	__RTC_CheckEsp
	mov	esp, ebp
	pop	ebp
	ret	0
??$_Allocate@D@std@@YAPADIPAD@Z ENDP			; std::_Allocate<char>
_TEXT	ENDS
; Function compile flags: /Odtp /RTCsu /ZI
; File c:\program files (x86)\microsoft visual studio 12.0\vc\include\xmemory0
;	COMDAT ??$_Allocate@U_Container_proxy@std@@@std@@YAPAU_Container_proxy@0@IPAU10@@Z
_TEXT	SEGMENT
__Ptr$ = -8						; size = 4
__Count$ = 8						; size = 4
___formal$ = 12						; size = 4
??$_Allocate@U_Container_proxy@std@@@std@@YAPAU_Container_proxy@0@IPAU10@@Z PROC ; std::_Allocate<std::_Container_proxy>, COMDAT

; 22   : 	{	// allocate storage for _Count elements of type _Ty

	push	ebp
	mov	ebp, esp
	sub	esp, 204				; 000000ccH
	push	ebx
	push	esi
	push	edi
	lea	edi, DWORD PTR [ebp-204]
	mov	ecx, 51					; 00000033H
	mov	eax, -858993460				; ccccccccH
	rep stosd

; 23   : 	void *_Ptr = 0;

	mov	DWORD PTR __Ptr$[ebp], 0

; 24   : 
; 25   : 	if (_Count == 0)

	cmp	DWORD PTR __Count$[ebp], 0
	jne	SHORT $LN4@Allocate

; 26   : 		;
; 27   : 	else if (((size_t)(-1) / sizeof (_Ty) < _Count)

	jmp	SHORT $LN3@Allocate
$LN4@Allocate:

; 28   : 		|| (_Ptr = ::operator new(_Count * sizeof (_Ty))) == 0)

	cmp	DWORD PTR __Count$[ebp], 536870911	; 1fffffffH
	ja	SHORT $LN1@Allocate
	mov	eax, DWORD PTR __Count$[ebp]
	shl	eax, 3
	push	eax
	call	??2@YAPAXI@Z				; operator new
	add	esp, 4
	mov	DWORD PTR __Ptr$[ebp], eax
	cmp	DWORD PTR __Ptr$[ebp], 0
	jne	SHORT $LN3@Allocate
$LN1@Allocate:

; 29   : 		_Xbad_alloc();	// report no memory

	call	?_Xbad_alloc@std@@YAXXZ			; std::_Xbad_alloc
$LN3@Allocate:

; 30   : 
; 31   : 	return ((_Ty *)_Ptr);

	mov	eax, DWORD PTR __Ptr$[ebp]
$LN6@Allocate:

; 32   : 	}

	pop	edi
	pop	esi
	pop	ebx
	add	esp, 204				; 000000ccH
	cmp	ebp, esp
	call	__RTC_CheckEsp
	mov	esp, ebp
	pop	ebp
	ret	0
??$_Allocate@U_Container_proxy@std@@@std@@YAPAU_Container_proxy@0@IPAU10@@Z ENDP ; std::_Allocate<std::_Container_proxy>
_TEXT	ENDS
; Function compile flags: /Odtp /RTCsu /ZI
; File c:\program files (x86)\microsoft visual studio 12.0\vc\include\xmemory0
;	COMDAT ??$destroy@U_Container_proxy@std@@@?$allocator@U_Container_proxy@std@@@std@@QAEXPAU_Container_proxy@1@@Z
_TEXT	SEGMENT
_this$ = -8						; size = 4
__Ptr$ = 8						; size = 4
??$destroy@U_Container_proxy@std@@@?$allocator@U_Container_proxy@std@@@std@@QAEXPAU_Container_proxy@1@@Z PROC ; std::allocator<std::_Container_proxy>::destroy<std::_Container_proxy>, COMDAT
; _this$ = ecx

; 605  : 		void destroy(_Uty *_Ptr)

	push	ebp
	mov	ebp, esp
	sub	esp, 204				; 000000ccH
	push	ebx
	push	esi
	push	edi
	push	ecx
	lea	edi, DWORD PTR [ebp-204]
	mov	ecx, 51					; 00000033H
	mov	eax, -858993460				; ccccccccH
	rep stosd
	pop	ecx
	mov	DWORD PTR _this$[ebp], ecx

; 606  : 		{	// destroy object at _Ptr
; 607  : 		_Ptr->~_Uty();
; 608  : 		}

	pop	edi
	pop	esi
	pop	ebx
	mov	esp, ebp
	pop	ebp
	ret	4
??$destroy@U_Container_proxy@std@@@?$allocator@U_Container_proxy@std@@@std@@QAEXPAU_Container_proxy@1@@Z ENDP ; std::allocator<std::_Container_proxy>::destroy<std::_Container_proxy>
_TEXT	ENDS
; Function compile flags: /Odtp /RTCsu /ZI
; File c:\program files (x86)\microsoft visual studio 12.0\vc\include\xmemory0
;	COMDAT ??$construct@U_Container_proxy@std@@U12@@?$allocator@U_Container_proxy@std@@@std@@QAEXPAU_Container_proxy@1@$$QAU21@@Z
_TEXT	SEGMENT
tv74 = -244						; size = 4
$T2 = -236						; size = 4
$T3 = -224						; size = 4
_this$ = -20						; size = 4
__$EHRec$ = -12						; size = 12
__Ptr$ = 8						; size = 4
_<_Args_0>$ = 12					; size = 4
??$construct@U_Container_proxy@std@@U12@@?$allocator@U_Container_proxy@std@@@std@@QAEXPAU_Container_proxy@1@$$QAU21@@Z PROC ; std::allocator<std::_Container_proxy>::construct<std::_Container_proxy,std::_Container_proxy>, COMDAT
; _this$ = ecx

; 598  : 		void construct(_Objty *_Ptr, _Types&&... _Args)

	push	ebp
	mov	ebp, esp
	push	-1
	push	__ehhandler$??$construct@U_Container_proxy@std@@U12@@?$allocator@U_Container_proxy@std@@@std@@QAEXPAU_Container_proxy@1@$$QAU21@@Z
	mov	eax, DWORD PTR fs:0
	push	eax
	sub	esp, 232				; 000000e8H
	push	ebx
	push	esi
	push	edi
	push	ecx
	lea	edi, DWORD PTR [ebp-244]
	mov	ecx, 58					; 0000003aH
	mov	eax, -858993460				; ccccccccH
	rep stosd
	pop	ecx
	mov	eax, DWORD PTR ___security_cookie
	xor	eax, ebp
	push	eax
	lea	eax, DWORD PTR __$EHRec$[ebp]
	mov	DWORD PTR fs:0, eax
	mov	DWORD PTR _this$[ebp], ecx

; 599  : 		{	// construct _Objty(_Types...) at _Ptr
; 600  : 		::new ((void *)_Ptr) _Objty(_STD forward<_Types>(_Args)...);

	mov	eax, DWORD PTR __Ptr$[ebp]
	push	eax
	push	8
	call	??2@YAPAXIPAX@Z				; operator new
	add	esp, 8
	mov	DWORD PTR $T3[ebp], eax
	mov	DWORD PTR __$EHRec$[ebp+8], 0
	cmp	DWORD PTR $T3[ebp], 0
	je	SHORT $LN3@construct
	mov	ecx, DWORD PTR _<_Args_0>$[ebp]
	push	ecx
	call	??$forward@U_Container_proxy@std@@@std@@YA$$QAU_Container_proxy@0@AAU10@@Z ; std::forward<std::_Container_proxy>
	add	esp, 4
	mov	edx, DWORD PTR [eax]
	mov	eax, DWORD PTR [eax+4]
	mov	ecx, DWORD PTR $T3[ebp]
	mov	DWORD PTR [ecx], edx
	mov	DWORD PTR [ecx+4], eax
	mov	edx, DWORD PTR $T3[ebp]
	mov	DWORD PTR tv74[ebp], edx
	jmp	SHORT $LN4@construct
$LN3@construct:
	mov	DWORD PTR tv74[ebp], 0
$LN4@construct:
	mov	eax, DWORD PTR tv74[ebp]
	mov	DWORD PTR $T2[ebp], eax
	mov	DWORD PTR __$EHRec$[ebp+8], -1

; 601  : 		}

	mov	ecx, DWORD PTR __$EHRec$[ebp]
	mov	DWORD PTR fs:0, ecx
	pop	ecx
	pop	edi
	pop	esi
	pop	ebx
	add	esp, 244				; 000000f4H
	cmp	ebp, esp
	call	__RTC_CheckEsp
	mov	esp, ebp
	pop	ebp
	ret	8
_TEXT	ENDS
;	COMDAT text$x
text$x	SEGMENT
__unwindfunclet$??$construct@U_Container_proxy@std@@U12@@?$allocator@U_Container_proxy@std@@@std@@QAEXPAU_Container_proxy@1@$$QAU21@@Z$0:
	mov	eax, DWORD PTR __Ptr$[ebp]
	push	eax
	mov	eax, DWORD PTR $T3[ebp]
	push	eax
	call	??3@YAXPAX0@Z				; operator delete
	add	esp, 8
	ret	0
__ehhandler$??$construct@U_Container_proxy@std@@U12@@?$allocator@U_Container_proxy@std@@@std@@QAEXPAU_Container_proxy@1@$$QAU21@@Z:
	mov	edx, DWORD PTR [esp+8]
	lea	eax, DWORD PTR [edx+12]
	mov	ecx, DWORD PTR [edx-248]
	xor	ecx, eax
	call	@__security_check_cookie@4
	mov	eax, OFFSET __ehfuncinfo$??$construct@U_Container_proxy@std@@U12@@?$allocator@U_Container_proxy@std@@@std@@QAEXPAU_Container_proxy@1@$$QAU21@@Z
	jmp	___CxxFrameHandler3
text$x	ENDS
??$construct@U_Container_proxy@std@@U12@@?$allocator@U_Container_proxy@std@@@std@@QAEXPAU_Container_proxy@1@$$QAU21@@Z ENDP ; std::allocator<std::_Container_proxy>::construct<std::_Container_proxy,std::_Container_proxy>
; Function compile flags: /Odtp /RTCsu /ZI
; File c:\program files (x86)\microsoft visual studio 12.0\vc\include\xmemory0
;	COMDAT ?allocate@?$allocator@U_Container_proxy@std@@@std@@QAEPAU_Container_proxy@2@I@Z
_TEXT	SEGMENT
_this$ = -8						; size = 4
__Count$ = 8						; size = 4
?allocate@?$allocator@U_Container_proxy@std@@@std@@QAEPAU_Container_proxy@2@I@Z PROC ; std::allocator<std::_Container_proxy>::allocate, COMDAT
; _this$ = ecx

; 577  : 		{	// allocate array of _Count elements

	push	ebp
	mov	ebp, esp
	sub	esp, 204				; 000000ccH
	push	ebx
	push	esi
	push	edi
	push	ecx
	lea	edi, DWORD PTR [ebp-204]
	mov	ecx, 51					; 00000033H
	mov	eax, -858993460				; ccccccccH
	rep stosd
	pop	ecx
	mov	DWORD PTR _this$[ebp], ecx

; 578  : 		return (_Allocate(_Count, (pointer)0));

	push	0
	mov	eax, DWORD PTR __Count$[ebp]
	push	eax
	call	??$_Allocate@U_Container_proxy@std@@@std@@YAPAU_Container_proxy@0@IPAU10@@Z ; std::_Allocate<std::_Container_proxy>
	add	esp, 8

; 579  : 		}

	pop	edi
	pop	esi
	pop	ebx
	add	esp, 204				; 000000ccH
	cmp	ebp, esp
	call	__RTC_CheckEsp
	mov	esp, ebp
	pop	ebp
	ret	4
?allocate@?$allocator@U_Container_proxy@std@@@std@@QAEPAU_Container_proxy@2@I@Z ENDP ; std::allocator<std::_Container_proxy>::allocate
_TEXT	ENDS
; Function compile flags: /Odtp /RTCsu /ZI
; File c:\program files (x86)\microsoft visual studio 12.0\vc\include\xmemory0
;	COMDAT ?deallocate@?$allocator@U_Container_proxy@std@@@std@@QAEXPAU_Container_proxy@2@I@Z
_TEXT	SEGMENT
_this$ = -8						; size = 4
__Ptr$ = 8						; size = 4
___formal$ = 12						; size = 4
?deallocate@?$allocator@U_Container_proxy@std@@@std@@QAEXPAU_Container_proxy@2@I@Z PROC ; std::allocator<std::_Container_proxy>::deallocate, COMDAT
; _this$ = ecx

; 572  : 		{	// deallocate object at _Ptr, ignore size

	push	ebp
	mov	ebp, esp
	sub	esp, 204				; 000000ccH
	push	ebx
	push	esi
	push	edi
	push	ecx
	lea	edi, DWORD PTR [ebp-204]
	mov	ecx, 51					; 00000033H
	mov	eax, -858993460				; ccccccccH
	rep stosd
	pop	ecx
	mov	DWORD PTR _this$[ebp], ecx

; 573  : 		::operator delete(_Ptr);

	mov	eax, DWORD PTR __Ptr$[ebp]
	push	eax
	call	??3@YAXPAX@Z				; operator delete
	add	esp, 4

; 574  : 		}

	pop	edi
	pop	esi
	pop	ebx
	add	esp, 204				; 000000ccH
	cmp	ebp, esp
	call	__RTC_CheckEsp
	mov	esp, ebp
	pop	ebp
	ret	8
?deallocate@?$allocator@U_Container_proxy@std@@@std@@QAEXPAU_Container_proxy@2@I@Z ENDP ; std::allocator<std::_Container_proxy>::deallocate
_TEXT	ENDS
; Function compile flags: /Odtp /RTCsu /ZI
; File c:\program files (x86)\microsoft visual studio 12.0\vc\include\xmemory0
;	COMDAT ??0?$allocator@U_Container_proxy@std@@@std@@QAE@XZ
_TEXT	SEGMENT
_this$ = -8						; size = 4
??0?$allocator@U_Container_proxy@std@@@std@@QAE@XZ PROC	; std::allocator<std::_Container_proxy>::allocator<std::_Container_proxy>, COMDAT
; _this$ = ecx

; 552  : 	allocator() _THROW0()

	push	ebp
	mov	ebp, esp
	sub	esp, 204				; 000000ccH
	push	ebx
	push	esi
	push	edi
	push	ecx
	lea	edi, DWORD PTR [ebp-204]
	mov	ecx, 51					; 00000033H
	mov	eax, -858993460				; ccccccccH
	rep stosd
	pop	ecx
	mov	DWORD PTR _this$[ebp], ecx

; 553  : 		{	// construct default allocator (do nothing)
; 554  : 		}

	mov	eax, DWORD PTR _this$[ebp]
	pop	edi
	pop	esi
	pop	ebx
	mov	esp, ebp
	pop	ebp
	ret	0
??0?$allocator@U_Container_proxy@std@@@std@@QAE@XZ ENDP	; std::allocator<std::_Container_proxy>::allocator<std::_Container_proxy>
_TEXT	ENDS
; Function compile flags: /Odtp /RTCsu /ZI
; File c:\program files (x86)\microsoft visual studio 12.0\vc\include\xstddef
;	COMDAT ??$addressof@D@std@@YAPADAAD@Z
_TEXT	SEGMENT
__Val$ = 8						; size = 4
??$addressof@D@std@@YAPADAAD@Z PROC			; std::addressof<char>, COMDAT

; 92   : 	{	// return address of _Val

	push	ebp
	mov	ebp, esp
	sub	esp, 192				; 000000c0H
	push	ebx
	push	esi
	push	edi
	lea	edi, DWORD PTR [ebp-192]
	mov	ecx, 48					; 00000030H
	mov	eax, -858993460				; ccccccccH
	rep stosd

; 93   : 	return (reinterpret_cast<_Ty *>(
; 94   : 		(&const_cast<char&>(
; 95   : 		reinterpret_cast<const volatile char&>(_Val)))));

	mov	eax, DWORD PTR __Val$[ebp]

; 96   : 	}

	pop	edi
	pop	esi
	pop	ebx
	mov	esp, ebp
	pop	ebp
	ret	0
??$addressof@D@std@@YAPADAAD@Z ENDP			; std::addressof<char>
_TEXT	ENDS
; Function compile flags: /Odtp /RTCsu /ZI
; File c:\program files (x86)\microsoft visual studio 12.0\vc\include\xmemory0
;	COMDAT ??$destroy@PAD@?$_Wrap_alloc@V?$allocator@D@std@@@std@@QAEXPAPAD@Z
_TEXT	SEGMENT
_this$ = -8						; size = 4
__Ptr$ = 8						; size = 4
??$destroy@PAD@?$_Wrap_alloc@V?$allocator@D@std@@@std@@QAEXPAPAD@Z PROC ; std::_Wrap_alloc<std::allocator<char> >::destroy<char *>, COMDAT
; _this$ = ecx

; 877  : 		void destroy(_Ty *_Ptr)

	push	ebp
	mov	ebp, esp
	sub	esp, 204				; 000000ccH
	push	ebx
	push	esi
	push	edi
	push	ecx
	lea	edi, DWORD PTR [ebp-204]
	mov	ecx, 51					; 00000033H
	mov	eax, -858993460				; ccccccccH
	rep stosd
	pop	ecx
	mov	DWORD PTR _this$[ebp], ecx

; 878  : 		{	// destroy object at _Ptr
; 879  : 		_Mytraits::destroy(*this, _Ptr);

	mov	eax, DWORD PTR __Ptr$[ebp]
	push	eax
	mov	ecx, DWORD PTR _this$[ebp]
	push	ecx
	call	??$destroy@PAD@?$allocator_traits@V?$allocator@D@std@@@std@@SAXAAV?$allocator@D@1@PAPAD@Z ; std::allocator_traits<std::allocator<char> >::destroy<char *>
	add	esp, 8

; 880  : 		}

	pop	edi
	pop	esi
	pop	ebx
	add	esp, 204				; 000000ccH
	cmp	ebp, esp
	call	__RTC_CheckEsp
	mov	esp, ebp
	pop	ebp
	ret	4
??$destroy@PAD@?$_Wrap_alloc@V?$allocator@D@std@@@std@@QAEXPAPAD@Z ENDP ; std::_Wrap_alloc<std::allocator<char> >::destroy<char *>
_TEXT	ENDS
; Function compile flags: /Odtp /RTCsu /ZI
; File c:\program files (x86)\microsoft visual studio 12.0\vc\include\xmemory0
;	COMDAT ??$construct@PADAAPAD@?$_Wrap_alloc@V?$allocator@D@std@@@std@@QAEXPAPADAAPAD@Z
_TEXT	SEGMENT
_this$ = -8						; size = 4
__Ptr$ = 8						; size = 4
_<_Args_0>$ = 12					; size = 4
??$construct@PADAAPAD@?$_Wrap_alloc@V?$allocator@D@std@@@std@@QAEXPAPADAAPAD@Z PROC ; std::_Wrap_alloc<std::allocator<char> >::construct<char *,char * &>, COMDAT
; _this$ = ecx

; 868  : 		void construct(_Ty *_Ptr,

	push	ebp
	mov	ebp, esp
	sub	esp, 204				; 000000ccH
	push	ebx
	push	esi
	push	edi
	push	ecx
	lea	edi, DWORD PTR [ebp-204]
	mov	ecx, 51					; 00000033H
	mov	eax, -858993460				; ccccccccH
	rep stosd
	pop	ecx
	mov	DWORD PTR _this$[ebp], ecx

; 869  : 			_Types&&... _Args)
; 870  : 		{	// construct _Ty(_Types...) at _Ptr
; 871  : 		_Mytraits::construct(*this, _Ptr,
; 872  : 			_STD forward<_Types>(_Args)...);

	mov	eax, DWORD PTR _<_Args_0>$[ebp]
	push	eax
	call	??$forward@AAPAD@std@@YAAAPADAAPAD@Z	; std::forward<char * &>
	add	esp, 4
	push	eax
	mov	ecx, DWORD PTR __Ptr$[ebp]
	push	ecx
	mov	edx, DWORD PTR _this$[ebp]
	push	edx
	call	??$construct@PADAAPAD@?$allocator_traits@V?$allocator@D@std@@@std@@SAXAAV?$allocator@D@1@PAPADAAPAD@Z ; std::allocator_traits<std::allocator<char> >::construct<char *,char * &>
	add	esp, 12					; 0000000cH

; 873  : 		}

	pop	edi
	pop	esi
	pop	ebx
	add	esp, 204				; 000000ccH
	cmp	ebp, esp
	call	__RTC_CheckEsp
	mov	esp, ebp
	pop	ebp
	ret	8
??$construct@PADAAPAD@?$_Wrap_alloc@V?$allocator@D@std@@@std@@QAEXPAPADAAPAD@Z ENDP ; std::_Wrap_alloc<std::allocator<char> >::construct<char *,char * &>
_TEXT	ENDS
; Function compile flags: /Odtp /RTCsu /ZI
; File c:\users\simon\documents\github\uclan-sparta\renderobject.cpp
;	COMDAT ?Update@CRenderObject@@QAEXM@Z
_TEXT	SEGMENT
_currRotation$ = -40					; size = 12
_hue$1 = -20						; size = 4
_this$ = -8						; size = 4
_frameTime$ = 8						; size = 4
?Update@CRenderObject@@QAEXM@Z PROC			; CRenderObject::Update, COMDAT
; _this$ = ecx

; 90   : {

	push	ebp
	mov	ebp, esp
	sub	esp, 236				; 000000ecH
	push	ebx
	push	esi
	push	edi
	push	ecx
	lea	edi, DWORD PTR [ebp-236]
	mov	ecx, 59					; 0000003bH
	mov	eax, -858993460				; ccccccccH
	rep stosd
	pop	ecx
	mov	DWORD PTR _this$[ebp], ecx

; 91   : 	mCumulativeTime += frameTime;

	mov	eax, DWORD PTR _this$[ebp]
	movss	xmm0, DWORD PTR [eax+36]
	addss	xmm0, DWORD PTR _frameTime$[ebp]
	mov	ecx, DWORD PTR _this$[ebp]
	movss	DWORD PTR [ecx+36], xmm0

; 92   : 	if( mColourCycle )

	mov	eax, DWORD PTR _this$[ebp]
	movzx	ecx, BYTE PTR [eax+40]
	test	ecx, ecx
	je	SHORT $LN4@Update

; 93   : 	{
; 94   : 		float hue = fmodf(mCumulativeTime, 1.0f);

	push	ecx
	movss	xmm0, DWORD PTR __real@3f800000
	movss	DWORD PTR [esp], xmm0
	mov	eax, DWORD PTR _this$[ebp]
	push	ecx
	movss	xmm0, DWORD PTR [eax+36]
	movss	DWORD PTR [esp], xmm0
	call	_fmodf
	add	esp, 8
	fstp	DWORD PTR _hue$1[ebp]

; 95   : 		fHSLToRGB( hue, 0.5f, 0.5f,mr, mg, mb);

	mov	eax, DWORD PTR _this$[ebp]
	add	eax, 12					; 0000000cH
	push	eax
	mov	ecx, DWORD PTR _this$[ebp]
	add	ecx, 8
	push	ecx
	mov	edx, DWORD PTR _this$[ebp]
	add	edx, 4
	push	edx
	push	ecx
	movss	xmm0, DWORD PTR __real@3f000000
	movss	DWORD PTR [esp], xmm0
	push	ecx
	movss	xmm0, DWORD PTR __real@3f000000
	movss	DWORD PTR [esp], xmm0
	push	ecx
	movss	xmm0, DWORD PTR _hue$1[ebp]
	movss	DWORD PTR [esp], xmm0
	call	?fHSLToRGB@@YAXMMMAAM00@Z		; fHSLToRGB
	add	esp, 24					; 00000018H
$LN4@Update:

; 96   : 	}
; 97   : 
; 98   : 	DirectX::XMFLOAT3 currRotation = mModel->GetRotation();

	lea	eax, DWORD PTR _currRotation$[ebp]
	push	eax
	mov	ecx, DWORD PTR _this$[ebp]
	mov	ecx, DWORD PTR [ecx]
	call	?GetRotation@CModel@@QAE?AUXMFLOAT3@DirectX@@XZ ; CModel::GetRotation

; 99   : 
; 100  : 	if( mSpinX )

	mov	eax, DWORD PTR _this$[ebp]
	movzx	ecx, BYTE PTR [eax+41]
	test	ecx, ecx
	je	SHORT $LN3@Update

; 101  : 	{
; 102  : 		currRotation.x += mSpinXRate * frameTime;

	mov	eax, DWORD PTR _this$[ebp]
	movss	xmm0, DWORD PTR [eax+44]
	mulss	xmm0, DWORD PTR _frameTime$[ebp]
	addss	xmm0, DWORD PTR _currRotation$[ebp]
	movss	DWORD PTR _currRotation$[ebp], xmm0
$LN3@Update:

; 103  : 	}
; 104  : 
; 105  : 	if( mSpinY )

	mov	eax, DWORD PTR _this$[ebp]
	movzx	ecx, BYTE PTR [eax+42]
	test	ecx, ecx
	je	SHORT $LN2@Update

; 106  : 	{
; 107  : 		currRotation.y += mSpinYRate * frameTime;

	mov	eax, DWORD PTR _this$[ebp]
	movss	xmm0, DWORD PTR [eax+48]
	mulss	xmm0, DWORD PTR _frameTime$[ebp]
	addss	xmm0, DWORD PTR _currRotation$[ebp+4]
	movss	DWORD PTR _currRotation$[ebp+4], xmm0
$LN2@Update:

; 108  : 	}
; 109  : 
; 110  : 	if( mSpinZ )

	mov	eax, DWORD PTR _this$[ebp]
	movzx	ecx, BYTE PTR [eax+43]
	test	ecx, ecx
	je	SHORT $LN1@Update

; 111  : 	{
; 112  : 		currRotation.z += mSpinZRate * frameTime;

	mov	eax, DWORD PTR _this$[ebp]
	movss	xmm0, DWORD PTR [eax+52]
	mulss	xmm0, DWORD PTR _frameTime$[ebp]
	addss	xmm0, DWORD PTR _currRotation$[ebp+8]
	movss	DWORD PTR _currRotation$[ebp+8], xmm0
$LN1@Update:

; 113  : 	}
; 114  : 
; 115  : 	mWiggleValue += frameTime * mWiggleRate;

	mov	eax, DWORD PTR _this$[ebp]
	movss	xmm0, DWORD PTR _frameTime$[ebp]
	mulss	xmm0, DWORD PTR [eax+60]
	mov	ecx, DWORD PTR _this$[ebp]
	addss	xmm0, DWORD PTR [ecx+64]
	mov	edx, DWORD PTR _this$[ebp]
	movss	DWORD PTR [edx+64], xmm0

; 116  : 
; 117  : 	mModel->SetRotation(currRotation);

	sub	esp, 12					; 0000000cH
	mov	eax, esp
	mov	ecx, DWORD PTR _currRotation$[ebp]
	mov	DWORD PTR [eax], ecx
	mov	edx, DWORD PTR _currRotation$[ebp+4]
	mov	DWORD PTR [eax+4], edx
	mov	ecx, DWORD PTR _currRotation$[ebp+8]
	mov	DWORD PTR [eax+8], ecx
	mov	edx, DWORD PTR _this$[ebp]
	mov	ecx, DWORD PTR [edx]
	call	?SetRotation@CModel@@QAEXUXMFLOAT3@DirectX@@@Z ; CModel::SetRotation

; 118  : 
; 119  : 	mModel->UpdateMatrix();

	mov	eax, DWORD PTR _this$[ebp]
	mov	ecx, DWORD PTR [eax]
	call	?UpdateMatrix@CModel@@QAEXXZ		; CModel::UpdateMatrix

; 120  : }

	push	edx
	mov	ecx, ebp
	push	eax
	lea	edx, DWORD PTR $LN9@Update
	call	@_RTC_CheckStackVars@8
	pop	eax
	pop	edx
	pop	edi
	pop	esi
	pop	ebx
	add	esp, 236				; 000000ecH
	cmp	ebp, esp
	call	__RTC_CheckEsp
	mov	esp, ebp
	pop	ebp
	ret	4
$LN9@Update:
	DD	1
	DD	$LN8@Update
$LN8@Update:
	DD	-40					; ffffffd8H
	DD	12					; 0000000cH
	DD	$LN7@Update
$LN7@Update:
	DB	99					; 00000063H
	DB	117					; 00000075H
	DB	114					; 00000072H
	DB	114					; 00000072H
	DB	82					; 00000052H
	DB	111					; 0000006fH
	DB	116					; 00000074H
	DB	97					; 00000061H
	DB	116					; 00000074H
	DB	105					; 00000069H
	DB	111					; 0000006fH
	DB	110					; 0000006eH
	DB	0
?Update@CRenderObject@@QAEXM@Z ENDP			; CRenderObject::Update
_TEXT	ENDS
; Function compile flags: /Odtp /RTCsu /ZI
; File c:\users\simon\documents\github\uclan-sparta\renderobject.cpp
;	COMDAT ?SetColour@CRenderObject@@QAEXHHH@Z
_TEXT	SEGMENT
_this$ = -8						; size = 4
_red$ = 8						; size = 4
_green$ = 12						; size = 4
_blue$ = 16						; size = 4
?SetColour@CRenderObject@@QAEXHHH@Z PROC		; CRenderObject::SetColour, COMDAT
; _this$ = ecx

; 83   : {

	push	ebp
	mov	ebp, esp
	sub	esp, 204				; 000000ccH
	push	ebx
	push	esi
	push	edi
	push	ecx
	lea	edi, DWORD PTR [ebp-204]
	mov	ecx, 51					; 00000033H
	mov	eax, -858993460				; ccccccccH
	rep stosd
	pop	ecx
	mov	DWORD PTR _this$[ebp], ecx

; 84   : 	mr = float((red % 256) / 255);

	mov	eax, DWORD PTR _red$[ebp]
	and	eax, -2147483393			; 800000ffH
	jns	SHORT $LN3@SetColour
	dec	eax
	or	eax, -256				; ffffff00H
	inc	eax
$LN3@SetColour:
	cdq
	mov	ecx, 255				; 000000ffH
	idiv	ecx
	cvtsi2ss xmm0, eax
	mov	edx, DWORD PTR _this$[ebp]
	movss	DWORD PTR [edx+4], xmm0

; 85   : 	mg = float((green % 256) / 255);

	mov	eax, DWORD PTR _green$[ebp]
	and	eax, -2147483393			; 800000ffH
	jns	SHORT $LN4@SetColour
	dec	eax
	or	eax, -256				; ffffff00H
	inc	eax
$LN4@SetColour:
	cdq
	mov	ecx, 255				; 000000ffH
	idiv	ecx
	cvtsi2ss xmm0, eax
	mov	edx, DWORD PTR _this$[ebp]
	movss	DWORD PTR [edx+8], xmm0

; 86   : 	mb = float((blue % 256) / 255);

	mov	eax, DWORD PTR _blue$[ebp]
	and	eax, -2147483393			; 800000ffH
	jns	SHORT $LN5@SetColour
	dec	eax
	or	eax, -256				; ffffff00H
	inc	eax
$LN5@SetColour:
	cdq
	mov	ecx, 255				; 000000ffH
	idiv	ecx
	cvtsi2ss xmm0, eax
	mov	edx, DWORD PTR _this$[ebp]
	movss	DWORD PTR [edx+12], xmm0

; 87   : }

	pop	edi
	pop	esi
	pop	ebx
	mov	esp, ebp
	pop	ebp
	ret	12					; 0000000cH
?SetColour@CRenderObject@@QAEXHHH@Z ENDP		; CRenderObject::SetColour
_TEXT	ENDS
; Function compile flags: /Odtp /RTCsu /ZI
; File c:\users\simon\documents\github\uclan-sparta\renderobject.cpp
;	COMDAT ?SetColour@CRenderObject@@QAEXUXMFLOAT3@DirectX@@@Z
_TEXT	SEGMENT
_this$ = -8						; size = 4
_colour$ = 8						; size = 12
?SetColour@CRenderObject@@QAEXUXMFLOAT3@DirectX@@@Z PROC ; CRenderObject::SetColour, COMDAT
; _this$ = ecx

; 76   : {

	push	ebp
	mov	ebp, esp
	sub	esp, 204				; 000000ccH
	push	ebx
	push	esi
	push	edi
	push	ecx
	lea	edi, DWORD PTR [ebp-204]
	mov	ecx, 51					; 00000033H
	mov	eax, -858993460				; ccccccccH
	rep stosd
	pop	ecx
	mov	DWORD PTR _this$[ebp], ecx

; 77   : 	mr = colour.x;

	mov	eax, DWORD PTR _this$[ebp]
	movss	xmm0, DWORD PTR _colour$[ebp]
	movss	DWORD PTR [eax+4], xmm0

; 78   : 	mg = colour.y;

	mov	eax, DWORD PTR _this$[ebp]
	movss	xmm0, DWORD PTR _colour$[ebp+4]
	movss	DWORD PTR [eax+8], xmm0

; 79   : 	mb = colour.z;

	mov	eax, DWORD PTR _this$[ebp]
	movss	xmm0, DWORD PTR _colour$[ebp+8]
	movss	DWORD PTR [eax+12], xmm0

; 80   : }

	pop	edi
	pop	esi
	pop	ebx
	mov	esp, ebp
	pop	ebp
	ret	12					; 0000000cH
?SetColour@CRenderObject@@QAEXUXMFLOAT3@DirectX@@@Z ENDP ; CRenderObject::SetColour
_TEXT	ENDS
; Function compile flags: /Odtp /RTCsu /ZI
; File c:\users\simon\documents\github\uclan-sparta\renderobject.cpp
;	COMDAT ?SetColour@CRenderObject@@QAEXMMM@Z
_TEXT	SEGMENT
_this$ = -8						; size = 4
_red$ = 8						; size = 4
_green$ = 12						; size = 4
_blue$ = 16						; size = 4
?SetColour@CRenderObject@@QAEXMMM@Z PROC		; CRenderObject::SetColour, COMDAT
; _this$ = ecx

; 69   : { 

	push	ebp
	mov	ebp, esp
	sub	esp, 204				; 000000ccH
	push	ebx
	push	esi
	push	edi
	push	ecx
	lea	edi, DWORD PTR [ebp-204]
	mov	ecx, 51					; 00000033H
	mov	eax, -858993460				; ccccccccH
	rep stosd
	pop	ecx
	mov	DWORD PTR _this$[ebp], ecx

; 70   : 	mr = fmodf(red, 1.001f); 

	push	ecx
	movss	xmm0, DWORD PTR __real@3f8020c5
	movss	DWORD PTR [esp], xmm0
	push	ecx
	movss	xmm0, DWORD PTR _red$[ebp]
	movss	DWORD PTR [esp], xmm0
	call	_fmodf
	add	esp, 8
	mov	eax, DWORD PTR _this$[ebp]
	fstp	DWORD PTR [eax+4]

; 71   : 	mg = fmodf(green, 1.001f); 

	push	ecx
	movss	xmm0, DWORD PTR __real@3f8020c5
	movss	DWORD PTR [esp], xmm0
	push	ecx
	movss	xmm0, DWORD PTR _green$[ebp]
	movss	DWORD PTR [esp], xmm0
	call	_fmodf
	add	esp, 8
	mov	eax, DWORD PTR _this$[ebp]
	fstp	DWORD PTR [eax+8]

; 72   : 	mb = fmodf(blue, 1.001f); 

	push	ecx
	movss	xmm0, DWORD PTR __real@3f8020c5
	movss	DWORD PTR [esp], xmm0
	push	ecx
	movss	xmm0, DWORD PTR _blue$[ebp]
	movss	DWORD PTR [esp], xmm0
	call	_fmodf
	add	esp, 8
	mov	eax, DWORD PTR _this$[ebp]
	fstp	DWORD PTR [eax+12]

; 73   : }

	pop	edi
	pop	esi
	pop	ebx
	add	esp, 204				; 000000ccH
	cmp	ebp, esp
	call	__RTC_CheckEsp
	mov	esp, ebp
	pop	ebp
	ret	12					; 0000000cH
?SetColour@CRenderObject@@QAEXMMM@Z ENDP		; CRenderObject::SetColour
_TEXT	ENDS
; Function compile flags: /Odtp /RTCsu /ZI
; File c:\users\simon\documents\github\uclan-sparta\renderobject.cpp
;	COMDAT ??1CRenderObject@@QAE@XZ
_TEXT	SEGMENT
tv69 = -232						; size = 4
$T1 = -224						; size = 4
$T2 = -212						; size = 4
_this$ = -8						; size = 4
??1CRenderObject@@QAE@XZ PROC				; CRenderObject::~CRenderObject, COMDAT
; _this$ = ecx

; 64   : {

	push	ebp
	mov	ebp, esp
	sub	esp, 232				; 000000e8H
	push	ebx
	push	esi
	push	edi
	push	ecx
	lea	edi, DWORD PTR [ebp-232]
	mov	ecx, 58					; 0000003aH
	mov	eax, -858993460				; ccccccccH
	rep stosd
	pop	ecx
	mov	DWORD PTR _this$[ebp], ecx

; 65   : 	delete mModel;

	mov	eax, DWORD PTR _this$[ebp]
	mov	ecx, DWORD PTR [eax]
	mov	DWORD PTR $T2[ebp], ecx
	mov	edx, DWORD PTR $T2[ebp]
	mov	DWORD PTR $T1[ebp], edx
	cmp	DWORD PTR $T1[ebp], 0
	je	SHORT $LN3@CRenderObj
	push	1
	mov	ecx, DWORD PTR $T1[ebp]
	call	??_GCModel@@QAEPAXI@Z
	mov	DWORD PTR tv69[ebp], eax
	jmp	SHORT $LN1@CRenderObj
$LN3@CRenderObj:
	mov	DWORD PTR tv69[ebp], 0
$LN1@CRenderObj:

; 66   : }

	pop	edi
	pop	esi
	pop	ebx
	add	esp, 232				; 000000e8H
	cmp	ebp, esp
	call	__RTC_CheckEsp
	mov	esp, ebp
	pop	ebp
	ret	0
??1CRenderObject@@QAE@XZ ENDP				; CRenderObject::~CRenderObject
_TEXT	ENDS
; Function compile flags: /Odtp /RTCsu /ZI
; File c:\users\simon\documents\github\uclan-sparta\renderobject.cpp
;	COMDAT ??0CRenderObject@@QAE@QADUXMFLOAT3@DirectX@@1PAUID3DX11EffectTechnique@@2PAUID3D11ShaderResourceView@@3_N44@Z
_TEXT	SEGMENT
tv80 = -304						; size = 4
$T2 = -296						; size = 28
$T3 = -260						; size = 4
$T4 = -248						; size = 4
$T5 = -236						; size = 12
_this$ = -24						; size = 4
__$ArrayPad$ = -16					; size = 4
__$EHRec$ = -12						; size = 12
_file$ = 8						; size = 4
_position$ = 12						; size = 12
_colour$ = 24						; size = 12
_technique$ = 36					; size = 4
_mirrorTechnique$ = 40					; size = 4
_texture$ = 44						; size = 4
_normmap$ = 48						; size = 4
_lit$ = 52						; size = 1
_transparent$ = 56					; size = 1
_tangents$ = 60						; size = 1
??0CRenderObject@@QAE@QADUXMFLOAT3@DirectX@@1PAUID3DX11EffectTechnique@@2PAUID3D11ShaderResourceView@@3_N44@Z PROC ; CRenderObject::CRenderObject, COMDAT
; _this$ = ecx

; 28   : {

	push	ebp
	mov	ebp, esp
	push	-1
	push	__ehhandler$??0CRenderObject@@QAE@QADUXMFLOAT3@DirectX@@1PAUID3DX11EffectTechnique@@2PAUID3D11ShaderResourceView@@3_N44@Z
	mov	eax, DWORD PTR fs:0
	push	eax
	sub	esp, 292				; 00000124H
	push	ebx
	push	esi
	push	edi
	push	ecx
	lea	edi, DWORD PTR [ebp-304]
	mov	ecx, 73					; 00000049H
	mov	eax, -858993460				; ccccccccH
	rep stosd
	pop	ecx
	mov	eax, DWORD PTR ___security_cookie
	xor	eax, ebp
	mov	DWORD PTR __$ArrayPad$[ebp], eax
	push	eax
	lea	eax, DWORD PTR __$EHRec$[ebp]
	mov	DWORD PTR fs:0, eax
	mov	DWORD PTR _this$[ebp], ecx

; 29   : 	mModel = new CModel(position, DirectX::XMFLOAT3(0,0,0), 1.0f);

	push	2000					; 000007d0H
	call	??2@YAPAXI@Z				; operator new
	add	esp, 4
	mov	DWORD PTR $T4[ebp], eax
	mov	DWORD PTR __$EHRec$[ebp+8], 0
	cmp	DWORD PTR $T4[ebp], 0
	je	$LN3@CRenderObj
	push	ecx
	movss	xmm0, DWORD PTR __real@3f800000
	movss	DWORD PTR [esp], xmm0
	push	ecx
	movss	xmm0, DWORD PTR __real@00000000
	movss	DWORD PTR [esp], xmm0
	push	ecx
	movss	xmm0, DWORD PTR __real@00000000
	movss	DWORD PTR [esp], xmm0
	push	ecx
	movss	xmm0, DWORD PTR __real@00000000
	movss	DWORD PTR [esp], xmm0
	lea	ecx, DWORD PTR $T5[ebp]
	call	??0XMFLOAT3@DirectX@@QAE@MMM@Z		; DirectX::XMFLOAT3::XMFLOAT3
	sub	esp, 12					; 0000000cH
	mov	ecx, esp
	mov	edx, DWORD PTR [eax]
	mov	DWORD PTR [ecx], edx
	mov	edx, DWORD PTR [eax+4]
	mov	DWORD PTR [ecx+4], edx
	mov	eax, DWORD PTR [eax+8]
	mov	DWORD PTR [ecx+8], eax
	sub	esp, 12					; 0000000cH
	mov	ecx, esp
	mov	edx, DWORD PTR _position$[ebp]
	mov	DWORD PTR [ecx], edx
	mov	eax, DWORD PTR _position$[ebp+4]
	mov	DWORD PTR [ecx+4], eax
	mov	edx, DWORD PTR _position$[ebp+8]
	mov	DWORD PTR [ecx+8], edx
	mov	ecx, DWORD PTR $T4[ebp]
	call	??0CModel@@QAE@UXMFLOAT3@DirectX@@0M@Z	; CModel::CModel
	mov	DWORD PTR tv80[ebp], eax
	jmp	SHORT $LN4@CRenderObj
$LN3@CRenderObj:
	mov	DWORD PTR tv80[ebp], 0
$LN4@CRenderObj:
	mov	eax, DWORD PTR tv80[ebp]
	mov	DWORD PTR $T3[ebp], eax
	mov	DWORD PTR __$EHRec$[ebp+8], -1
	mov	ecx, DWORD PTR _this$[ebp]
	mov	edx, DWORD PTR $T3[ebp]
	mov	DWORD PTR [ecx], edx

; 30   : 	mModel->Load( file, technique, tangents );

	mov	eax, DWORD PTR _file$[ebp]
	push	eax
	lea	ecx, DWORD PTR $T2[ebp]
	call	??0?$basic_string@DU?$char_traits@D@std@@V?$allocator@D@2@@std@@QAE@PBD@Z ; std::basic_string<char,std::char_traits<char>,std::allocator<char> >::basic_string<char,std::char_traits<char>,std::allocator<char> >
	mov	DWORD PTR __$EHRec$[ebp+8], 1
	movzx	ecx, BYTE PTR _tangents$[ebp]
	push	ecx
	mov	edx, DWORD PTR _technique$[ebp]
	push	edx
	lea	eax, DWORD PTR $T2[ebp]
	push	eax
	mov	ecx, DWORD PTR _this$[ebp]
	mov	ecx, DWORD PTR [ecx]
	call	?Load@CModel@@QAE_NABV?$basic_string@DU?$char_traits@D@std@@V?$allocator@D@2@@std@@PAUID3DX11EffectTechnique@@_N@Z ; CModel::Load
	mov	DWORD PTR __$EHRec$[ebp+8], -1
	lea	ecx, DWORD PTR $T2[ebp]
	call	??1?$basic_string@DU?$char_traits@D@std@@V?$allocator@D@2@@std@@QAE@XZ ; std::basic_string<char,std::char_traits<char>,std::allocator<char> >::~basic_string<char,std::char_traits<char>,std::allocator<char> >

; 31   : 	//mModel->SetPosition( position );
; 32   : 
; 33   : 	mr = colour.x;

	mov	eax, DWORD PTR _this$[ebp]
	movss	xmm0, DWORD PTR _colour$[ebp]
	movss	DWORD PTR [eax+4], xmm0

; 34   : 	mg = colour.y;

	mov	eax, DWORD PTR _this$[ebp]
	movss	xmm0, DWORD PTR _colour$[ebp+4]
	movss	DWORD PTR [eax+8], xmm0

; 35   : 	mb = colour.z;

	mov	eax, DWORD PTR _this$[ebp]
	movss	xmm0, DWORD PTR _colour$[ebp+8]
	movss	DWORD PTR [eax+12], xmm0

; 36   : 
; 37   : 	mTechnique = technique;

	mov	eax, DWORD PTR _this$[ebp]
	mov	ecx, DWORD PTR _technique$[ebp]
	mov	DWORD PTR [eax+16], ecx

; 38   : 	mMirrorTechnique = mirrorTechnique;

	mov	eax, DWORD PTR _this$[ebp]
	mov	ecx, DWORD PTR _mirrorTechnique$[ebp]
	mov	DWORD PTR [eax+20], ecx

; 39   : 
; 40   : 	mTexture = texture;

	mov	eax, DWORD PTR _this$[ebp]
	mov	ecx, DWORD PTR _texture$[ebp]
	mov	DWORD PTR [eax+24], ecx

; 41   : 
; 42   : 	mNormMap = normmap;

	mov	eax, DWORD PTR _this$[ebp]
	mov	ecx, DWORD PTR _normmap$[ebp]
	mov	DWORD PTR [eax+28], ecx

; 43   : 
; 44   : 	mIsLit = lit;

	mov	eax, DWORD PTR _this$[ebp]
	mov	cl, BYTE PTR _lit$[ebp]
	mov	BYTE PTR [eax+32], cl

; 45   : 
; 46   : 	mIsTransparent = transparent;

	mov	eax, DWORD PTR _this$[ebp]
	mov	cl, BYTE PTR _transparent$[ebp]
	mov	BYTE PTR [eax+33], cl

; 47   : 
; 48   : 	mColourCycle = false;

	mov	eax, DWORD PTR _this$[ebp]
	mov	BYTE PTR [eax+40], 0

; 49   : 
; 50   : 	mCumulativeTime = 0.0f;

	mov	eax, DWORD PTR _this$[ebp]
	movss	xmm0, DWORD PTR __real@00000000
	movss	DWORD PTR [eax+36], xmm0

; 51   : 
; 52   : 	mSpinX = false;

	mov	eax, DWORD PTR _this$[ebp]
	mov	BYTE PTR [eax+41], 0

; 53   : 	mSpinY = false;

	mov	eax, DWORD PTR _this$[ebp]
	mov	BYTE PTR [eax+42], 0

; 54   : 	mSpinZ = false;

	mov	eax, DWORD PTR _this$[ebp]
	mov	BYTE PTR [eax+43], 0

; 55   : 
; 56   : 	mWiggle = false;

	mov	eax, DWORD PTR _this$[ebp]
	mov	BYTE PTR [eax+56], 0

; 57   : 	mWiggleRate = 0.0f;

	mov	eax, DWORD PTR _this$[ebp]
	movss	xmm0, DWORD PTR __real@00000000
	movss	DWORD PTR [eax+60], xmm0

; 58   : 	mWiggleValue = 0.0f;

	mov	eax, DWORD PTR _this$[ebp]
	movss	xmm0, DWORD PTR __real@00000000
	movss	DWORD PTR [eax+64], xmm0

; 59   : 
; 60   : 	mOutlineThickness = 0.05f;

	mov	eax, DWORD PTR _this$[ebp]
	movss	xmm0, DWORD PTR __real@3d4ccccd
	movss	DWORD PTR [eax+68], xmm0

; 61   : }

	mov	eax, DWORD PTR _this$[ebp]
	mov	ecx, DWORD PTR __$EHRec$[ebp]
	mov	DWORD PTR fs:0, ecx
	pop	ecx
	pop	edi
	pop	esi
	pop	ebx
	mov	ecx, DWORD PTR __$ArrayPad$[ebp]
	xor	ecx, ebp
	call	@__security_check_cookie@4
	add	esp, 304				; 00000130H
	cmp	ebp, esp
	call	__RTC_CheckEsp
	mov	esp, ebp
	pop	ebp
	ret	56					; 00000038H
_TEXT	ENDS
;	COMDAT text$x
text$x	SEGMENT
__unwindfunclet$??0CRenderObject@@QAE@QADUXMFLOAT3@DirectX@@1PAUID3DX11EffectTechnique@@2PAUID3D11ShaderResourceView@@3_N44@Z$0:
	mov	eax, DWORD PTR $T4[ebp]
	push	eax
	call	??3@YAXPAX@Z				; operator delete
	pop	ecx
	ret	0
__unwindfunclet$??0CRenderObject@@QAE@QADUXMFLOAT3@DirectX@@1PAUID3DX11EffectTechnique@@2PAUID3D11ShaderResourceView@@3_N44@Z$1:
	lea	ecx, DWORD PTR $T2[ebp]
	jmp	??1?$basic_string@DU?$char_traits@D@std@@V?$allocator@D@2@@std@@QAE@XZ ; std::basic_string<char,std::char_traits<char>,std::allocator<char> >::~basic_string<char,std::char_traits<char>,std::allocator<char> >
__ehhandler$??0CRenderObject@@QAE@QADUXMFLOAT3@DirectX@@1PAUID3DX11EffectTechnique@@2PAUID3D11ShaderResourceView@@3_N44@Z:
	mov	edx, DWORD PTR [esp+8]
	lea	eax, DWORD PTR [edx+12]
	mov	ecx, DWORD PTR [edx-308]
	xor	ecx, eax
	call	@__security_check_cookie@4
	mov	ecx, DWORD PTR [edx-4]
	xor	ecx, eax
	call	@__security_check_cookie@4
	mov	eax, OFFSET __ehfuncinfo$??0CRenderObject@@QAE@QADUXMFLOAT3@DirectX@@1PAUID3DX11EffectTechnique@@2PAUID3D11ShaderResourceView@@3_N44@Z
	jmp	___CxxFrameHandler3
text$x	ENDS
??0CRenderObject@@QAE@QADUXMFLOAT3@DirectX@@1PAUID3DX11EffectTechnique@@2PAUID3D11ShaderResourceView@@3_N44@Z ENDP ; CRenderObject::CRenderObject
; Function compile flags: /Odtp /RTCsu /ZI
;	COMDAT ??_GCModel@@QAEPAXI@Z
_TEXT	SEGMENT
_this$ = -8						; size = 4
___flags$ = 8						; size = 4
??_GCModel@@QAEPAXI@Z PROC				; CModel::`scalar deleting destructor', COMDAT
; _this$ = ecx
	push	ebp
	mov	ebp, esp
	sub	esp, 204				; 000000ccH
	push	ebx
	push	esi
	push	edi
	push	ecx
	lea	edi, DWORD PTR [ebp-204]
	mov	ecx, 51					; 00000033H
	mov	eax, -858993460				; ccccccccH
	rep stosd
	pop	ecx
	mov	DWORD PTR _this$[ebp], ecx
	mov	ecx, DWORD PTR _this$[ebp]
	call	??1CModel@@QAE@XZ			; CModel::~CModel
	mov	eax, DWORD PTR ___flags$[ebp]
	and	eax, 1
	je	SHORT $LN1@scalar
	mov	eax, DWORD PTR _this$[ebp]
	push	eax
	call	??3@YAXPAX@Z				; operator delete
	add	esp, 4
$LN1@scalar:
	mov	eax, DWORD PTR _this$[ebp]
	pop	edi
	pop	esi
	pop	ebx
	add	esp, 204				; 000000ccH
	cmp	ebp, esp
	call	__RTC_CheckEsp
	mov	esp, ebp
	pop	ebp
	ret	4
??_GCModel@@QAEPAXI@Z ENDP				; CModel::`scalar deleting destructor'
_TEXT	ENDS
; Function compile flags: /Odtp /RTCsu /ZI
; File c:\users\simon\documents\github\uclan-sparta\model.h
;	COMDAT ?SetRotation@CModel@@QAEXUXMFLOAT3@DirectX@@@Z
_TEXT	SEGMENT
_this$ = -8						; size = 4
_rotation$ = 8						; size = 12
?SetRotation@CModel@@QAEXUXMFLOAT3@DirectX@@@Z PROC	; CModel::SetRotation, COMDAT
; _this$ = ecx

; 142  : 	{

	push	ebp
	mov	ebp, esp
	sub	esp, 204				; 000000ccH
	push	ebx
	push	esi
	push	edi
	push	ecx
	lea	edi, DWORD PTR [ebp-204]
	mov	ecx, 51					; 00000033H
	mov	eax, -858993460				; ccccccccH
	rep stosd
	pop	ecx
	mov	DWORD PTR _this$[ebp], ecx

; 143  : 		m_Rotation = rotation;

	lea	eax, DWORD PTR _rotation$[ebp]
	push	eax
	mov	ecx, DWORD PTR _this$[ebp]
	add	ecx, 20					; 00000014H
	call	??4XMFLOAT3@DirectX@@QAEAAU01@ABU01@@Z	; DirectX::XMFLOAT3::operator=

; 144  : 	}

	pop	edi
	pop	esi
	pop	ebx
	add	esp, 204				; 000000ccH
	cmp	ebp, esp
	call	__RTC_CheckEsp
	mov	esp, ebp
	pop	ebp
	ret	12					; 0000000cH
?SetRotation@CModel@@QAEXUXMFLOAT3@DirectX@@@Z ENDP	; CModel::SetRotation
_TEXT	ENDS
; Function compile flags: /Odtp /RTCsu /ZI
; File c:\users\simon\documents\github\uclan-sparta\model.h
;	COMDAT ?GetRotation@CModel@@QAE?AUXMFLOAT3@DirectX@@XZ
_TEXT	SEGMENT
_this$ = -8						; size = 4
___$ReturnUdt$ = 8					; size = 4
?GetRotation@CModel@@QAE?AUXMFLOAT3@DirectX@@XZ PROC	; CModel::GetRotation, COMDAT
; _this$ = ecx

; 122  : 	{

	push	ebp
	mov	ebp, esp
	sub	esp, 204				; 000000ccH
	push	ebx
	push	esi
	push	edi
	push	ecx
	lea	edi, DWORD PTR [ebp-204]
	mov	ecx, 51					; 00000033H
	mov	eax, -858993460				; ccccccccH
	rep stosd
	pop	ecx
	mov	DWORD PTR _this$[ebp], ecx

; 123  : 		return m_Rotation;

	mov	eax, DWORD PTR _this$[ebp]
	add	eax, 20					; 00000014H
	mov	ecx, DWORD PTR ___$ReturnUdt$[ebp]
	mov	edx, DWORD PTR [eax]
	mov	DWORD PTR [ecx], edx
	mov	edx, DWORD PTR [eax+4]
	mov	DWORD PTR [ecx+4], edx
	mov	eax, DWORD PTR [eax+8]
	mov	DWORD PTR [ecx+8], eax
	mov	eax, DWORD PTR ___$ReturnUdt$[ebp]

; 124  : 	}

	pop	edi
	pop	esi
	pop	ebx
	mov	esp, ebp
	pop	ebp
	ret	4
?GetRotation@CModel@@QAE?AUXMFLOAT3@DirectX@@XZ ENDP	; CModel::GetRotation
_TEXT	ENDS
; Function compile flags: /Odtp /RTCsu /ZI
; File c:\users\simon\documents\github\uclan-sparta\defines.h
;	COMDAT ??__E_ORANGE@@YAXXZ
text$di	SEGMENT
??__E_ORANGE@@YAXXZ PROC				; `dynamic initializer for '_ORANGE'', COMDAT

; 82   : const DirectX::XMFLOAT3 _ORANGE = DirectX::XMFLOAT3(1.0f, 0.5f, 0.1f);

	push	ebp
	mov	ebp, esp
	sub	esp, 192				; 000000c0H
	push	ebx
	push	esi
	push	edi
	lea	edi, DWORD PTR [ebp-192]
	mov	ecx, 48					; 00000030H
	mov	eax, -858993460				; ccccccccH
	rep stosd
	push	ecx
	movss	xmm0, DWORD PTR __real@3dcccccd
	movss	DWORD PTR [esp], xmm0
	push	ecx
	movss	xmm0, DWORD PTR __real@3f000000
	movss	DWORD PTR [esp], xmm0
	push	ecx
	movss	xmm0, DWORD PTR __real@3f800000
	movss	DWORD PTR [esp], xmm0
	mov	ecx, OFFSET __ORANGE
	call	??0XMFLOAT3@DirectX@@QAE@MMM@Z		; DirectX::XMFLOAT3::XMFLOAT3
	pop	edi
	pop	esi
	pop	ebx
	add	esp, 192				; 000000c0H
	cmp	ebp, esp
	call	__RTC_CheckEsp
	mov	esp, ebp
	pop	ebp
	ret	0
??__E_ORANGE@@YAXXZ ENDP				; `dynamic initializer for '_ORANGE''
text$di	ENDS
; Function compile flags: /Odtp /RTCsu /ZI
; File c:\users\simon\documents\github\uclan-sparta\defines.h
;	COMDAT ??__E_GREEN@@YAXXZ
text$di	SEGMENT
??__E_GREEN@@YAXXZ PROC					; `dynamic initializer for '_GREEN'', COMDAT

; 81   : const DirectX::XMFLOAT3 _GREEN = DirectX::XMFLOAT3( 0.0f, 0.8f, 0.0f );

	push	ebp
	mov	ebp, esp
	sub	esp, 192				; 000000c0H
	push	ebx
	push	esi
	push	edi
	lea	edi, DWORD PTR [ebp-192]
	mov	ecx, 48					; 00000030H
	mov	eax, -858993460				; ccccccccH
	rep stosd
	push	ecx
	movss	xmm0, DWORD PTR __real@00000000
	movss	DWORD PTR [esp], xmm0
	push	ecx
	movss	xmm0, DWORD PTR __real@3f4ccccd
	movss	DWORD PTR [esp], xmm0
	push	ecx
	movss	xmm0, DWORD PTR __real@00000000
	movss	DWORD PTR [esp], xmm0
	mov	ecx, OFFSET __GREEN
	call	??0XMFLOAT3@DirectX@@QAE@MMM@Z		; DirectX::XMFLOAT3::XMFLOAT3
	pop	edi
	pop	esi
	pop	ebx
	add	esp, 192				; 000000c0H
	cmp	ebp, esp
	call	__RTC_CheckEsp
	mov	esp, ebp
	pop	ebp
	ret	0
??__E_GREEN@@YAXXZ ENDP					; `dynamic initializer for '_GREEN''
text$di	ENDS
; Function compile flags: /Odtp /RTCsu /ZI
; File c:\users\simon\documents\github\uclan-sparta\defines.h
;	COMDAT ??__E_RED@@YAXXZ
text$di	SEGMENT
??__E_RED@@YAXXZ PROC					; `dynamic initializer for '_RED'', COMDAT

; 80   : const DirectX::XMFLOAT3 _RED = DirectX::XMFLOAT3( 0.8f, 0.0f, 0.0f );

	push	ebp
	mov	ebp, esp
	sub	esp, 192				; 000000c0H
	push	ebx
	push	esi
	push	edi
	lea	edi, DWORD PTR [ebp-192]
	mov	ecx, 48					; 00000030H
	mov	eax, -858993460				; ccccccccH
	rep stosd
	push	ecx
	movss	xmm0, DWORD PTR __real@00000000
	movss	DWORD PTR [esp], xmm0
	push	ecx
	movss	xmm0, DWORD PTR __real@00000000
	movss	DWORD PTR [esp], xmm0
	push	ecx
	movss	xmm0, DWORD PTR __real@3f4ccccd
	movss	DWORD PTR [esp], xmm0
	mov	ecx, OFFSET __RED
	call	??0XMFLOAT3@DirectX@@QAE@MMM@Z		; DirectX::XMFLOAT3::XMFLOAT3
	pop	edi
	pop	esi
	pop	ebx
	add	esp, 192				; 000000c0H
	cmp	ebp, esp
	call	__RTC_CheckEsp
	mov	esp, ebp
	pop	ebp
	ret	0
??__E_RED@@YAXXZ ENDP					; `dynamic initializer for '_RED''
text$di	ENDS
; Function compile flags: /Odtp /RTCsu /ZI
; File c:\users\simon\documents\github\uclan-sparta\defines.h
;	COMDAT ??__E_WHITE@@YAXXZ
text$di	SEGMENT
??__E_WHITE@@YAXXZ PROC					; `dynamic initializer for '_WHITE'', COMDAT

; 79   : const DirectX::XMFLOAT3 _WHITE = DirectX::XMFLOAT3( 1.0f, 1.0f, 1.0f );

	push	ebp
	mov	ebp, esp
	sub	esp, 192				; 000000c0H
	push	ebx
	push	esi
	push	edi
	lea	edi, DWORD PTR [ebp-192]
	mov	ecx, 48					; 00000030H
	mov	eax, -858993460				; ccccccccH
	rep stosd
	push	ecx
	movss	xmm0, DWORD PTR __real@3f800000
	movss	DWORD PTR [esp], xmm0
	push	ecx
	movss	xmm0, DWORD PTR __real@3f800000
	movss	DWORD PTR [esp], xmm0
	push	ecx
	movss	xmm0, DWORD PTR __real@3f800000
	movss	DWORD PTR [esp], xmm0
	mov	ecx, OFFSET __WHITE
	call	??0XMFLOAT3@DirectX@@QAE@MMM@Z		; DirectX::XMFLOAT3::XMFLOAT3
	pop	edi
	pop	esi
	pop	ebx
	add	esp, 192				; 000000c0H
	cmp	ebp, esp
	call	__RTC_CheckEsp
	mov	esp, ebp
	pop	ebp
	ret	0
??__E_WHITE@@YAXXZ ENDP					; `dynamic initializer for '_WHITE''
text$di	ENDS
; Function compile flags: /Odtp /RTCsu /ZI
; File c:\users\simon\documents\github\uclan-sparta\defines.h
;	COMDAT ??__E_BLACK@@YAXXZ
text$di	SEGMENT
??__E_BLACK@@YAXXZ PROC					; `dynamic initializer for '_BLACK'', COMDAT

; 78   : const DirectX::XMFLOAT3 _BLACK = DirectX::XMFLOAT3( 0.0f, 0.0f, 0.0f );

	push	ebp
	mov	ebp, esp
	sub	esp, 192				; 000000c0H
	push	ebx
	push	esi
	push	edi
	lea	edi, DWORD PTR [ebp-192]
	mov	ecx, 48					; 00000030H
	mov	eax, -858993460				; ccccccccH
	rep stosd
	push	ecx
	movss	xmm0, DWORD PTR __real@00000000
	movss	DWORD PTR [esp], xmm0
	push	ecx
	movss	xmm0, DWORD PTR __real@00000000
	movss	DWORD PTR [esp], xmm0
	push	ecx
	movss	xmm0, DWORD PTR __real@00000000
	movss	DWORD PTR [esp], xmm0
	mov	ecx, OFFSET __BLACK
	call	??0XMFLOAT3@DirectX@@QAE@MMM@Z		; DirectX::XMFLOAT3::XMFLOAT3
	pop	edi
	pop	esi
	pop	ebx
	add	esp, 192				; 000000c0H
	cmp	ebp, esp
	call	__RTC_CheckEsp
	mov	esp, ebp
	pop	ebp
	ret	0
??__E_BLACK@@YAXXZ ENDP					; `dynamic initializer for '_BLACK''
text$di	ENDS
; Function compile flags: /Odtp /RTCsu /ZI
; File c:\users\simon\documents\github\uclan-sparta\defines.h
;	COMDAT ??__ENO_ROTATION@@YAXXZ
text$di	SEGMENT
??__ENO_ROTATION@@YAXXZ PROC				; `dynamic initializer for 'NO_ROTATION'', COMDAT

; 76   : const DirectX::XMFLOAT3 NO_ROTATION = DirectX::XMFLOAT3( 0.0f, 0.0f, 0.0f );

	push	ebp
	mov	ebp, esp
	sub	esp, 192				; 000000c0H
	push	ebx
	push	esi
	push	edi
	lea	edi, DWORD PTR [ebp-192]
	mov	ecx, 48					; 00000030H
	mov	eax, -858993460				; ccccccccH
	rep stosd
	push	ecx
	movss	xmm0, DWORD PTR __real@00000000
	movss	DWORD PTR [esp], xmm0
	push	ecx
	movss	xmm0, DWORD PTR __real@00000000
	movss	DWORD PTR [esp], xmm0
	push	ecx
	movss	xmm0, DWORD PTR __real@00000000
	movss	DWORD PTR [esp], xmm0
	mov	ecx, OFFSET _NO_ROTATION
	call	??0XMFLOAT3@DirectX@@QAE@MMM@Z		; DirectX::XMFLOAT3::XMFLOAT3
	pop	edi
	pop	esi
	pop	ebx
	add	esp, 192				; 000000c0H
	cmp	ebp, esp
	call	__RTC_CheckEsp
	mov	esp, ebp
	pop	ebp
	ret	0
??__ENO_ROTATION@@YAXXZ ENDP				; `dynamic initializer for 'NO_ROTATION''
text$di	ENDS
; Function compile flags: /Odtp /RTCsu /ZI
; File c:\users\simon\documents\github\uclan-sparta\defines.h
;	COMDAT ??__EORIGIN@@YAXXZ
text$di	SEGMENT
??__EORIGIN@@YAXXZ PROC					; `dynamic initializer for 'ORIGIN'', COMDAT

; 75   : const DirectX::XMFLOAT3 ORIGIN = DirectX::XMFLOAT3(0.0f,0.0f,0.0f);

	push	ebp
	mov	ebp, esp
	sub	esp, 192				; 000000c0H
	push	ebx
	push	esi
	push	edi
	lea	edi, DWORD PTR [ebp-192]
	mov	ecx, 48					; 00000030H
	mov	eax, -858993460				; ccccccccH
	rep stosd
	push	ecx
	movss	xmm0, DWORD PTR __real@00000000
	movss	DWORD PTR [esp], xmm0
	push	ecx
	movss	xmm0, DWORD PTR __real@00000000
	movss	DWORD PTR [esp], xmm0
	push	ecx
	movss	xmm0, DWORD PTR __real@00000000
	movss	DWORD PTR [esp], xmm0
	mov	ecx, OFFSET _ORIGIN
	call	??0XMFLOAT3@DirectX@@QAE@MMM@Z		; DirectX::XMFLOAT3::XMFLOAT3
	pop	edi
	pop	esi
	pop	ebx
	add	esp, 192				; 000000c0H
	cmp	ebp, esp
	call	__RTC_CheckEsp
	mov	esp, ebp
	pop	ebp
	ret	0
??__EORIGIN@@YAXXZ ENDP					; `dynamic initializer for 'ORIGIN''
text$di	ENDS
; Function compile flags: /Odtp /RTCsu /ZI
; File c:\users\simon\documents\github\uclan-sparta\defines.h
;	COMDAT ??__EZAXIS@@YAXXZ
text$di	SEGMENT
$T1 = -224						; size = 16
??__EZAXIS@@YAXXZ PROC					; `dynamic initializer for 'ZAXIS'', COMDAT

; 73   : const DirectX::XMVECTOR ZAXIS = DirectX::XMVectorSet(0.0f,0.0f,1.0f,1.0f);

	push	ebx
	mov	ebx, esp
	sub	esp, 8
	and	esp, -16				; fffffff0H
	add	esp, 4
	push	ebp
	mov	ebp, DWORD PTR [ebx+4]
	mov	DWORD PTR [esp+4], ebp
	mov	ebp, esp
	sub	esp, 232				; 000000e8H
	push	esi
	push	edi
	lea	edi, DWORD PTR [ebp-232]
	mov	ecx, 58					; 0000003aH
	mov	eax, -858993460				; ccccccccH
	rep stosd
	movss	xmm3, DWORD PTR __real@3f800000
	movss	xmm2, DWORD PTR __real@3f800000
	movss	xmm1, DWORD PTR __real@00000000
	movss	xmm0, DWORD PTR __real@00000000
	call	?XMVectorSet@DirectX@@YQ?AT__m128@@MMMM@Z ; DirectX::XMVectorSet
	movaps	XMMWORD PTR $T1[ebp], xmm0
	movaps	xmm0, XMMWORD PTR $T1[ebp]
	movaps	XMMWORD PTR _ZAXIS, xmm0
	pop	edi
	pop	esi
	mov	esp, ebp
	pop	ebp
	mov	esp, ebx
	pop	ebx
	ret	0
??__EZAXIS@@YAXXZ ENDP					; `dynamic initializer for 'ZAXIS''
text$di	ENDS
; Function compile flags: /Odtp /RTCsu /ZI
; File c:\users\simon\documents\github\uclan-sparta\defines.h
;	COMDAT ??__EYAXIS@@YAXXZ
text$di	SEGMENT
$T1 = -224						; size = 16
??__EYAXIS@@YAXXZ PROC					; `dynamic initializer for 'YAXIS'', COMDAT

; 72   : const DirectX::XMVECTOR YAXIS = DirectX::XMVectorSet(0.0f,1.0f,0.0f,1.0f);

	push	ebx
	mov	ebx, esp
	sub	esp, 8
	and	esp, -16				; fffffff0H
	add	esp, 4
	push	ebp
	mov	ebp, DWORD PTR [ebx+4]
	mov	DWORD PTR [esp+4], ebp
	mov	ebp, esp
	sub	esp, 232				; 000000e8H
	push	esi
	push	edi
	lea	edi, DWORD PTR [ebp-232]
	mov	ecx, 58					; 0000003aH
	mov	eax, -858993460				; ccccccccH
	rep stosd
	movss	xmm3, DWORD PTR __real@3f800000
	movss	xmm2, DWORD PTR __real@00000000
	movss	xmm1, DWORD PTR __real@3f800000
	movss	xmm0, DWORD PTR __real@00000000
	call	?XMVectorSet@DirectX@@YQ?AT__m128@@MMMM@Z ; DirectX::XMVectorSet
	movaps	XMMWORD PTR $T1[ebp], xmm0
	movaps	xmm0, XMMWORD PTR $T1[ebp]
	movaps	XMMWORD PTR _YAXIS, xmm0
	pop	edi
	pop	esi
	mov	esp, ebp
	pop	ebp
	mov	esp, ebx
	pop	ebx
	ret	0
??__EYAXIS@@YAXXZ ENDP					; `dynamic initializer for 'YAXIS''
text$di	ENDS
; Function compile flags: /Odtp /RTCsu /ZI
; File c:\users\simon\documents\github\uclan-sparta\defines.h
;	COMDAT ??__EXAXIS@@YAXXZ
text$di	SEGMENT
$T1 = -224						; size = 16
??__EXAXIS@@YAXXZ PROC					; `dynamic initializer for 'XAXIS'', COMDAT

; 71   : const DirectX::XMVECTOR XAXIS = DirectX::XMVectorSet(1.0f,0.0f,0.0f,1.0f);

	push	ebx
	mov	ebx, esp
	sub	esp, 8
	and	esp, -16				; fffffff0H
	add	esp, 4
	push	ebp
	mov	ebp, DWORD PTR [ebx+4]
	mov	DWORD PTR [esp+4], ebp
	mov	ebp, esp
	sub	esp, 232				; 000000e8H
	push	esi
	push	edi
	lea	edi, DWORD PTR [ebp-232]
	mov	ecx, 58					; 0000003aH
	mov	eax, -858993460				; ccccccccH
	rep stosd
	movss	xmm3, DWORD PTR __real@3f800000
	movss	xmm2, DWORD PTR __real@00000000
	movss	xmm1, DWORD PTR __real@00000000
	movss	xmm0, DWORD PTR __real@3f800000
	call	?XMVectorSet@DirectX@@YQ?AT__m128@@MMMM@Z ; DirectX::XMVectorSet
	movaps	XMMWORD PTR $T1[ebp], xmm0
	movaps	xmm0, XMMWORD PTR $T1[ebp]
	movaps	XMMWORD PTR _XAXIS, xmm0
	pop	edi
	pop	esi
	mov	esp, ebp
	pop	ebp
	mov	esp, ebx
	pop	ebx
	ret	0
??__EXAXIS@@YAXXZ ENDP					; `dynamic initializer for 'XAXIS''
text$di	ENDS
; Function compile flags: /Odtp /RTCsu /ZI
; File c:\program files (x86)\windows kits\8.1\include\um\directxmath.h
;	COMDAT ??__Eg_XMReciprocalTwoPi@DirectX@@YAXXZ
text$di	SEGMENT
??__Eg_XMReciprocalTwoPi@DirectX@@YAXXZ PROC		; DirectX::`dynamic initializer for 'g_XMReciprocalTwoPi'', COMDAT

; 1736 : XMGLOBALCONST XMVECTORF32 g_XMReciprocalTwoPi   = {XM_1DIV2PI, XM_1DIV2PI, XM_1DIV2PI, XM_1DIV2PI};

	push	ebp
	mov	ebp, esp
	sub	esp, 192				; 000000c0H
	push	ebx
	push	esi
	push	edi
	lea	edi, DWORD PTR [ebp-192]
	mov	ecx, 48					; 00000030H
	mov	eax, -858993460				; ccccccccH
	rep stosd
	movss	xmm0, DWORD PTR _XM_1DIV2PI
	movss	DWORD PTR ?g_XMReciprocalTwoPi@DirectX@@3UXMVECTORF32@1@B, xmm0
	movss	xmm0, DWORD PTR _XM_1DIV2PI
	movss	DWORD PTR ?g_XMReciprocalTwoPi@DirectX@@3UXMVECTORF32@1@B+4, xmm0
	movss	xmm0, DWORD PTR _XM_1DIV2PI
	movss	DWORD PTR ?g_XMReciprocalTwoPi@DirectX@@3UXMVECTORF32@1@B+8, xmm0
	movss	xmm0, DWORD PTR _XM_1DIV2PI
	movss	DWORD PTR ?g_XMReciprocalTwoPi@DirectX@@3UXMVECTORF32@1@B+12, xmm0
	pop	edi
	pop	esi
	pop	ebx
	mov	esp, ebp
	pop	ebp
	ret	0
??__Eg_XMReciprocalTwoPi@DirectX@@YAXXZ ENDP		; DirectX::`dynamic initializer for 'g_XMReciprocalTwoPi''
text$di	ENDS
; Function compile flags: /Odtp /RTCsu /ZI
; File c:\program files (x86)\windows kits\8.1\include\um\directxmath.h
;	COMDAT ??__Eg_XMTwoPi@DirectX@@YAXXZ
text$di	SEGMENT
??__Eg_XMTwoPi@DirectX@@YAXXZ PROC			; DirectX::`dynamic initializer for 'g_XMTwoPi'', COMDAT

; 1735 : XMGLOBALCONST XMVECTORF32 g_XMTwoPi             = {XM_2PI, XM_2PI, XM_2PI, XM_2PI};

	push	ebp
	mov	ebp, esp
	sub	esp, 192				; 000000c0H
	push	ebx
	push	esi
	push	edi
	lea	edi, DWORD PTR [ebp-192]
	mov	ecx, 48					; 00000030H
	mov	eax, -858993460				; ccccccccH
	rep stosd
	movss	xmm0, DWORD PTR _XM_2PI
	movss	DWORD PTR ?g_XMTwoPi@DirectX@@3UXMVECTORF32@1@B, xmm0
	movss	xmm0, DWORD PTR _XM_2PI
	movss	DWORD PTR ?g_XMTwoPi@DirectX@@3UXMVECTORF32@1@B+4, xmm0
	movss	xmm0, DWORD PTR _XM_2PI
	movss	DWORD PTR ?g_XMTwoPi@DirectX@@3UXMVECTORF32@1@B+8, xmm0
	movss	xmm0, DWORD PTR _XM_2PI
	movss	DWORD PTR ?g_XMTwoPi@DirectX@@3UXMVECTORF32@1@B+12, xmm0
	pop	edi
	pop	esi
	pop	ebx
	mov	esp, ebp
	pop	ebp
	ret	0
??__Eg_XMTwoPi@DirectX@@YAXXZ ENDP			; DirectX::`dynamic initializer for 'g_XMTwoPi''
text$di	ENDS
; Function compile flags: /Odtp /RTCsu /ZI
; File c:\program files (x86)\windows kits\8.1\include\um\directxmath.h
;	COMDAT ??__Eg_XMReciprocalPi@DirectX@@YAXXZ
text$di	SEGMENT
??__Eg_XMReciprocalPi@DirectX@@YAXXZ PROC		; DirectX::`dynamic initializer for 'g_XMReciprocalPi'', COMDAT

; 1734 : XMGLOBALCONST XMVECTORF32 g_XMReciprocalPi      = {XM_1DIVPI, XM_1DIVPI, XM_1DIVPI, XM_1DIVPI};

	push	ebp
	mov	ebp, esp
	sub	esp, 192				; 000000c0H
	push	ebx
	push	esi
	push	edi
	lea	edi, DWORD PTR [ebp-192]
	mov	ecx, 48					; 00000030H
	mov	eax, -858993460				; ccccccccH
	rep stosd
	movss	xmm0, DWORD PTR _XM_1DIVPI
	movss	DWORD PTR ?g_XMReciprocalPi@DirectX@@3UXMVECTORF32@1@B, xmm0
	movss	xmm0, DWORD PTR _XM_1DIVPI
	movss	DWORD PTR ?g_XMReciprocalPi@DirectX@@3UXMVECTORF32@1@B+4, xmm0
	movss	xmm0, DWORD PTR _XM_1DIVPI
	movss	DWORD PTR ?g_XMReciprocalPi@DirectX@@3UXMVECTORF32@1@B+8, xmm0
	movss	xmm0, DWORD PTR _XM_1DIVPI
	movss	DWORD PTR ?g_XMReciprocalPi@DirectX@@3UXMVECTORF32@1@B+12, xmm0
	pop	edi
	pop	esi
	pop	ebx
	mov	esp, ebp
	pop	ebp
	ret	0
??__Eg_XMReciprocalPi@DirectX@@YAXXZ ENDP		; DirectX::`dynamic initializer for 'g_XMReciprocalPi''
text$di	ENDS
; Function compile flags: /Odtp /RTCsu /ZI
; File c:\program files (x86)\windows kits\8.1\include\um\directxmath.h
;	COMDAT ??__Eg_XMPi@DirectX@@YAXXZ
text$di	SEGMENT
??__Eg_XMPi@DirectX@@YAXXZ PROC				; DirectX::`dynamic initializer for 'g_XMPi'', COMDAT

; 1733 : XMGLOBALCONST XMVECTORF32 g_XMPi                = {XM_PI, XM_PI, XM_PI, XM_PI};

	push	ebp
	mov	ebp, esp
	sub	esp, 192				; 000000c0H
	push	ebx
	push	esi
	push	edi
	lea	edi, DWORD PTR [ebp-192]
	mov	ecx, 48					; 00000030H
	mov	eax, -858993460				; ccccccccH
	rep stosd
	movss	xmm0, DWORD PTR _XM_PI
	movss	DWORD PTR ?g_XMPi@DirectX@@3UXMVECTORF32@1@B, xmm0
	movss	xmm0, DWORD PTR _XM_PI
	movss	DWORD PTR ?g_XMPi@DirectX@@3UXMVECTORF32@1@B+4, xmm0
	movss	xmm0, DWORD PTR _XM_PI
	movss	DWORD PTR ?g_XMPi@DirectX@@3UXMVECTORF32@1@B+8, xmm0
	movss	xmm0, DWORD PTR _XM_PI
	movss	DWORD PTR ?g_XMPi@DirectX@@3UXMVECTORF32@1@B+12, xmm0
	pop	edi
	pop	esi
	pop	ebx
	mov	esp, ebp
	pop	ebp
	ret	0
??__Eg_XMPi@DirectX@@YAXXZ ENDP				; DirectX::`dynamic initializer for 'g_XMPi''
text$di	ENDS
; Function compile flags: /Odtp /RTCsu /ZI
; File c:\program files (x86)\windows kits\8.1\include\um\directxmath.h
;	COMDAT ??__Eg_XMHalfPi@DirectX@@YAXXZ
text$di	SEGMENT
??__Eg_XMHalfPi@DirectX@@YAXXZ PROC			; DirectX::`dynamic initializer for 'g_XMHalfPi'', COMDAT

; 1732 : XMGLOBALCONST XMVECTORF32 g_XMHalfPi            = {XM_PIDIV2, XM_PIDIV2, XM_PIDIV2, XM_PIDIV2};

	push	ebp
	mov	ebp, esp
	sub	esp, 192				; 000000c0H
	push	ebx
	push	esi
	push	edi
	lea	edi, DWORD PTR [ebp-192]
	mov	ecx, 48					; 00000030H
	mov	eax, -858993460				; ccccccccH
	rep stosd
	movss	xmm0, DWORD PTR _XM_PIDIV2
	movss	DWORD PTR ?g_XMHalfPi@DirectX@@3UXMVECTORF32@1@B, xmm0
	movss	xmm0, DWORD PTR _XM_PIDIV2
	movss	DWORD PTR ?g_XMHalfPi@DirectX@@3UXMVECTORF32@1@B+4, xmm0
	movss	xmm0, DWORD PTR _XM_PIDIV2
	movss	DWORD PTR ?g_XMHalfPi@DirectX@@3UXMVECTORF32@1@B+8, xmm0
	movss	xmm0, DWORD PTR _XM_PIDIV2
	movss	DWORD PTR ?g_XMHalfPi@DirectX@@3UXMVECTORF32@1@B+12, xmm0
	pop	edi
	pop	esi
	pop	ebx
	mov	esp, ebp
	pop	ebp
	ret	0
??__Eg_XMHalfPi@DirectX@@YAXXZ ENDP			; DirectX::`dynamic initializer for 'g_XMHalfPi''
text$di	ENDS
; Function compile flags: /Odtp /RTCsu /ZI
; File c:\program files (x86)\windows kits\8.1\include\um\directxmath.h
;	COMDAT ??__Eg_XMNegativePi@DirectX@@YAXXZ
text$di	SEGMENT
??__Eg_XMNegativePi@DirectX@@YAXXZ PROC			; DirectX::`dynamic initializer for 'g_XMNegativePi'', COMDAT

; 1731 : XMGLOBALCONST XMVECTORF32 g_XMNegativePi        = {-XM_PI, -XM_PI, -XM_PI, -XM_PI};

	push	ebp
	mov	ebp, esp
	sub	esp, 192				; 000000c0H
	push	ebx
	push	esi
	push	edi
	lea	edi, DWORD PTR [ebp-192]
	mov	ecx, 48					; 00000030H
	mov	eax, -858993460				; ccccccccH
	rep stosd
	movss	xmm0, DWORD PTR _XM_PI
	xorps	xmm0, DWORD PTR __xmm@80000000800000008000000080000000
	movss	DWORD PTR ?g_XMNegativePi@DirectX@@3UXMVECTORF32@1@B, xmm0
	movss	xmm0, DWORD PTR _XM_PI
	xorps	xmm0, DWORD PTR __xmm@80000000800000008000000080000000
	movss	DWORD PTR ?g_XMNegativePi@DirectX@@3UXMVECTORF32@1@B+4, xmm0
	movss	xmm0, DWORD PTR _XM_PI
	xorps	xmm0, DWORD PTR __xmm@80000000800000008000000080000000
	movss	DWORD PTR ?g_XMNegativePi@DirectX@@3UXMVECTORF32@1@B+8, xmm0
	movss	xmm0, DWORD PTR _XM_PI
	xorps	xmm0, DWORD PTR __xmm@80000000800000008000000080000000
	movss	DWORD PTR ?g_XMNegativePi@DirectX@@3UXMVECTORF32@1@B+12, xmm0
	pop	edi
	pop	esi
	pop	ebx
	mov	esp, ebp
	pop	ebp
	ret	0
??__Eg_XMNegativePi@DirectX@@YAXXZ ENDP			; DirectX::`dynamic initializer for 'g_XMNegativePi''
text$di	ENDS
; Function compile flags: /Odtp /RTCsu /ZI
; File c:\program files (x86)\windows kits\8.1\include\um\directxmath.h
;	COMDAT ??__Eg_XMNegativeTwoPi@DirectX@@YAXXZ
text$di	SEGMENT
??__Eg_XMNegativeTwoPi@DirectX@@YAXXZ PROC		; DirectX::`dynamic initializer for 'g_XMNegativeTwoPi'', COMDAT

; 1730 : XMGLOBALCONST XMVECTORF32 g_XMNegativeTwoPi     = {-XM_2PI, -XM_2PI, -XM_2PI, -XM_2PI};

	push	ebp
	mov	ebp, esp
	sub	esp, 192				; 000000c0H
	push	ebx
	push	esi
	push	edi
	lea	edi, DWORD PTR [ebp-192]
	mov	ecx, 48					; 00000030H
	mov	eax, -858993460				; ccccccccH
	rep stosd
	movss	xmm0, DWORD PTR _XM_2PI
	xorps	xmm0, DWORD PTR __xmm@80000000800000008000000080000000
	movss	DWORD PTR ?g_XMNegativeTwoPi@DirectX@@3UXMVECTORF32@1@B, xmm0
	movss	xmm0, DWORD PTR _XM_2PI
	xorps	xmm0, DWORD PTR __xmm@80000000800000008000000080000000
	movss	DWORD PTR ?g_XMNegativeTwoPi@DirectX@@3UXMVECTORF32@1@B+4, xmm0
	movss	xmm0, DWORD PTR _XM_2PI
	xorps	xmm0, DWORD PTR __xmm@80000000800000008000000080000000
	movss	DWORD PTR ?g_XMNegativeTwoPi@DirectX@@3UXMVECTORF32@1@B+8, xmm0
	movss	xmm0, DWORD PTR _XM_2PI
	xorps	xmm0, DWORD PTR __xmm@80000000800000008000000080000000
	movss	DWORD PTR ?g_XMNegativeTwoPi@DirectX@@3UXMVECTORF32@1@B+12, xmm0
	pop	edi
	pop	esi
	pop	ebx
	mov	esp, ebp
	pop	ebp
	ret	0
??__Eg_XMNegativeTwoPi@DirectX@@YAXXZ ENDP		; DirectX::`dynamic initializer for 'g_XMNegativeTwoPi''
text$di	ENDS
; Function compile flags: /Odtp /RTCsu /ZI
; File c:\program files (x86)\windows kits\8.1\include\um\directxmath.h
;	COMDAT ??__Eg_XMPiConstants0@DirectX@@YAXXZ
text$di	SEGMENT
??__Eg_XMPiConstants0@DirectX@@YAXXZ PROC		; DirectX::`dynamic initializer for 'g_XMPiConstants0'', COMDAT

; 1705 : XMGLOBALCONST XMVECTORF32 g_XMPiConstants0        = {XM_PI, XM_2PI, XM_1DIVPI, XM_1DIV2PI};

	push	ebp
	mov	ebp, esp
	sub	esp, 192				; 000000c0H
	push	ebx
	push	esi
	push	edi
	lea	edi, DWORD PTR [ebp-192]
	mov	ecx, 48					; 00000030H
	mov	eax, -858993460				; ccccccccH
	rep stosd
	movss	xmm0, DWORD PTR _XM_PI
	movss	DWORD PTR ?g_XMPiConstants0@DirectX@@3UXMVECTORF32@1@B, xmm0
	movss	xmm0, DWORD PTR _XM_2PI
	movss	DWORD PTR ?g_XMPiConstants0@DirectX@@3UXMVECTORF32@1@B+4, xmm0
	movss	xmm0, DWORD PTR _XM_1DIVPI
	movss	DWORD PTR ?g_XMPiConstants0@DirectX@@3UXMVECTORF32@1@B+8, xmm0
	movss	xmm0, DWORD PTR _XM_1DIV2PI
	movss	DWORD PTR ?g_XMPiConstants0@DirectX@@3UXMVECTORF32@1@B+12, xmm0
	pop	edi
	pop	esi
	pop	ebx
	mov	esp, ebp
	pop	ebp
	ret	0
??__Eg_XMPiConstants0@DirectX@@YAXXZ ENDP		; DirectX::`dynamic initializer for 'g_XMPiConstants0''
text$di	ENDS
; Function compile flags: /Odtp /RTCsu /ZI
; File c:\program files (x86)\windows kits\8.1\include\um\directxmath.h
;	COMDAT ??__Eg_XMTanEstCoefficients@DirectX@@YAXXZ
text$di	SEGMENT
??__Eg_XMTanEstCoefficients@DirectX@@YAXXZ PROC		; DirectX::`dynamic initializer for 'g_XMTanEstCoefficients'', COMDAT

; 1703 : XMGLOBALCONST XMVECTORF32 g_XMTanEstCoefficients  = {2.484f, -1.954923183e-1f, 2.467401101f, XM_1DIVPI};

	push	ebp
	mov	ebp, esp
	sub	esp, 192				; 000000c0H
	push	ebx
	push	esi
	push	edi
	lea	edi, DWORD PTR [ebp-192]
	mov	ecx, 48					; 00000030H
	mov	eax, -858993460				; ccccccccH
	rep stosd
	movss	xmm0, DWORD PTR _XM_1DIVPI
	movss	DWORD PTR ?g_XMTanEstCoefficients@DirectX@@3UXMVECTORF32@1@B+12, xmm0
	pop	edi
	pop	esi
	pop	ebx
	mov	esp, ebp
	pop	ebp
	ret	0
??__Eg_XMTanEstCoefficients@DirectX@@YAXXZ ENDP		; DirectX::`dynamic initializer for 'g_XMTanEstCoefficients''
text$di	ENDS
; Function compile flags: /Odtp /RTCsu /ZI
; File c:\program files (x86)\windows kits\8.1\include\um\directxmathvector.inl
;	COMDAT ?XMVectorSet@DirectX@@YQ?AT__m128@@MMMM@Z
_TEXT	SEGMENT
$T1 = -272						; size = 16
_w$ = -44						; size = 4
_z$ = -32						; size = 4
_y$ = -20						; size = 4
_x$ = -8						; size = 4
?XMVectorSet@DirectX@@YQ?AT__m128@@MMMM@Z PROC		; DirectX::XMVectorSet, COMDAT
; _x$ = xmm0s
; _y$ = xmm1s
; _z$ = xmm2s
; _w$ = xmm3s

; 72   : {

	push	ebx
	mov	ebx, esp
	sub	esp, 8
	and	esp, -16				; fffffff0H
	add	esp, 4
	push	ebp
	mov	ebp, DWORD PTR [ebx+4]
	mov	DWORD PTR [esp+4], ebp
	mov	ebp, esp
	sub	esp, 280				; 00000118H
	push	esi
	push	edi
	push	ecx
	lea	edi, DWORD PTR [ebp-280]
	mov	ecx, 70					; 00000046H
	mov	eax, -858993460				; ccccccccH
	rep stosd
	pop	ecx
	movss	DWORD PTR _w$[ebp], xmm3
	movss	DWORD PTR _z$[ebp], xmm2
	movss	DWORD PTR _y$[ebp], xmm1
	movss	DWORD PTR _x$[ebp], xmm0

; 73   : #if defined(_XM_NO_INTRINSICS_)
; 74   :     XMVECTORF32 vResult = {x,y,z,w};
; 75   :     return vResult.v;
; 76   : #elif defined(_XM_ARM_NEON_INTRINSICS_)
; 77   :     float32x2_t V0 = vcreate_f32(((uint64_t)*(const uint32_t *)&x) | ((uint64_t)(*(const uint32_t *)&y) << 32));
; 78   :     float32x2_t V1 = vcreate_f32(((uint64_t)*(const uint32_t *)&z) | ((uint64_t)(*(const uint32_t *)&w) << 32));
; 79   :     return vcombine_f32(V0, V1);
; 80   : #elif defined(_XM_SSE_INTRINSICS_)
; 81   :     return _mm_set_ps( w, z, y, x );

	movss	xmm0, DWORD PTR _x$[ebp]
	movss	xmm1, DWORD PTR _y$[ebp]
	movss	xmm2, DWORD PTR _z$[ebp]
	movss	xmm3, DWORD PTR _w$[ebp]
	unpcklps xmm0, xmm2
	unpcklps xmm1, xmm3
	unpcklps xmm0, xmm1
	movaps	XMMWORD PTR $T1[ebp], xmm0
	movaps	xmm0, XMMWORD PTR $T1[ebp]

; 82   : #else // _XM_VMX128_INTRINSICS_
; 83   : #endif // _XM_VMX128_INTRINSICS_
; 84   : }

	pop	edi
	pop	esi
	mov	esp, ebp
	pop	ebp
	mov	esp, ebx
	pop	ebx
	ret	0
?XMVectorSet@DirectX@@YQ?AT__m128@@MMMM@Z ENDP		; DirectX::XMVectorSet
_TEXT	ENDS
; Function compile flags: /Odtp /RTCsu /ZI
; File c:\program files (x86)\windows kits\8.1\include\um\directxmath.h
;	COMDAT ??4XMFLOAT3@DirectX@@QAEAAU01@ABU01@@Z
_TEXT	SEGMENT
_this$ = -8						; size = 4
_Float3$ = 8						; size = 4
??4XMFLOAT3@DirectX@@QAEAAU01@ABU01@@Z PROC		; DirectX::XMFLOAT3::operator=, COMDAT
; _this$ = ecx

; 527  :     XMFLOAT3& operator= (const XMFLOAT3& Float3) { x = Float3.x; y = Float3.y; z = Float3.z; return *this; }

	push	ebp
	mov	ebp, esp
	sub	esp, 204				; 000000ccH
	push	ebx
	push	esi
	push	edi
	push	ecx
	lea	edi, DWORD PTR [ebp-204]
	mov	ecx, 51					; 00000033H
	mov	eax, -858993460				; ccccccccH
	rep stosd
	pop	ecx
	mov	DWORD PTR _this$[ebp], ecx
	mov	eax, DWORD PTR _this$[ebp]
	mov	ecx, DWORD PTR _Float3$[ebp]
	mov	edx, DWORD PTR [ecx]
	mov	DWORD PTR [eax], edx
	mov	eax, DWORD PTR _this$[ebp]
	mov	ecx, DWORD PTR _Float3$[ebp]
	mov	edx, DWORD PTR [ecx+4]
	mov	DWORD PTR [eax+4], edx
	mov	eax, DWORD PTR _this$[ebp]
	mov	ecx, DWORD PTR _Float3$[ebp]
	mov	edx, DWORD PTR [ecx+8]
	mov	DWORD PTR [eax+8], edx
	mov	eax, DWORD PTR _this$[ebp]
	pop	edi
	pop	esi
	pop	ebx
	mov	esp, ebp
	pop	ebp
	ret	4
??4XMFLOAT3@DirectX@@QAEAAU01@ABU01@@Z ENDP		; DirectX::XMFLOAT3::operator=
_TEXT	ENDS
; Function compile flags: /Odtp /RTCsu /ZI
; File c:\program files (x86)\windows kits\8.1\include\um\directxmath.h
;	COMDAT ??0XMFLOAT3@DirectX@@QAE@MMM@Z
_TEXT	SEGMENT
_this$ = -8						; size = 4
__x$ = 8						; size = 4
__y$ = 12						; size = 4
__z$ = 16						; size = 4
??0XMFLOAT3@DirectX@@QAE@MMM@Z PROC			; DirectX::XMFLOAT3::XMFLOAT3, COMDAT
; _this$ = ecx

; 524  :     XMFLOAT3(float _x, float _y, float _z) : x(_x), y(_y), z(_z) {}

	push	ebp
	mov	ebp, esp
	sub	esp, 204				; 000000ccH
	push	ebx
	push	esi
	push	edi
	push	ecx
	lea	edi, DWORD PTR [ebp-204]
	mov	ecx, 51					; 00000033H
	mov	eax, -858993460				; ccccccccH
	rep stosd
	pop	ecx
	mov	DWORD PTR _this$[ebp], ecx
	mov	eax, DWORD PTR _this$[ebp]
	movss	xmm0, DWORD PTR __x$[ebp]
	movss	DWORD PTR [eax], xmm0
	mov	eax, DWORD PTR _this$[ebp]
	movss	xmm0, DWORD PTR __y$[ebp]
	movss	DWORD PTR [eax+4], xmm0
	mov	eax, DWORD PTR _this$[ebp]
	movss	xmm0, DWORD PTR __z$[ebp]
	movss	DWORD PTR [eax+8], xmm0
	mov	eax, DWORD PTR _this$[ebp]
	pop	edi
	pop	esi
	pop	ebx
	mov	esp, ebp
	pop	ebp
	ret	12					; 0000000cH
??0XMFLOAT3@DirectX@@QAE@MMM@Z ENDP			; DirectX::XMFLOAT3::XMFLOAT3
_TEXT	ENDS
; Function compile flags: /Odtp /RTCsu /ZI
;	COMDAT ??_G_System_error_category@std@@UAEPAXI@Z
_TEXT	SEGMENT
_this$ = -8						; size = 4
___flags$ = 8						; size = 4
??_G_System_error_category@std@@UAEPAXI@Z PROC		; std::_System_error_category::`scalar deleting destructor', COMDAT
; _this$ = ecx
	push	ebp
	mov	ebp, esp
	sub	esp, 204				; 000000ccH
	push	ebx
	push	esi
	push	edi
	push	ecx
	lea	edi, DWORD PTR [ebp-204]
	mov	ecx, 51					; 00000033H
	mov	eax, -858993460				; ccccccccH
	rep stosd
	pop	ecx
	mov	DWORD PTR _this$[ebp], ecx
	mov	ecx, DWORD PTR _this$[ebp]
	call	??1_System_error_category@std@@UAE@XZ
	mov	eax, DWORD PTR ___flags$[ebp]
	and	eax, 1
	je	SHORT $LN1@scalar
	mov	eax, DWORD PTR _this$[ebp]
	push	eax
	call	??3@YAXPAX@Z				; operator delete
	add	esp, 4
$LN1@scalar:
	mov	eax, DWORD PTR _this$[ebp]
	pop	edi
	pop	esi
	pop	ebx
	add	esp, 204				; 000000ccH
	cmp	ebp, esp
	call	__RTC_CheckEsp
	mov	esp, ebp
	pop	ebp
	ret	4
??_G_System_error_category@std@@UAEPAXI@Z ENDP		; std::_System_error_category::`scalar deleting destructor'
_TEXT	ENDS
; Function compile flags: /Odtp /RTCsu /ZI
;	COMDAT ??1_System_error_category@std@@UAE@XZ
_TEXT	SEGMENT
_this$ = -8						; size = 4
??1_System_error_category@std@@UAE@XZ PROC		; std::_System_error_category::~_System_error_category, COMDAT
; _this$ = ecx
	push	ebp
	mov	ebp, esp
	sub	esp, 204				; 000000ccH
	push	ebx
	push	esi
	push	edi
	push	ecx
	lea	edi, DWORD PTR [ebp-204]
	mov	ecx, 51					; 00000033H
	mov	eax, -858993460				; ccccccccH
	rep stosd
	pop	ecx
	mov	DWORD PTR _this$[ebp], ecx
	mov	ecx, DWORD PTR _this$[ebp]
	call	??1_Generic_error_category@std@@UAE@XZ
	pop	edi
	pop	esi
	pop	ebx
	add	esp, 204				; 000000ccH
	cmp	ebp, esp
	call	__RTC_CheckEsp
	mov	esp, ebp
	pop	ebp
	ret	0
??1_System_error_category@std@@UAE@XZ ENDP		; std::_System_error_category::~_System_error_category
_TEXT	ENDS
; Function compile flags: /Odtp /RTCsu /ZI
; File c:\program files (x86)\microsoft visual studio 12.0\vc\include\system_error
;	COMDAT ?default_error_condition@_System_error_category@std@@UBE?AVerror_condition@2@H@Z
_TEXT	SEGMENT
_this$ = -8						; size = 4
___$ReturnUdt$ = 8					; size = 4
__Errval$ = 12						; size = 4
?default_error_condition@_System_error_category@std@@UBE?AVerror_condition@2@H@Z PROC ; std::_System_error_category::default_error_condition, COMDAT
; _this$ = ecx

; 614  : 		{	// make error_condition for error code (generic if possible)

	push	ebp
	mov	ebp, esp
	sub	esp, 204				; 000000ccH
	push	ebx
	push	esi
	push	edi
	push	ecx
	lea	edi, DWORD PTR [ebp-204]
	mov	ecx, 51					; 00000033H
	mov	eax, -858993460				; ccccccccH
	rep stosd
	pop	ecx
	mov	DWORD PTR _this$[ebp], ecx

; 615  : 		if (_Syserror_map(_Errval))

	mov	eax, DWORD PTR __Errval$[ebp]
	push	eax
	call	?_Syserror_map@std@@YAPBDH@Z		; std::_Syserror_map
	add	esp, 4
	test	eax, eax
	je	SHORT $LN2@default_er

; 616  : 			return (error_condition(_Errval, generic_category()));

	call	?generic_category@std@@YAABVerror_category@1@XZ ; std::generic_category
	push	eax
	mov	eax, DWORD PTR __Errval$[ebp]
	push	eax
	mov	ecx, DWORD PTR ___$ReturnUdt$[ebp]
	call	??0error_condition@std@@QAE@HABVerror_category@1@@Z ; std::error_condition::error_condition
	mov	eax, DWORD PTR ___$ReturnUdt$[ebp]
	jmp	SHORT $LN3@default_er

; 617  : 		else

	jmp	SHORT $LN3@default_er
$LN2@default_er:

; 618  : 			return (error_condition(_Errval, system_category()));

	call	?system_category@std@@YAABVerror_category@1@XZ ; std::system_category
	push	eax
	mov	eax, DWORD PTR __Errval$[ebp]
	push	eax
	mov	ecx, DWORD PTR ___$ReturnUdt$[ebp]
	call	??0error_condition@std@@QAE@HABVerror_category@1@@Z ; std::error_condition::error_condition
	mov	eax, DWORD PTR ___$ReturnUdt$[ebp]
$LN3@default_er:

; 619  : 		}

	pop	edi
	pop	esi
	pop	ebx
	add	esp, 204				; 000000ccH
	cmp	ebp, esp
	call	__RTC_CheckEsp
	mov	esp, ebp
	pop	ebp
	ret	8
?default_error_condition@_System_error_category@std@@UBE?AVerror_condition@2@H@Z ENDP ; std::_System_error_category::default_error_condition
_TEXT	ENDS
; Function compile flags: /Odtp /RTCsu /ZI
; File c:\program files (x86)\microsoft visual studio 12.0\vc\include\system_error
;	COMDAT ?message@_System_error_category@std@@UBE?AV?$basic_string@DU?$char_traits@D@std@@V?$allocator@D@2@@2@H@Z
_TEXT	SEGMENT
tv69 = -232						; size = 4
$T1 = -224						; size = 4
__Name$ = -20						; size = 4
_this$ = -8						; size = 4
___$ReturnUdt$ = 8					; size = 4
__Errcode$ = 12						; size = 4
?message@_System_error_category@std@@UBE?AV?$basic_string@DU?$char_traits@D@std@@V?$allocator@D@2@@2@H@Z PROC ; std::_System_error_category::message, COMDAT
; _this$ = ecx

; 607  : 		{	// convert to name of error

	push	ebp
	mov	ebp, esp
	sub	esp, 232				; 000000e8H
	push	ebx
	push	esi
	push	edi
	push	ecx
	lea	edi, DWORD PTR [ebp-232]
	mov	ecx, 58					; 0000003aH
	mov	eax, -858993460				; ccccccccH
	rep stosd
	pop	ecx
	mov	DWORD PTR _this$[ebp], ecx
	mov	DWORD PTR $T1[ebp], 0

; 608  : 		const char *_Name = _Winerror_map(_Errcode);

	mov	eax, DWORD PTR __Errcode$[ebp]
	push	eax
	call	?_Winerror_map@std@@YAPBDH@Z		; std::_Winerror_map
	add	esp, 4
	mov	DWORD PTR __Name$[ebp], eax

; 609  : 		return (string(_Name != 0 ? _Name : "unknown error"));

	cmp	DWORD PTR __Name$[ebp], 0
	je	SHORT $LN3@message
	mov	eax, DWORD PTR __Name$[ebp]
	mov	DWORD PTR tv69[ebp], eax
	jmp	SHORT $LN4@message
$LN3@message:
	mov	DWORD PTR tv69[ebp], OFFSET ??_C@_0O@BFJCFAAK@unknown?5error?$AA@
$LN4@message:
	mov	ecx, DWORD PTR tv69[ebp]
	push	ecx
	mov	ecx, DWORD PTR ___$ReturnUdt$[ebp]
	call	??0?$basic_string@DU?$char_traits@D@std@@V?$allocator@D@2@@std@@QAE@PBD@Z ; std::basic_string<char,std::char_traits<char>,std::allocator<char> >::basic_string<char,std::char_traits<char>,std::allocator<char> >
	mov	edx, DWORD PTR $T1[ebp]
	or	edx, 1
	mov	DWORD PTR $T1[ebp], edx
	mov	eax, DWORD PTR ___$ReturnUdt$[ebp]

; 610  : 		}

	pop	edi
	pop	esi
	pop	ebx
	add	esp, 232				; 000000e8H
	cmp	ebp, esp
	call	__RTC_CheckEsp
	mov	esp, ebp
	pop	ebp
	ret	8
?message@_System_error_category@std@@UBE?AV?$basic_string@DU?$char_traits@D@std@@V?$allocator@D@2@@2@H@Z ENDP ; std::_System_error_category::message
_TEXT	ENDS
; Function compile flags: /Odtp /RTCsu /ZI
; File c:\program files (x86)\microsoft visual studio 12.0\vc\include\system_error
;	COMDAT ?name@_System_error_category@std@@UBEPBDXZ
_TEXT	SEGMENT
_this$ = -8						; size = 4
?name@_System_error_category@std@@UBEPBDXZ PROC		; std::_System_error_category::name, COMDAT
; _this$ = ecx

; 602  : 		{	// get name of category

	push	ebp
	mov	ebp, esp
	sub	esp, 204				; 000000ccH
	push	ebx
	push	esi
	push	edi
	push	ecx
	lea	edi, DWORD PTR [ebp-204]
	mov	ecx, 51					; 00000033H
	mov	eax, -858993460				; ccccccccH
	rep stosd
	pop	ecx
	mov	DWORD PTR _this$[ebp], ecx

; 603  : 		return ("system");

	mov	eax, OFFSET ??_C@_06FHFOAHML@system?$AA@

; 604  : 		}

	pop	edi
	pop	esi
	pop	ebx
	mov	esp, ebp
	pop	ebp
	ret	0
?name@_System_error_category@std@@UBEPBDXZ ENDP		; std::_System_error_category::name
_TEXT	ENDS
; Function compile flags: /Odtp /RTCsu /ZI
; File c:\program files (x86)\microsoft visual studio 12.0\vc\include\system_error
;	COMDAT ??0_System_error_category@std@@QAE@XZ
_TEXT	SEGMENT
_this$ = -8						; size = 4
??0_System_error_category@std@@QAE@XZ PROC		; std::_System_error_category::_System_error_category, COMDAT
; _this$ = ecx

; 597  : 	_System_error_category()

	push	ebp
	mov	ebp, esp
	sub	esp, 204				; 000000ccH
	push	ebx
	push	esi
	push	edi
	push	ecx
	lea	edi, DWORD PTR [ebp-204]
	mov	ecx, 51					; 00000033H
	mov	eax, -858993460				; ccccccccH
	rep stosd
	pop	ecx
	mov	DWORD PTR _this$[ebp], ecx
	mov	ecx, DWORD PTR _this$[ebp]
	call	??0_Generic_error_category@std@@QAE@XZ	; std::_Generic_error_category::_Generic_error_category
	mov	eax, DWORD PTR _this$[ebp]
	mov	DWORD PTR [eax], OFFSET ??_7_System_error_category@std@@6B@

; 598  : 		{	// default constructor
; 599  : 		}

	mov	eax, DWORD PTR _this$[ebp]
	pop	edi
	pop	esi
	pop	ebx
	add	esp, 204				; 000000ccH
	cmp	ebp, esp
	call	__RTC_CheckEsp
	mov	esp, ebp
	pop	ebp
	ret	0
??0_System_error_category@std@@QAE@XZ ENDP		; std::_System_error_category::_System_error_category
_TEXT	ENDS
; Function compile flags: /Odtp /RTCsu /ZI
;	COMDAT ??_G_Iostream_error_category@std@@UAEPAXI@Z
_TEXT	SEGMENT
_this$ = -8						; size = 4
___flags$ = 8						; size = 4
??_G_Iostream_error_category@std@@UAEPAXI@Z PROC	; std::_Iostream_error_category::`scalar deleting destructor', COMDAT
; _this$ = ecx
	push	ebp
	mov	ebp, esp
	sub	esp, 204				; 000000ccH
	push	ebx
	push	esi
	push	edi
	push	ecx
	lea	edi, DWORD PTR [ebp-204]
	mov	ecx, 51					; 00000033H
	mov	eax, -858993460				; ccccccccH
	rep stosd
	pop	ecx
	mov	DWORD PTR _this$[ebp], ecx
	mov	ecx, DWORD PTR _this$[ebp]
	call	??1_Iostream_error_category@std@@UAE@XZ
	mov	eax, DWORD PTR ___flags$[ebp]
	and	eax, 1
	je	SHORT $LN1@scalar
	mov	eax, DWORD PTR _this$[ebp]
	push	eax
	call	??3@YAXPAX@Z				; operator delete
	add	esp, 4
$LN1@scalar:
	mov	eax, DWORD PTR _this$[ebp]
	pop	edi
	pop	esi
	pop	ebx
	add	esp, 204				; 000000ccH
	cmp	ebp, esp
	call	__RTC_CheckEsp
	mov	esp, ebp
	pop	ebp
	ret	4
??_G_Iostream_error_category@std@@UAEPAXI@Z ENDP	; std::_Iostream_error_category::`scalar deleting destructor'
_TEXT	ENDS
; Function compile flags: /Odtp /RTCsu /ZI
;	COMDAT ??1_Iostream_error_category@std@@UAE@XZ
_TEXT	SEGMENT
_this$ = -8						; size = 4
??1_Iostream_error_category@std@@UAE@XZ PROC		; std::_Iostream_error_category::~_Iostream_error_category, COMDAT
; _this$ = ecx
	push	ebp
	mov	ebp, esp
	sub	esp, 204				; 000000ccH
	push	ebx
	push	esi
	push	edi
	push	ecx
	lea	edi, DWORD PTR [ebp-204]
	mov	ecx, 51					; 00000033H
	mov	eax, -858993460				; ccccccccH
	rep stosd
	pop	ecx
	mov	DWORD PTR _this$[ebp], ecx
	mov	ecx, DWORD PTR _this$[ebp]
	call	??1_Generic_error_category@std@@UAE@XZ
	pop	edi
	pop	esi
	pop	ebx
	add	esp, 204				; 000000ccH
	cmp	ebp, esp
	call	__RTC_CheckEsp
	mov	esp, ebp
	pop	ebp
	ret	0
??1_Iostream_error_category@std@@UAE@XZ ENDP		; std::_Iostream_error_category::~_Iostream_error_category
_TEXT	ENDS
; Function compile flags: /Odtp /RTCsu /ZI
; File c:\program files (x86)\microsoft visual studio 12.0\vc\include\system_error
;	COMDAT ?message@_Iostream_error_category@std@@UBE?AV?$basic_string@DU?$char_traits@D@std@@V?$allocator@D@2@@2@H@Z
_TEXT	SEGMENT
$T1 = -212						; size = 4
_this$ = -8						; size = 4
___$ReturnUdt$ = 8					; size = 4
__Errcode$ = 12						; size = 4
?message@_Iostream_error_category@std@@UBE?AV?$basic_string@DU?$char_traits@D@std@@V?$allocator@D@2@@2@H@Z PROC ; std::_Iostream_error_category::message, COMDAT
; _this$ = ecx

; 584  : 		{	// convert to name of error

	push	ebp
	mov	ebp, esp
	sub	esp, 216				; 000000d8H
	push	ebx
	push	esi
	push	edi
	push	ecx
	lea	edi, DWORD PTR [ebp-216]
	mov	ecx, 54					; 00000036H
	mov	eax, -858993460				; ccccccccH
	rep stosd
	pop	ecx
	mov	DWORD PTR _this$[ebp], ecx
	mov	DWORD PTR $T1[ebp], 0

; 585  : 		if (_Errcode == (int)io_errc::stream)

	cmp	DWORD PTR __Errcode$[ebp], 1
	jne	SHORT $LN2@message

; 586  : 			return ("iostream stream error");

	push	OFFSET ??_C@_0BG@PADBLCHM@iostream?5stream?5error?$AA@
	mov	ecx, DWORD PTR ___$ReturnUdt$[ebp]
	call	??0?$basic_string@DU?$char_traits@D@std@@V?$allocator@D@2@@std@@QAE@PBD@Z ; std::basic_string<char,std::char_traits<char>,std::allocator<char> >::basic_string<char,std::char_traits<char>,std::allocator<char> >
	mov	eax, DWORD PTR $T1[ebp]
	or	eax, 1
	mov	DWORD PTR $T1[ebp], eax
	mov	eax, DWORD PTR ___$ReturnUdt$[ebp]
	jmp	SHORT $LN3@message

; 587  : 		else

	jmp	SHORT $LN3@message
$LN2@message:

; 588  : 			return (_Generic_error_category::message(_Errcode));

	mov	eax, DWORD PTR __Errcode$[ebp]
	push	eax
	mov	ecx, DWORD PTR ___$ReturnUdt$[ebp]
	push	ecx
	mov	ecx, DWORD PTR _this$[ebp]
	call	?message@_Generic_error_category@std@@UBE?AV?$basic_string@DU?$char_traits@D@std@@V?$allocator@D@2@@2@H@Z ; std::_Generic_error_category::message
	mov	edx, DWORD PTR $T1[ebp]
	or	edx, 1
	mov	DWORD PTR $T1[ebp], edx
	mov	eax, DWORD PTR ___$ReturnUdt$[ebp]
$LN3@message:

; 589  : 		}

	pop	edi
	pop	esi
	pop	ebx
	add	esp, 216				; 000000d8H
	cmp	ebp, esp
	call	__RTC_CheckEsp
	mov	esp, ebp
	pop	ebp
	ret	8
?message@_Iostream_error_category@std@@UBE?AV?$basic_string@DU?$char_traits@D@std@@V?$allocator@D@2@@2@H@Z ENDP ; std::_Iostream_error_category::message
_TEXT	ENDS
; Function compile flags: /Odtp /RTCsu /ZI
; File c:\program files (x86)\microsoft visual studio 12.0\vc\include\system_error
;	COMDAT ?name@_Iostream_error_category@std@@UBEPBDXZ
_TEXT	SEGMENT
_this$ = -8						; size = 4
?name@_Iostream_error_category@std@@UBEPBDXZ PROC	; std::_Iostream_error_category::name, COMDAT
; _this$ = ecx

; 579  : 		{	// get name of category

	push	ebp
	mov	ebp, esp
	sub	esp, 204				; 000000ccH
	push	ebx
	push	esi
	push	edi
	push	ecx
	lea	edi, DWORD PTR [ebp-204]
	mov	ecx, 51					; 00000033H
	mov	eax, -858993460				; ccccccccH
	rep stosd
	pop	ecx
	mov	DWORD PTR _this$[ebp], ecx

; 580  : 		return ("iostream");

	mov	eax, OFFSET ??_C@_08LLGCOLLL@iostream?$AA@

; 581  : 		}

	pop	edi
	pop	esi
	pop	ebx
	mov	esp, ebp
	pop	ebp
	ret	0
?name@_Iostream_error_category@std@@UBEPBDXZ ENDP	; std::_Iostream_error_category::name
_TEXT	ENDS
; Function compile flags: /Odtp /RTCsu /ZI
; File c:\program files (x86)\microsoft visual studio 12.0\vc\include\system_error
;	COMDAT ??0_Iostream_error_category@std@@QAE@XZ
_TEXT	SEGMENT
_this$ = -8						; size = 4
??0_Iostream_error_category@std@@QAE@XZ PROC		; std::_Iostream_error_category::_Iostream_error_category, COMDAT
; _this$ = ecx

; 574  : 	_Iostream_error_category()

	push	ebp
	mov	ebp, esp
	sub	esp, 204				; 000000ccH
	push	ebx
	push	esi
	push	edi
	push	ecx
	lea	edi, DWORD PTR [ebp-204]
	mov	ecx, 51					; 00000033H
	mov	eax, -858993460				; ccccccccH
	rep stosd
	pop	ecx
	mov	DWORD PTR _this$[ebp], ecx
	mov	ecx, DWORD PTR _this$[ebp]
	call	??0_Generic_error_category@std@@QAE@XZ	; std::_Generic_error_category::_Generic_error_category
	mov	eax, DWORD PTR _this$[ebp]
	mov	DWORD PTR [eax], OFFSET ??_7_Iostream_error_category@std@@6B@

; 575  : 		{	// default constructor
; 576  : 		}

	mov	eax, DWORD PTR _this$[ebp]
	pop	edi
	pop	esi
	pop	ebx
	add	esp, 204				; 000000ccH
	cmp	ebp, esp
	call	__RTC_CheckEsp
	mov	esp, ebp
	pop	ebp
	ret	0
??0_Iostream_error_category@std@@QAE@XZ ENDP		; std::_Iostream_error_category::_Iostream_error_category
_TEXT	ENDS
; Function compile flags: /Odtp /RTCsu /ZI
;	COMDAT ??_G_Generic_error_category@std@@UAEPAXI@Z
_TEXT	SEGMENT
_this$ = -8						; size = 4
___flags$ = 8						; size = 4
??_G_Generic_error_category@std@@UAEPAXI@Z PROC		; std::_Generic_error_category::`scalar deleting destructor', COMDAT
; _this$ = ecx
	push	ebp
	mov	ebp, esp
	sub	esp, 204				; 000000ccH
	push	ebx
	push	esi
	push	edi
	push	ecx
	lea	edi, DWORD PTR [ebp-204]
	mov	ecx, 51					; 00000033H
	mov	eax, -858993460				; ccccccccH
	rep stosd
	pop	ecx
	mov	DWORD PTR _this$[ebp], ecx
	mov	ecx, DWORD PTR _this$[ebp]
	call	??1_Generic_error_category@std@@UAE@XZ
	mov	eax, DWORD PTR ___flags$[ebp]
	and	eax, 1
	je	SHORT $LN1@scalar
	mov	eax, DWORD PTR _this$[ebp]
	push	eax
	call	??3@YAXPAX@Z				; operator delete
	add	esp, 4
$LN1@scalar:
	mov	eax, DWORD PTR _this$[ebp]
	pop	edi
	pop	esi
	pop	ebx
	add	esp, 204				; 000000ccH
	cmp	ebp, esp
	call	__RTC_CheckEsp
	mov	esp, ebp
	pop	ebp
	ret	4
??_G_Generic_error_category@std@@UAEPAXI@Z ENDP		; std::_Generic_error_category::`scalar deleting destructor'
_TEXT	ENDS
; Function compile flags: /Odtp /RTCsu /ZI
;	COMDAT ??1_Generic_error_category@std@@UAE@XZ
_TEXT	SEGMENT
_this$ = -8						; size = 4
??1_Generic_error_category@std@@UAE@XZ PROC		; std::_Generic_error_category::~_Generic_error_category, COMDAT
; _this$ = ecx
	push	ebp
	mov	ebp, esp
	sub	esp, 204				; 000000ccH
	push	ebx
	push	esi
	push	edi
	push	ecx
	lea	edi, DWORD PTR [ebp-204]
	mov	ecx, 51					; 00000033H
	mov	eax, -858993460				; ccccccccH
	rep stosd
	pop	ecx
	mov	DWORD PTR _this$[ebp], ecx
	mov	ecx, DWORD PTR _this$[ebp]
	call	??1error_category@std@@UAE@XZ		; std::error_category::~error_category
	pop	edi
	pop	esi
	pop	ebx
	add	esp, 204				; 000000ccH
	cmp	ebp, esp
	call	__RTC_CheckEsp
	mov	esp, ebp
	pop	ebp
	ret	0
??1_Generic_error_category@std@@UAE@XZ ENDP		; std::_Generic_error_category::~_Generic_error_category
_TEXT	ENDS
; Function compile flags: /Odtp /RTCsu /ZI
; File c:\program files (x86)\microsoft visual studio 12.0\vc\include\system_error
;	COMDAT ?message@_Generic_error_category@std@@UBE?AV?$basic_string@DU?$char_traits@D@std@@V?$allocator@D@2@@2@H@Z
_TEXT	SEGMENT
tv69 = -232						; size = 4
$T1 = -224						; size = 4
__Name$ = -20						; size = 4
_this$ = -8						; size = 4
___$ReturnUdt$ = 8					; size = 4
__Errcode$ = 12						; size = 4
?message@_Generic_error_category@std@@UBE?AV?$basic_string@DU?$char_traits@D@std@@V?$allocator@D@2@@2@H@Z PROC ; std::_Generic_error_category::message, COMDAT
; _this$ = ecx

; 563  : 		{	// convert to name of error

	push	ebp
	mov	ebp, esp
	sub	esp, 232				; 000000e8H
	push	ebx
	push	esi
	push	edi
	push	ecx
	lea	edi, DWORD PTR [ebp-232]
	mov	ecx, 58					; 0000003aH
	mov	eax, -858993460				; ccccccccH
	rep stosd
	pop	ecx
	mov	DWORD PTR _this$[ebp], ecx
	mov	DWORD PTR $T1[ebp], 0

; 564  : 		const char *_Name = _Syserror_map(_Errcode);

	mov	eax, DWORD PTR __Errcode$[ebp]
	push	eax
	call	?_Syserror_map@std@@YAPBDH@Z		; std::_Syserror_map
	add	esp, 4
	mov	DWORD PTR __Name$[ebp], eax

; 565  : 		return (string(_Name != 0 ? _Name : "unknown error"));

	cmp	DWORD PTR __Name$[ebp], 0
	je	SHORT $LN3@message
	mov	eax, DWORD PTR __Name$[ebp]
	mov	DWORD PTR tv69[ebp], eax
	jmp	SHORT $LN4@message
$LN3@message:
	mov	DWORD PTR tv69[ebp], OFFSET ??_C@_0O@BFJCFAAK@unknown?5error?$AA@
$LN4@message:
	mov	ecx, DWORD PTR tv69[ebp]
	push	ecx
	mov	ecx, DWORD PTR ___$ReturnUdt$[ebp]
	call	??0?$basic_string@DU?$char_traits@D@std@@V?$allocator@D@2@@std@@QAE@PBD@Z ; std::basic_string<char,std::char_traits<char>,std::allocator<char> >::basic_string<char,std::char_traits<char>,std::allocator<char> >
	mov	edx, DWORD PTR $T1[ebp]
	or	edx, 1
	mov	DWORD PTR $T1[ebp], edx
	mov	eax, DWORD PTR ___$ReturnUdt$[ebp]

; 566  : 		}

	pop	edi
	pop	esi
	pop	ebx
	add	esp, 232				; 000000e8H
	cmp	ebp, esp
	call	__RTC_CheckEsp
	mov	esp, ebp
	pop	ebp
	ret	8
?message@_Generic_error_category@std@@UBE?AV?$basic_string@DU?$char_traits@D@std@@V?$allocator@D@2@@2@H@Z ENDP ; std::_Generic_error_category::message
_TEXT	ENDS
; Function compile flags: /Odtp /RTCsu /ZI
; File c:\program files (x86)\microsoft visual studio 12.0\vc\include\system_error
;	COMDAT ?name@_Generic_error_category@std@@UBEPBDXZ
_TEXT	SEGMENT
_this$ = -8						; size = 4
?name@_Generic_error_category@std@@UBEPBDXZ PROC	; std::_Generic_error_category::name, COMDAT
; _this$ = ecx

; 558  : 		{	// get name of category

	push	ebp
	mov	ebp, esp
	sub	esp, 204				; 000000ccH
	push	ebx
	push	esi
	push	edi
	push	ecx
	lea	edi, DWORD PTR [ebp-204]
	mov	ecx, 51					; 00000033H
	mov	eax, -858993460				; ccccccccH
	rep stosd
	pop	ecx
	mov	DWORD PTR _this$[ebp], ecx

; 559  : 		return ("generic");

	mov	eax, OFFSET ??_C@_07DCLBNMLN@generic?$AA@

; 560  : 		}

	pop	edi
	pop	esi
	pop	ebx
	mov	esp, ebp
	pop	ebp
	ret	0
?name@_Generic_error_category@std@@UBEPBDXZ ENDP	; std::_Generic_error_category::name
_TEXT	ENDS
; Function compile flags: /Odtp /RTCsu /ZI
; File c:\program files (x86)\microsoft visual studio 12.0\vc\include\system_error
;	COMDAT ??0_Generic_error_category@std@@QAE@XZ
_TEXT	SEGMENT
_this$ = -8						; size = 4
??0_Generic_error_category@std@@QAE@XZ PROC		; std::_Generic_error_category::_Generic_error_category, COMDAT
; _this$ = ecx

; 553  : 	_Generic_error_category()

	push	ebp
	mov	ebp, esp
	sub	esp, 204				; 000000ccH
	push	ebx
	push	esi
	push	edi
	push	ecx
	lea	edi, DWORD PTR [ebp-204]
	mov	ecx, 51					; 00000033H
	mov	eax, -858993460				; ccccccccH
	rep stosd
	pop	ecx
	mov	DWORD PTR _this$[ebp], ecx
	mov	ecx, DWORD PTR _this$[ebp]
	call	??0error_category@std@@QAE@XZ		; std::error_category::error_category
	mov	eax, DWORD PTR _this$[ebp]
	mov	DWORD PTR [eax], OFFSET ??_7_Generic_error_category@std@@6B@

; 554  : 		{	// default constructor
; 555  : 		}

	mov	eax, DWORD PTR _this$[ebp]
	pop	edi
	pop	esi
	pop	ebx
	add	esp, 204				; 000000ccH
	cmp	ebp, esp
	call	__RTC_CheckEsp
	mov	esp, ebp
	pop	ebp
	ret	0
??0_Generic_error_category@std@@QAE@XZ ENDP		; std::_Generic_error_category::_Generic_error_category
_TEXT	ENDS
; Function compile flags: /Odtp /RTCsu /ZI
; File c:\program files (x86)\microsoft visual studio 12.0\vc\include\system_error
;	COMDAT ??8error_condition@std@@QBE_NABV01@@Z
_TEXT	SEGMENT
tv78 = -208						; size = 4
_this$ = -8						; size = 4
__Right$ = 8						; size = 4
??8error_condition@std@@QBE_NABV01@@Z PROC		; std::error_condition::operator==, COMDAT
; _this$ = ecx

; 352  : 		{	// test if *this == _Right

	push	ebp
	mov	ebp, esp
	sub	esp, 208				; 000000d0H
	push	ebx
	push	esi
	push	edi
	push	ecx
	lea	edi, DWORD PTR [ebp-208]
	mov	ecx, 52					; 00000034H
	mov	eax, -858993460				; ccccccccH
	rep stosd
	pop	ecx
	mov	DWORD PTR _this$[ebp], ecx

; 353  : 		return (category() == _Right.category()
; 354  : 			&& value() == _Right.value());

	mov	ecx, DWORD PTR __Right$[ebp]
	call	?category@error_condition@std@@QBEABVerror_category@2@XZ ; std::error_condition::category
	push	eax
	mov	ecx, DWORD PTR _this$[ebp]
	call	?category@error_condition@std@@QBEABVerror_category@2@XZ ; std::error_condition::category
	mov	ecx, eax
	call	??8error_category@std@@QBE_NABV01@@Z	; std::error_category::operator==
	movzx	eax, al
	test	eax, eax
	je	SHORT $LN3@operator
	mov	ecx, DWORD PTR _this$[ebp]
	call	?value@error_condition@std@@QBEHXZ	; std::error_condition::value
	mov	esi, eax
	mov	ecx, DWORD PTR __Right$[ebp]
	call	?value@error_condition@std@@QBEHXZ	; std::error_condition::value
	cmp	esi, eax
	jne	SHORT $LN3@operator
	mov	DWORD PTR tv78[ebp], 1
	jmp	SHORT $LN4@operator
$LN3@operator:
	mov	DWORD PTR tv78[ebp], 0
$LN4@operator:
	mov	al, BYTE PTR tv78[ebp]

; 355  : 		}

	pop	edi
	pop	esi
	pop	ebx
	add	esp, 208				; 000000d0H
	cmp	ebp, esp
	call	__RTC_CheckEsp
	mov	esp, ebp
	pop	ebp
	ret	4
??8error_condition@std@@QBE_NABV01@@Z ENDP		; std::error_condition::operator==
_TEXT	ENDS
; Function compile flags: /Odtp /RTCsu /ZI
; File c:\program files (x86)\microsoft visual studio 12.0\vc\include\system_error
;	COMDAT ?category@error_condition@std@@QBEABVerror_category@2@XZ
_TEXT	SEGMENT
_this$ = -8						; size = 4
?category@error_condition@std@@QBEABVerror_category@2@XZ PROC ; std::error_condition::category, COMDAT
; _this$ = ecx

; 337  : 		{	// get category

	push	ebp
	mov	ebp, esp
	sub	esp, 204				; 000000ccH
	push	ebx
	push	esi
	push	edi
	push	ecx
	lea	edi, DWORD PTR [ebp-204]
	mov	ecx, 51					; 00000033H
	mov	eax, -858993460				; ccccccccH
	rep stosd
	pop	ecx
	mov	DWORD PTR _this$[ebp], ecx

; 338  : 		return (*_Mycat);

	mov	eax, DWORD PTR _this$[ebp]
	mov	eax, DWORD PTR [eax+4]

; 339  : 		}

	pop	edi
	pop	esi
	pop	ebx
	mov	esp, ebp
	pop	ebp
	ret	0
?category@error_condition@std@@QBEABVerror_category@2@XZ ENDP ; std::error_condition::category
_TEXT	ENDS
; Function compile flags: /Odtp /RTCsu /ZI
; File c:\program files (x86)\microsoft visual studio 12.0\vc\include\system_error
;	COMDAT ?value@error_condition@std@@QBEHXZ
_TEXT	SEGMENT
_this$ = -8						; size = 4
?value@error_condition@std@@QBEHXZ PROC			; std::error_condition::value, COMDAT
; _this$ = ecx

; 332  : 		{	// get error code

	push	ebp
	mov	ebp, esp
	sub	esp, 204				; 000000ccH
	push	ebx
	push	esi
	push	edi
	push	ecx
	lea	edi, DWORD PTR [ebp-204]
	mov	ecx, 51					; 00000033H
	mov	eax, -858993460				; ccccccccH
	rep stosd
	pop	ecx
	mov	DWORD PTR _this$[ebp], ecx

; 333  : 		return (_Myval);

	mov	eax, DWORD PTR _this$[ebp]
	mov	eax, DWORD PTR [eax]

; 334  : 		}

	pop	edi
	pop	esi
	pop	ebx
	mov	esp, ebp
	pop	ebp
	ret	0
?value@error_condition@std@@QBEHXZ ENDP			; std::error_condition::value
_TEXT	ENDS
; Function compile flags: /Odtp /RTCsu /ZI
; File c:\program files (x86)\microsoft visual studio 12.0\vc\include\system_error
;	COMDAT ??0error_condition@std@@QAE@HABVerror_category@1@@Z
_TEXT	SEGMENT
_this$ = -8						; size = 4
__Val$ = 8						; size = 4
__Cat$ = 12						; size = 4
??0error_condition@std@@QAE@HABVerror_category@1@@Z PROC ; std::error_condition::error_condition, COMDAT
; _this$ = ecx

; 299  : 		{	// construct from error code and category

	push	ebp
	mov	ebp, esp
	sub	esp, 204				; 000000ccH
	push	ebx
	push	esi
	push	edi
	push	ecx
	lea	edi, DWORD PTR [ebp-204]
	mov	ecx, 51					; 00000033H
	mov	eax, -858993460				; ccccccccH
	rep stosd
	pop	ecx
	mov	DWORD PTR _this$[ebp], ecx
	mov	eax, DWORD PTR _this$[ebp]
	mov	ecx, DWORD PTR __Val$[ebp]
	mov	DWORD PTR [eax], ecx
	mov	eax, DWORD PTR _this$[ebp]
	mov	ecx, DWORD PTR __Cat$[ebp]
	mov	DWORD PTR [eax+4], ecx

; 300  : 		}

	mov	eax, DWORD PTR _this$[ebp]
	pop	edi
	pop	esi
	pop	ebx
	mov	esp, ebp
	pop	ebp
	ret	8
??0error_condition@std@@QAE@HABVerror_category@1@@Z ENDP ; std::error_condition::error_condition
_TEXT	ENDS
; Function compile flags: /Odtp /RTCsu /ZI
; File c:\program files (x86)\microsoft visual studio 12.0\vc\include\system_error
;	COMDAT ?category@error_code@std@@QBEABVerror_category@2@XZ
_TEXT	SEGMENT
_this$ = -8						; size = 4
?category@error_code@std@@QBEABVerror_category@2@XZ PROC ; std::error_code::category, COMDAT
; _this$ = ecx

; 246  : 		{	// get category

	push	ebp
	mov	ebp, esp
	sub	esp, 204				; 000000ccH
	push	ebx
	push	esi
	push	edi
	push	ecx
	lea	edi, DWORD PTR [ebp-204]
	mov	ecx, 51					; 00000033H
	mov	eax, -858993460				; ccccccccH
	rep stosd
	pop	ecx
	mov	DWORD PTR _this$[ebp], ecx

; 247  : 		return (*_Mycat);

	mov	eax, DWORD PTR _this$[ebp]
	mov	eax, DWORD PTR [eax+4]

; 248  : 		}

	pop	edi
	pop	esi
	pop	ebx
	mov	esp, ebp
	pop	ebp
	ret	0
?category@error_code@std@@QBEABVerror_category@2@XZ ENDP ; std::error_code::category
_TEXT	ENDS
; Function compile flags: /Odtp /RTCsu /ZI
; File c:\program files (x86)\microsoft visual studio 12.0\vc\include\system_error
;	COMDAT ?value@error_code@std@@QBEHXZ
_TEXT	SEGMENT
_this$ = -8						; size = 4
?value@error_code@std@@QBEHXZ PROC			; std::error_code::value, COMDAT
; _this$ = ecx

; 241  : 		{	// get error code

	push	ebp
	mov	ebp, esp
	sub	esp, 204				; 000000ccH
	push	ebx
	push	esi
	push	edi
	push	ecx
	lea	edi, DWORD PTR [ebp-204]
	mov	ecx, 51					; 00000033H
	mov	eax, -858993460				; ccccccccH
	rep stosd
	pop	ecx
	mov	DWORD PTR _this$[ebp], ecx

; 242  : 		return (_Myval);

	mov	eax, DWORD PTR _this$[ebp]
	mov	eax, DWORD PTR [eax]

; 243  : 		}

	pop	edi
	pop	esi
	pop	ebx
	mov	esp, ebp
	pop	ebp
	ret	0
?value@error_code@std@@QBEHXZ ENDP			; std::error_code::value
_TEXT	ENDS
; Function compile flags: /Odtp /RTCsu /ZI
;	COMDAT ??_Gerror_category@std@@UAEPAXI@Z
_TEXT	SEGMENT
_this$ = -8						; size = 4
___flags$ = 8						; size = 4
??_Gerror_category@std@@UAEPAXI@Z PROC			; std::error_category::`scalar deleting destructor', COMDAT
; _this$ = ecx
	push	ebp
	mov	ebp, esp
	sub	esp, 204				; 000000ccH
	push	ebx
	push	esi
	push	edi
	push	ecx
	lea	edi, DWORD PTR [ebp-204]
	mov	ecx, 51					; 00000033H
	mov	eax, -858993460				; ccccccccH
	rep stosd
	pop	ecx
	mov	DWORD PTR _this$[ebp], ecx
	mov	ecx, DWORD PTR _this$[ebp]
	call	??1error_category@std@@UAE@XZ		; std::error_category::~error_category
	mov	eax, DWORD PTR ___flags$[ebp]
	and	eax, 1
	je	SHORT $LN1@scalar
	mov	eax, DWORD PTR _this$[ebp]
	push	eax
	call	??3@YAXPAX@Z				; operator delete
	add	esp, 4
$LN1@scalar:
	mov	eax, DWORD PTR _this$[ebp]
	pop	edi
	pop	esi
	pop	ebx
	add	esp, 204				; 000000ccH
	cmp	ebp, esp
	call	__RTC_CheckEsp
	mov	esp, ebp
	pop	ebp
	ret	4
??_Gerror_category@std@@UAEPAXI@Z ENDP			; std::error_category::`scalar deleting destructor'
_TEXT	ENDS
; Function compile flags: /Odtp /RTCsu /ZI
; File c:\program files (x86)\microsoft visual studio 12.0\vc\include\system_error
;	COMDAT ??8error_category@std@@QBE_NABV01@@Z
_TEXT	SEGMENT
tv65 = -208						; size = 4
_this$ = -8						; size = 4
__Right$ = 8						; size = 4
??8error_category@std@@QBE_NABV01@@Z PROC		; std::error_category::operator==, COMDAT
; _this$ = ecx

; 176  : 		{	// compare categories for equality

	push	ebp
	mov	ebp, esp
	sub	esp, 208				; 000000d0H
	push	ebx
	push	esi
	push	edi
	push	ecx
	lea	edi, DWORD PTR [ebp-208]
	mov	ecx, 52					; 00000034H
	mov	eax, -858993460				; ccccccccH
	rep stosd
	pop	ecx
	mov	DWORD PTR _this$[ebp], ecx

; 177  : 		return (this == &_Right);

	mov	eax, DWORD PTR _this$[ebp]
	cmp	eax, DWORD PTR __Right$[ebp]
	jne	SHORT $LN3@operator
	mov	DWORD PTR tv65[ebp], 1
	jmp	SHORT $LN4@operator
$LN3@operator:
	mov	DWORD PTR tv65[ebp], 0
$LN4@operator:
	mov	al, BYTE PTR tv65[ebp]

; 178  : 		}

	pop	edi
	pop	esi
	pop	ebx
	mov	esp, ebp
	pop	ebp
	ret	4
??8error_category@std@@QBE_NABV01@@Z ENDP		; std::error_category::operator==
_TEXT	ENDS
; Function compile flags: /Odtp /RTCsu /ZI
; File c:\program files (x86)\microsoft visual studio 12.0\vc\include\system_error
;	COMDAT ?equivalent@error_category@std@@UBE_NABVerror_code@2@H@Z
_TEXT	SEGMENT
tv74 = -208						; size = 4
_this$ = -8						; size = 4
__Code$ = 8						; size = 4
__Errval$ = 12						; size = 4
?equivalent@error_category@std@@UBE_NABVerror_code@2@H@Z PROC ; std::error_category::equivalent, COMDAT
; _this$ = ecx

; 391  : 	{	// test if conditions same for this category

	push	ebp
	mov	ebp, esp
	sub	esp, 208				; 000000d0H
	push	ebx
	push	esi
	push	edi
	push	ecx
	lea	edi, DWORD PTR [ebp-208]
	mov	ecx, 52					; 00000034H
	mov	eax, -858993460				; ccccccccH
	rep stosd
	pop	ecx
	mov	DWORD PTR _this$[ebp], ecx

; 392  : 	return (*this == _Code.category() && _Code.value() == _Errval);

	mov	ecx, DWORD PTR __Code$[ebp]
	call	?category@error_code@std@@QBEABVerror_category@2@XZ ; std::error_code::category
	push	eax
	mov	ecx, DWORD PTR _this$[ebp]
	call	??8error_category@std@@QBE_NABV01@@Z	; std::error_category::operator==
	movzx	eax, al
	test	eax, eax
	je	SHORT $LN3@equivalent
	mov	ecx, DWORD PTR __Code$[ebp]
	call	?value@error_code@std@@QBEHXZ		; std::error_code::value
	cmp	eax, DWORD PTR __Errval$[ebp]
	jne	SHORT $LN3@equivalent
	mov	DWORD PTR tv74[ebp], 1
	jmp	SHORT $LN4@equivalent
$LN3@equivalent:
	mov	DWORD PTR tv74[ebp], 0
$LN4@equivalent:
	mov	al, BYTE PTR tv74[ebp]

; 393  : 	}

	pop	edi
	pop	esi
	pop	ebx
	add	esp, 208				; 000000d0H
	cmp	ebp, esp
	call	__RTC_CheckEsp
	mov	esp, ebp
	pop	ebp
	ret	8
?equivalent@error_category@std@@UBE_NABVerror_code@2@H@Z ENDP ; std::error_category::equivalent
_TEXT	ENDS
; Function compile flags: /Odtp /RTCsu /ZI
; File c:\program files (x86)\microsoft visual studio 12.0\vc\include\system_error
;	COMDAT ?equivalent@error_category@std@@UBE_NHABVerror_condition@2@@Z
_TEXT	SEGMENT
$T1 = -216						; size = 8
_this$ = -8						; size = 4
__Errval$ = 8						; size = 4
__Cond$ = 12						; size = 4
?equivalent@error_category@std@@UBE_NHABVerror_condition@2@@Z PROC ; std::error_category::equivalent, COMDAT
; _this$ = ecx

; 384  : 	{	// test if error code same condition

	push	ebp
	mov	ebp, esp
	sub	esp, 220				; 000000dcH
	push	ebx
	push	esi
	push	edi
	push	ecx
	lea	edi, DWORD PTR [ebp-220]
	mov	ecx, 55					; 00000037H
	mov	eax, -858993460				; ccccccccH
	rep stosd
	pop	ecx
	mov	DWORD PTR _this$[ebp], ecx

; 385  : 	return (default_error_condition(_Errval) == _Cond);

	mov	eax, DWORD PTR __Cond$[ebp]
	push	eax
	mov	esi, esp
	mov	ecx, DWORD PTR __Errval$[ebp]
	push	ecx
	lea	edx, DWORD PTR $T1[ebp]
	push	edx
	mov	eax, DWORD PTR _this$[ebp]
	mov	edx, DWORD PTR [eax]
	mov	ecx, DWORD PTR _this$[ebp]
	mov	eax, DWORD PTR [edx+12]
	call	eax
	cmp	esi, esp
	call	__RTC_CheckEsp
	mov	ecx, eax
	call	??8error_condition@std@@QBE_NABV01@@Z	; std::error_condition::operator==

; 386  : 	}

	pop	edi
	pop	esi
	pop	ebx
	add	esp, 220				; 000000dcH
	cmp	ebp, esp
	call	__RTC_CheckEsp
	mov	esp, ebp
	pop	ebp
	ret	8
?equivalent@error_category@std@@UBE_NHABVerror_condition@2@@Z ENDP ; std::error_category::equivalent
_TEXT	ENDS
; Function compile flags: /Odtp /RTCsu /ZI
; File c:\program files (x86)\microsoft visual studio 12.0\vc\include\system_error
;	COMDAT ?default_error_condition@error_category@std@@UBE?AVerror_condition@2@H@Z
_TEXT	SEGMENT
_this$ = -8						; size = 4
___$ReturnUdt$ = 8					; size = 4
__Errval$ = 12						; size = 4
?default_error_condition@error_category@std@@UBE?AVerror_condition@2@H@Z PROC ; std::error_category::default_error_condition, COMDAT
; _this$ = ecx

; 377  : 	{	// make error_condition for error code

	push	ebp
	mov	ebp, esp
	sub	esp, 204				; 000000ccH
	push	ebx
	push	esi
	push	edi
	push	ecx
	lea	edi, DWORD PTR [ebp-204]
	mov	ecx, 51					; 00000033H
	mov	eax, -858993460				; ccccccccH
	rep stosd
	pop	ecx
	mov	DWORD PTR _this$[ebp], ecx

; 378  : 	return (error_condition(_Errval, *this));

	mov	eax, DWORD PTR _this$[ebp]
	push	eax
	mov	ecx, DWORD PTR __Errval$[ebp]
	push	ecx
	mov	ecx, DWORD PTR ___$ReturnUdt$[ebp]
	call	??0error_condition@std@@QAE@HABVerror_category@1@@Z ; std::error_condition::error_condition
	mov	eax, DWORD PTR ___$ReturnUdt$[ebp]

; 379  : 	}

	pop	edi
	pop	esi
	pop	ebx
	add	esp, 204				; 000000ccH
	cmp	ebp, esp
	call	__RTC_CheckEsp
	mov	esp, ebp
	pop	ebp
	ret	8
?default_error_condition@error_category@std@@UBE?AVerror_condition@2@H@Z ENDP ; std::error_category::default_error_condition
_TEXT	ENDS
; Function compile flags: /Odtp /RTCsu /ZI
; File c:\program files (x86)\microsoft visual studio 12.0\vc\include\system_error
;	COMDAT ??1error_category@std@@UAE@XZ
_TEXT	SEGMENT
_this$ = -8						; size = 4
??1error_category@std@@UAE@XZ PROC			; std::error_category::~error_category, COMDAT
; _this$ = ecx

; 159  : 		{	// destroy the object

	push	ebp
	mov	ebp, esp
	sub	esp, 204				; 000000ccH
	push	ebx
	push	esi
	push	edi
	push	ecx
	lea	edi, DWORD PTR [ebp-204]
	mov	ecx, 51					; 00000033H
	mov	eax, -858993460				; ccccccccH
	rep stosd
	pop	ecx
	mov	DWORD PTR _this$[ebp], ecx
	mov	eax, DWORD PTR _this$[ebp]
	mov	DWORD PTR [eax], OFFSET ??_7error_category@std@@6B@

; 160  : 		}

	pop	edi
	pop	esi
	pop	ebx
	mov	esp, ebp
	pop	ebp
	ret	0
??1error_category@std@@UAE@XZ ENDP			; std::error_category::~error_category
_TEXT	ENDS
; Function compile flags: /Odtp /RTCsu /ZI
; File c:\program files (x86)\microsoft visual studio 12.0\vc\include\system_error
;	COMDAT ??0error_category@std@@QAE@XZ
_TEXT	SEGMENT
_this$ = -8						; size = 4
??0error_category@std@@QAE@XZ PROC			; std::error_category::error_category, COMDAT
; _this$ = ecx

; 154  : 	error_category()

	push	ebp
	mov	ebp, esp
	sub	esp, 204				; 000000ccH
	push	ebx
	push	esi
	push	edi
	push	ecx
	lea	edi, DWORD PTR [ebp-204]
	mov	ecx, 51					; 00000033H
	mov	eax, -858993460				; ccccccccH
	rep stosd
	pop	ecx
	mov	DWORD PTR _this$[ebp], ecx
	mov	eax, DWORD PTR _this$[ebp]
	mov	DWORD PTR [eax], OFFSET ??_7error_category@std@@6B@

; 155  : 		{	// default constructor
; 156  : 		}

	mov	eax, DWORD PTR _this$[ebp]
	pop	edi
	pop	esi
	pop	ebx
	mov	esp, ebp
	pop	ebp
	ret	0
??0error_category@std@@QAE@XZ ENDP			; std::error_category::error_category
_TEXT	ENDS
; Function compile flags: /Odtp /RTCsu /ZI
; File c:\program files (x86)\microsoft visual studio 12.0\vc\include\system_error
;	COMDAT ?system_category@std@@YAABVerror_category@1@XZ
_TEXT	SEGMENT
?system_category@std@@YAABVerror_category@1@XZ PROC	; std::system_category, COMDAT

; 652  : 	{	// get system_category

	push	ebp
	mov	ebp, esp
	sub	esp, 192				; 000000c0H
	push	ebx
	push	esi
	push	edi
	lea	edi, DWORD PTR [ebp-192]
	mov	ecx, 48					; 00000030H
	mov	eax, -858993460				; ccccccccH
	rep stosd

; 653  : 	return (_Error_objects<int>::_System_object);

	mov	eax, OFFSET ?_System_object@?$_Error_objects@H@std@@2V_System_error_category@2@A ; std::_Error_objects<int>::_System_object

; 654  : 	}

	pop	edi
	pop	esi
	pop	ebx
	mov	esp, ebp
	pop	ebp
	ret	0
?system_category@std@@YAABVerror_category@1@XZ ENDP	; std::system_category
_TEXT	ENDS
; Function compile flags: /Odtp /RTCsu /ZI
; File c:\program files (x86)\microsoft visual studio 12.0\vc\include\system_error
;	COMDAT ?generic_category@std@@YAABVerror_category@1@XZ
_TEXT	SEGMENT
?generic_category@std@@YAABVerror_category@1@XZ PROC	; std::generic_category, COMDAT

; 642  : 	{	// get generic_category

	push	ebp
	mov	ebp, esp
	sub	esp, 192				; 000000c0H
	push	ebx
	push	esi
	push	edi
	lea	edi, DWORD PTR [ebp-192]
	mov	ecx, 48					; 00000030H
	mov	eax, -858993460				; ccccccccH
	rep stosd

; 643  : 	return (_Error_objects<int>::_Generic_object);

	mov	eax, OFFSET ?_Generic_object@?$_Error_objects@H@std@@2V_Generic_error_category@2@A ; std::_Error_objects<int>::_Generic_object

; 644  : 	}

	pop	edi
	pop	esi
	pop	ebx
	mov	esp, ebp
	pop	ebp
	ret	0
?generic_category@std@@YAABVerror_category@1@XZ ENDP	; std::generic_category
_TEXT	ENDS
; Function compile flags: /Odtp /RTCsu /ZI
; File c:\program files (x86)\microsoft visual studio 12.0\vc\include\xutility
;	COMDAT ??$_Debug_pointer@D@std@@YAXPBDPB_WI@Z
_TEXT	SEGMENT
__First$ = 8						; size = 4
__File$ = 12						; size = 4
__Line$ = 16						; size = 4
??$_Debug_pointer@D@std@@YAXPBDPB_WI@Z PROC		; std::_Debug_pointer<char>, COMDAT

; 545  : 	{	// test iterator for non-singularity, const pointers

	push	ebp
	mov	ebp, esp
	sub	esp, 192				; 000000c0H
	push	ebx
	push	esi
	push	edi
	lea	edi, DWORD PTR [ebp-192]
	mov	ecx, 48					; 00000030H
	mov	eax, -858993460				; ccccccccH
	rep stosd

; 546  : 	if (_First == 0)

	cmp	DWORD PTR __First$[ebp], 0
	jne	SHORT $LN2@Debug_poin

; 547  : 		_DEBUG_ERROR2("invalid null pointer", _File, _Line);

	mov	eax, DWORD PTR __Line$[ebp]
	push	eax
	mov	ecx, DWORD PTR __File$[ebp]
	push	ecx
	push	OFFSET ??_C@_1CK@EOPGIILJ@?$AAi?$AAn?$AAv?$AAa?$AAl?$AAi?$AAd?$AA?5?$AAn?$AAu?$AAl?$AAl?$AA?5?$AAp?$AAo?$AAi?$AAn?$AAt?$AAe?$AAr?$AA?$AA@
	call	?_Debug_message@std@@YAXPB_W0I@Z	; std::_Debug_message
	add	esp, 12					; 0000000cH
$LN2@Debug_poin:

; 548  : 	}

	pop	edi
	pop	esi
	pop	ebx
	add	esp, 192				; 000000c0H
	cmp	ebp, esp
	call	__RTC_CheckEsp
	mov	esp, ebp
	pop	ebp
	ret	0
??$_Debug_pointer@D@std@@YAXPBDPB_WI@Z ENDP		; std::_Debug_pointer<char>
_TEXT	ENDS
; Function compile flags: /Odtp /RTCsu /ZI
; File c:\program files (x86)\microsoft visual studio 12.0\vc\include\xlocale
;	COMDAT ??0id@locale@std@@QAE@I@Z
_TEXT	SEGMENT
_this$ = -8						; size = 4
__Val$ = 8						; size = 4
??0id@locale@std@@QAE@I@Z PROC				; std::locale::id::id, COMDAT
; _this$ = ecx

; 74   : 			{	// construct with specified stamp value

	push	ebp
	mov	ebp, esp
	sub	esp, 204				; 000000ccH
	push	ebx
	push	esi
	push	edi
	push	ecx
	lea	edi, DWORD PTR [ebp-204]
	mov	ecx, 51					; 00000033H
	mov	eax, -858993460				; ccccccccH
	rep stosd
	pop	ecx
	mov	DWORD PTR _this$[ebp], ecx
	mov	eax, DWORD PTR _this$[ebp]
	mov	ecx, DWORD PTR __Val$[ebp]
	mov	DWORD PTR [eax], ecx

; 75   : 			}

	mov	eax, DWORD PTR _this$[ebp]
	pop	edi
	pop	esi
	pop	ebx
	mov	esp, ebp
	pop	ebp
	ret	4
??0id@locale@std@@QAE@I@Z ENDP				; std::locale::id::id
_TEXT	ENDS
; Function compile flags: /Odtp /RTCsu /ZI
; File c:\program files (x86)\microsoft visual studio 12.0\vc\include\xstring
;	COMDAT ?_Xran@?$basic_string@DU?$char_traits@D@std@@V?$allocator@D@2@@std@@QBEXXZ
_TEXT	SEGMENT
_this$ = -8						; size = 4
?_Xran@?$basic_string@DU?$char_traits@D@std@@V?$allocator@D@2@@std@@QBEXXZ PROC ; std::basic_string<char,std::char_traits<char>,std::allocator<char> >::_Xran, COMDAT
; _this$ = ecx

; 2294 : 		{	// report an out_of_range error

	push	ebp
	mov	ebp, esp
	sub	esp, 204				; 000000ccH
	push	ebx
	push	esi
	push	edi
	push	ecx
	lea	edi, DWORD PTR [ebp-204]
	mov	ecx, 51					; 00000033H
	mov	eax, -858993460				; ccccccccH
	rep stosd
	pop	ecx
	mov	DWORD PTR _this$[ebp], ecx

; 2295 : 		_Xout_of_range("invalid string position");

	push	OFFSET ??_C@_0BI@CFPLBAOH@invalid?5string?5position?$AA@
	call	?_Xout_of_range@std@@YAXPBD@Z		; std::_Xout_of_range
$LN2@Xran:

; 2296 : 		}

	pop	edi
	pop	esi
	pop	ebx
	add	esp, 204				; 000000ccH
	cmp	ebp, esp
	call	__RTC_CheckEsp
	mov	esp, ebp
	pop	ebp
	ret	0
?_Xran@?$basic_string@DU?$char_traits@D@std@@V?$allocator@D@2@@std@@QBEXXZ ENDP ; std::basic_string<char,std::char_traits<char>,std::allocator<char> >::_Xran
_TEXT	ENDS
; Function compile flags: /Odtp /RTCsu /ZI
; File c:\program files (x86)\microsoft visual studio 12.0\vc\include\xstring
;	COMDAT ?_Xlen@?$basic_string@DU?$char_traits@D@std@@V?$allocator@D@2@@std@@QBEXXZ
_TEXT	SEGMENT
_this$ = -8						; size = 4
?_Xlen@?$basic_string@DU?$char_traits@D@std@@V?$allocator@D@2@@std@@QBEXXZ PROC ; std::basic_string<char,std::char_traits<char>,std::allocator<char> >::_Xlen, COMDAT
; _this$ = ecx

; 2289 : 		{	// report a length_error

	push	ebp
	mov	ebp, esp
	sub	esp, 204				; 000000ccH
	push	ebx
	push	esi
	push	edi
	push	ecx
	lea	edi, DWORD PTR [ebp-204]
	mov	ecx, 51					; 00000033H
	mov	eax, -858993460				; ccccccccH
	rep stosd
	pop	ecx
	mov	DWORD PTR _this$[ebp], ecx

; 2290 : 		_Xlength_error("string too long");

	push	OFFSET ??_C@_0BA@JFNIOLAK@string?5too?5long?$AA@
	call	?_Xlength_error@std@@YAXPBD@Z		; std::_Xlength_error
$LN2@Xlen:

; 2291 : 		}

	pop	edi
	pop	esi
	pop	ebx
	add	esp, 204				; 000000ccH
	cmp	ebp, esp
	call	__RTC_CheckEsp
	mov	esp, ebp
	pop	ebp
	ret	0
?_Xlen@?$basic_string@DU?$char_traits@D@std@@V?$allocator@D@2@@std@@QBEXXZ ENDP ; std::basic_string<char,std::char_traits<char>,std::allocator<char> >::_Xlen
_TEXT	ENDS
; Function compile flags: /Odtp /RTCsu /ZI
; File c:\program files (x86)\microsoft visual studio 12.0\vc\include\xstring
;	COMDAT ?_Tidy@?$basic_string@DU?$char_traits@D@std@@V?$allocator@D@2@@std@@QAEX_NI@Z
_TEXT	SEGMENT
$T1 = -233						; size = 1
$T2 = -221						; size = 1
__Ptr$3 = -20						; size = 4
_this$ = -8						; size = 4
__Built$ = 8						; size = 1
__Newsize$ = 12						; size = 4
?_Tidy@?$basic_string@DU?$char_traits@D@std@@V?$allocator@D@2@@std@@QAEX_NI@Z PROC ; std::basic_string<char,std::char_traits<char>,std::allocator<char> >::_Tidy, COMDAT
; _this$ = ecx

; 2272 : 		{	// initialize buffer, deallocating any storage

	push	ebp
	mov	ebp, esp
	sub	esp, 240				; 000000f0H
	push	ebx
	push	esi
	push	edi
	push	ecx
	lea	edi, DWORD PTR [ebp-240]
	mov	ecx, 60					; 0000003cH
	mov	eax, -858993460				; ccccccccH
	rep stosd
	pop	ecx
	mov	DWORD PTR _this$[ebp], ecx

; 2273 : 		if (!_Built)

	movzx	eax, BYTE PTR __Built$[ebp]
	test	eax, eax
	jne	SHORT $LN4@Tidy
	jmp	SHORT $LN3@Tidy
$LN4@Tidy:

; 2274 : 			;
; 2275 : 		else if (this->_BUF_SIZE <= this->_Myres)

	mov	eax, DWORD PTR _this$[ebp]
	cmp	DWORD PTR [eax+24], 16			; 00000010H
	jb	SHORT $LN3@Tidy

; 2276 : 			{	// copy any leftovers to small buffer and deallocate
; 2277 : 			pointer _Ptr = this->_Bx._Ptr;

	mov	eax, DWORD PTR _this$[ebp]
	mov	ecx, DWORD PTR [eax+4]
	mov	DWORD PTR __Ptr$3[ebp], ecx

; 2278 : 			this->_Getal().destroy(&this->_Bx._Ptr);

	mov	eax, DWORD PTR _this$[ebp]
	add	eax, 4
	push	eax
	lea	ecx, DWORD PTR $T1[ebp]
	push	ecx
	mov	ecx, DWORD PTR _this$[ebp]
	call	?_Getal@?$_String_alloc@$0A@U?$_String_base_types@DV?$allocator@D@std@@@std@@@std@@QBE?AU?$_Wrap_alloc@V?$allocator@D@std@@@2@XZ ; std::_String_alloc<0,std::_String_base_types<char,std::allocator<char> > >::_Getal
	mov	ecx, eax
	call	??$destroy@PAD@?$_Wrap_alloc@V?$allocator@D@std@@@std@@QAEXPAPAD@Z ; std::_Wrap_alloc<std::allocator<char> >::destroy<char *>

; 2279 : 			if (0 < _Newsize)

	cmp	DWORD PTR __Newsize$[ebp], 0
	jbe	SHORT $LN1@Tidy

; 2280 : 				_Traits::copy(this->_Bx._Buf,
; 2281 : 					_STD addressof(*_Ptr), _Newsize);

	mov	eax, DWORD PTR __Newsize$[ebp]
	push	eax
	mov	ecx, DWORD PTR __Ptr$3[ebp]
	push	ecx
	call	??$addressof@D@std@@YAPADAAD@Z		; std::addressof<char>
	add	esp, 4
	push	eax
	mov	edx, DWORD PTR _this$[ebp]
	add	edx, 4
	push	edx
	call	?copy@?$char_traits@D@std@@SAPADPADPBDI@Z ; std::char_traits<char>::copy
	add	esp, 12					; 0000000cH
$LN1@Tidy:

; 2282 : 			this->_Getal().deallocate(_Ptr, this->_Myres + 1);

	mov	eax, DWORD PTR _this$[ebp]
	mov	ecx, DWORD PTR [eax+24]
	add	ecx, 1
	push	ecx
	mov	edx, DWORD PTR __Ptr$3[ebp]
	push	edx
	lea	eax, DWORD PTR $T2[ebp]
	push	eax
	mov	ecx, DWORD PTR _this$[ebp]
	call	?_Getal@?$_String_alloc@$0A@U?$_String_base_types@DV?$allocator@D@std@@@std@@@std@@QBE?AU?$_Wrap_alloc@V?$allocator@D@std@@@2@XZ ; std::_String_alloc<0,std::_String_base_types<char,std::allocator<char> > >::_Getal
	mov	ecx, eax
	call	?deallocate@?$_Wrap_alloc@V?$allocator@D@std@@@std@@QAEXPADI@Z ; std::_Wrap_alloc<std::allocator<char> >::deallocate
$LN3@Tidy:

; 2283 : 			}
; 2284 : 		this->_Myres = this->_BUF_SIZE - 1;

	mov	eax, DWORD PTR _this$[ebp]
	mov	DWORD PTR [eax+24], 15			; 0000000fH

; 2285 : 		_Eos(_Newsize);

	mov	eax, DWORD PTR __Newsize$[ebp]
	push	eax
	mov	ecx, DWORD PTR _this$[ebp]
	call	?_Eos@?$basic_string@DU?$char_traits@D@std@@V?$allocator@D@2@@std@@QAEXI@Z ; std::basic_string<char,std::char_traits<char>,std::allocator<char> >::_Eos

; 2286 : 		}

	pop	edi
	pop	esi
	pop	ebx
	add	esp, 240				; 000000f0H
	cmp	ebp, esp
	call	__RTC_CheckEsp
	mov	esp, ebp
	pop	ebp
	ret	8
?_Tidy@?$basic_string@DU?$char_traits@D@std@@V?$allocator@D@2@@std@@QAEX_NI@Z ENDP ; std::basic_string<char,std::char_traits<char>,std::allocator<char> >::_Tidy
_TEXT	ENDS
; Function compile flags: /Odtp /RTCsu /ZI
; File c:\program files (x86)\microsoft visual studio 12.0\vc\include\xstring
;	COMDAT ?_Inside@?$basic_string@DU?$char_traits@D@std@@V?$allocator@D@2@@std@@QAE_NPBD@Z
_TEXT	SEGMENT
_this$ = -8						; size = 4
__Ptr$ = 8						; size = 4
?_Inside@?$basic_string@DU?$char_traits@D@std@@V?$allocator@D@2@@std@@QAE_NPBD@Z PROC ; std::basic_string<char,std::char_traits<char>,std::allocator<char> >::_Inside, COMDAT
; _this$ = ecx

; 2256 : 		{	// test if _Ptr points inside string

	push	ebp
	mov	ebp, esp
	sub	esp, 204				; 000000ccH
	push	ebx
	push	esi
	push	edi
	push	ecx
	lea	edi, DWORD PTR [ebp-204]
	mov	ecx, 51					; 00000033H
	mov	eax, -858993460				; ccccccccH
	rep stosd
	pop	ecx
	mov	DWORD PTR _this$[ebp], ecx

; 2257 : 		if (_Ptr == 0 || _Ptr < this->_Myptr()
; 2258 : 			|| this->_Myptr() + this->_Mysize <= _Ptr)

	cmp	DWORD PTR __Ptr$[ebp], 0
	je	SHORT $LN2@Inside
	mov	ecx, DWORD PTR _this$[ebp]
	call	?_Myptr@?$_String_val@U?$_Simple_types@D@std@@@std@@QAEPADXZ ; std::_String_val<std::_Simple_types<char> >::_Myptr
	cmp	DWORD PTR __Ptr$[ebp], eax
	jb	SHORT $LN2@Inside
	mov	ecx, DWORD PTR _this$[ebp]
	call	?_Myptr@?$_String_val@U?$_Simple_types@D@std@@@std@@QAEPADXZ ; std::_String_val<std::_Simple_types<char> >::_Myptr
	mov	ecx, DWORD PTR _this$[ebp]
	add	eax, DWORD PTR [ecx+20]
	cmp	eax, DWORD PTR __Ptr$[ebp]
	ja	SHORT $LN3@Inside
$LN2@Inside:

; 2259 : 			return (false);	// don't ask

	xor	al, al
	jmp	SHORT $LN4@Inside

; 2260 : 		else

	jmp	SHORT $LN4@Inside
$LN3@Inside:

; 2261 : 			return (true);

	mov	al, 1
$LN4@Inside:

; 2262 : 		}

	pop	edi
	pop	esi
	pop	ebx
	add	esp, 204				; 000000ccH
	cmp	ebp, esp
	call	__RTC_CheckEsp
	mov	esp, ebp
	pop	ebp
	ret	4
?_Inside@?$basic_string@DU?$char_traits@D@std@@V?$allocator@D@2@@std@@QAE_NPBD@Z ENDP ; std::basic_string<char,std::char_traits<char>,std::allocator<char> >::_Inside
_TEXT	ENDS
; Function compile flags: /Odtp /RTCsu /ZI
; File c:\program files (x86)\microsoft visual studio 12.0\vc\include\xstring
;	COMDAT ?_Grow@?$basic_string@DU?$char_traits@D@std@@V?$allocator@D@2@@std@@QAE_NI_N@Z
_TEXT	SEGMENT
tv136 = -208						; size = 4
tv129 = -208						; size = 4
_this$ = -8						; size = 4
__Newsize$ = 8						; size = 4
__Trim$ = 12						; size = 1
?_Grow@?$basic_string@DU?$char_traits@D@std@@V?$allocator@D@2@@std@@QAE_NI_N@Z PROC ; std::basic_string<char,std::char_traits<char>,std::allocator<char> >::_Grow, COMDAT
; _this$ = ecx

; 2242 : 		{	// ensure buffer is big enough, trim to size if _Trim is true

	push	ebp
	mov	ebp, esp
	sub	esp, 208				; 000000d0H
	push	ebx
	push	esi
	push	edi
	push	ecx
	lea	edi, DWORD PTR [ebp-208]
	mov	ecx, 52					; 00000034H
	mov	eax, -858993460				; ccccccccH
	rep stosd
	pop	ecx
	mov	DWORD PTR _this$[ebp], ecx

; 2243 : 		if (max_size() < _Newsize)

	mov	ecx, DWORD PTR _this$[ebp]
	call	?max_size@?$basic_string@DU?$char_traits@D@std@@V?$allocator@D@2@@std@@QBEIXZ ; std::basic_string<char,std::char_traits<char>,std::allocator<char> >::max_size
	cmp	eax, DWORD PTR __Newsize$[ebp]
	jae	SHORT $LN6@Grow

; 2244 : 			_Xlen();	// result too long

	mov	ecx, DWORD PTR _this$[ebp]
	call	?_Xlen@?$basic_string@DU?$char_traits@D@std@@V?$allocator@D@2@@std@@QBEXXZ ; std::basic_string<char,std::char_traits<char>,std::allocator<char> >::_Xlen
$LN6@Grow:

; 2245 : 		if (this->_Myres < _Newsize)

	mov	eax, DWORD PTR _this$[ebp]
	mov	ecx, DWORD PTR [eax+24]
	cmp	ecx, DWORD PTR __Newsize$[ebp]
	jae	SHORT $LN5@Grow

; 2246 : 			_Copy(_Newsize, this->_Mysize);	// reallocate to grow

	mov	eax, DWORD PTR _this$[ebp]
	mov	ecx, DWORD PTR [eax+20]
	push	ecx
	mov	edx, DWORD PTR __Newsize$[ebp]
	push	edx
	mov	ecx, DWORD PTR _this$[ebp]
	call	?_Copy@?$basic_string@DU?$char_traits@D@std@@V?$allocator@D@2@@std@@QAEXII@Z ; std::basic_string<char,std::char_traits<char>,std::allocator<char> >::_Copy
	jmp	SHORT $LN4@Grow
$LN5@Grow:

; 2247 : 		else if (_Trim && _Newsize < this->_BUF_SIZE)

	movzx	eax, BYTE PTR __Trim$[ebp]
	test	eax, eax
	je	SHORT $LN3@Grow
	cmp	DWORD PTR __Newsize$[ebp], 16		; 00000010H
	jae	SHORT $LN3@Grow

; 2248 : 			_Tidy(true,	// copy and deallocate if trimming to small string
; 2249 : 				_Newsize < this->_Mysize ? _Newsize : this->_Mysize);

	mov	eax, DWORD PTR _this$[ebp]
	mov	ecx, DWORD PTR __Newsize$[ebp]
	cmp	ecx, DWORD PTR [eax+20]
	jae	SHORT $LN9@Grow
	mov	edx, DWORD PTR __Newsize$[ebp]
	mov	DWORD PTR tv129[ebp], edx
	jmp	SHORT $LN10@Grow
$LN9@Grow:
	mov	eax, DWORD PTR _this$[ebp]
	mov	ecx, DWORD PTR [eax+20]
	mov	DWORD PTR tv129[ebp], ecx
$LN10@Grow:
	mov	edx, DWORD PTR tv129[ebp]
	push	edx
	push	1
	mov	ecx, DWORD PTR _this$[ebp]
	call	?_Tidy@?$basic_string@DU?$char_traits@D@std@@V?$allocator@D@2@@std@@QAEX_NI@Z ; std::basic_string<char,std::char_traits<char>,std::allocator<char> >::_Tidy
	jmp	SHORT $LN4@Grow
$LN3@Grow:

; 2250 : 		else if (_Newsize == 0)

	cmp	DWORD PTR __Newsize$[ebp], 0
	jne	SHORT $LN4@Grow

; 2251 : 			_Eos(0);	// new size is zero, just null terminate

	push	0
	mov	ecx, DWORD PTR _this$[ebp]
	call	?_Eos@?$basic_string@DU?$char_traits@D@std@@V?$allocator@D@2@@std@@QAEXI@Z ; std::basic_string<char,std::char_traits<char>,std::allocator<char> >::_Eos
$LN4@Grow:

; 2252 : 		return (0 < _Newsize);	// return true only if more work to do

	cmp	DWORD PTR __Newsize$[ebp], 0
	jbe	SHORT $LN11@Grow
	mov	DWORD PTR tv136[ebp], 1
	jmp	SHORT $LN12@Grow
$LN11@Grow:
	mov	DWORD PTR tv136[ebp], 0
$LN12@Grow:
	mov	al, BYTE PTR tv136[ebp]
$LN8@Grow:

; 2253 : 		}

	pop	edi
	pop	esi
	pop	ebx
	add	esp, 208				; 000000d0H
	cmp	ebp, esp
	call	__RTC_CheckEsp
	mov	esp, ebp
	pop	ebp
	ret	8
?_Grow@?$basic_string@DU?$char_traits@D@std@@V?$allocator@D@2@@std@@QAE_NI_N@Z ENDP ; std::basic_string<char,std::char_traits<char>,std::allocator<char> >::_Grow
_TEXT	ENDS
; Function compile flags: /Odtp /RTCsu /ZI
; File c:\program files (x86)\microsoft visual studio 12.0\vc\include\xstring
;	COMDAT ?_Eos@?$basic_string@DU?$char_traits@D@std@@V?$allocator@D@2@@std@@QAEXI@Z
_TEXT	SEGMENT
$T1 = -209						; size = 1
_this$ = -8						; size = 4
__Newsize$ = 8						; size = 4
?_Eos@?$basic_string@DU?$char_traits@D@std@@V?$allocator@D@2@@std@@QAEXI@Z PROC ; std::basic_string<char,std::char_traits<char>,std::allocator<char> >::_Eos, COMDAT
; _this$ = ecx

; 2236 : 		{	// set new length and null terminator

	push	ebp
	mov	ebp, esp
	sub	esp, 216				; 000000d8H
	push	ebx
	push	esi
	push	edi
	push	ecx
	lea	edi, DWORD PTR [ebp-216]
	mov	ecx, 54					; 00000036H
	mov	eax, -858993460				; ccccccccH
	rep stosd
	pop	ecx
	mov	DWORD PTR _this$[ebp], ecx

; 2237 : 		_Traits::assign(this->_Myptr()[this->_Mysize = _Newsize], _Elem());

	mov	BYTE PTR $T1[ebp], 0
	mov	eax, DWORD PTR _this$[ebp]
	mov	ecx, DWORD PTR __Newsize$[ebp]
	mov	DWORD PTR [eax+20], ecx
	lea	edx, DWORD PTR $T1[ebp]
	push	edx
	mov	ecx, DWORD PTR _this$[ebp]
	call	?_Myptr@?$_String_val@U?$_Simple_types@D@std@@@std@@QAEPADXZ ; std::_String_val<std::_Simple_types<char> >::_Myptr
	add	eax, DWORD PTR __Newsize$[ebp]
	push	eax
	call	?assign@?$char_traits@D@std@@SAXAADABD@Z ; std::char_traits<char>::assign
	add	esp, 8

; 2238 : 		}

	pop	edi
	pop	esi
	pop	ebx
	add	esp, 216				; 000000d8H
	cmp	ebp, esp
	call	__RTC_CheckEsp
	mov	esp, ebp
	pop	ebp
	ret	4
?_Eos@?$basic_string@DU?$char_traits@D@std@@V?$allocator@D@2@@std@@QAEXI@Z ENDP ; std::basic_string<char,std::char_traits<char>,std::allocator<char> >::_Eos
_TEXT	ENDS
; Function compile flags: /Odtp /RTCsu /ZI
; File c:\program files (x86)\microsoft visual studio 12.0\vc\include\xstring
;	COMDAT ?_Copy@?$basic_string@DU?$char_traits@D@std@@V?$allocator@D@2@@std@@QAEXII@Z
_TEXT	SEGMENT
tv205 = -288						; size = 4
tv203 = -288						; size = 4
tv204 = -284						; size = 4
tv202 = -284						; size = 4
$T2 = -273						; size = 1
$T3 = -261						; size = 1
$T4 = -249						; size = 1
__Ptr$ = -48						; size = 4
__Newres$ = -36						; size = 4
_this$ = -24						; size = 4
__$EHRec$ = -16						; size = 16
__Newsize$ = 8						; size = 4
__Oldlen$ = 12						; size = 4
?_Copy@?$basic_string@DU?$char_traits@D@std@@V?$allocator@D@2@@std@@QAEXII@Z PROC ; std::basic_string<char,std::char_traits<char>,std::allocator<char> >::_Copy, COMDAT
; _this$ = ecx

; 2201 : 		{	// copy _Oldlen elements to newly allocated buffer

	push	ebp
	mov	ebp, esp
	push	-1
	push	__ehhandler$?_Copy@?$basic_string@DU?$char_traits@D@std@@V?$allocator@D@2@@std@@QAEXII@Z
	mov	eax, DWORD PTR fs:0
	push	eax
	push	ecx
	sub	esp, 272				; 00000110H
	push	ebx
	push	esi
	push	edi
	push	ecx
	lea	edi, DWORD PTR [ebp-288]
	mov	ecx, 68					; 00000044H
	mov	eax, -858993460				; ccccccccH
	rep stosd
	pop	ecx
	mov	eax, DWORD PTR ___security_cookie
	xor	eax, ebp
	push	eax
	lea	eax, DWORD PTR __$EHRec$[ebp+4]
	mov	DWORD PTR fs:0, eax
	mov	DWORD PTR __$EHRec$[ebp], esp
	mov	DWORD PTR _this$[ebp], ecx

; 2202 : 		size_type _Newres = _Newsize | this->_ALLOC_MASK;

	mov	eax, DWORD PTR __Newsize$[ebp]
	or	eax, 15					; 0000000fH
	mov	DWORD PTR __Newres$[ebp], eax

; 2203 : 		if (max_size() < _Newres)

	mov	ecx, DWORD PTR _this$[ebp]
	call	?max_size@?$basic_string@DU?$char_traits@D@std@@V?$allocator@D@2@@std@@QBEIXZ ; std::basic_string<char,std::char_traits<char>,std::allocator<char> >::max_size
	cmp	eax, DWORD PTR __Newres$[ebp]
	jae	SHORT $LN9@Copy

; 2204 : 			_Newres = _Newsize;	// undo roundup if too big

	mov	eax, DWORD PTR __Newsize$[ebp]
	mov	DWORD PTR __Newres$[ebp], eax
	jmp	SHORT $LN8@Copy
$LN9@Copy:

; 2205 : 		else if (this->_Myres / 2 <= _Newres / 3)

	mov	eax, DWORD PTR __Newres$[ebp]
	xor	edx, edx
	mov	ecx, 3
	div	ecx
	mov	edx, DWORD PTR _this$[ebp]
	mov	ecx, DWORD PTR [edx+24]
	shr	ecx, 1
	cmp	ecx, eax
	ja	SHORT $LN7@Copy
	jmp	SHORT $LN8@Copy
$LN7@Copy:

; 2206 : 			;
; 2207 : 		else if (this->_Myres <= max_size() - this->_Myres / 2)

	mov	eax, DWORD PTR _this$[ebp]
	mov	esi, DWORD PTR [eax+24]
	shr	esi, 1
	mov	ecx, DWORD PTR _this$[ebp]
	call	?max_size@?$basic_string@DU?$char_traits@D@std@@V?$allocator@D@2@@std@@QBEIXZ ; std::basic_string<char,std::char_traits<char>,std::allocator<char> >::max_size
	sub	eax, esi
	mov	ecx, DWORD PTR _this$[ebp]
	cmp	DWORD PTR [ecx+24], eax
	ja	SHORT $LN5@Copy

; 2208 : 			_Newres = this->_Myres
; 2209 : 				+ this->_Myres / 2;	// grow exponentially if possible

	mov	eax, DWORD PTR _this$[ebp]
	mov	ecx, DWORD PTR [eax+24]
	shr	ecx, 1
	mov	edx, DWORD PTR _this$[ebp]
	add	ecx, DWORD PTR [edx+24]
	mov	DWORD PTR __Newres$[ebp], ecx

; 2210 : 		else

	jmp	SHORT $LN8@Copy
$LN5@Copy:

; 2211 : 			_Newres = max_size();	// settle for max_size()

	mov	ecx, DWORD PTR _this$[ebp]
	call	?max_size@?$basic_string@DU?$char_traits@D@std@@V?$allocator@D@2@@std@@QBEIXZ ; std::basic_string<char,std::char_traits<char>,std::allocator<char> >::max_size
	mov	DWORD PTR __Newres$[ebp], eax
$LN8@Copy:

; 2212 : 
; 2213 : 		_Elem *_Ptr;
; 2214 : 		_TRY_BEGIN

	mov	DWORD PTR __$EHRec$[ebp+12], 0

; 2215 : 			_Ptr = this->_Getal().allocate(_Newres + 1);

	lea	eax, DWORD PTR $T2[ebp]
	push	eax
	mov	ecx, DWORD PTR _this$[ebp]
	call	?_Getal@?$_String_alloc@$0A@U?$_String_base_types@DV?$allocator@D@std@@@std@@@std@@QBE?AU?$_Wrap_alloc@V?$allocator@D@std@@@2@XZ ; std::_String_alloc<0,std::_String_base_types<char,std::allocator<char> > >::_Getal
	mov	DWORD PTR tv202[ebp], eax
	mov	ecx, DWORD PTR __Newres$[ebp]
	add	ecx, 1
	push	ecx
	mov	ecx, DWORD PTR tv202[ebp]
	call	?allocate@?$_Wrap_alloc@V?$allocator@D@std@@@std@@QAEPADI@Z ; std::_Wrap_alloc<std::allocator<char> >::allocate
	mov	DWORD PTR tv203[ebp], eax
	mov	edx, DWORD PTR tv203[ebp]
	mov	DWORD PTR __Ptr$[ebp], edx
	jmp	SHORT $LN12@Copy
__catch$?_Copy@?$basic_string@DU?$char_traits@D@std@@V?$allocator@D@2@@std@@QAEXII@Z$0:

; 2216 : 		_CATCH_ALL

	mov	DWORD PTR __$EHRec$[ebp], esp

; 2217 : 			_Newres = _Newsize;	// allocation failed, undo roundup and retry

	mov	eax, DWORD PTR __Newsize$[ebp]
	mov	DWORD PTR __Newres$[ebp], eax

; 2218 : 			_TRY_BEGIN

	mov	BYTE PTR __$EHRec$[ebp+12], 2

; 2219 : 				_Ptr = this->_Getal().allocate(_Newres + 1);

	lea	eax, DWORD PTR $T3[ebp]
	push	eax
	mov	ecx, DWORD PTR _this$[ebp]
	call	?_Getal@?$_String_alloc@$0A@U?$_String_base_types@DV?$allocator@D@std@@@std@@@std@@QBE?AU?$_Wrap_alloc@V?$allocator@D@std@@@2@XZ ; std::_String_alloc<0,std::_String_base_types<char,std::allocator<char> > >::_Getal
	mov	DWORD PTR tv204[ebp], eax
	mov	ecx, DWORD PTR __Newres$[ebp]
	add	ecx, 1
	push	ecx
	mov	ecx, DWORD PTR tv204[ebp]
	call	?allocate@?$_Wrap_alloc@V?$allocator@D@std@@@std@@QAEPADI@Z ; std::_Wrap_alloc<std::allocator<char> >::allocate
	mov	DWORD PTR tv205[ebp], eax
	mov	edx, DWORD PTR tv205[ebp]
	mov	DWORD PTR __Ptr$[ebp], edx
	jmp	SHORT $LN14@Copy
__catch$?_Copy@?$basic_string@DU?$char_traits@D@std@@V?$allocator@D@2@@std@@QAEXII@Z$1:

; 2220 : 			_CATCH_ALL
; 2221 : 			_Tidy(true);	// failed again, discard storage and reraise

	push	0
	push	1
	mov	ecx, DWORD PTR _this$[ebp]
	call	?_Tidy@?$basic_string@DU?$char_traits@D@std@@V?$allocator@D@2@@std@@QAEX_NI@Z ; std::basic_string<char,std::char_traits<char>,std::allocator<char> >::_Tidy

; 2222 : 			_RERAISE;

	push	0
	push	0
	call	__CxxThrowException@8

; 2223 : 			_CATCH_END

	mov	eax, $LN17@Copy
	ret	0
$LN14@Copy:
	mov	DWORD PTR __$EHRec$[ebp+12], 1
	jmp	SHORT __tryend$?_Copy@?$basic_string@DU?$char_traits@D@std@@V?$allocator@D@2@@std@@QAEXII@Z$2
$LN17@Copy:
	mov	DWORD PTR __$EHRec$[ebp+12], 1
__tryend$?_Copy@?$basic_string@DU?$char_traits@D@std@@V?$allocator@D@2@@std@@QAEXII@Z$2:

; 2224 : 		_CATCH_END

	mov	eax, $LN19@Copy
	ret	0
$LN12@Copy:
	mov	DWORD PTR __$EHRec$[ebp+12], -1
	jmp	SHORT __tryend$?_Copy@?$basic_string@DU?$char_traits@D@std@@V?$allocator@D@2@@std@@QAEXII@Z$3
$LN19@Copy:
	mov	DWORD PTR __$EHRec$[ebp+12], -1
__tryend$?_Copy@?$basic_string@DU?$char_traits@D@std@@V?$allocator@D@2@@std@@QAEXII@Z$3:

; 2225 : 
; 2226 : 		if (0 < _Oldlen)

	cmp	DWORD PTR __Oldlen$[ebp], 0
	jbe	SHORT $LN1@Copy

; 2227 : 			_Traits::copy(_Ptr, this->_Myptr(),
; 2228 : 				_Oldlen);	// copy existing elements

	mov	eax, DWORD PTR __Oldlen$[ebp]
	push	eax
	mov	ecx, DWORD PTR _this$[ebp]
	call	?_Myptr@?$_String_val@U?$_Simple_types@D@std@@@std@@QAEPADXZ ; std::_String_val<std::_Simple_types<char> >::_Myptr
	push	eax
	mov	ecx, DWORD PTR __Ptr$[ebp]
	push	ecx
	call	?copy@?$char_traits@D@std@@SAPADPADPBDI@Z ; std::char_traits<char>::copy
	add	esp, 12					; 0000000cH
$LN1@Copy:

; 2229 : 		_Tidy(true);

	push	0
	push	1
	mov	ecx, DWORD PTR _this$[ebp]
	call	?_Tidy@?$basic_string@DU?$char_traits@D@std@@V?$allocator@D@2@@std@@QAEX_NI@Z ; std::basic_string<char,std::char_traits<char>,std::allocator<char> >::_Tidy

; 2230 : 		this->_Getal().construct(&this->_Bx._Ptr, _Ptr);

	lea	eax, DWORD PTR __Ptr$[ebp]
	push	eax
	mov	ecx, DWORD PTR _this$[ebp]
	add	ecx, 4
	push	ecx
	lea	edx, DWORD PTR $T4[ebp]
	push	edx
	mov	ecx, DWORD PTR _this$[ebp]
	call	?_Getal@?$_String_alloc@$0A@U?$_String_base_types@DV?$allocator@D@std@@@std@@@std@@QBE?AU?$_Wrap_alloc@V?$allocator@D@std@@@2@XZ ; std::_String_alloc<0,std::_String_base_types<char,std::allocator<char> > >::_Getal
	mov	ecx, eax
	call	??$construct@PADAAPAD@?$_Wrap_alloc@V?$allocator@D@std@@@std@@QAEXPAPADAAPAD@Z ; std::_Wrap_alloc<std::allocator<char> >::construct<char *,char * &>

; 2231 : 		this->_Myres = _Newres;

	mov	eax, DWORD PTR _this$[ebp]
	mov	ecx, DWORD PTR __Newres$[ebp]
	mov	DWORD PTR [eax+24], ecx

; 2232 : 		_Eos(_Oldlen);

	mov	eax, DWORD PTR __Oldlen$[ebp]
	push	eax
	mov	ecx, DWORD PTR _this$[ebp]
	call	?_Eos@?$basic_string@DU?$char_traits@D@std@@V?$allocator@D@2@@std@@QAEXI@Z ; std::basic_string<char,std::char_traits<char>,std::allocator<char> >::_Eos
$LN11@Copy:

; 2233 : 		}

	push	edx
	mov	ecx, ebp
	push	eax
	lea	edx, DWORD PTR $LN23@Copy
	call	@_RTC_CheckStackVars@8
	pop	eax
	pop	edx
	mov	ecx, DWORD PTR __$EHRec$[ebp+4]
	mov	DWORD PTR fs:0, ecx
	pop	ecx
	pop	edi
	pop	esi
	pop	ebx
	add	esp, 288				; 00000120H
	cmp	ebp, esp
	call	__RTC_CheckEsp
	mov	esp, ebp
	pop	ebp
	ret	8
	npad	2
$LN23@Copy:
	DD	1
	DD	$LN22@Copy
$LN22@Copy:
	DD	-48					; ffffffd0H
	DD	4
	DD	$LN20@Copy
$LN20@Copy:
	DB	95					; 0000005fH
	DB	80					; 00000050H
	DB	116					; 00000074H
	DB	114					; 00000072H
	DB	0
_TEXT	ENDS
;	COMDAT text$x
text$x	SEGMENT
__ehhandler$?_Copy@?$basic_string@DU?$char_traits@D@std@@V?$allocator@D@2@@std@@QAEXII@Z:
	mov	edx, DWORD PTR [esp+8]
	lea	eax, DWORD PTR [edx+12]
	mov	ecx, DWORD PTR [edx-292]
	xor	ecx, eax
	call	@__security_check_cookie@4
	mov	eax, OFFSET __ehfuncinfo$?_Copy@?$basic_string@DU?$char_traits@D@std@@V?$allocator@D@2@@std@@QAEXII@Z
	jmp	___CxxFrameHandler3
text$x	ENDS
?_Copy@?$basic_string@DU?$char_traits@D@std@@V?$allocator@D@2@@std@@QAEXII@Z ENDP ; std::basic_string<char,std::char_traits<char>,std::allocator<char> >::_Copy
; Function compile flags: /Odtp /RTCsu /ZI
; File c:\program files (x86)\microsoft visual studio 12.0\vc\include\xstring
;	COMDAT ?max_size@?$basic_string@DU?$char_traits@D@std@@V?$allocator@D@2@@std@@QBEIXZ
_TEXT	SEGMENT
tv75 = -232						; size = 4
$T1 = -221						; size = 1
__Num$ = -20						; size = 4
_this$ = -8						; size = 4
?max_size@?$basic_string@DU?$char_traits@D@std@@V?$allocator@D@2@@std@@QBEIXZ PROC ; std::basic_string<char,std::char_traits<char>,std::allocator<char> >::max_size, COMDAT
; _this$ = ecx

; 1758 : 		{	// return maximum possible length of sequence

	push	ebp
	mov	ebp, esp
	sub	esp, 232				; 000000e8H
	push	ebx
	push	esi
	push	edi
	push	ecx
	lea	edi, DWORD PTR [ebp-232]
	mov	ecx, 58					; 0000003aH
	mov	eax, -858993460				; ccccccccH
	rep stosd
	pop	ecx
	mov	DWORD PTR _this$[ebp], ecx

; 1759 : 		size_type _Num = this->_Getal().max_size();

	lea	eax, DWORD PTR $T1[ebp]
	push	eax
	mov	ecx, DWORD PTR _this$[ebp]
	call	?_Getal@?$_String_alloc@$0A@U?$_String_base_types@DV?$allocator@D@std@@@std@@@std@@QBE?AU?$_Wrap_alloc@V?$allocator@D@std@@@2@XZ ; std::_String_alloc<0,std::_String_base_types<char,std::allocator<char> > >::_Getal
	mov	ecx, eax
	call	?max_size@?$_Wrap_alloc@V?$allocator@D@std@@@std@@QBEIXZ ; std::_Wrap_alloc<std::allocator<char> >::max_size
	mov	DWORD PTR __Num$[ebp], eax

; 1760 : 		return (_Num <= 1 ? 1 : _Num - 1);

	cmp	DWORD PTR __Num$[ebp], 1
	ja	SHORT $LN3@max_size
	mov	DWORD PTR tv75[ebp], 1
	jmp	SHORT $LN4@max_size
$LN3@max_size:
	mov	eax, DWORD PTR __Num$[ebp]
	sub	eax, 1
	mov	DWORD PTR tv75[ebp], eax
$LN4@max_size:
	mov	eax, DWORD PTR tv75[ebp]

; 1761 : 		}

	pop	edi
	pop	esi
	pop	ebx
	add	esp, 232				; 000000e8H
	cmp	ebp, esp
	call	__RTC_CheckEsp
	mov	esp, ebp
	pop	ebp
	ret	0
?max_size@?$basic_string@DU?$char_traits@D@std@@V?$allocator@D@2@@std@@QBEIXZ ENDP ; std::basic_string<char,std::char_traits<char>,std::allocator<char> >::max_size
_TEXT	ENDS
; Function compile flags: /Odtp /RTCsu /ZI
; File c:\program files (x86)\microsoft visual studio 12.0\vc\include\xstring
;	COMDAT ?size@?$basic_string@DU?$char_traits@D@std@@V?$allocator@D@2@@std@@QBEIXZ
_TEXT	SEGMENT
_this$ = -8						; size = 4
?size@?$basic_string@DU?$char_traits@D@std@@V?$allocator@D@2@@std@@QBEIXZ PROC ; std::basic_string<char,std::char_traits<char>,std::allocator<char> >::size, COMDAT
; _this$ = ecx

; 1753 : 		{	// return length of sequence

	push	ebp
	mov	ebp, esp
	sub	esp, 204				; 000000ccH
	push	ebx
	push	esi
	push	edi
	push	ecx
	lea	edi, DWORD PTR [ebp-204]
	mov	ecx, 51					; 00000033H
	mov	eax, -858993460				; ccccccccH
	rep stosd
	pop	ecx
	mov	DWORD PTR _this$[ebp], ecx

; 1754 : 		return (this->_Mysize);

	mov	eax, DWORD PTR _this$[ebp]
	mov	eax, DWORD PTR [eax+20]

; 1755 : 		}

	pop	edi
	pop	esi
	pop	ebx
	mov	esp, ebp
	pop	ebp
	ret	0
?size@?$basic_string@DU?$char_traits@D@std@@V?$allocator@D@2@@std@@QBEIXZ ENDP ; std::basic_string<char,std::char_traits<char>,std::allocator<char> >::size
_TEXT	ENDS
; Function compile flags: /Odtp /RTCsu /ZI
; File c:\program files (x86)\microsoft visual studio 12.0\vc\include\xstring
;	COMDAT ?erase@?$basic_string@DU?$char_traits@D@std@@V?$allocator@D@2@@std@@QAEAAV12@II@Z
_TEXT	SEGMENT
__Newsize$1 = -32					; size = 4
__Ptr$2 = -20						; size = 4
_this$ = -8						; size = 4
__Off$ = 8						; size = 4
__Count$ = 12						; size = 4
?erase@?$basic_string@DU?$char_traits@D@std@@V?$allocator@D@2@@std@@QAEAAV12@II@Z PROC ; std::basic_string<char,std::char_traits<char>,std::allocator<char> >::erase, COMDAT
; _this$ = ecx

; 1342 : 		{	// erase elements [_Off, _Off + _Count)

	push	ebp
	mov	ebp, esp
	sub	esp, 228				; 000000e4H
	push	ebx
	push	esi
	push	edi
	push	ecx
	lea	edi, DWORD PTR [ebp-228]
	mov	ecx, 57					; 00000039H
	mov	eax, -858993460				; ccccccccH
	rep stosd
	pop	ecx
	mov	DWORD PTR _this$[ebp], ecx

; 1343 : 		if (this->_Mysize < _Off)

	mov	eax, DWORD PTR _this$[ebp]
	mov	ecx, DWORD PTR [eax+20]
	cmp	ecx, DWORD PTR __Off$[ebp]
	jae	SHORT $LN4@erase

; 1344 : 			_Xran();	// _Off off end

	mov	ecx, DWORD PTR _this$[ebp]
	call	?_Xran@?$basic_string@DU?$char_traits@D@std@@V?$allocator@D@2@@std@@QBEXXZ ; std::basic_string<char,std::char_traits<char>,std::allocator<char> >::_Xran
$LN4@erase:

; 1345 : 		if (this->_Mysize - _Off <= _Count)

	mov	eax, DWORD PTR _this$[ebp]
	mov	ecx, DWORD PTR [eax+20]
	sub	ecx, DWORD PTR __Off$[ebp]
	cmp	ecx, DWORD PTR __Count$[ebp]
	ja	SHORT $LN3@erase

; 1346 : 			_Eos(_Off);	// erase elements [_Off, ...)

	mov	eax, DWORD PTR __Off$[ebp]
	push	eax
	mov	ecx, DWORD PTR _this$[ebp]
	call	?_Eos@?$basic_string@DU?$char_traits@D@std@@V?$allocator@D@2@@std@@QAEXI@Z ; std::basic_string<char,std::char_traits<char>,std::allocator<char> >::_Eos
	jmp	SHORT $LN2@erase
$LN3@erase:

; 1347 : 		else if (0 < _Count)

	cmp	DWORD PTR __Count$[ebp], 0
	jbe	SHORT $LN2@erase

; 1348 : 			{	// move elements down
; 1349 : 			value_type *_Ptr = this->_Myptr() + _Off;

	mov	ecx, DWORD PTR _this$[ebp]
	call	?_Myptr@?$_String_val@U?$_Simple_types@D@std@@@std@@QAEPADXZ ; std::_String_val<std::_Simple_types<char> >::_Myptr
	add	eax, DWORD PTR __Off$[ebp]
	mov	DWORD PTR __Ptr$2[ebp], eax

; 1350 : 			size_type _Newsize = this->_Mysize - _Count;

	mov	eax, DWORD PTR _this$[ebp]
	mov	ecx, DWORD PTR [eax+20]
	sub	ecx, DWORD PTR __Count$[ebp]
	mov	DWORD PTR __Newsize$1[ebp], ecx

; 1351 : 			_Traits::move(_Ptr, _Ptr + _Count, _Newsize - _Off);

	mov	eax, DWORD PTR __Newsize$1[ebp]
	sub	eax, DWORD PTR __Off$[ebp]
	push	eax
	mov	ecx, DWORD PTR __Ptr$2[ebp]
	add	ecx, DWORD PTR __Count$[ebp]
	push	ecx
	mov	edx, DWORD PTR __Ptr$2[ebp]
	push	edx
	call	?move@?$char_traits@D@std@@SAPADPADPBDI@Z ; std::char_traits<char>::move
	add	esp, 12					; 0000000cH

; 1352 : 			_Eos(_Newsize);

	mov	eax, DWORD PTR __Newsize$1[ebp]
	push	eax
	mov	ecx, DWORD PTR _this$[ebp]
	call	?_Eos@?$basic_string@DU?$char_traits@D@std@@V?$allocator@D@2@@std@@QAEXI@Z ; std::basic_string<char,std::char_traits<char>,std::allocator<char> >::_Eos
$LN2@erase:

; 1353 : 			}
; 1354 : 		return (*this);

	mov	eax, DWORD PTR _this$[ebp]
$LN6@erase:

; 1355 : 		}

	pop	edi
	pop	esi
	pop	ebx
	add	esp, 228				; 000000e4H
	cmp	ebp, esp
	call	__RTC_CheckEsp
	mov	esp, ebp
	pop	ebp
	ret	8
?erase@?$basic_string@DU?$char_traits@D@std@@V?$allocator@D@2@@std@@QAEAAV12@II@Z ENDP ; std::basic_string<char,std::char_traits<char>,std::allocator<char> >::erase
_TEXT	ENDS
; Function compile flags: /Odtp /RTCsu /ZI
; File c:\program files (x86)\microsoft visual studio 12.0\vc\include\xstring
;	COMDAT ?erase@?$basic_string@DU?$char_traits@D@std@@V?$allocator@D@2@@std@@QAEAAV12@I@Z
_TEXT	SEGMENT
_this$ = -8						; size = 4
__Off$ = 8						; size = 4
?erase@?$basic_string@DU?$char_traits@D@std@@V?$allocator@D@2@@std@@QAEAAV12@I@Z PROC ; std::basic_string<char,std::char_traits<char>,std::allocator<char> >::erase, COMDAT
; _this$ = ecx

; 1334 : 		{	// erase elements [_Off, ...)

	push	ebp
	mov	ebp, esp
	sub	esp, 204				; 000000ccH
	push	ebx
	push	esi
	push	edi
	push	ecx
	lea	edi, DWORD PTR [ebp-204]
	mov	ecx, 51					; 00000033H
	mov	eax, -858993460				; ccccccccH
	rep stosd
	pop	ecx
	mov	DWORD PTR _this$[ebp], ecx

; 1335 : 		if (this->_Mysize < _Off)

	mov	eax, DWORD PTR _this$[ebp]
	mov	ecx, DWORD PTR [eax+20]
	cmp	ecx, DWORD PTR __Off$[ebp]
	jae	SHORT $LN1@erase

; 1336 : 			_Xran();	// _Off off end

	mov	ecx, DWORD PTR _this$[ebp]
	call	?_Xran@?$basic_string@DU?$char_traits@D@std@@V?$allocator@D@2@@std@@QBEXXZ ; std::basic_string<char,std::char_traits<char>,std::allocator<char> >::_Xran
$LN1@erase:

; 1337 : 		_Eos(_Off);

	mov	eax, DWORD PTR __Off$[ebp]
	push	eax
	mov	ecx, DWORD PTR _this$[ebp]
	call	?_Eos@?$basic_string@DU?$char_traits@D@std@@V?$allocator@D@2@@std@@QAEXI@Z ; std::basic_string<char,std::char_traits<char>,std::allocator<char> >::_Eos

; 1338 : 		return (*this);

	mov	eax, DWORD PTR _this$[ebp]
$LN3@erase:

; 1339 : 		}

	pop	edi
	pop	esi
	pop	ebx
	add	esp, 204				; 000000ccH
	cmp	ebp, esp
	call	__RTC_CheckEsp
	mov	esp, ebp
	pop	ebp
	ret	4
?erase@?$basic_string@DU?$char_traits@D@std@@V?$allocator@D@2@@std@@QAEAAV12@I@Z ENDP ; std::basic_string<char,std::char_traits<char>,std::allocator<char> >::erase
_TEXT	ENDS
; Function compile flags: /Odtp /RTCsu /ZI
; File c:\program files (x86)\microsoft visual studio 12.0\vc\include\xstring
;	COMDAT ?assign@?$basic_string@DU?$char_traits@D@std@@V?$allocator@D@2@@std@@QAEAAV12@PBD@Z
_TEXT	SEGMENT
_this$ = -8						; size = 4
__Ptr$ = 8						; size = 4
?assign@?$basic_string@DU?$char_traits@D@std@@V?$allocator@D@2@@std@@QAEAAV12@PBD@Z PROC ; std::basic_string<char,std::char_traits<char>,std::allocator<char> >::assign, COMDAT
; _this$ = ecx

; 1167 : 		{	// assign [_Ptr, <null>)

	push	ebp
	mov	ebp, esp
	sub	esp, 204				; 000000ccH
	push	ebx
	push	esi
	push	edi
	push	ecx
	lea	edi, DWORD PTR [ebp-204]
	mov	ecx, 51					; 00000033H
	mov	eax, -858993460				; ccccccccH
	rep stosd
	pop	ecx
	mov	DWORD PTR _this$[ebp], ecx

; 1168 : 		_DEBUG_POINTER(_Ptr);

	push	1168					; 00000490H
	push	OFFSET ??_C@_1IO@JLPDPDPD@?$AAc?$AA?3?$AA?2?$AAp?$AAr?$AAo?$AAg?$AAr?$AAa?$AAm?$AA?5?$AAf?$AAi?$AAl?$AAe?$AAs?$AA?5?$AA?$CI?$AAx?$AA8?$AA6?$AA?$CJ?$AA?2?$AAm?$AAi?$AAc?$AAr?$AAo?$AAs?$AAo?$AAf?$AAt@
	mov	eax, DWORD PTR __Ptr$[ebp]
	push	eax
	call	??$_Debug_pointer@D@std@@YAXPBDPB_WI@Z	; std::_Debug_pointer<char>
	add	esp, 12					; 0000000cH

; 1169 : 		return (assign(_Ptr, _Traits::length(_Ptr)));

	mov	eax, DWORD PTR __Ptr$[ebp]
	push	eax
	call	?length@?$char_traits@D@std@@SAIPBD@Z	; std::char_traits<char>::length
	add	esp, 4
	push	eax
	mov	ecx, DWORD PTR __Ptr$[ebp]
	push	ecx
	mov	ecx, DWORD PTR _this$[ebp]
	call	?assign@?$basic_string@DU?$char_traits@D@std@@V?$allocator@D@2@@std@@QAEAAV12@PBDI@Z ; std::basic_string<char,std::char_traits<char>,std::allocator<char> >::assign

; 1170 : 		}

	pop	edi
	pop	esi
	pop	ebx
	add	esp, 204				; 000000ccH
	cmp	ebp, esp
	call	__RTC_CheckEsp
	mov	esp, ebp
	pop	ebp
	ret	4
?assign@?$basic_string@DU?$char_traits@D@std@@V?$allocator@D@2@@std@@QAEAAV12@PBD@Z ENDP ; std::basic_string<char,std::char_traits<char>,std::allocator<char> >::assign
_TEXT	ENDS
; Function compile flags: /Odtp /RTCsu /ZI
; File c:\program files (x86)\microsoft visual studio 12.0\vc\include\xstring
;	COMDAT ?assign@?$basic_string@DU?$char_traits@D@std@@V?$allocator@D@2@@std@@QAEAAV12@PBDI@Z
_TEXT	SEGMENT
_this$ = -8						; size = 4
__Ptr$ = 8						; size = 4
__Count$ = 12						; size = 4
?assign@?$basic_string@DU?$char_traits@D@std@@V?$allocator@D@2@@std@@QAEAAV12@PBDI@Z PROC ; std::basic_string<char,std::char_traits<char>,std::allocator<char> >::assign, COMDAT
; _this$ = ecx

; 1148 : 		{	// assign [_Ptr, _Ptr + _Count)

	push	ebp
	mov	ebp, esp
	sub	esp, 204				; 000000ccH
	push	ebx
	push	esi
	push	edi
	push	ecx
	lea	edi, DWORD PTR [ebp-204]
	mov	ecx, 51					; 00000033H
	mov	eax, -858993460				; ccccccccH
	rep stosd
	pop	ecx
	mov	DWORD PTR _this$[ebp], ecx

; 1149 :  #if _ITERATOR_DEBUG_LEVEL == 2
; 1150 : 		if (_Count != 0)

	cmp	DWORD PTR __Count$[ebp], 0
	je	SHORT $LN3@assign

; 1151 : 			_DEBUG_POINTER(_Ptr);

	push	1151					; 0000047fH
	push	OFFSET ??_C@_1IO@JLPDPDPD@?$AAc?$AA?3?$AA?2?$AAp?$AAr?$AAo?$AAg?$AAr?$AAa?$AAm?$AA?5?$AAf?$AAi?$AAl?$AAe?$AAs?$AA?5?$AA?$CI?$AAx?$AA8?$AA6?$AA?$CJ?$AA?2?$AAm?$AAi?$AAc?$AAr?$AAo?$AAs?$AAo?$AAf?$AAt@
	mov	eax, DWORD PTR __Ptr$[ebp]
	push	eax
	call	??$_Debug_pointer@D@std@@YAXPBDPB_WI@Z	; std::_Debug_pointer<char>
	add	esp, 12					; 0000000cH
$LN3@assign:

; 1152 :  #endif /* _ITERATOR_DEBUG_LEVEL == 2 */
; 1153 : 
; 1154 : 		if (_Inside(_Ptr))

	mov	eax, DWORD PTR __Ptr$[ebp]
	push	eax
	mov	ecx, DWORD PTR _this$[ebp]
	call	?_Inside@?$basic_string@DU?$char_traits@D@std@@V?$allocator@D@2@@std@@QAE_NPBD@Z ; std::basic_string<char,std::char_traits<char>,std::allocator<char> >::_Inside
	movzx	ecx, al
	test	ecx, ecx
	je	SHORT $LN2@assign

; 1155 : 			return (assign(*this,
; 1156 : 				_Ptr - this->_Myptr(), _Count));	// substring

	mov	eax, DWORD PTR __Count$[ebp]
	push	eax
	mov	ecx, DWORD PTR _this$[ebp]
	call	?_Myptr@?$_String_val@U?$_Simple_types@D@std@@@std@@QAEPADXZ ; std::_String_val<std::_Simple_types<char> >::_Myptr
	mov	ecx, DWORD PTR __Ptr$[ebp]
	sub	ecx, eax
	push	ecx
	mov	edx, DWORD PTR _this$[ebp]
	push	edx
	mov	ecx, DWORD PTR _this$[ebp]
	call	?assign@?$basic_string@DU?$char_traits@D@std@@V?$allocator@D@2@@std@@QAEAAV12@ABV12@II@Z ; std::basic_string<char,std::char_traits<char>,std::allocator<char> >::assign
	jmp	SHORT $LN4@assign
$LN2@assign:

; 1157 : 
; 1158 : 		if (_Grow(_Count))

	push	0
	mov	eax, DWORD PTR __Count$[ebp]
	push	eax
	mov	ecx, DWORD PTR _this$[ebp]
	call	?_Grow@?$basic_string@DU?$char_traits@D@std@@V?$allocator@D@2@@std@@QAE_NI_N@Z ; std::basic_string<char,std::char_traits<char>,std::allocator<char> >::_Grow
	movzx	ecx, al
	test	ecx, ecx
	je	SHORT $LN1@assign

; 1159 : 			{	// make room and assign new stuff
; 1160 : 			_Traits::copy(this->_Myptr(), _Ptr, _Count);

	mov	eax, DWORD PTR __Count$[ebp]
	push	eax
	mov	ecx, DWORD PTR __Ptr$[ebp]
	push	ecx
	mov	ecx, DWORD PTR _this$[ebp]
	call	?_Myptr@?$_String_val@U?$_Simple_types@D@std@@@std@@QAEPADXZ ; std::_String_val<std::_Simple_types<char> >::_Myptr
	push	eax
	call	?copy@?$char_traits@D@std@@SAPADPADPBDI@Z ; std::char_traits<char>::copy
	add	esp, 12					; 0000000cH

; 1161 : 			_Eos(_Count);

	mov	eax, DWORD PTR __Count$[ebp]
	push	eax
	mov	ecx, DWORD PTR _this$[ebp]
	call	?_Eos@?$basic_string@DU?$char_traits@D@std@@V?$allocator@D@2@@std@@QAEXI@Z ; std::basic_string<char,std::char_traits<char>,std::allocator<char> >::_Eos
$LN1@assign:

; 1162 : 			}
; 1163 : 		return (*this);

	mov	eax, DWORD PTR _this$[ebp]
$LN4@assign:

; 1164 : 		}

	pop	edi
	pop	esi
	pop	ebx
	add	esp, 204				; 000000ccH
	cmp	ebp, esp
	call	__RTC_CheckEsp
	mov	esp, ebp
	pop	ebp
	ret	8
?assign@?$basic_string@DU?$char_traits@D@std@@V?$allocator@D@2@@std@@QAEAAV12@PBDI@Z ENDP ; std::basic_string<char,std::char_traits<char>,std::allocator<char> >::assign
_TEXT	ENDS
; Function compile flags: /Odtp /RTCsu /ZI
; File c:\program files (x86)\microsoft visual studio 12.0\vc\include\xstring
;	COMDAT ?assign@?$basic_string@DU?$char_traits@D@std@@V?$allocator@D@2@@std@@QAEAAV12@ABV12@II@Z
_TEXT	SEGMENT
__Num$ = -20						; size = 4
_this$ = -8						; size = 4
__Right$ = 8						; size = 4
__Roff$ = 12						; size = 4
__Count$ = 16						; size = 4
?assign@?$basic_string@DU?$char_traits@D@std@@V?$allocator@D@2@@std@@QAEAAV12@ABV12@II@Z PROC ; std::basic_string<char,std::char_traits<char>,std::allocator<char> >::assign, COMDAT
; _this$ = ecx

; 1129 : 		{	// assign _Right [_Roff, _Roff + _Count)

	push	ebp
	mov	ebp, esp
	sub	esp, 216				; 000000d8H
	push	ebx
	push	esi
	push	edi
	push	ecx
	lea	edi, DWORD PTR [ebp-216]
	mov	ecx, 54					; 00000036H
	mov	eax, -858993460				; ccccccccH
	rep stosd
	pop	ecx
	mov	DWORD PTR _this$[ebp], ecx

; 1130 : 		if (_Right.size() < _Roff)

	mov	ecx, DWORD PTR __Right$[ebp]
	call	?size@?$basic_string@DU?$char_traits@D@std@@V?$allocator@D@2@@std@@QBEIXZ ; std::basic_string<char,std::char_traits<char>,std::allocator<char> >::size
	cmp	eax, DWORD PTR __Roff$[ebp]
	jae	SHORT $LN5@assign

; 1131 : 			_Xran();	// _Roff off end

	mov	ecx, DWORD PTR _this$[ebp]
	call	?_Xran@?$basic_string@DU?$char_traits@D@std@@V?$allocator@D@2@@std@@QBEXXZ ; std::basic_string<char,std::char_traits<char>,std::allocator<char> >::_Xran
$LN5@assign:

; 1132 : 		size_type _Num = _Right.size() - _Roff;

	mov	ecx, DWORD PTR __Right$[ebp]
	call	?size@?$basic_string@DU?$char_traits@D@std@@V?$allocator@D@2@@std@@QBEIXZ ; std::basic_string<char,std::char_traits<char>,std::allocator<char> >::size
	sub	eax, DWORD PTR __Roff$[ebp]
	mov	DWORD PTR __Num$[ebp], eax

; 1133 : 		if (_Count < _Num)

	mov	eax, DWORD PTR __Count$[ebp]
	cmp	eax, DWORD PTR __Num$[ebp]
	jae	SHORT $LN4@assign

; 1134 : 			_Num = _Count;	// trim _Num to size

	mov	eax, DWORD PTR __Count$[ebp]
	mov	DWORD PTR __Num$[ebp], eax
$LN4@assign:

; 1135 : 
; 1136 : 		if (this == &_Right)

	mov	eax, DWORD PTR _this$[ebp]
	cmp	eax, DWORD PTR __Right$[ebp]
	jne	SHORT $LN3@assign

; 1137 : 			erase((size_type)(_Roff + _Num)), erase(0, _Roff);	// substring

	mov	eax, DWORD PTR __Roff$[ebp]
	add	eax, DWORD PTR __Num$[ebp]
	push	eax
	mov	ecx, DWORD PTR _this$[ebp]
	call	?erase@?$basic_string@DU?$char_traits@D@std@@V?$allocator@D@2@@std@@QAEAAV12@I@Z ; std::basic_string<char,std::char_traits<char>,std::allocator<char> >::erase
	mov	ecx, DWORD PTR __Roff$[ebp]
	push	ecx
	push	0
	mov	ecx, DWORD PTR _this$[ebp]
	call	?erase@?$basic_string@DU?$char_traits@D@std@@V?$allocator@D@2@@std@@QAEAAV12@II@Z ; std::basic_string<char,std::char_traits<char>,std::allocator<char> >::erase
	jmp	SHORT $LN2@assign
$LN3@assign:

; 1138 : 		else if (_Grow(_Num))

	push	0
	mov	eax, DWORD PTR __Num$[ebp]
	push	eax
	mov	ecx, DWORD PTR _this$[ebp]
	call	?_Grow@?$basic_string@DU?$char_traits@D@std@@V?$allocator@D@2@@std@@QAE_NI_N@Z ; std::basic_string<char,std::char_traits<char>,std::allocator<char> >::_Grow
	movzx	ecx, al
	test	ecx, ecx
	je	SHORT $LN2@assign

; 1139 : 			{	// make room and assign new stuff
; 1140 : 			_Traits::copy(this->_Myptr(),
; 1141 : 				_Right._Myptr() + _Roff, _Num);

	mov	eax, DWORD PTR __Num$[ebp]
	push	eax
	mov	ecx, DWORD PTR __Right$[ebp]
	call	?_Myptr@?$_String_val@U?$_Simple_types@D@std@@@std@@QBEPBDXZ ; std::_String_val<std::_Simple_types<char> >::_Myptr
	add	eax, DWORD PTR __Roff$[ebp]
	push	eax
	mov	ecx, DWORD PTR _this$[ebp]
	call	?_Myptr@?$_String_val@U?$_Simple_types@D@std@@@std@@QAEPADXZ ; std::_String_val<std::_Simple_types<char> >::_Myptr
	push	eax
	call	?copy@?$char_traits@D@std@@SAPADPADPBDI@Z ; std::char_traits<char>::copy
	add	esp, 12					; 0000000cH

; 1142 : 			_Eos(_Num);

	mov	eax, DWORD PTR __Num$[ebp]
	push	eax
	mov	ecx, DWORD PTR _this$[ebp]
	call	?_Eos@?$basic_string@DU?$char_traits@D@std@@V?$allocator@D@2@@std@@QAEXI@Z ; std::basic_string<char,std::char_traits<char>,std::allocator<char> >::_Eos
$LN2@assign:

; 1143 : 			}
; 1144 : 		return (*this);

	mov	eax, DWORD PTR _this$[ebp]
$LN7@assign:

; 1145 : 		}

	pop	edi
	pop	esi
	pop	ebx
	add	esp, 216				; 000000d8H
	cmp	ebp, esp
	call	__RTC_CheckEsp
	mov	esp, ebp
	pop	ebp
	ret	12					; 0000000cH
?assign@?$basic_string@DU?$char_traits@D@std@@V?$allocator@D@2@@std@@QAEAAV12@ABV12@II@Z ENDP ; std::basic_string<char,std::char_traits<char>,std::allocator<char> >::assign
_TEXT	ENDS
; Function compile flags: /Odtp /RTCsu /ZI
; File c:\program files (x86)\microsoft visual studio 12.0\vc\include\xstring
;	COMDAT ??1?$basic_string@DU?$char_traits@D@std@@V?$allocator@D@2@@std@@QAE@XZ
_TEXT	SEGMENT
_this$ = -8						; size = 4
??1?$basic_string@DU?$char_traits@D@std@@V?$allocator@D@2@@std@@QAE@XZ PROC ; std::basic_string<char,std::char_traits<char>,std::allocator<char> >::~basic_string<char,std::char_traits<char>,std::allocator<char> >, COMDAT
; _this$ = ecx

; 990  : 		{	// destroy the string

	push	ebp
	mov	ebp, esp
	sub	esp, 204				; 000000ccH
	push	ebx
	push	esi
	push	edi
	push	ecx
	lea	edi, DWORD PTR [ebp-204]
	mov	ecx, 51					; 00000033H
	mov	eax, -858993460				; ccccccccH
	rep stosd
	pop	ecx
	mov	DWORD PTR _this$[ebp], ecx

; 991  : 		_Tidy(true);

	push	0
	push	1
	mov	ecx, DWORD PTR _this$[ebp]
	call	?_Tidy@?$basic_string@DU?$char_traits@D@std@@V?$allocator@D@2@@std@@QAEX_NI@Z ; std::basic_string<char,std::char_traits<char>,std::allocator<char> >::_Tidy

; 992  : 		}

	mov	ecx, DWORD PTR _this$[ebp]
	call	??1?$_String_alloc@$0A@U?$_String_base_types@DV?$allocator@D@std@@@std@@@std@@QAE@XZ ; std::_String_alloc<0,std::_String_base_types<char,std::allocator<char> > >::~_String_alloc<0,std::_String_base_types<char,std::allocator<char> > >
	pop	edi
	pop	esi
	pop	ebx
	add	esp, 204				; 000000ccH
	cmp	ebp, esp
	call	__RTC_CheckEsp
	mov	esp, ebp
	pop	ebp
	ret	0
??1?$basic_string@DU?$char_traits@D@std@@V?$allocator@D@2@@std@@QAE@XZ ENDP ; std::basic_string<char,std::char_traits<char>,std::allocator<char> >::~basic_string<char,std::char_traits<char>,std::allocator<char> >
_TEXT	ENDS
; Function compile flags: /Odtp /RTCsu /ZI
; File c:\program files (x86)\microsoft visual studio 12.0\vc\include\xstring
;	COMDAT ??0?$basic_string@DU?$char_traits@D@std@@V?$allocator@D@2@@std@@QAE@PBD@Z
_TEXT	SEGMENT
$T2 = -221						; size = 1
_this$ = -20						; size = 4
__$EHRec$ = -12						; size = 12
__Ptr$ = 8						; size = 4
??0?$basic_string@DU?$char_traits@D@std@@V?$allocator@D@2@@std@@QAE@PBD@Z PROC ; std::basic_string<char,std::char_traits<char>,std::allocator<char> >::basic_string<char,std::char_traits<char>,std::allocator<char> >, COMDAT
; _this$ = ecx

; 780  : 		{	// construct from [_Ptr, <null>)

	push	ebp
	mov	ebp, esp
	push	-1
	push	__ehhandler$??0?$basic_string@DU?$char_traits@D@std@@V?$allocator@D@2@@std@@QAE@PBD@Z
	mov	eax, DWORD PTR fs:0
	push	eax
	sub	esp, 216				; 000000d8H
	push	ebx
	push	esi
	push	edi
	push	ecx
	lea	edi, DWORD PTR [ebp-228]
	mov	ecx, 54					; 00000036H
	mov	eax, -858993460				; ccccccccH
	rep stosd
	pop	ecx
	mov	eax, DWORD PTR ___security_cookie
	xor	eax, ebp
	push	eax
	lea	eax, DWORD PTR __$EHRec$[ebp]
	mov	DWORD PTR fs:0, eax
	mov	DWORD PTR _this$[ebp], ecx
	lea	ecx, DWORD PTR $T2[ebp]
	call	??0?$allocator@D@std@@QAE@XZ		; std::allocator<char>::allocator<char>
	push	eax
	mov	ecx, DWORD PTR _this$[ebp]
	call	??0?$_String_alloc@$0A@U?$_String_base_types@DV?$allocator@D@std@@@std@@@std@@QAE@ABV?$allocator@D@1@@Z ; std::_String_alloc<0,std::_String_base_types<char,std::allocator<char> > >::_String_alloc<0,std::_String_base_types<char,std::allocator<char> > >
	mov	DWORD PTR __$EHRec$[ebp+8], 0

; 781  : 		_Tidy();

	push	0
	push	0
	mov	ecx, DWORD PTR _this$[ebp]
	call	?_Tidy@?$basic_string@DU?$char_traits@D@std@@V?$allocator@D@2@@std@@QAEX_NI@Z ; std::basic_string<char,std::char_traits<char>,std::allocator<char> >::_Tidy

; 782  : 		assign(_Ptr);

	mov	eax, DWORD PTR __Ptr$[ebp]
	push	eax
	mov	ecx, DWORD PTR _this$[ebp]
	call	?assign@?$basic_string@DU?$char_traits@D@std@@V?$allocator@D@2@@std@@QAEAAV12@PBD@Z ; std::basic_string<char,std::char_traits<char>,std::allocator<char> >::assign

; 783  : 		}

	mov	DWORD PTR __$EHRec$[ebp+8], -1
	mov	eax, DWORD PTR _this$[ebp]
	mov	ecx, DWORD PTR __$EHRec$[ebp]
	mov	DWORD PTR fs:0, ecx
	pop	ecx
	pop	edi
	pop	esi
	pop	ebx
	add	esp, 228				; 000000e4H
	cmp	ebp, esp
	call	__RTC_CheckEsp
	mov	esp, ebp
	pop	ebp
	ret	4
_TEXT	ENDS
;	COMDAT text$x
text$x	SEGMENT
__unwindfunclet$??0?$basic_string@DU?$char_traits@D@std@@V?$allocator@D@2@@std@@QAE@PBD@Z$0:
	mov	ecx, DWORD PTR _this$[ebp]
	jmp	??1?$_String_alloc@$0A@U?$_String_base_types@DV?$allocator@D@std@@@std@@@std@@QAE@XZ ; std::_String_alloc<0,std::_String_base_types<char,std::allocator<char> > >::~_String_alloc<0,std::_String_base_types<char,std::allocator<char> > >
__ehhandler$??0?$basic_string@DU?$char_traits@D@std@@V?$allocator@D@2@@std@@QAE@PBD@Z:
	mov	edx, DWORD PTR [esp+8]
	lea	eax, DWORD PTR [edx+12]
	mov	ecx, DWORD PTR [edx-232]
	xor	ecx, eax
	call	@__security_check_cookie@4
	mov	eax, OFFSET __ehfuncinfo$??0?$basic_string@DU?$char_traits@D@std@@V?$allocator@D@2@@std@@QAE@PBD@Z
	jmp	___CxxFrameHandler3
text$x	ENDS
??0?$basic_string@DU?$char_traits@D@std@@V?$allocator@D@2@@std@@QAE@PBD@Z ENDP ; std::basic_string<char,std::char_traits<char>,std::allocator<char> >::basic_string<char,std::char_traits<char>,std::allocator<char> >
; Function compile flags: /Odtp /RTCsu /ZI
; File c:\program files (x86)\microsoft visual studio 12.0\vc\include\xstring
;	COMDAT ?_Getal@?$_String_alloc@$0A@U?$_String_base_types@DV?$allocator@D@std@@@std@@@std@@QBE?AU?$_Wrap_alloc@V?$allocator@D@std@@@2@XZ
_TEXT	SEGMENT
_this$ = -8						; size = 4
___$ReturnUdt$ = 8					; size = 4
?_Getal@?$_String_alloc@$0A@U?$_String_base_types@DV?$allocator@D@std@@@std@@@std@@QBE?AU?$_Wrap_alloc@V?$allocator@D@std@@@2@XZ PROC ; std::_String_alloc<0,std::_String_base_types<char,std::allocator<char> > >::_Getal, COMDAT
; _this$ = ecx

; 683  : 		{	// get reference to allocator

	push	ebp
	mov	ebp, esp
	sub	esp, 204				; 000000ccH
	push	ebx
	push	esi
	push	edi
	push	ecx
	lea	edi, DWORD PTR [ebp-204]
	mov	ecx, 51					; 00000033H
	mov	eax, -858993460				; ccccccccH
	rep stosd
	pop	ecx
	mov	DWORD PTR _this$[ebp], ecx

; 684  : 		return (_Alty());

	mov	ecx, DWORD PTR ___$ReturnUdt$[ebp]
	call	??0?$_Wrap_alloc@V?$allocator@D@std@@@std@@QAE@XZ ; std::_Wrap_alloc<std::allocator<char> >::_Wrap_alloc<std::allocator<char> >
	mov	eax, DWORD PTR ___$ReturnUdt$[ebp]

; 685  : 		}

	pop	edi
	pop	esi
	pop	ebx
	add	esp, 204				; 000000ccH
	cmp	ebp, esp
	call	__RTC_CheckEsp
	mov	esp, ebp
	pop	ebp
	ret	4
?_Getal@?$_String_alloc@$0A@U?$_String_base_types@DV?$allocator@D@std@@@std@@@std@@QBE?AU?$_Wrap_alloc@V?$allocator@D@std@@@2@XZ ENDP ; std::_String_alloc<0,std::_String_base_types<char,std::allocator<char> > >::_Getal
_TEXT	ENDS
; Function compile flags: /Odtp /RTCsu /ZI
; File c:\program files (x86)\microsoft visual studio 12.0\vc\include\xstring
;	COMDAT ?_Free_proxy@?$_String_alloc@$0A@U?$_String_base_types@DV?$allocator@D@std@@@std@@@std@@QAEXXZ
_TEXT	SEGMENT
__Alproxy$ = -17					; size = 1
_this$ = -8						; size = 4
?_Free_proxy@?$_String_alloc@$0A@U?$_String_base_types@DV?$allocator@D@std@@@std@@@std@@QAEXXZ PROC ; std::_String_alloc<0,std::_String_base_types<char,std::allocator<char> > >::_Free_proxy, COMDAT
; _this$ = ecx

; 672  : 		{	// destroy proxy

	push	ebp
	mov	ebp, esp
	sub	esp, 216				; 000000d8H
	push	ebx
	push	esi
	push	edi
	push	ecx
	lea	edi, DWORD PTR [ebp-216]
	mov	ecx, 54					; 00000036H
	mov	eax, -858993460				; ccccccccH
	rep stosd
	pop	ecx
	mov	DWORD PTR _this$[ebp], ecx

; 673  : 		typename _Alloc::template rebind<_Container_proxy>::other
; 674  : 			_Alproxy;

	lea	ecx, DWORD PTR __Alproxy$[ebp]
	call	??0?$allocator@U_Container_proxy@std@@@std@@QAE@XZ ; std::allocator<std::_Container_proxy>::allocator<std::_Container_proxy>

; 675  : 		this->_Orphan_all();

	mov	ecx, DWORD PTR _this$[ebp]
	call	?_Orphan_all@_Container_base12@std@@QAEXXZ ; std::_Container_base12::_Orphan_all

; 676  : 		_Alproxy.destroy(this->_Myproxy);

	mov	eax, DWORD PTR _this$[ebp]
	mov	ecx, DWORD PTR [eax]
	push	ecx
	lea	ecx, DWORD PTR __Alproxy$[ebp]
	call	??$destroy@U_Container_proxy@std@@@?$allocator@U_Container_proxy@std@@@std@@QAEXPAU_Container_proxy@1@@Z ; std::allocator<std::_Container_proxy>::destroy<std::_Container_proxy>

; 677  : 		_Alproxy.deallocate(this->_Myproxy, 1);

	push	1
	mov	eax, DWORD PTR _this$[ebp]
	mov	ecx, DWORD PTR [eax]
	push	ecx
	lea	ecx, DWORD PTR __Alproxy$[ebp]
	call	?deallocate@?$allocator@U_Container_proxy@std@@@std@@QAEXPAU_Container_proxy@2@I@Z ; std::allocator<std::_Container_proxy>::deallocate

; 678  : 		this->_Myproxy = 0;

	mov	eax, DWORD PTR _this$[ebp]
	mov	DWORD PTR [eax], 0

; 679  : 		}

	push	edx
	mov	ecx, ebp
	push	eax
	lea	edx, DWORD PTR $LN5@Free_proxy
	call	@_RTC_CheckStackVars@8
	pop	eax
	pop	edx
	pop	edi
	pop	esi
	pop	ebx
	add	esp, 216				; 000000d8H
	cmp	ebp, esp
	call	__RTC_CheckEsp
	mov	esp, ebp
	pop	ebp
	ret	0
	npad	1
$LN5@Free_proxy:
	DD	1
	DD	$LN4@Free_proxy
$LN4@Free_proxy:
	DD	-17					; ffffffefH
	DD	1
	DD	$LN3@Free_proxy
$LN3@Free_proxy:
	DB	95					; 0000005fH
	DB	65					; 00000041H
	DB	108					; 0000006cH
	DB	112					; 00000070H
	DB	114					; 00000072H
	DB	111					; 0000006fH
	DB	120					; 00000078H
	DB	121					; 00000079H
	DB	0
?_Free_proxy@?$_String_alloc@$0A@U?$_String_base_types@DV?$allocator@D@std@@@std@@@std@@QAEXXZ ENDP ; std::_String_alloc<0,std::_String_base_types<char,std::allocator<char> > >::_Free_proxy
_TEXT	ENDS
; Function compile flags: /Odtp /RTCsu /ZI
; File c:\program files (x86)\microsoft visual studio 12.0\vc\include\xstring
;	COMDAT ?_Alloc_proxy@?$_String_alloc@$0A@U?$_String_base_types@DV?$allocator@D@std@@@std@@@std@@QAEXXZ
_TEXT	SEGMENT
$T1 = -228						; size = 8
__Alproxy$ = -17					; size = 1
_this$ = -8						; size = 4
?_Alloc_proxy@?$_String_alloc@$0A@U?$_String_base_types@DV?$allocator@D@std@@@std@@@std@@QAEXXZ PROC ; std::_String_alloc<0,std::_String_base_types<char,std::allocator<char> > >::_Alloc_proxy, COMDAT
; _this$ = ecx

; 663  : 		{	// construct proxy from _Alval

	push	ebp
	mov	ebp, esp
	sub	esp, 232				; 000000e8H
	push	ebx
	push	esi
	push	edi
	push	ecx
	lea	edi, DWORD PTR [ebp-232]
	mov	ecx, 58					; 0000003aH
	mov	eax, -858993460				; ccccccccH
	rep stosd
	pop	ecx
	mov	DWORD PTR _this$[ebp], ecx

; 664  : 		typename _Alloc::template rebind<_Container_proxy>::other
; 665  : 			_Alproxy;

	lea	ecx, DWORD PTR __Alproxy$[ebp]
	call	??0?$allocator@U_Container_proxy@std@@@std@@QAE@XZ ; std::allocator<std::_Container_proxy>::allocator<std::_Container_proxy>

; 666  : 		this->_Myproxy = _Alproxy.allocate(1);

	push	1
	lea	ecx, DWORD PTR __Alproxy$[ebp]
	call	?allocate@?$allocator@U_Container_proxy@std@@@std@@QAEPAU_Container_proxy@2@I@Z ; std::allocator<std::_Container_proxy>::allocate
	mov	ecx, DWORD PTR _this$[ebp]
	mov	DWORD PTR [ecx], eax

; 667  : 		_Alproxy.construct(this->_Myproxy, _Container_proxy());

	lea	ecx, DWORD PTR $T1[ebp]
	call	??0_Container_proxy@std@@QAE@XZ		; std::_Container_proxy::_Container_proxy
	push	eax
	mov	eax, DWORD PTR _this$[ebp]
	mov	ecx, DWORD PTR [eax]
	push	ecx
	lea	ecx, DWORD PTR __Alproxy$[ebp]
	call	??$construct@U_Container_proxy@std@@U12@@?$allocator@U_Container_proxy@std@@@std@@QAEXPAU_Container_proxy@1@$$QAU21@@Z ; std::allocator<std::_Container_proxy>::construct<std::_Container_proxy,std::_Container_proxy>

; 668  : 		this->_Myproxy->_Mycont = this;

	mov	eax, DWORD PTR _this$[ebp]
	mov	ecx, DWORD PTR [eax]
	mov	edx, DWORD PTR _this$[ebp]
	mov	DWORD PTR [ecx], edx

; 669  : 		}

	push	edx
	mov	ecx, ebp
	push	eax
	lea	edx, DWORD PTR $LN5@Alloc_prox
	call	@_RTC_CheckStackVars@8
	pop	eax
	pop	edx
	pop	edi
	pop	esi
	pop	ebx
	add	esp, 232				; 000000e8H
	cmp	ebp, esp
	call	__RTC_CheckEsp
	mov	esp, ebp
	pop	ebp
	ret	0
	npad	1
$LN5@Alloc_prox:
	DD	1
	DD	$LN4@Alloc_prox
$LN4@Alloc_prox:
	DD	-17					; ffffffefH
	DD	1
	DD	$LN3@Alloc_prox
$LN3@Alloc_prox:
	DB	95					; 0000005fH
	DB	65					; 00000041H
	DB	108					; 0000006cH
	DB	112					; 00000070H
	DB	114					; 00000072H
	DB	111					; 0000006fH
	DB	120					; 00000078H
	DB	121					; 00000079H
	DB	0
?_Alloc_proxy@?$_String_alloc@$0A@U?$_String_base_types@DV?$allocator@D@std@@@std@@@std@@QAEXXZ ENDP ; std::_String_alloc<0,std::_String_base_types<char,std::allocator<char> > >::_Alloc_proxy
_TEXT	ENDS
; Function compile flags: /Odtp /RTCsu /ZI
; File c:\program files (x86)\microsoft visual studio 12.0\vc\include\xstring
;	COMDAT ??1?$_String_alloc@$0A@U?$_String_base_types@DV?$allocator@D@std@@@std@@@std@@QAE@XZ
_TEXT	SEGMENT
_this$ = -8						; size = 4
??1?$_String_alloc@$0A@U?$_String_base_types@DV?$allocator@D@std@@@std@@@std@@QAE@XZ PROC ; std::_String_alloc<0,std::_String_base_types<char,std::allocator<char> > >::~_String_alloc<0,std::_String_base_types<char,std::allocator<char> > >, COMDAT
; _this$ = ecx

; 649  : 		{	// destroy the object

	push	ebp
	mov	ebp, esp
	sub	esp, 204				; 000000ccH
	push	ebx
	push	esi
	push	edi
	push	ecx
	lea	edi, DWORD PTR [ebp-204]
	mov	ecx, 51					; 00000033H
	mov	eax, -858993460				; ccccccccH
	rep stosd
	pop	ecx
	mov	DWORD PTR _this$[ebp], ecx

; 650  : 		_Free_proxy();

	mov	ecx, DWORD PTR _this$[ebp]
	call	?_Free_proxy@?$_String_alloc@$0A@U?$_String_base_types@DV?$allocator@D@std@@@std@@@std@@QAEXXZ ; std::_String_alloc<0,std::_String_base_types<char,std::allocator<char> > >::_Free_proxy

; 651  : 		}

	mov	ecx, DWORD PTR _this$[ebp]
	call	??1?$_String_val@U?$_Simple_types@D@std@@@std@@QAE@XZ
	pop	edi
	pop	esi
	pop	ebx
	add	esp, 204				; 000000ccH
	cmp	ebp, esp
	call	__RTC_CheckEsp
	mov	esp, ebp
	pop	ebp
	ret	0
??1?$_String_alloc@$0A@U?$_String_base_types@DV?$allocator@D@std@@@std@@@std@@QAE@XZ ENDP ; std::_String_alloc<0,std::_String_base_types<char,std::allocator<char> > >::~_String_alloc<0,std::_String_base_types<char,std::allocator<char> > >
_TEXT	ENDS
; Function compile flags: /Odtp /RTCsu /ZI
; File c:\program files (x86)\microsoft visual studio 12.0\vc\include\xstring
;	COMDAT ??0?$_String_alloc@$0A@U?$_String_base_types@DV?$allocator@D@std@@@std@@@std@@QAE@ABV?$allocator@D@1@@Z
_TEXT	SEGMENT
_this$ = -20						; size = 4
__$EHRec$ = -12						; size = 12
___formal$ = 8						; size = 4
??0?$_String_alloc@$0A@U?$_String_base_types@DV?$allocator@D@std@@@std@@@std@@QAE@ABV?$allocator@D@1@@Z PROC ; std::_String_alloc<0,std::_String_base_types<char,std::allocator<char> > >::_String_alloc<0,std::_String_base_types<char,std::allocator<char> > >, COMDAT
; _this$ = ecx

; 643  : 	_String_alloc(const _Alloc& = _Alloc())

	push	ebp
	mov	ebp, esp
	push	-1
	push	__ehhandler$??0?$_String_alloc@$0A@U?$_String_base_types@DV?$allocator@D@std@@@std@@@std@@QAE@ABV?$allocator@D@1@@Z
	mov	eax, DWORD PTR fs:0
	push	eax
	sub	esp, 204				; 000000ccH
	push	ebx
	push	esi
	push	edi
	push	ecx
	lea	edi, DWORD PTR [ebp-216]
	mov	ecx, 51					; 00000033H
	mov	eax, -858993460				; ccccccccH
	rep stosd
	pop	ecx
	mov	eax, DWORD PTR ___security_cookie
	xor	eax, ebp
	push	eax
	lea	eax, DWORD PTR __$EHRec$[ebp]
	mov	DWORD PTR fs:0, eax
	mov	DWORD PTR _this$[ebp], ecx
	mov	ecx, DWORD PTR _this$[ebp]
	call	??0?$_String_val@U?$_Simple_types@D@std@@@std@@QAE@XZ ; std::_String_val<std::_Simple_types<char> >::_String_val<std::_Simple_types<char> >
	mov	DWORD PTR __$EHRec$[ebp+8], 0

; 644  : 		{	// construct allocator from _Al
; 645  : 		_Alloc_proxy();

	mov	ecx, DWORD PTR _this$[ebp]
	call	?_Alloc_proxy@?$_String_alloc@$0A@U?$_String_base_types@DV?$allocator@D@std@@@std@@@std@@QAEXXZ ; std::_String_alloc<0,std::_String_base_types<char,std::allocator<char> > >::_Alloc_proxy

; 646  : 		}

	mov	DWORD PTR __$EHRec$[ebp+8], -1
	mov	eax, DWORD PTR _this$[ebp]
	mov	ecx, DWORD PTR __$EHRec$[ebp]
	mov	DWORD PTR fs:0, ecx
	pop	ecx
	pop	edi
	pop	esi
	pop	ebx
	add	esp, 216				; 000000d8H
	cmp	ebp, esp
	call	__RTC_CheckEsp
	mov	esp, ebp
	pop	ebp
	ret	4
_TEXT	ENDS
;	COMDAT text$x
text$x	SEGMENT
__unwindfunclet$??0?$_String_alloc@$0A@U?$_String_base_types@DV?$allocator@D@std@@@std@@@std@@QAE@ABV?$allocator@D@1@@Z$0:
	mov	ecx, DWORD PTR _this$[ebp]
	jmp	??1?$_String_val@U?$_Simple_types@D@std@@@std@@QAE@XZ
__ehhandler$??0?$_String_alloc@$0A@U?$_String_base_types@DV?$allocator@D@std@@@std@@@std@@QAE@ABV?$allocator@D@1@@Z:
	mov	edx, DWORD PTR [esp+8]
	lea	eax, DWORD PTR [edx+12]
	mov	ecx, DWORD PTR [edx-220]
	xor	ecx, eax
	call	@__security_check_cookie@4
	mov	eax, OFFSET __ehfuncinfo$??0?$_String_alloc@$0A@U?$_String_base_types@DV?$allocator@D@std@@@std@@@std@@QAE@ABV?$allocator@D@1@@Z
	jmp	___CxxFrameHandler3
text$x	ENDS
??0?$_String_alloc@$0A@U?$_String_base_types@DV?$allocator@D@std@@@std@@@std@@QAE@ABV?$allocator@D@1@@Z ENDP ; std::_String_alloc<0,std::_String_base_types<char,std::allocator<char> > >::_String_alloc<0,std::_String_base_types<char,std::allocator<char> > >
; Function compile flags: /Odtp /RTCsu /ZI
;	COMDAT ??1?$_String_val@U?$_Simple_types@D@std@@@std@@QAE@XZ
_TEXT	SEGMENT
_this$ = -8						; size = 4
??1?$_String_val@U?$_Simple_types@D@std@@@std@@QAE@XZ PROC ; std::_String_val<std::_Simple_types<char> >::~_String_val<std::_Simple_types<char> >, COMDAT
; _this$ = ecx
	push	ebp
	mov	ebp, esp
	sub	esp, 204				; 000000ccH
	push	ebx
	push	esi
	push	edi
	push	ecx
	lea	edi, DWORD PTR [ebp-204]
	mov	ecx, 51					; 00000033H
	mov	eax, -858993460				; ccccccccH
	rep stosd
	pop	ecx
	mov	DWORD PTR _this$[ebp], ecx
	mov	ecx, DWORD PTR _this$[ebp]
	call	??1_Container_base12@std@@QAE@XZ	; std::_Container_base12::~_Container_base12
	pop	edi
	pop	esi
	pop	ebx
	add	esp, 204				; 000000ccH
	cmp	ebp, esp
	call	__RTC_CheckEsp
	mov	esp, ebp
	pop	ebp
	ret	0
??1?$_String_val@U?$_Simple_types@D@std@@@std@@QAE@XZ ENDP ; std::_String_val<std::_Simple_types<char> >::~_String_val<std::_Simple_types<char> >
_TEXT	ENDS
; Function compile flags: /Odtp /RTCsu /ZI
; File c:\program files (x86)\microsoft visual studio 12.0\vc\include\xstring
;	COMDAT ?_Myptr@?$_String_val@U?$_Simple_types@D@std@@@std@@QBEPBDXZ
_TEXT	SEGMENT
tv72 = -208						; size = 4
_this$ = -8						; size = 4
?_Myptr@?$_String_val@U?$_Simple_types@D@std@@@std@@QBEPBDXZ PROC ; std::_String_val<std::_Simple_types<char> >::_Myptr, COMDAT
; _this$ = ecx

; 517  : 		{	// determine current pointer to buffer for nonmutable string

	push	ebp
	mov	ebp, esp
	sub	esp, 208				; 000000d0H
	push	ebx
	push	esi
	push	edi
	push	ecx
	lea	edi, DWORD PTR [ebp-208]
	mov	ecx, 52					; 00000034H
	mov	eax, -858993460				; ccccccccH
	rep stosd
	pop	ecx
	mov	DWORD PTR _this$[ebp], ecx

; 518  : 		return (this->_BUF_SIZE <= this->_Myres
; 519  : 			? _STD addressof(*this->_Bx._Ptr)
; 520  : 			: this->_Bx._Buf);

	mov	eax, DWORD PTR _this$[ebp]
	cmp	DWORD PTR [eax+24], 16			; 00000010H
	jb	SHORT $LN3@Myptr
	mov	ecx, DWORD PTR _this$[ebp]
	mov	edx, DWORD PTR [ecx+4]
	push	edx
	call	??$addressof@D@std@@YAPADAAD@Z		; std::addressof<char>
	add	esp, 4
	mov	DWORD PTR tv72[ebp], eax
	jmp	SHORT $LN4@Myptr
$LN3@Myptr:
	mov	eax, DWORD PTR _this$[ebp]
	add	eax, 4
	mov	DWORD PTR tv72[ebp], eax
$LN4@Myptr:
	mov	eax, DWORD PTR tv72[ebp]

; 521  : 		}

	pop	edi
	pop	esi
	pop	ebx
	add	esp, 208				; 000000d0H
	cmp	ebp, esp
	call	__RTC_CheckEsp
	mov	esp, ebp
	pop	ebp
	ret	0
?_Myptr@?$_String_val@U?$_Simple_types@D@std@@@std@@QBEPBDXZ ENDP ; std::_String_val<std::_Simple_types<char> >::_Myptr
_TEXT	ENDS
; Function compile flags: /Odtp /RTCsu /ZI
; File c:\program files (x86)\microsoft visual studio 12.0\vc\include\xstring
;	COMDAT ?_Myptr@?$_String_val@U?$_Simple_types@D@std@@@std@@QAEPADXZ
_TEXT	SEGMENT
tv72 = -208						; size = 4
_this$ = -8						; size = 4
?_Myptr@?$_String_val@U?$_Simple_types@D@std@@@std@@QAEPADXZ PROC ; std::_String_val<std::_Simple_types<char> >::_Myptr, COMDAT
; _this$ = ecx

; 510  : 		{	// determine current pointer to buffer for mutable string

	push	ebp
	mov	ebp, esp
	sub	esp, 208				; 000000d0H
	push	ebx
	push	esi
	push	edi
	push	ecx
	lea	edi, DWORD PTR [ebp-208]
	mov	ecx, 52					; 00000034H
	mov	eax, -858993460				; ccccccccH
	rep stosd
	pop	ecx
	mov	DWORD PTR _this$[ebp], ecx

; 511  : 		return (this->_BUF_SIZE <= this->_Myres
; 512  : 			? _STD addressof(*this->_Bx._Ptr)
; 513  : 			: this->_Bx._Buf);

	mov	eax, DWORD PTR _this$[ebp]
	cmp	DWORD PTR [eax+24], 16			; 00000010H
	jb	SHORT $LN3@Myptr
	mov	ecx, DWORD PTR _this$[ebp]
	mov	edx, DWORD PTR [ecx+4]
	push	edx
	call	??$addressof@D@std@@YAPADAAD@Z		; std::addressof<char>
	add	esp, 4
	mov	DWORD PTR tv72[ebp], eax
	jmp	SHORT $LN4@Myptr
$LN3@Myptr:
	mov	eax, DWORD PTR _this$[ebp]
	add	eax, 4
	mov	DWORD PTR tv72[ebp], eax
$LN4@Myptr:
	mov	eax, DWORD PTR tv72[ebp]

; 514  : 		}

	pop	edi
	pop	esi
	pop	ebx
	add	esp, 208				; 000000d0H
	cmp	ebp, esp
	call	__RTC_CheckEsp
	mov	esp, ebp
	pop	ebp
	ret	0
?_Myptr@?$_String_val@U?$_Simple_types@D@std@@@std@@QAEPADXZ ENDP ; std::_String_val<std::_Simple_types<char> >::_Myptr
_TEXT	ENDS
; Function compile flags: /Odtp /RTCsu /ZI
; File c:\program files (x86)\microsoft visual studio 12.0\vc\include\xstring
;	COMDAT ??0?$_String_val@U?$_Simple_types@D@std@@@std@@QAE@XZ
_TEXT	SEGMENT
_this$ = -8						; size = 4
??0?$_String_val@U?$_Simple_types@D@std@@@std@@QAE@XZ PROC ; std::_String_val<std::_Simple_types<char> >::_String_val<std::_Simple_types<char> >, COMDAT
; _this$ = ecx

; 492  : 	_String_val()

	push	ebp
	mov	ebp, esp
	sub	esp, 204				; 000000ccH
	push	ebx
	push	esi
	push	edi
	push	ecx
	lea	edi, DWORD PTR [ebp-204]
	mov	ecx, 51					; 00000033H
	mov	eax, -858993460				; ccccccccH
	rep stosd
	pop	ecx
	mov	DWORD PTR _this$[ebp], ecx
	mov	ecx, DWORD PTR _this$[ebp]
	call	??0_Container_base12@std@@QAE@XZ	; std::_Container_base12::_Container_base12

; 493  : 		{	// initialize values
; 494  : 		_Mysize = 0;

	mov	eax, DWORD PTR _this$[ebp]
	mov	DWORD PTR [eax+20], 0

; 495  : 		_Myres = 0;

	mov	eax, DWORD PTR _this$[ebp]
	mov	DWORD PTR [eax+24], 0

; 496  : 		}

	mov	eax, DWORD PTR _this$[ebp]
	pop	edi
	pop	esi
	pop	ebx
	add	esp, 204				; 000000ccH
	cmp	ebp, esp
	call	__RTC_CheckEsp
	mov	esp, ebp
	pop	ebp
	ret	0
??0?$_String_val@U?$_Simple_types@D@std@@@std@@QAE@XZ ENDP ; std::_String_val<std::_Simple_types<char> >::_String_val<std::_Simple_types<char> >
_TEXT	ENDS
; Function compile flags: /Odtp /RTCsu /ZI
; File c:\program files (x86)\microsoft visual studio 12.0\vc\include\xmemory0
;	COMDAT ?max_size@?$_Wrap_alloc@V?$allocator@D@std@@@std@@QBEIXZ
_TEXT	SEGMENT
_this$ = -8						; size = 4
?max_size@?$_Wrap_alloc@V?$allocator@D@std@@@std@@QBEIXZ PROC ; std::_Wrap_alloc<std::allocator<char> >::max_size, COMDAT
; _this$ = ecx

; 883  : 		{	// get maximum size

	push	ebp
	mov	ebp, esp
	sub	esp, 204				; 000000ccH
	push	ebx
	push	esi
	push	edi
	push	ecx
	lea	edi, DWORD PTR [ebp-204]
	mov	ecx, 51					; 00000033H
	mov	eax, -858993460				; ccccccccH
	rep stosd
	pop	ecx
	mov	DWORD PTR _this$[ebp], ecx

; 884  : 		return (_Mytraits::max_size(*this));

	mov	eax, DWORD PTR _this$[ebp]
	push	eax
	call	?max_size@?$allocator_traits@V?$allocator@D@std@@@std@@SAIABV?$allocator@D@2@@Z ; std::allocator_traits<std::allocator<char> >::max_size
	add	esp, 4

; 885  : 		}

	pop	edi
	pop	esi
	pop	ebx
	add	esp, 204				; 000000ccH
	cmp	ebp, esp
	call	__RTC_CheckEsp
	mov	esp, ebp
	pop	ebp
	ret	0
?max_size@?$_Wrap_alloc@V?$allocator@D@std@@@std@@QBEIXZ ENDP ; std::_Wrap_alloc<std::allocator<char> >::max_size
_TEXT	ENDS
; Function compile flags: /Odtp /RTCsu /ZI
; File c:\program files (x86)\microsoft visual studio 12.0\vc\include\xmemory0
;	COMDAT ?deallocate@?$_Wrap_alloc@V?$allocator@D@std@@@std@@QAEXPADI@Z
_TEXT	SEGMENT
_this$ = -8						; size = 4
__Ptr$ = 8						; size = 4
__Count$ = 12						; size = 4
?deallocate@?$_Wrap_alloc@V?$allocator@D@std@@@std@@QAEXPADI@Z PROC ; std::_Wrap_alloc<std::allocator<char> >::deallocate, COMDAT
; _this$ = ecx

; 857  : 		{	// deallocate object at _Ptr, ignore size

	push	ebp
	mov	ebp, esp
	sub	esp, 204				; 000000ccH
	push	ebx
	push	esi
	push	edi
	push	ecx
	lea	edi, DWORD PTR [ebp-204]
	mov	ecx, 51					; 00000033H
	mov	eax, -858993460				; ccccccccH
	rep stosd
	pop	ecx
	mov	DWORD PTR _this$[ebp], ecx

; 858  : 		_Mybase::deallocate(_Ptr, _Count);

	mov	eax, DWORD PTR __Count$[ebp]
	push	eax
	mov	ecx, DWORD PTR __Ptr$[ebp]
	push	ecx
	mov	ecx, DWORD PTR _this$[ebp]
	call	?deallocate@?$allocator@D@std@@QAEXPADI@Z ; std::allocator<char>::deallocate

; 859  : 		}

	pop	edi
	pop	esi
	pop	ebx
	add	esp, 204				; 000000ccH
	cmp	ebp, esp
	call	__RTC_CheckEsp
	mov	esp, ebp
	pop	ebp
	ret	8
?deallocate@?$_Wrap_alloc@V?$allocator@D@std@@@std@@QAEXPADI@Z ENDP ; std::_Wrap_alloc<std::allocator<char> >::deallocate
_TEXT	ENDS
; Function compile flags: /Odtp /RTCsu /ZI
; File c:\program files (x86)\microsoft visual studio 12.0\vc\include\xmemory0
;	COMDAT ?allocate@?$_Wrap_alloc@V?$allocator@D@std@@@std@@QAEPADI@Z
_TEXT	SEGMENT
_this$ = -8						; size = 4
__Count$ = 8						; size = 4
?allocate@?$_Wrap_alloc@V?$allocator@D@std@@@std@@QAEPADI@Z PROC ; std::_Wrap_alloc<std::allocator<char> >::allocate, COMDAT
; _this$ = ecx

; 846  : 		{	// allocate array of _Count elements

	push	ebp
	mov	ebp, esp
	sub	esp, 204				; 000000ccH
	push	ebx
	push	esi
	push	edi
	push	ecx
	lea	edi, DWORD PTR [ebp-204]
	mov	ecx, 51					; 00000033H
	mov	eax, -858993460				; ccccccccH
	rep stosd
	pop	ecx
	mov	DWORD PTR _this$[ebp], ecx

; 847  : 		return (_Mybase::allocate(_Count));

	mov	eax, DWORD PTR __Count$[ebp]
	push	eax
	mov	ecx, DWORD PTR _this$[ebp]
	call	?allocate@?$allocator@D@std@@QAEPADI@Z	; std::allocator<char>::allocate

; 848  : 		}

	pop	edi
	pop	esi
	pop	ebx
	add	esp, 204				; 000000ccH
	cmp	ebp, esp
	call	__RTC_CheckEsp
	mov	esp, ebp
	pop	ebp
	ret	4
?allocate@?$_Wrap_alloc@V?$allocator@D@std@@@std@@QAEPADI@Z ENDP ; std::_Wrap_alloc<std::allocator<char> >::allocate
_TEXT	ENDS
; Function compile flags: /Odtp /RTCsu /ZI
; File c:\program files (x86)\microsoft visual studio 12.0\vc\include\xmemory0
;	COMDAT ??0?$_Wrap_alloc@V?$allocator@D@std@@@std@@QAE@XZ
_TEXT	SEGMENT
_this$ = -8						; size = 4
??0?$_Wrap_alloc@V?$allocator@D@std@@@std@@QAE@XZ PROC	; std::_Wrap_alloc<std::allocator<char> >::_Wrap_alloc<std::allocator<char> >, COMDAT
; _this$ = ecx

; 801  : 		{	// construct default allocator (do nothing)

	push	ebp
	mov	ebp, esp
	sub	esp, 204				; 000000ccH
	push	ebx
	push	esi
	push	edi
	push	ecx
	lea	edi, DWORD PTR [ebp-204]
	mov	ecx, 51					; 00000033H
	mov	eax, -858993460				; ccccccccH
	rep stosd
	pop	ecx
	mov	DWORD PTR _this$[ebp], ecx
	mov	ecx, DWORD PTR _this$[ebp]
	call	??0?$allocator@D@std@@QAE@XZ		; std::allocator<char>::allocator<char>

; 802  : 		}

	mov	eax, DWORD PTR _this$[ebp]
	pop	edi
	pop	esi
	pop	ebx
	add	esp, 204				; 000000ccH
	cmp	ebp, esp
	call	__RTC_CheckEsp
	mov	esp, ebp
	pop	ebp
	ret	0
??0?$_Wrap_alloc@V?$allocator@D@std@@@std@@QAE@XZ ENDP	; std::_Wrap_alloc<std::allocator<char> >::_Wrap_alloc<std::allocator<char> >
_TEXT	ENDS
; Function compile flags: /Odtp /RTCsu /ZI
; File c:\program files (x86)\microsoft visual studio 12.0\vc\include\xmemory0
;	COMDAT ?max_size@?$allocator_traits@V?$allocator@D@std@@@std@@SAIABV?$allocator@D@2@@Z
_TEXT	SEGMENT
__Al$ = 8						; size = 4
?max_size@?$allocator_traits@V?$allocator@D@std@@@std@@SAIABV?$allocator@D@2@@Z PROC ; std::allocator_traits<std::allocator<char> >::max_size, COMDAT

; 734  : 		{	// get maximum size

	push	ebp
	mov	ebp, esp
	sub	esp, 192				; 000000c0H
	push	ebx
	push	esi
	push	edi
	lea	edi, DWORD PTR [ebp-192]
	mov	ecx, 48					; 00000030H
	mov	eax, -858993460				; ccccccccH
	rep stosd

; 735  : 		return (_Al.max_size());

	mov	ecx, DWORD PTR __Al$[ebp]
	call	?max_size@?$allocator@D@std@@QBEIXZ	; std::allocator<char>::max_size

; 736  : 		}

	pop	edi
	pop	esi
	pop	ebx
	add	esp, 192				; 000000c0H
	cmp	ebp, esp
	call	__RTC_CheckEsp
	mov	esp, ebp
	pop	ebp
	ret	0
?max_size@?$allocator_traits@V?$allocator@D@std@@@std@@SAIABV?$allocator@D@2@@Z ENDP ; std::allocator_traits<std::allocator<char> >::max_size
_TEXT	ENDS
; Function compile flags: /Odtp /RTCsu /ZI
; File c:\program files (x86)\microsoft visual studio 12.0\vc\include\xmemory0
;	COMDAT ?max_size@?$allocator@D@std@@QBEIXZ
_TEXT	SEGMENT
_this$ = -8						; size = 4
?max_size@?$allocator@D@std@@QBEIXZ PROC		; std::allocator<char>::max_size, COMDAT
; _this$ = ecx

; 611  : 		{	// estimate maximum array size

	push	ebp
	mov	ebp, esp
	sub	esp, 204				; 000000ccH
	push	ebx
	push	esi
	push	edi
	push	ecx
	lea	edi, DWORD PTR [ebp-204]
	mov	ecx, 51					; 00000033H
	mov	eax, -858993460				; ccccccccH
	rep stosd
	pop	ecx
	mov	DWORD PTR _this$[ebp], ecx

; 612  : 		return ((size_t)(-1) / sizeof (_Ty));

	or	eax, -1

; 613  : 		}

	pop	edi
	pop	esi
	pop	ebx
	mov	esp, ebp
	pop	ebp
	ret	0
?max_size@?$allocator@D@std@@QBEIXZ ENDP		; std::allocator<char>::max_size
_TEXT	ENDS
; Function compile flags: /Odtp /RTCsu /ZI
; File c:\program files (x86)\microsoft visual studio 12.0\vc\include\xmemory0
;	COMDAT ?allocate@?$allocator@D@std@@QAEPADI@Z
_TEXT	SEGMENT
_this$ = -8						; size = 4
__Count$ = 8						; size = 4
?allocate@?$allocator@D@std@@QAEPADI@Z PROC		; std::allocator<char>::allocate, COMDAT
; _this$ = ecx

; 577  : 		{	// allocate array of _Count elements

	push	ebp
	mov	ebp, esp
	sub	esp, 204				; 000000ccH
	push	ebx
	push	esi
	push	edi
	push	ecx
	lea	edi, DWORD PTR [ebp-204]
	mov	ecx, 51					; 00000033H
	mov	eax, -858993460				; ccccccccH
	rep stosd
	pop	ecx
	mov	DWORD PTR _this$[ebp], ecx

; 578  : 		return (_Allocate(_Count, (pointer)0));

	push	0
	mov	eax, DWORD PTR __Count$[ebp]
	push	eax
	call	??$_Allocate@D@std@@YAPADIPAD@Z		; std::_Allocate<char>
	add	esp, 8

; 579  : 		}

	pop	edi
	pop	esi
	pop	ebx
	add	esp, 204				; 000000ccH
	cmp	ebp, esp
	call	__RTC_CheckEsp
	mov	esp, ebp
	pop	ebp
	ret	4
?allocate@?$allocator@D@std@@QAEPADI@Z ENDP		; std::allocator<char>::allocate
_TEXT	ENDS
; Function compile flags: /Odtp /RTCsu /ZI
; File c:\program files (x86)\microsoft visual studio 12.0\vc\include\xmemory0
;	COMDAT ?deallocate@?$allocator@D@std@@QAEXPADI@Z
_TEXT	SEGMENT
_this$ = -8						; size = 4
__Ptr$ = 8						; size = 4
___formal$ = 12						; size = 4
?deallocate@?$allocator@D@std@@QAEXPADI@Z PROC		; std::allocator<char>::deallocate, COMDAT
; _this$ = ecx

; 572  : 		{	// deallocate object at _Ptr, ignore size

	push	ebp
	mov	ebp, esp
	sub	esp, 204				; 000000ccH
	push	ebx
	push	esi
	push	edi
	push	ecx
	lea	edi, DWORD PTR [ebp-204]
	mov	ecx, 51					; 00000033H
	mov	eax, -858993460				; ccccccccH
	rep stosd
	pop	ecx
	mov	DWORD PTR _this$[ebp], ecx

; 573  : 		::operator delete(_Ptr);

	mov	eax, DWORD PTR __Ptr$[ebp]
	push	eax
	call	??3@YAXPAX@Z				; operator delete
	add	esp, 4

; 574  : 		}

	pop	edi
	pop	esi
	pop	ebx
	add	esp, 204				; 000000ccH
	cmp	ebp, esp
	call	__RTC_CheckEsp
	mov	esp, ebp
	pop	ebp
	ret	8
?deallocate@?$allocator@D@std@@QAEXPADI@Z ENDP		; std::allocator<char>::deallocate
_TEXT	ENDS
; Function compile flags: /Odtp /RTCsu /ZI
; File c:\program files (x86)\microsoft visual studio 12.0\vc\include\xmemory0
;	COMDAT ??0?$allocator@D@std@@QAE@XZ
_TEXT	SEGMENT
_this$ = -8						; size = 4
??0?$allocator@D@std@@QAE@XZ PROC			; std::allocator<char>::allocator<char>, COMDAT
; _this$ = ecx

; 552  : 	allocator() _THROW0()

	push	ebp
	mov	ebp, esp
	sub	esp, 204				; 000000ccH
	push	ebx
	push	esi
	push	edi
	push	ecx
	lea	edi, DWORD PTR [ebp-204]
	mov	ecx, 51					; 00000033H
	mov	eax, -858993460				; ccccccccH
	rep stosd
	pop	ecx
	mov	DWORD PTR _this$[ebp], ecx

; 553  : 		{	// construct default allocator (do nothing)
; 554  : 		}

	mov	eax, DWORD PTR _this$[ebp]
	pop	edi
	pop	esi
	pop	ebx
	mov	esp, ebp
	pop	ebp
	ret	0
??0?$allocator@D@std@@QAE@XZ ENDP			; std::allocator<char>::allocator<char>
_TEXT	ENDS
; Function compile flags: /Odtp /RTCsu /ZI
; File c:\program files (x86)\microsoft visual studio 12.0\vc\include\xutility
;	COMDAT ??__Eallocator_arg@std@@YAXXZ
text$di	SEGMENT
$T1 = -197						; size = 1
??__Eallocator_arg@std@@YAXXZ PROC			; std::`dynamic initializer for 'allocator_arg'', COMDAT

; 3451 : const allocator_arg_t allocator_arg = allocator_arg_t();

	push	ebp
	mov	ebp, esp
	sub	esp, 204				; 000000ccH
	push	ebx
	push	esi
	push	edi
	lea	edi, DWORD PTR [ebp-204]
	mov	ecx, 51					; 00000033H
	mov	eax, -858993460				; ccccccccH
	rep stosd
	xor	eax, eax
	mov	BYTE PTR $T1[ebp], al
	pop	edi
	pop	esi
	pop	ebx
	mov	esp, ebp
	pop	ebp
	ret	0
??__Eallocator_arg@std@@YAXXZ ENDP			; std::`dynamic initializer for 'allocator_arg''
text$di	ENDS
; Function compile flags: /Odtp /RTCsu /ZI
; File c:\program files (x86)\microsoft visual studio 12.0\vc\include\xutility
;	COMDAT ?_Orphan_all@_Container_base12@std@@QAEXXZ
_TEXT	SEGMENT
__Pnext$1 = -32						; size = 4
__Lock$2 = -20						; size = 4
_this$ = -8						; size = 4
?_Orphan_all@_Container_base12@std@@QAEXXZ PROC		; std::_Container_base12::_Orphan_all, COMDAT
; _this$ = ecx

; 214  : 	{	// orphan all iterators

	push	ebp
	mov	ebp, esp
	sub	esp, 228				; 000000e4H
	push	ebx
	push	esi
	push	edi
	push	ecx
	lea	edi, DWORD PTR [ebp-228]
	mov	ecx, 57					; 00000039H
	mov	eax, -858993460				; ccccccccH
	rep stosd
	pop	ecx
	mov	DWORD PTR _this$[ebp], ecx

; 215  :  #if _ITERATOR_DEBUG_LEVEL == 2
; 216  : 	if (_Myproxy != 0)

	mov	eax, DWORD PTR _this$[ebp]
	cmp	DWORD PTR [eax], 0
	je	SHORT $LN5@Orphan_all

; 217  : 		{	// proxy allocated, drain it
; 218  : 		_Lockit _Lock(_LOCK_DEBUG);

	push	3
	lea	ecx, DWORD PTR __Lock$2[ebp]
	call	??0_Lockit@std@@QAE@H@Z			; std::_Lockit::_Lockit

; 219  : 
; 220  : 		for (_Iterator_base12 **_Pnext = &_Myproxy->_Myfirstiter;

	mov	eax, DWORD PTR _this$[ebp]
	mov	ecx, DWORD PTR [eax]
	add	ecx, 4
	mov	DWORD PTR __Pnext$1[ebp], ecx

; 221  : 			*_Pnext != 0; *_Pnext = (*_Pnext)->_Mynextiter)

	jmp	SHORT $LN3@Orphan_all
$LN2@Orphan_all:
	mov	eax, DWORD PTR __Pnext$1[ebp]
	mov	ecx, DWORD PTR [eax]
	mov	edx, DWORD PTR __Pnext$1[ebp]
	mov	eax, DWORD PTR [ecx+4]
	mov	DWORD PTR [edx], eax
$LN3@Orphan_all:
	mov	eax, DWORD PTR __Pnext$1[ebp]
	cmp	DWORD PTR [eax], 0
	je	SHORT $LN1@Orphan_all

; 222  : 			(*_Pnext)->_Myproxy = 0;

	mov	eax, DWORD PTR __Pnext$1[ebp]
	mov	ecx, DWORD PTR [eax]
	mov	DWORD PTR [ecx], 0
	jmp	SHORT $LN2@Orphan_all
$LN1@Orphan_all:

; 223  : 		_Myproxy->_Myfirstiter = 0;

	mov	eax, DWORD PTR _this$[ebp]
	mov	ecx, DWORD PTR [eax]
	mov	DWORD PTR [ecx+4], 0

; 224  : 		}

	lea	ecx, DWORD PTR __Lock$2[ebp]
	call	??1_Lockit@std@@QAE@XZ			; std::_Lockit::~_Lockit
$LN5@Orphan_all:

; 225  :  #endif /* _ITERATOR_DEBUG_LEVEL == 2 */
; 226  : 	}

	push	edx
	mov	ecx, ebp
	push	eax
	lea	edx, DWORD PTR $LN10@Orphan_all
	call	@_RTC_CheckStackVars@8
	pop	eax
	pop	edx
	pop	edi
	pop	esi
	pop	ebx
	add	esp, 228				; 000000e4H
	cmp	ebp, esp
	call	__RTC_CheckEsp
	mov	esp, ebp
	pop	ebp
	ret	0
	npad	3
$LN10@Orphan_all:
	DD	1
	DD	$LN9@Orphan_all
$LN9@Orphan_all:
	DD	-20					; ffffffecH
	DD	4
	DD	$LN8@Orphan_all
$LN8@Orphan_all:
	DB	95					; 0000005fH
	DB	76					; 0000004cH
	DB	111					; 0000006fH
	DB	99					; 00000063H
	DB	107					; 0000006bH
	DB	0
?_Orphan_all@_Container_base12@std@@QAEXXZ ENDP		; std::_Container_base12::_Orphan_all
_TEXT	ENDS
; Function compile flags: /Odtp /RTCsu /ZI
; File c:\program files (x86)\microsoft visual studio 12.0\vc\include\xutility
;	COMDAT ??1_Container_base12@std@@QAE@XZ
_TEXT	SEGMENT
_this$ = -8						; size = 4
??1_Container_base12@std@@QAE@XZ PROC			; std::_Container_base12::~_Container_base12, COMDAT
; _this$ = ecx

; 94   : 		{	// destroy the container

	push	ebp
	mov	ebp, esp
	sub	esp, 204				; 000000ccH
	push	ebx
	push	esi
	push	edi
	push	ecx
	lea	edi, DWORD PTR [ebp-204]
	mov	ecx, 51					; 00000033H
	mov	eax, -858993460				; ccccccccH
	rep stosd
	pop	ecx
	mov	DWORD PTR _this$[ebp], ecx

; 95   : 		_Orphan_all();

	mov	ecx, DWORD PTR _this$[ebp]
	call	?_Orphan_all@_Container_base12@std@@QAEXXZ ; std::_Container_base12::_Orphan_all

; 96   : 		}

	pop	edi
	pop	esi
	pop	ebx
	add	esp, 204				; 000000ccH
	cmp	ebp, esp
	call	__RTC_CheckEsp
	mov	esp, ebp
	pop	ebp
	ret	0
??1_Container_base12@std@@QAE@XZ ENDP			; std::_Container_base12::~_Container_base12
_TEXT	ENDS
; Function compile flags: /Odtp /RTCsu /ZI
; File c:\program files (x86)\microsoft visual studio 12.0\vc\include\xutility
;	COMDAT ??0_Container_base12@std@@QAE@XZ
_TEXT	SEGMENT
_this$ = -8						; size = 4
??0_Container_base12@std@@QAE@XZ PROC			; std::_Container_base12::_Container_base12, COMDAT
; _this$ = ecx

; 80   : 		{	// construct childless container

	push	ebp
	mov	ebp, esp
	sub	esp, 204				; 000000ccH
	push	ebx
	push	esi
	push	edi
	push	ecx
	lea	edi, DWORD PTR [ebp-204]
	mov	ecx, 51					; 00000033H
	mov	eax, -858993460				; ccccccccH
	rep stosd
	pop	ecx
	mov	DWORD PTR _this$[ebp], ecx
	mov	eax, DWORD PTR _this$[ebp]
	mov	DWORD PTR [eax], 0

; 81   : 		}

	mov	eax, DWORD PTR _this$[ebp]
	pop	edi
	pop	esi
	pop	ebx
	mov	esp, ebp
	pop	ebp
	ret	0
??0_Container_base12@std@@QAE@XZ ENDP			; std::_Container_base12::_Container_base12
_TEXT	ENDS
; Function compile flags: /Odtp /RTCsu /ZI
; File c:\program files (x86)\microsoft visual studio 12.0\vc\include\xutility
;	COMDAT ??0_Container_proxy@std@@QAE@XZ
_TEXT	SEGMENT
_this$ = -8						; size = 4
??0_Container_proxy@std@@QAE@XZ PROC			; std::_Container_proxy::_Container_proxy, COMDAT
; _this$ = ecx

; 68   : 		{	// construct from pointers

	push	ebp
	mov	ebp, esp
	sub	esp, 204				; 000000ccH
	push	ebx
	push	esi
	push	edi
	push	ecx
	lea	edi, DWORD PTR [ebp-204]
	mov	ecx, 51					; 00000033H
	mov	eax, -858993460				; ccccccccH
	rep stosd
	pop	ecx
	mov	DWORD PTR _this$[ebp], ecx
	mov	eax, DWORD PTR _this$[ebp]
	mov	DWORD PTR [eax], 0
	mov	eax, DWORD PTR _this$[ebp]
	mov	DWORD PTR [eax+4], 0

; 69   : 		}

	mov	eax, DWORD PTR _this$[ebp]
	pop	edi
	pop	esi
	pop	ebx
	mov	esp, ebp
	pop	ebp
	ret	0
??0_Container_proxy@std@@QAE@XZ ENDP			; std::_Container_proxy::_Container_proxy
_TEXT	ENDS
; Function compile flags: /Odtp /RTCsu /ZI
; File c:\program files (x86)\microsoft visual studio 12.0\vc\include\utility
;	COMDAT ??__Epiecewise_construct@std@@YAXXZ
text$di	SEGMENT
$T1 = -197						; size = 1
??__Epiecewise_construct@std@@YAXXZ PROC		; std::`dynamic initializer for 'piecewise_construct'', COMDAT

; 70   : 	piecewise_construct_t();

	push	ebp
	mov	ebp, esp
	sub	esp, 204				; 000000ccH
	push	ebx
	push	esi
	push	edi
	lea	edi, DWORD PTR [ebp-204]
	mov	ecx, 51					; 00000033H
	mov	eax, -858993460				; ccccccccH
	rep stosd
	xor	eax, eax
	mov	BYTE PTR $T1[ebp], al
	pop	edi
	pop	esi
	pop	ebx
	mov	esp, ebp
	pop	ebp
	ret	0
??__Epiecewise_construct@std@@YAXXZ ENDP		; std::`dynamic initializer for 'piecewise_construct''
text$di	ENDS
; Function compile flags: /Odtp /RTCsu /ZI
; File c:\program files (x86)\microsoft visual studio 12.0\vc\include\iosfwd
;	COMDAT ?assign@?$char_traits@D@std@@SAXAADABD@Z
_TEXT	SEGMENT
__Left$ = 8						; size = 4
__Right$ = 12						; size = 4
?assign@?$char_traits@D@std@@SAXAADABD@Z PROC		; std::char_traits<char>::assign, COMDAT

; 563  : 		{	// assign an element

	push	ebp
	mov	ebp, esp
	sub	esp, 192				; 000000c0H
	push	ebx
	push	esi
	push	edi
	lea	edi, DWORD PTR [ebp-192]
	mov	ecx, 48					; 00000030H
	mov	eax, -858993460				; ccccccccH
	rep stosd

; 564  : 		_Left = _Right;

	mov	eax, DWORD PTR __Left$[ebp]
	mov	ecx, DWORD PTR __Right$[ebp]
	mov	dl, BYTE PTR [ecx]
	mov	BYTE PTR [eax], dl

; 565  : 		}

	pop	edi
	pop	esi
	pop	ebx
	mov	esp, ebp
	pop	ebp
	ret	0
?assign@?$char_traits@D@std@@SAXAADABD@Z ENDP		; std::char_traits<char>::assign
_TEXT	ENDS
; Function compile flags: /Odtp /RTCsu /ZI
; File c:\program files (x86)\microsoft visual studio 12.0\vc\include\iosfwd
;	COMDAT ?move@?$char_traits@D@std@@SAPADPADPBDI@Z
_TEXT	SEGMENT
tv69 = -196						; size = 4
__First1$ = 8						; size = 4
__First2$ = 12						; size = 4
__Count$ = 16						; size = 4
?move@?$char_traits@D@std@@SAPADPADPBDI@Z PROC		; std::char_traits<char>::move, COMDAT

; 551  : 		{	// copy [_First2, _First2 + _Count) to [_First1, ...)

	push	ebp
	mov	ebp, esp
	sub	esp, 196				; 000000c4H
	push	ebx
	push	esi
	push	edi
	lea	edi, DWORD PTR [ebp-196]
	mov	ecx, 49					; 00000031H
	mov	eax, -858993460				; ccccccccH
	rep stosd

; 552  : 		return (_Count == 0 ? _First1
; 553  : 			: (_Elem *)_CSTD memmove(_First1, _First2, _Count));

	cmp	DWORD PTR __Count$[ebp], 0
	jne	SHORT $LN3@move
	mov	eax, DWORD PTR __First1$[ebp]
	mov	DWORD PTR tv69[ebp], eax
	jmp	SHORT $LN4@move
$LN3@move:
	mov	ecx, DWORD PTR __Count$[ebp]
	push	ecx
	mov	edx, DWORD PTR __First2$[ebp]
	push	edx
	mov	eax, DWORD PTR __First1$[ebp]
	push	eax
	call	_memmove
	add	esp, 12					; 0000000cH
	mov	DWORD PTR tv69[ebp], eax
$LN4@move:
	mov	eax, DWORD PTR tv69[ebp]

; 554  : 		}

	pop	edi
	pop	esi
	pop	ebx
	add	esp, 196				; 000000c4H
	cmp	ebp, esp
	call	__RTC_CheckEsp
	mov	esp, ebp
	pop	ebp
	ret	0
?move@?$char_traits@D@std@@SAPADPADPBDI@Z ENDP		; std::char_traits<char>::move
_TEXT	ENDS
; Function compile flags: /Odtp /RTCsu /ZI
; File c:\program files (x86)\microsoft visual studio 12.0\vc\include\iosfwd
;	COMDAT ?copy@?$char_traits@D@std@@SAPADPADPBDI@Z
_TEXT	SEGMENT
tv69 = -196						; size = 4
__First1$ = 8						; size = 4
__First2$ = 12						; size = 4
__Count$ = 16						; size = 4
?copy@?$char_traits@D@std@@SAPADPADPBDI@Z PROC		; std::char_traits<char>::copy, COMDAT

; 528  : 		{	// copy [_First2, _First2 + _Count) to [_First1, ...)

	push	ebp
	mov	ebp, esp
	sub	esp, 196				; 000000c4H
	push	ebx
	push	esi
	push	edi
	lea	edi, DWORD PTR [ebp-196]
	mov	ecx, 49					; 00000031H
	mov	eax, -858993460				; ccccccccH
	rep stosd

; 529  : 		return (_Count == 0 ? _First1
; 530  : 			: (_Elem *)_CSTD memcpy(_First1, _First2, _Count));

	cmp	DWORD PTR __Count$[ebp], 0
	jne	SHORT $LN3@copy
	mov	eax, DWORD PTR __First1$[ebp]
	mov	DWORD PTR tv69[ebp], eax
	jmp	SHORT $LN4@copy
$LN3@copy:
	mov	ecx, DWORD PTR __Count$[ebp]
	push	ecx
	mov	edx, DWORD PTR __First2$[ebp]
	push	edx
	mov	eax, DWORD PTR __First1$[ebp]
	push	eax
	call	_memcpy
	add	esp, 12					; 0000000cH
	mov	DWORD PTR tv69[ebp], eax
$LN4@copy:
	mov	eax, DWORD PTR tv69[ebp]

; 531  : 		}

	pop	edi
	pop	esi
	pop	ebx
	add	esp, 196				; 000000c4H
	cmp	ebp, esp
	call	__RTC_CheckEsp
	mov	esp, ebp
	pop	ebp
	ret	0
?copy@?$char_traits@D@std@@SAPADPADPBDI@Z ENDP		; std::char_traits<char>::copy
_TEXT	ENDS
; Function compile flags: /Odtp /RTCsu /ZI
; File c:\program files (x86)\microsoft visual studio 12.0\vc\include\iosfwd
;	COMDAT ?length@?$char_traits@D@std@@SAIPBD@Z
_TEXT	SEGMENT
tv68 = -196						; size = 4
__First$ = 8						; size = 4
?length@?$char_traits@D@std@@SAIPBD@Z PROC		; std::char_traits<char>::length, COMDAT

; 521  : 		{	// find length of null-terminated string

	push	ebp
	mov	ebp, esp
	sub	esp, 196				; 000000c4H
	push	ebx
	push	esi
	push	edi
	lea	edi, DWORD PTR [ebp-196]
	mov	ecx, 49					; 00000031H
	mov	eax, -858993460				; ccccccccH
	rep stosd

; 522  : 		return (*_First == 0 ? 0
; 523  : 			: _CSTD strlen(_First));

	mov	eax, DWORD PTR __First$[ebp]
	movsx	ecx, BYTE PTR [eax]
	test	ecx, ecx
	jne	SHORT $LN3@length
	mov	DWORD PTR tv68[ebp], 0
	jmp	SHORT $LN4@length
$LN3@length:
	mov	edx, DWORD PTR __First$[ebp]
	push	edx
	call	_strlen
	add	esp, 4
	mov	DWORD PTR tv68[ebp], eax
$LN4@length:
	mov	eax, DWORD PTR tv68[ebp]

; 524  : 		}

	pop	edi
	pop	esi
	pop	ebx
	add	esp, 196				; 000000c4H
	cmp	ebp, esp
	call	__RTC_CheckEsp
	mov	esp, ebp
	pop	ebp
	ret	0
?length@?$char_traits@D@std@@SAIPBD@Z ENDP		; std::char_traits<char>::length
_TEXT	ENDS
; Function compile flags: /Odtp /RTCsu /ZI
; File c:\program files (x86)\microsoft visual studio 12.0\vc\include\new
;	COMDAT ??3@YAXPAX0@Z
_TEXT	SEGMENT
___formal$ = 8						; size = 4
___formal$ = 12						; size = 4
??3@YAXPAX0@Z PROC					; operator delete, COMDAT

; 64   : 	{	// delete if placement new fails

	push	ebp
	mov	ebp, esp
	sub	esp, 192				; 000000c0H
	push	ebx
	push	esi
	push	edi
	lea	edi, DWORD PTR [ebp-192]
	mov	ecx, 48					; 00000030H
	mov	eax, -858993460				; ccccccccH
	rep stosd

; 65   : 	}

	pop	edi
	pop	esi
	pop	ebx
	mov	esp, ebp
	pop	ebp
	ret	0
??3@YAXPAX0@Z ENDP					; operator delete
_TEXT	ENDS
; Function compile flags: /Odtp /RTCsu /ZI
; File c:\program files (x86)\microsoft visual studio 12.0\vc\include\new
;	COMDAT ??2@YAPAXIPAX@Z
_TEXT	SEGMENT
___formal$ = 8						; size = 4
__Where$ = 12						; size = 4
??2@YAPAXIPAX@Z PROC					; operator new, COMDAT

; 59   : 	{	// construct array with placement at _Where

	push	ebp
	mov	ebp, esp
	sub	esp, 192				; 000000c0H
	push	ebx
	push	esi
	push	edi
	lea	edi, DWORD PTR [ebp-192]
	mov	ecx, 48					; 00000030H
	mov	eax, -858993460				; ccccccccH
	rep stosd

; 60   : 	return (_Where);

	mov	eax, DWORD PTR __Where$[ebp]

; 61   : 	}

	pop	edi
	pop	esi
	pop	ebx
	mov	esp, ebp
	pop	ebp
	ret	0
??2@YAPAXIPAX@Z ENDP					; operator new
_TEXT	ENDS
; Function compile flags: /Odtp /RTCsu /ZI
; File c:\program files (x86)\microsoft visual studio 12.0\vc\include\math.h
;	COMDAT _fmodf
_TEXT	SEGMENT
tv74 = -196						; size = 4
__X$ = 8						; size = 4
__Y$ = 12						; size = 4
_fmodf	PROC						; COMDAT

; 705  : {

	push	ebp
	mov	ebp, esp
	sub	esp, 196				; 000000c4H
	push	ebx
	push	esi
	push	edi
	lea	edi, DWORD PTR [ebp-196]
	mov	ecx, 49					; 00000031H
	mov	eax, -858993460				; ccccccccH
	rep stosd

; 706  :     return (float)fmod(_X, _Y);

	cvtss2sd xmm0, DWORD PTR __Y$[ebp]
	sub	esp, 8
	movsd	QWORD PTR [esp], xmm0
	cvtss2sd xmm0, DWORD PTR __X$[ebp]
	sub	esp, 8
	movsd	QWORD PTR [esp], xmm0
	call	_fmod
	add	esp, 16					; 00000010H
	fstp	DWORD PTR tv74[ebp]
	fld	DWORD PTR tv74[ebp]

; 707  : }

	pop	edi
	pop	esi
	pop	ebx
	add	esp, 196				; 000000c4H
	cmp	ebp, esp
	call	__RTC_CheckEsp
	mov	esp, ebp
	pop	ebp
	ret	0
_fmodf	ENDP
_TEXT	ENDS
; Function compile flags: /Odtp /RTCsu /ZI
; File c:\program files (x86)\microsoft visual studio 12.0\vc\include\math.h
;	COMDAT _hypot
_TEXT	SEGMENT
__X$ = 8						; size = 8
__Y$ = 16						; size = 8
_hypot	PROC						; COMDAT

; 556  : {

	push	ebp
	mov	ebp, esp
	sub	esp, 192				; 000000c0H
	push	ebx
	push	esi
	push	edi
	lea	edi, DWORD PTR [ebp-192]
	mov	ecx, 48					; 00000030H
	mov	eax, -858993460				; ccccccccH
	rep stosd

; 557  :     return _hypot(_X, _Y);

	sub	esp, 8
	movsd	xmm0, QWORD PTR __Y$[ebp]
	movsd	QWORD PTR [esp], xmm0
	sub	esp, 8
	movsd	xmm0, QWORD PTR __X$[ebp]
	movsd	QWORD PTR [esp], xmm0
	call	__hypot
	add	esp, 16					; 00000010H

; 558  : }

	pop	edi
	pop	esi
	pop	ebx
	add	esp, 192				; 000000c0H
	cmp	ebp, esp
	call	__RTC_CheckEsp
	mov	esp, ebp
	pop	ebp
	ret	0
_hypot	ENDP
_TEXT	ENDS
END
