; Listing generated by Microsoft (R) Optimizing Compiler Version 17.00.61030.0 

	TITLE	C:\Users\Simon\Documents\GitHub\UCLAN-sparta\Dissertation Project\TinyXML\tinyxml2.cpp
	.686P
	.XMM
	include listing.inc
	.model	flat

INCLUDELIB MSVCRTD
INCLUDELIB OLDNAMES

PUBLIC	?value@?$_Sizeof@U_Nil@std@@U12@U12@U12@U12@U12@U12@U12@@std@@2IB ; std::_Sizeof<std::_Nil,std::_Nil,std::_Nil,std::_Nil,std::_Nil,std::_Nil,std::_Nil,std::_Nil>::value
PUBLIC	?value@?$integral_constant@_N$0A@@std@@2_NB	; std::integral_constant<bool,0>::value
PUBLIC	?value@?$integral_constant@_N$00@std@@2_NB	; std::integral_constant<bool,1>::value
PUBLIC	??_C@_0M@OFJBHGBM@XML_SUCCESS?$AA@		; `string'
PUBLIC	??_C@_0BB@IGIENDAL@XML_NO_ATTRIBUTE?$AA@	; `string'
PUBLIC	??_C@_0BJ@NLEFELMO@XML_WRONG_ATTRIBUTE_TYPE?$AA@ ; `string'
PUBLIC	??_C@_0BJ@FAMPBCLJ@XML_ERROR_FILE_NOT_FOUND?$AA@ ; `string'
PUBLIC	??_C@_0CD@IINDOEGO@XML_ERROR_FILE_COULD_NOT_BE_OPEN@ ; `string'
PUBLIC	??_C@_0BK@LJEPDGMH@XML_ERROR_FILE_READ_ERROR?$AA@ ; `string'
PUBLIC	??_C@_0BL@NNOBPLPE@XML_ERROR_ELEMENT_MISMATCH?$AA@ ; `string'
PUBLIC	??_C@_0BK@LPPPMOBG@XML_ERROR_PARSING_ELEMENT?$AA@ ; `string'
PUBLIC	??_C@_0BM@LDAFAPCN@XML_ERROR_PARSING_ATTRIBUTE?$AA@ ; `string'
PUBLIC	??_C@_0BK@HFOKKMCK@XML_ERROR_IDENTIFYING_TAG?$AA@ ; `string'
PUBLIC	??_C@_0BH@GPBIBIKN@XML_ERROR_PARSING_TEXT?$AA@	; `string'
PUBLIC	??_C@_0BI@EPMILKIP@XML_ERROR_PARSING_CDATA?$AA@	; `string'
PUBLIC	??_C@_0BK@KECLFPGB@XML_ERROR_PARSING_COMMENT?$AA@ ; `string'
PUBLIC	??_C@_0BO@JFKIELCK@XML_ERROR_PARSING_DECLARATION?$AA@ ; `string'
PUBLIC	??_C@_0BK@OFBGHHPE@XML_ERROR_PARSING_UNKNOWN?$AA@ ; `string'
PUBLIC	??_C@_0BJ@CHGEEKHN@XML_ERROR_EMPTY_DOCUMENT?$AA@ ; `string'
PUBLIC	??_C@_0BN@LCLEMLDC@XML_ERROR_MISMATCHED_ELEMENT?$AA@ ; `string'
PUBLIC	??_C@_0BC@IEJHGDCA@XML_ERROR_PARSING?$AA@	; `string'
PUBLIC	??_C@_0BJ@NENGEPDP@XML_CAN_NOT_CONVERT_TEXT?$AA@ ; `string'
PUBLIC	??_C@_0BB@PLDKPHOM@XML_NO_TEXT_NODE?$AA@	; `string'
PUBLIC	??_C@_04KJFGKBNM@quot?$AA@			; `string'
PUBLIC	??_C@_03DCBBJBAA@amp?$AA@			; `string'
PUBLIC	??_C@_04LBCJFAKL@apos?$AA@			; `string'
PUBLIC	??_C@_02KCAKIFL@lt?$AA@				; `string'
PUBLIC	??_C@_02GHFEHLK@gt?$AA@				; `string'
PUBLIC	?_errorNames@XMLDocument@tinyxml2@@0PAPBDA	; tinyxml2::XMLDocument::_errorNames
PUBLIC	??_C@_02HFBBBACF@?$DM?$DP?$AA@			; `string'
PUBLIC	??_C@_04FFDNBKGC@?$DM?$CB?9?9?$AA@		; `string'
PUBLIC	??_C@_02KBFACPPK@?$DM?$CB?$AA@			; `string'
PUBLIC	??_C@_09BLLNCBLF@?$DM?$CB?$FLCDATA?$FL?$AA@	; `string'
PUBLIC	??_C@_01MNNFJEPP@?$DM?$AA@			; `string'
;	COMDAT ??_C@_01MNNFJEPP@?$DM?$AA@
CONST	SEGMENT
??_C@_01MNNFJEPP@?$DM?$AA@ DB '<', 00H			; `string'
CONST	ENDS
;	COMDAT ??_C@_09BLLNCBLF@?$DM?$CB?$FLCDATA?$FL?$AA@
CONST	SEGMENT
??_C@_09BLLNCBLF@?$DM?$CB?$FLCDATA?$FL?$AA@ DB '<![CDATA[', 00H ; `string'
CONST	ENDS
;	COMDAT ??_C@_02KBFACPPK@?$DM?$CB?$AA@
CONST	SEGMENT
??_C@_02KBFACPPK@?$DM?$CB?$AA@ DB '<!', 00H		; `string'
CONST	ENDS
;	COMDAT ??_C@_04FFDNBKGC@?$DM?$CB?9?9?$AA@
CONST	SEGMENT
??_C@_04FFDNBKGC@?$DM?$CB?9?9?$AA@ DB '<!--', 00H	; `string'
CONST	ENDS
;	COMDAT ??_C@_02HFBBBACF@?$DM?$DP?$AA@
CONST	SEGMENT
??_C@_02HFBBBACF@?$DM?$DP?$AA@ DB '<?', 00H		; `string'
CONST	ENDS
_DATA	SEGMENT
?_errorNames@XMLDocument@tinyxml2@@0PAPBDA DD FLAT:??_C@_0M@OFJBHGBM@XML_SUCCESS?$AA@ ; tinyxml2::XMLDocument::_errorNames
	DD	FLAT:??_C@_0BB@IGIENDAL@XML_NO_ATTRIBUTE?$AA@
	DD	FLAT:??_C@_0BJ@NLEFELMO@XML_WRONG_ATTRIBUTE_TYPE?$AA@
	DD	FLAT:??_C@_0BJ@FAMPBCLJ@XML_ERROR_FILE_NOT_FOUND?$AA@
	DD	FLAT:??_C@_0CD@IINDOEGO@XML_ERROR_FILE_COULD_NOT_BE_OPEN@
	DD	FLAT:??_C@_0BK@LJEPDGMH@XML_ERROR_FILE_READ_ERROR?$AA@
	DD	FLAT:??_C@_0BL@NNOBPLPE@XML_ERROR_ELEMENT_MISMATCH?$AA@
	DD	FLAT:??_C@_0BK@LPPPMOBG@XML_ERROR_PARSING_ELEMENT?$AA@
	DD	FLAT:??_C@_0BM@LDAFAPCN@XML_ERROR_PARSING_ATTRIBUTE?$AA@
	DD	FLAT:??_C@_0BK@HFOKKMCK@XML_ERROR_IDENTIFYING_TAG?$AA@
	DD	FLAT:??_C@_0BH@GPBIBIKN@XML_ERROR_PARSING_TEXT?$AA@
	DD	FLAT:??_C@_0BI@EPMILKIP@XML_ERROR_PARSING_CDATA?$AA@
	DD	FLAT:??_C@_0BK@KECLFPGB@XML_ERROR_PARSING_COMMENT?$AA@
	DD	FLAT:??_C@_0BO@JFKIELCK@XML_ERROR_PARSING_DECLARATION?$AA@
	DD	FLAT:??_C@_0BK@OFBGHHPE@XML_ERROR_PARSING_UNKNOWN?$AA@
	DD	FLAT:??_C@_0BJ@CHGEEKHN@XML_ERROR_EMPTY_DOCUMENT?$AA@
	DD	FLAT:??_C@_0BN@LCLEMLDC@XML_ERROR_MISMATCHED_ELEMENT?$AA@
	DD	FLAT:??_C@_0BC@IEJHGDCA@XML_ERROR_PARSING?$AA@
	DD	FLAT:??_C@_0BJ@NENGEPDP@XML_CAN_NOT_CONVERT_TEXT?$AA@
	DD	FLAT:??_C@_0BB@PLDKPHOM@XML_NO_TEXT_NODE?$AA@
?xmlHeader@?4??Identify@XMLDocument@tinyxml2@@QAEPADPADPAPAVXMLNode@3@@Z@4PBDB DD FLAT:??_C@_02HFBBBACF@?$DM?$DP?$AA@ ; `tinyxml2::XMLDocument::Identify'::`5'::xmlHeader
?commentHeader@?4??Identify@XMLDocument@tinyxml2@@QAEPADPADPAPAVXMLNode@3@@Z@4PBDB DD FLAT:??_C@_04FFDNBKGC@?$DM?$CB?9?9?$AA@ ; `tinyxml2::XMLDocument::Identify'::`5'::commentHeader
?dtdHeader@?4??Identify@XMLDocument@tinyxml2@@QAEPADPADPAPAVXMLNode@3@@Z@4PBDB DD FLAT:??_C@_02KBFACPPK@?$DM?$CB?$AA@ ; `tinyxml2::XMLDocument::Identify'::`5'::dtdHeader
?cdataHeader@?4??Identify@XMLDocument@tinyxml2@@QAEPADPADPAPAVXMLNode@3@@Z@4PBDB DD FLAT:??_C@_09BLLNCBLF@?$DM?$CB?$FLCDATA?$FL?$AA@ ; `tinyxml2::XMLDocument::Identify'::`5'::cdataHeader
?elementHeader@?4??Identify@XMLDocument@tinyxml2@@QAEPADPADPAPAVXMLNode@3@@Z@4PBDB DD FLAT:??_C@_01MNNFJEPP@?$DM?$AA@ ; `tinyxml2::XMLDocument::Identify'::`5'::elementHeader
_DATA	ENDS
;	COMDAT ??_C@_02GHFEHLK@gt?$AA@
CONST	SEGMENT
??_C@_02GHFEHLK@gt?$AA@ DB 'gt', 00H			; `string'
CONST	ENDS
;	COMDAT ??_C@_02KCAKIFL@lt?$AA@
CONST	SEGMENT
??_C@_02KCAKIFL@lt?$AA@ DB 'lt', 00H			; `string'
CONST	ENDS
;	COMDAT ??_C@_04LBCJFAKL@apos?$AA@
CONST	SEGMENT
??_C@_04LBCJFAKL@apos?$AA@ DB 'apos', 00H		; `string'
CONST	ENDS
;	COMDAT ??_C@_03DCBBJBAA@amp?$AA@
CONST	SEGMENT
??_C@_03DCBBJBAA@amp?$AA@ DB 'amp', 00H			; `string'
CONST	ENDS
;	COMDAT ??_C@_04KJFGKBNM@quot?$AA@
CONST	SEGMENT
??_C@_04KJFGKBNM@quot?$AA@ DB 'quot', 00H		; `string'
CONST	ENDS
CONST	SEGMENT
_entities DD	FLAT:??_C@_04KJFGKBNM@quot?$AA@
	DD	04H
	DB	022H
	ORG $+3
	DD	FLAT:??_C@_03DCBBJBAA@amp?$AA@
	DD	03H
	DB	026H
	ORG $+3
	DD	FLAT:??_C@_04LBCJFAKL@apos?$AA@
	DD	04H
	DB	027H
	ORG $+3
	DD	FLAT:??_C@_02KCAKIFL@lt?$AA@
	DD	02H
	DB	03cH
	ORG $+3
	DD	FLAT:??_C@_02GHFEHLK@gt?$AA@
	DD	02H
	DB	03eH
	ORG $+3
?LEN@?4??PrintError@XMLDocument@tinyxml2@@QBEXXZ@4HB DD 014H ; `tinyxml2::XMLDocument::PrintError'::`5'::LEN
?bom@?4??PushHeader@XMLPrinter@tinyxml2@@QAEX_N0@Z@4QBEB DB 0efH ; `tinyxml2::XMLPrinter::PushHeader'::`5'::bom
	DB	0bbH
	DB	0bfH
	DB	00H
?xmlHeaderLen@?4??Identify@XMLDocument@tinyxml2@@QAEPADPADPAPAVXMLNode@3@@Z@4HB DD 02H ; `tinyxml2::XMLDocument::Identify'::`5'::xmlHeaderLen
?commentHeaderLen@?4??Identify@XMLDocument@tinyxml2@@QAEPADPADPAPAVXMLNode@3@@Z@4HB DD 04H ; `tinyxml2::XMLDocument::Identify'::`5'::commentHeaderLen
?dtdHeaderLen@?4??Identify@XMLDocument@tinyxml2@@QAEPADPADPAPAVXMLNode@3@@Z@4HB DD 02H ; `tinyxml2::XMLDocument::Identify'::`5'::dtdHeaderLen
?cdataHeaderLen@?4??Identify@XMLDocument@tinyxml2@@QAEPADPADPAPAVXMLNode@3@@Z@4HB DD 09H ; `tinyxml2::XMLDocument::Identify'::`5'::cdataHeaderLen
?elementHeaderLen@?4??Identify@XMLDocument@tinyxml2@@QAEPADPADPAPAVXMLNode@3@@Z@4HB DD 01H ; `tinyxml2::XMLDocument::Identify'::`5'::elementHeaderLen
CONST	ENDS
;	COMDAT ??_C@_0BB@PLDKPHOM@XML_NO_TEXT_NODE?$AA@
CONST	SEGMENT
??_C@_0BB@PLDKPHOM@XML_NO_TEXT_NODE?$AA@ DB 'XML_NO_TEXT_NODE', 00H ; `string'
CONST	ENDS
;	COMDAT ??_C@_0BJ@NENGEPDP@XML_CAN_NOT_CONVERT_TEXT?$AA@
CONST	SEGMENT
??_C@_0BJ@NENGEPDP@XML_CAN_NOT_CONVERT_TEXT?$AA@ DB 'XML_CAN_NOT_CONVERT_'
	DB	'TEXT', 00H					; `string'
CONST	ENDS
;	COMDAT ??_C@_0BC@IEJHGDCA@XML_ERROR_PARSING?$AA@
CONST	SEGMENT
??_C@_0BC@IEJHGDCA@XML_ERROR_PARSING?$AA@ DB 'XML_ERROR_PARSING', 00H ; `string'
CONST	ENDS
;	COMDAT ??_C@_0BN@LCLEMLDC@XML_ERROR_MISMATCHED_ELEMENT?$AA@
CONST	SEGMENT
??_C@_0BN@LCLEMLDC@XML_ERROR_MISMATCHED_ELEMENT?$AA@ DB 'XML_ERROR_MISMAT'
	DB	'CHED_ELEMENT', 00H				; `string'
CONST	ENDS
;	COMDAT ??_C@_0BJ@CHGEEKHN@XML_ERROR_EMPTY_DOCUMENT?$AA@
CONST	SEGMENT
??_C@_0BJ@CHGEEKHN@XML_ERROR_EMPTY_DOCUMENT?$AA@ DB 'XML_ERROR_EMPTY_DOCU'
	DB	'MENT', 00H					; `string'
CONST	ENDS
;	COMDAT ??_C@_0BK@OFBGHHPE@XML_ERROR_PARSING_UNKNOWN?$AA@
CONST	SEGMENT
??_C@_0BK@OFBGHHPE@XML_ERROR_PARSING_UNKNOWN?$AA@ DB 'XML_ERROR_PARSING_U'
	DB	'NKNOWN', 00H				; `string'
CONST	ENDS
;	COMDAT ??_C@_0BO@JFKIELCK@XML_ERROR_PARSING_DECLARATION?$AA@
CONST	SEGMENT
??_C@_0BO@JFKIELCK@XML_ERROR_PARSING_DECLARATION?$AA@ DB 'XML_ERROR_PARSI'
	DB	'NG_DECLARATION', 00H			; `string'
CONST	ENDS
;	COMDAT ??_C@_0BK@KECLFPGB@XML_ERROR_PARSING_COMMENT?$AA@
CONST	SEGMENT
??_C@_0BK@KECLFPGB@XML_ERROR_PARSING_COMMENT?$AA@ DB 'XML_ERROR_PARSING_C'
	DB	'OMMENT', 00H				; `string'
CONST	ENDS
;	COMDAT ??_C@_0BI@EPMILKIP@XML_ERROR_PARSING_CDATA?$AA@
CONST	SEGMENT
??_C@_0BI@EPMILKIP@XML_ERROR_PARSING_CDATA?$AA@ DB 'XML_ERROR_PARSING_CDA'
	DB	'TA', 00H					; `string'
CONST	ENDS
;	COMDAT ??_C@_0BH@GPBIBIKN@XML_ERROR_PARSING_TEXT?$AA@
CONST	SEGMENT
??_C@_0BH@GPBIBIKN@XML_ERROR_PARSING_TEXT?$AA@ DB 'XML_ERROR_PARSING_TEXT'
	DB	00H						; `string'
CONST	ENDS
;	COMDAT ??_C@_0BK@HFOKKMCK@XML_ERROR_IDENTIFYING_TAG?$AA@
CONST	SEGMENT
??_C@_0BK@HFOKKMCK@XML_ERROR_IDENTIFYING_TAG?$AA@ DB 'XML_ERROR_IDENTIFYI'
	DB	'NG_TAG', 00H				; `string'
CONST	ENDS
;	COMDAT ??_C@_0BM@LDAFAPCN@XML_ERROR_PARSING_ATTRIBUTE?$AA@
CONST	SEGMENT
??_C@_0BM@LDAFAPCN@XML_ERROR_PARSING_ATTRIBUTE?$AA@ DB 'XML_ERROR_PARSING'
	DB	'_ATTRIBUTE', 00H				; `string'
CONST	ENDS
;	COMDAT ??_C@_0BK@LPPPMOBG@XML_ERROR_PARSING_ELEMENT?$AA@
CONST	SEGMENT
??_C@_0BK@LPPPMOBG@XML_ERROR_PARSING_ELEMENT?$AA@ DB 'XML_ERROR_PARSING_E'
	DB	'LEMENT', 00H				; `string'
CONST	ENDS
;	COMDAT ??_C@_0BL@NNOBPLPE@XML_ERROR_ELEMENT_MISMATCH?$AA@
CONST	SEGMENT
??_C@_0BL@NNOBPLPE@XML_ERROR_ELEMENT_MISMATCH?$AA@ DB 'XML_ERROR_ELEMENT_'
	DB	'MISMATCH', 00H				; `string'
CONST	ENDS
;	COMDAT ??_C@_0BK@LJEPDGMH@XML_ERROR_FILE_READ_ERROR?$AA@
CONST	SEGMENT
??_C@_0BK@LJEPDGMH@XML_ERROR_FILE_READ_ERROR?$AA@ DB 'XML_ERROR_FILE_READ'
	DB	'_ERROR', 00H				; `string'
CONST	ENDS
;	COMDAT ??_C@_0CD@IINDOEGO@XML_ERROR_FILE_COULD_NOT_BE_OPEN@
CONST	SEGMENT
??_C@_0CD@IINDOEGO@XML_ERROR_FILE_COULD_NOT_BE_OPEN@ DB 'XML_ERROR_FILE_C'
	DB	'OULD_NOT_BE_OPENED', 00H			; `string'
CONST	ENDS
;	COMDAT ??_C@_0BJ@FAMPBCLJ@XML_ERROR_FILE_NOT_FOUND?$AA@
CONST	SEGMENT
??_C@_0BJ@FAMPBCLJ@XML_ERROR_FILE_NOT_FOUND?$AA@ DB 'XML_ERROR_FILE_NOT_F'
	DB	'OUND', 00H					; `string'
CONST	ENDS
;	COMDAT ??_C@_0BJ@NLEFELMO@XML_WRONG_ATTRIBUTE_TYPE?$AA@
CONST	SEGMENT
??_C@_0BJ@NLEFELMO@XML_WRONG_ATTRIBUTE_TYPE?$AA@ DB 'XML_WRONG_ATTRIBUTE_'
	DB	'TYPE', 00H					; `string'
CONST	ENDS
;	COMDAT ??_C@_0BB@IGIENDAL@XML_NO_ATTRIBUTE?$AA@
CONST	SEGMENT
??_C@_0BB@IGIENDAL@XML_NO_ATTRIBUTE?$AA@ DB 'XML_NO_ATTRIBUTE', 00H ; `string'
CONST	ENDS
;	COMDAT ??_C@_0M@OFJBHGBM@XML_SUCCESS?$AA@
CONST	SEGMENT
??_C@_0M@OFJBHGBM@XML_SUCCESS?$AA@ DB 'XML_SUCCESS', 00H ; `string'
CONST	ENDS
;	COMDAT ?value@?$integral_constant@_N$00@std@@2_NB
CONST	SEGMENT
?value@?$integral_constant@_N$00@std@@2_NB DB 01H	; std::integral_constant<bool,1>::value
CONST	ENDS
;	COMDAT ?value@?$integral_constant@_N$0A@@std@@2_NB
CONST	SEGMENT
?value@?$integral_constant@_N$0A@@std@@2_NB DB 00H	; std::integral_constant<bool,0>::value
CONST	ENDS
;	COMDAT ?value@?$_Sizeof@U_Nil@std@@U12@U12@U12@U12@U12@U12@U12@@std@@2IB
CONST	SEGMENT
?value@?$_Sizeof@U_Nil@std@@U12@U12@U12@U12@U12@U12@U12@@std@@2IB DD 00H ; std::_Sizeof<std::_Nil,std::_Nil,std::_Nil,std::_Nil,std::_Nil,std::_Nil,std::_Nil,std::_Nil>::value
CONST	ENDS
PUBLIC	?TIXML_SNPRINTF@@YAHPADIPBDZZ			; TIXML_SNPRINTF
PUBLIC	??0StrPair@tinyxml2@@QAE@XZ			; tinyxml2::StrPair::StrPair
PUBLIC	??1StrPair@tinyxml2@@QAE@XZ			; tinyxml2::StrPair::~StrPair
PUBLIC	?Set@StrPair@tinyxml2@@QAEXPAD0H@Z		; tinyxml2::StrPair::Set
PUBLIC	?GetStr@StrPair@tinyxml2@@QAEPBDXZ		; tinyxml2::StrPair::GetStr
PUBLIC	?Empty@StrPair@tinyxml2@@QBE_NXZ		; tinyxml2::StrPair::Empty
PUBLIC	?SetInternedStr@StrPair@tinyxml2@@QAEXPBD@Z	; tinyxml2::StrPair::SetInternedStr
PUBLIC	?SetStr@StrPair@tinyxml2@@QAEXPBDH@Z		; tinyxml2::StrPair::SetStr
PUBLIC	?ParseText@StrPair@tinyxml2@@QAEPADPADPBDH@Z	; tinyxml2::StrPair::ParseText
PUBLIC	?ParseName@StrPair@tinyxml2@@QAEPADPAD@Z	; tinyxml2::StrPair::ParseName
PUBLIC	?Reset@StrPair@tinyxml2@@AAEXXZ			; tinyxml2::StrPair::Reset
PUBLIC	?CollapseWhitespace@StrPair@tinyxml2@@AAEXXZ	; tinyxml2::StrPair::CollapseWhitespace
PUBLIC	?__autoclassinit@StrPair@tinyxml2@@QAEXI@Z	; tinyxml2::StrPair::__autoclassinit
PUBLIC	??0MemPool@tinyxml2@@QAE@XZ			; tinyxml2::MemPool::MemPool
PUBLIC	??1MemPool@tinyxml2@@UAE@XZ			; tinyxml2::MemPool::~MemPool
PUBLIC	??_GMemPool@tinyxml2@@UAEPAXI@Z			; tinyxml2::MemPool::`scalar deleting destructor'
PUBLIC	??1XMLVisitor@tinyxml2@@UAE@XZ			; tinyxml2::XMLVisitor::~XMLVisitor
PUBLIC	?VisitEnter@XMLVisitor@tinyxml2@@UAE_NABVXMLDocument@2@@Z ; tinyxml2::XMLVisitor::VisitEnter
PUBLIC	?VisitExit@XMLVisitor@tinyxml2@@UAE_NABVXMLDocument@2@@Z ; tinyxml2::XMLVisitor::VisitExit
PUBLIC	?VisitEnter@XMLVisitor@tinyxml2@@UAE_NABVXMLElement@2@PBVXMLAttribute@2@@Z ; tinyxml2::XMLVisitor::VisitEnter
PUBLIC	?VisitExit@XMLVisitor@tinyxml2@@UAE_NABVXMLElement@2@@Z ; tinyxml2::XMLVisitor::VisitExit
PUBLIC	?Visit@XMLVisitor@tinyxml2@@UAE_NABVXMLDeclaration@2@@Z ; tinyxml2::XMLVisitor::Visit
PUBLIC	?Visit@XMLVisitor@tinyxml2@@UAE_NABVXMLText@2@@Z ; tinyxml2::XMLVisitor::Visit
PUBLIC	?Visit@XMLVisitor@tinyxml2@@UAE_NABVXMLComment@2@@Z ; tinyxml2::XMLVisitor::Visit
PUBLIC	?Visit@XMLVisitor@tinyxml2@@UAE_NABVXMLUnknown@2@@Z ; tinyxml2::XMLVisitor::Visit
PUBLIC	??0XMLVisitor@tinyxml2@@QAE@XZ			; tinyxml2::XMLVisitor::XMLVisitor
PUBLIC	??_GXMLVisitor@tinyxml2@@UAEPAXI@Z		; tinyxml2::XMLVisitor::`scalar deleting destructor'
PUBLIC	?SkipWhiteSpace@XMLUtil@tinyxml2@@SAPBDPBD@Z	; tinyxml2::XMLUtil::SkipWhiteSpace
PUBLIC	?SkipWhiteSpace@XMLUtil@tinyxml2@@SAPADPAD@Z	; tinyxml2::XMLUtil::SkipWhiteSpace
PUBLIC	?IsWhiteSpace@XMLUtil@tinyxml2@@SA_ND@Z		; tinyxml2::XMLUtil::IsWhiteSpace
PUBLIC	?IsNameStartChar@XMLUtil@tinyxml2@@SA_NE@Z	; tinyxml2::XMLUtil::IsNameStartChar
PUBLIC	?IsNameChar@XMLUtil@tinyxml2@@SA_NE@Z		; tinyxml2::XMLUtil::IsNameChar
PUBLIC	?StringEqual@XMLUtil@tinyxml2@@SA_NPBD0H@Z	; tinyxml2::XMLUtil::StringEqual
PUBLIC	?IsUTF8Continuation@XMLUtil@tinyxml2@@SA_ND@Z	; tinyxml2::XMLUtil::IsUTF8Continuation
PUBLIC	?ReadBOM@XMLUtil@tinyxml2@@SAPBDPBDPA_N@Z	; tinyxml2::XMLUtil::ReadBOM
PUBLIC	?GetCharacterRef@XMLUtil@tinyxml2@@SAPBDPBDPADPAH@Z ; tinyxml2::XMLUtil::GetCharacterRef
PUBLIC	?ConvertUTF32ToUTF8@XMLUtil@tinyxml2@@SAXKPADPAH@Z ; tinyxml2::XMLUtil::ConvertUTF32ToUTF8
PUBLIC	?ToStr@XMLUtil@tinyxml2@@SAXHPADH@Z		; tinyxml2::XMLUtil::ToStr
PUBLIC	?ToStr@XMLUtil@tinyxml2@@SAXIPADH@Z		; tinyxml2::XMLUtil::ToStr
PUBLIC	?ToStr@XMLUtil@tinyxml2@@SAX_NPADH@Z		; tinyxml2::XMLUtil::ToStr
PUBLIC	?ToStr@XMLUtil@tinyxml2@@SAXMPADH@Z		; tinyxml2::XMLUtil::ToStr
PUBLIC	?ToStr@XMLUtil@tinyxml2@@SAXNPADH@Z		; tinyxml2::XMLUtil::ToStr
PUBLIC	?ToInt@XMLUtil@tinyxml2@@SA_NPBDPAH@Z		; tinyxml2::XMLUtil::ToInt
PUBLIC	?ToUnsigned@XMLUtil@tinyxml2@@SA_NPBDPAI@Z	; tinyxml2::XMLUtil::ToUnsigned
PUBLIC	?ToBool@XMLUtil@tinyxml2@@SA_NPBDPA_N@Z		; tinyxml2::XMLUtil::ToBool
PUBLIC	?ToFloat@XMLUtil@tinyxml2@@SA_NPBDPAM@Z		; tinyxml2::XMLUtil::ToFloat
PUBLIC	?ToDouble@XMLUtil@tinyxml2@@SA_NPBDPAN@Z	; tinyxml2::XMLUtil::ToDouble
PUBLIC	?GetDocument@XMLNode@tinyxml2@@QAEPAVXMLDocument@2@XZ ; tinyxml2::XMLNode::GetDocument
PUBLIC	?ToElement@XMLNode@tinyxml2@@UAEPAVXMLElement@2@XZ ; tinyxml2::XMLNode::ToElement
PUBLIC	?ToText@XMLNode@tinyxml2@@UAEPAVXMLText@2@XZ	; tinyxml2::XMLNode::ToText
PUBLIC	?ToComment@XMLNode@tinyxml2@@UAEPAVXMLComment@2@XZ ; tinyxml2::XMLNode::ToComment
PUBLIC	?ToDocument@XMLNode@tinyxml2@@UAEPAVXMLDocument@2@XZ ; tinyxml2::XMLNode::ToDocument
PUBLIC	?ToDeclaration@XMLNode@tinyxml2@@UAEPAVXMLDeclaration@2@XZ ; tinyxml2::XMLNode::ToDeclaration
PUBLIC	?ToUnknown@XMLNode@tinyxml2@@UAEPAVXMLUnknown@2@XZ ; tinyxml2::XMLNode::ToUnknown
PUBLIC	?ToElement@XMLNode@tinyxml2@@UBEPBVXMLElement@2@XZ ; tinyxml2::XMLNode::ToElement
PUBLIC	?ToText@XMLNode@tinyxml2@@UBEPBVXMLText@2@XZ	; tinyxml2::XMLNode::ToText
PUBLIC	?ToComment@XMLNode@tinyxml2@@UBEPBVXMLComment@2@XZ ; tinyxml2::XMLNode::ToComment
PUBLIC	?ToDocument@XMLNode@tinyxml2@@UBEPBVXMLDocument@2@XZ ; tinyxml2::XMLNode::ToDocument
PUBLIC	?ToDeclaration@XMLNode@tinyxml2@@UBEPBVXMLDeclaration@2@XZ ; tinyxml2::XMLNode::ToDeclaration
PUBLIC	?ToUnknown@XMLNode@tinyxml2@@UBEPBVXMLUnknown@2@XZ ; tinyxml2::XMLNode::ToUnknown
PUBLIC	?Value@XMLNode@tinyxml2@@QBEPBDXZ		; tinyxml2::XMLNode::Value
PUBLIC	?SetValue@XMLNode@tinyxml2@@QAEXPBD_N@Z		; tinyxml2::XMLNode::SetValue
PUBLIC	?Parent@XMLNode@tinyxml2@@QBEPBV12@XZ		; tinyxml2::XMLNode::Parent
PUBLIC	?FirstChild@XMLNode@tinyxml2@@QBEPBV12@XZ	; tinyxml2::XMLNode::FirstChild
PUBLIC	?FirstChild@XMLNode@tinyxml2@@QAEPAV12@XZ	; tinyxml2::XMLNode::FirstChild
PUBLIC	?FirstChildElement@XMLNode@tinyxml2@@QBEPBVXMLElement@2@PBD@Z ; tinyxml2::XMLNode::FirstChildElement
PUBLIC	?LastChildElement@XMLNode@tinyxml2@@QBEPBVXMLElement@2@PBD@Z ; tinyxml2::XMLNode::LastChildElement
PUBLIC	?PreviousSiblingElement@XMLNode@tinyxml2@@QBEPBVXMLElement@2@PBD@Z ; tinyxml2::XMLNode::PreviousSiblingElement
PUBLIC	?NextSibling@XMLNode@tinyxml2@@QBEPBV12@XZ	; tinyxml2::XMLNode::NextSibling
PUBLIC	?NextSiblingElement@XMLNode@tinyxml2@@QBEPBVXMLElement@2@PBD@Z ; tinyxml2::XMLNode::NextSiblingElement
PUBLIC	?InsertEndChild@XMLNode@tinyxml2@@QAEPAV12@PAV12@@Z ; tinyxml2::XMLNode::InsertEndChild
PUBLIC	?InsertFirstChild@XMLNode@tinyxml2@@QAEPAV12@PAV12@@Z ; tinyxml2::XMLNode::InsertFirstChild
PUBLIC	?InsertAfterChild@XMLNode@tinyxml2@@QAEPAV12@PAV12@0@Z ; tinyxml2::XMLNode::InsertAfterChild
PUBLIC	?DeleteChildren@XMLNode@tinyxml2@@QAEXXZ	; tinyxml2::XMLNode::DeleteChildren
PUBLIC	?DeleteChild@XMLNode@tinyxml2@@QAEXPAV12@@Z	; tinyxml2::XMLNode::DeleteChild
PUBLIC	?ParseDeep@XMLNode@tinyxml2@@UAEPADPADPAVStrPair@2@@Z ; tinyxml2::XMLNode::ParseDeep
PUBLIC	??0XMLNode@tinyxml2@@IAE@PAVXMLDocument@1@@Z	; tinyxml2::XMLNode::XMLNode
PUBLIC	??1XMLNode@tinyxml2@@MAE@XZ			; tinyxml2::XMLNode::~XMLNode
PUBLIC	?Unlink@XMLNode@tinyxml2@@AAEXPAV12@@Z		; tinyxml2::XMLNode::Unlink
PUBLIC	?DeleteNode@XMLNode@tinyxml2@@CAXPAV12@@Z	; tinyxml2::XMLNode::DeleteNode
PUBLIC	??_GXMLNode@tinyxml2@@MAEPAXI@Z			; tinyxml2::XMLNode::`scalar deleting destructor'
PUBLIC	?Accept@XMLText@tinyxml2@@UBE_NPAVXMLVisitor@2@@Z ; tinyxml2::XMLText::Accept
PUBLIC	?ToText@XMLText@tinyxml2@@UAEPAV12@XZ		; tinyxml2::XMLText::ToText
PUBLIC	?ToText@XMLText@tinyxml2@@UBEPBV12@XZ		; tinyxml2::XMLText::ToText
PUBLIC	?SetCData@XMLText@tinyxml2@@QAEX_N@Z		; tinyxml2::XMLText::SetCData
PUBLIC	?CData@XMLText@tinyxml2@@QBE_NXZ		; tinyxml2::XMLText::CData
PUBLIC	?ParseDeep@XMLText@tinyxml2@@UAEPADPADPAVStrPair@2@@Z ; tinyxml2::XMLText::ParseDeep
PUBLIC	?ShallowClone@XMLText@tinyxml2@@UBEPAVXMLNode@2@PAVXMLDocument@2@@Z ; tinyxml2::XMLText::ShallowClone
PUBLIC	?ShallowEqual@XMLText@tinyxml2@@UBE_NPBVXMLNode@2@@Z ; tinyxml2::XMLText::ShallowEqual
PUBLIC	??0XMLText@tinyxml2@@IAE@PAVXMLDocument@1@@Z	; tinyxml2::XMLText::XMLText
PUBLIC	??1XMLText@tinyxml2@@MAE@XZ			; tinyxml2::XMLText::~XMLText
PUBLIC	??_GXMLText@tinyxml2@@MAEPAXI@Z			; tinyxml2::XMLText::`scalar deleting destructor'
PUBLIC	?ToComment@XMLComment@tinyxml2@@UAEPAV12@XZ	; tinyxml2::XMLComment::ToComment
PUBLIC	?ToComment@XMLComment@tinyxml2@@UBEPBV12@XZ	; tinyxml2::XMLComment::ToComment
PUBLIC	?Accept@XMLComment@tinyxml2@@UBE_NPAVXMLVisitor@2@@Z ; tinyxml2::XMLComment::Accept
PUBLIC	?ParseDeep@XMLComment@tinyxml2@@UAEPADPADPAVStrPair@2@@Z ; tinyxml2::XMLComment::ParseDeep
PUBLIC	?ShallowClone@XMLComment@tinyxml2@@UBEPAVXMLNode@2@PAVXMLDocument@2@@Z ; tinyxml2::XMLComment::ShallowClone
PUBLIC	?ShallowEqual@XMLComment@tinyxml2@@UBE_NPBVXMLNode@2@@Z ; tinyxml2::XMLComment::ShallowEqual
PUBLIC	??0XMLComment@tinyxml2@@IAE@PAVXMLDocument@1@@Z	; tinyxml2::XMLComment::XMLComment
PUBLIC	??1XMLComment@tinyxml2@@MAE@XZ			; tinyxml2::XMLComment::~XMLComment
PUBLIC	??_GXMLComment@tinyxml2@@MAEPAXI@Z		; tinyxml2::XMLComment::`scalar deleting destructor'
PUBLIC	?ToDeclaration@XMLDeclaration@tinyxml2@@UAEPAV12@XZ ; tinyxml2::XMLDeclaration::ToDeclaration
PUBLIC	?ToDeclaration@XMLDeclaration@tinyxml2@@UBEPBV12@XZ ; tinyxml2::XMLDeclaration::ToDeclaration
PUBLIC	?Accept@XMLDeclaration@tinyxml2@@UBE_NPAVXMLVisitor@2@@Z ; tinyxml2::XMLDeclaration::Accept
PUBLIC	?ParseDeep@XMLDeclaration@tinyxml2@@UAEPADPADPAVStrPair@2@@Z ; tinyxml2::XMLDeclaration::ParseDeep
PUBLIC	?ShallowClone@XMLDeclaration@tinyxml2@@UBEPAVXMLNode@2@PAVXMLDocument@2@@Z ; tinyxml2::XMLDeclaration::ShallowClone
PUBLIC	?ShallowEqual@XMLDeclaration@tinyxml2@@UBE_NPBVXMLNode@2@@Z ; tinyxml2::XMLDeclaration::ShallowEqual
PUBLIC	??0XMLDeclaration@tinyxml2@@IAE@PAVXMLDocument@1@@Z ; tinyxml2::XMLDeclaration::XMLDeclaration
PUBLIC	??1XMLDeclaration@tinyxml2@@MAE@XZ		; tinyxml2::XMLDeclaration::~XMLDeclaration
PUBLIC	??_GXMLDeclaration@tinyxml2@@MAEPAXI@Z		; tinyxml2::XMLDeclaration::`scalar deleting destructor'
PUBLIC	?ToUnknown@XMLUnknown@tinyxml2@@UAEPAV12@XZ	; tinyxml2::XMLUnknown::ToUnknown
PUBLIC	?ToUnknown@XMLUnknown@tinyxml2@@UBEPBV12@XZ	; tinyxml2::XMLUnknown::ToUnknown
PUBLIC	?Accept@XMLUnknown@tinyxml2@@UBE_NPAVXMLVisitor@2@@Z ; tinyxml2::XMLUnknown::Accept
PUBLIC	?ParseDeep@XMLUnknown@tinyxml2@@UAEPADPADPAVStrPair@2@@Z ; tinyxml2::XMLUnknown::ParseDeep
PUBLIC	?ShallowClone@XMLUnknown@tinyxml2@@UBEPAVXMLNode@2@PAVXMLDocument@2@@Z ; tinyxml2::XMLUnknown::ShallowClone
PUBLIC	?ShallowEqual@XMLUnknown@tinyxml2@@UBE_NPBVXMLNode@2@@Z ; tinyxml2::XMLUnknown::ShallowEqual
PUBLIC	??0XMLUnknown@tinyxml2@@IAE@PAVXMLDocument@1@@Z	; tinyxml2::XMLUnknown::XMLUnknown
PUBLIC	??1XMLUnknown@tinyxml2@@MAE@XZ			; tinyxml2::XMLUnknown::~XMLUnknown
PUBLIC	??_GXMLUnknown@tinyxml2@@MAEPAXI@Z		; tinyxml2::XMLUnknown::`scalar deleting destructor'
PUBLIC	?Name@XMLAttribute@tinyxml2@@QBEPBDXZ		; tinyxml2::XMLAttribute::Name
PUBLIC	?Value@XMLAttribute@tinyxml2@@QBEPBDXZ		; tinyxml2::XMLAttribute::Value
PUBLIC	?Next@XMLAttribute@tinyxml2@@QBEPBV12@XZ	; tinyxml2::XMLAttribute::Next
PUBLIC	?QueryIntValue@XMLAttribute@tinyxml2@@QBE?AW4XMLError@2@PAH@Z ; tinyxml2::XMLAttribute::QueryIntValue
PUBLIC	?QueryUnsignedValue@XMLAttribute@tinyxml2@@QBE?AW4XMLError@2@PAI@Z ; tinyxml2::XMLAttribute::QueryUnsignedValue
PUBLIC	?QueryBoolValue@XMLAttribute@tinyxml2@@QBE?AW4XMLError@2@PA_N@Z ; tinyxml2::XMLAttribute::QueryBoolValue
PUBLIC	?QueryDoubleValue@XMLAttribute@tinyxml2@@QBE?AW4XMLError@2@PAN@Z ; tinyxml2::XMLAttribute::QueryDoubleValue
PUBLIC	?QueryFloatValue@XMLAttribute@tinyxml2@@QBE?AW4XMLError@2@PAM@Z ; tinyxml2::XMLAttribute::QueryFloatValue
PUBLIC	?SetAttribute@XMLAttribute@tinyxml2@@QAEXPBD@Z	; tinyxml2::XMLAttribute::SetAttribute
PUBLIC	?SetAttribute@XMLAttribute@tinyxml2@@QAEXH@Z	; tinyxml2::XMLAttribute::SetAttribute
PUBLIC	?SetAttribute@XMLAttribute@tinyxml2@@QAEXI@Z	; tinyxml2::XMLAttribute::SetAttribute
PUBLIC	?SetAttribute@XMLAttribute@tinyxml2@@QAEX_N@Z	; tinyxml2::XMLAttribute::SetAttribute
PUBLIC	?SetAttribute@XMLAttribute@tinyxml2@@QAEXN@Z	; tinyxml2::XMLAttribute::SetAttribute
PUBLIC	?SetAttribute@XMLAttribute@tinyxml2@@QAEXM@Z	; tinyxml2::XMLAttribute::SetAttribute
PUBLIC	??0XMLAttribute@tinyxml2@@AAE@XZ		; tinyxml2::XMLAttribute::XMLAttribute
PUBLIC	??1XMLAttribute@tinyxml2@@EAE@XZ		; tinyxml2::XMLAttribute::~XMLAttribute
PUBLIC	?SetName@XMLAttribute@tinyxml2@@AAEXPBD@Z	; tinyxml2::XMLAttribute::SetName
PUBLIC	?ParseDeep@XMLAttribute@tinyxml2@@AAEPADPAD_N@Z	; tinyxml2::XMLAttribute::ParseDeep
PUBLIC	??_GXMLAttribute@tinyxml2@@EAEPAXI@Z		; tinyxml2::XMLAttribute::`scalar deleting destructor'
PUBLIC	?Name@XMLElement@tinyxml2@@QBEPBDXZ		; tinyxml2::XMLElement::Name
PUBLIC	?SetName@XMLElement@tinyxml2@@QAEXPBD_N@Z	; tinyxml2::XMLElement::SetName
PUBLIC	?ToElement@XMLElement@tinyxml2@@UAEPAV12@XZ	; tinyxml2::XMLElement::ToElement
PUBLIC	?ToElement@XMLElement@tinyxml2@@UBEPBV12@XZ	; tinyxml2::XMLElement::ToElement
PUBLIC	?Accept@XMLElement@tinyxml2@@UBE_NPAVXMLVisitor@2@@Z ; tinyxml2::XMLElement::Accept
PUBLIC	?Attribute@XMLElement@tinyxml2@@QBEPBDPBD0@Z	; tinyxml2::XMLElement::Attribute
PUBLIC	?SetAttribute@XMLElement@tinyxml2@@QAEXPBD0@Z	; tinyxml2::XMLElement::SetAttribute
PUBLIC	?DeleteAttribute@XMLElement@tinyxml2@@QAEXPBD@Z	; tinyxml2::XMLElement::DeleteAttribute
PUBLIC	?FirstAttribute@XMLElement@tinyxml2@@QBEPBVXMLAttribute@2@XZ ; tinyxml2::XMLElement::FirstAttribute
PUBLIC	?FindAttribute@XMLElement@tinyxml2@@QBEPBVXMLAttribute@2@PBD@Z ; tinyxml2::XMLElement::FindAttribute
PUBLIC	?GetText@XMLElement@tinyxml2@@QBEPBDXZ		; tinyxml2::XMLElement::GetText
PUBLIC	?SetText@XMLElement@tinyxml2@@QAEXPBD@Z		; tinyxml2::XMLElement::SetText
PUBLIC	?SetText@XMLElement@tinyxml2@@QAEXH@Z		; tinyxml2::XMLElement::SetText
PUBLIC	?SetText@XMLElement@tinyxml2@@QAEXI@Z		; tinyxml2::XMLElement::SetText
PUBLIC	?SetText@XMLElement@tinyxml2@@QAEX_N@Z		; tinyxml2::XMLElement::SetText
PUBLIC	?SetText@XMLElement@tinyxml2@@QAEXN@Z		; tinyxml2::XMLElement::SetText
PUBLIC	?SetText@XMLElement@tinyxml2@@QAEXM@Z		; tinyxml2::XMLElement::SetText
PUBLIC	?QueryIntText@XMLElement@tinyxml2@@QBE?AW4XMLError@2@PAH@Z ; tinyxml2::XMLElement::QueryIntText
PUBLIC	?QueryUnsignedText@XMLElement@tinyxml2@@QBE?AW4XMLError@2@PAI@Z ; tinyxml2::XMLElement::QueryUnsignedText
PUBLIC	?QueryBoolText@XMLElement@tinyxml2@@QBE?AW4XMLError@2@PA_N@Z ; tinyxml2::XMLElement::QueryBoolText
PUBLIC	?QueryDoubleText@XMLElement@tinyxml2@@QBE?AW4XMLError@2@PAN@Z ; tinyxml2::XMLElement::QueryDoubleText
PUBLIC	?QueryFloatText@XMLElement@tinyxml2@@QBE?AW4XMLError@2@PAM@Z ; tinyxml2::XMLElement::QueryFloatText
PUBLIC	?ClosingType@XMLElement@tinyxml2@@QBEHXZ	; tinyxml2::XMLElement::ClosingType
PUBLIC	?ParseDeep@XMLElement@tinyxml2@@UAEPADPADPAVStrPair@2@@Z ; tinyxml2::XMLElement::ParseDeep
PUBLIC	?ShallowClone@XMLElement@tinyxml2@@UBEPAVXMLNode@2@PAVXMLDocument@2@@Z ; tinyxml2::XMLElement::ShallowClone
PUBLIC	?ShallowEqual@XMLElement@tinyxml2@@UBE_NPBVXMLNode@2@@Z ; tinyxml2::XMLElement::ShallowEqual
PUBLIC	??0XMLElement@tinyxml2@@AAE@PAVXMLDocument@1@@Z	; tinyxml2::XMLElement::XMLElement
PUBLIC	??1XMLElement@tinyxml2@@EAE@XZ			; tinyxml2::XMLElement::~XMLElement
PUBLIC	?FindAttribute@XMLElement@tinyxml2@@AAEPAVXMLAttribute@2@PBD@Z ; tinyxml2::XMLElement::FindAttribute
PUBLIC	?FindOrCreateAttribute@XMLElement@tinyxml2@@AAEPAVXMLAttribute@2@PBD@Z ; tinyxml2::XMLElement::FindOrCreateAttribute
PUBLIC	?ParseAttributes@XMLElement@tinyxml2@@AAEPADPAD@Z ; tinyxml2::XMLElement::ParseAttributes
PUBLIC	?DeleteAttribute@XMLElement@tinyxml2@@CAXPAVXMLAttribute@2@@Z ; tinyxml2::XMLElement::DeleteAttribute
PUBLIC	??_GXMLElement@tinyxml2@@EAEPAXI@Z		; tinyxml2::XMLElement::`scalar deleting destructor'
PUBLIC	??0XMLDocument@tinyxml2@@QAE@_NW4Whitespace@1@@Z ; tinyxml2::XMLDocument::XMLDocument
PUBLIC	??1XMLDocument@tinyxml2@@UAE@XZ			; tinyxml2::XMLDocument::~XMLDocument
PUBLIC	?ToDocument@XMLDocument@tinyxml2@@UAEPAV12@XZ	; tinyxml2::XMLDocument::ToDocument
PUBLIC	?ToDocument@XMLDocument@tinyxml2@@UBEPBV12@XZ	; tinyxml2::XMLDocument::ToDocument
PUBLIC	?Parse@XMLDocument@tinyxml2@@QAE?AW4XMLError@2@PBDI@Z ; tinyxml2::XMLDocument::Parse
PUBLIC	?LoadFile@XMLDocument@tinyxml2@@QAE?AW4XMLError@2@PBD@Z ; tinyxml2::XMLDocument::LoadFile
PUBLIC	?LoadFile@XMLDocument@tinyxml2@@QAE?AW4XMLError@2@PAU_iobuf@@@Z ; tinyxml2::XMLDocument::LoadFile
PUBLIC	?SaveFile@XMLDocument@tinyxml2@@QAE?AW4XMLError@2@PBD_N@Z ; tinyxml2::XMLDocument::SaveFile
PUBLIC	?SaveFile@XMLDocument@tinyxml2@@QAE?AW4XMLError@2@PAU_iobuf@@_N@Z ; tinyxml2::XMLDocument::SaveFile
PUBLIC	?ProcessEntities@XMLDocument@tinyxml2@@QBE_NXZ	; tinyxml2::XMLDocument::ProcessEntities
PUBLIC	?WhitespaceMode@XMLDocument@tinyxml2@@QBE?AW4Whitespace@2@XZ ; tinyxml2::XMLDocument::WhitespaceMode
PUBLIC	?HasBOM@XMLDocument@tinyxml2@@QBE_NXZ		; tinyxml2::XMLDocument::HasBOM
PUBLIC	?Print@XMLDocument@tinyxml2@@QBEXPAVXMLPrinter@2@@Z ; tinyxml2::XMLDocument::Print
PUBLIC	?Accept@XMLDocument@tinyxml2@@UBE_NPAVXMLVisitor@2@@Z ; tinyxml2::XMLDocument::Accept
PUBLIC	?NewElement@XMLDocument@tinyxml2@@QAEPAVXMLElement@2@PBD@Z ; tinyxml2::XMLDocument::NewElement
PUBLIC	?NewComment@XMLDocument@tinyxml2@@QAEPAVXMLComment@2@PBD@Z ; tinyxml2::XMLDocument::NewComment
PUBLIC	?NewText@XMLDocument@tinyxml2@@QAEPAVXMLText@2@PBD@Z ; tinyxml2::XMLDocument::NewText
PUBLIC	?NewDeclaration@XMLDocument@tinyxml2@@QAEPAVXMLDeclaration@2@PBD@Z ; tinyxml2::XMLDocument::NewDeclaration
PUBLIC	?NewUnknown@XMLDocument@tinyxml2@@QAEPAVXMLUnknown@2@PBD@Z ; tinyxml2::XMLDocument::NewUnknown
PUBLIC	?SetError@XMLDocument@tinyxml2@@QAEXW4XMLError@2@PBD1@Z ; tinyxml2::XMLDocument::SetError
PUBLIC	?Error@XMLDocument@tinyxml2@@QBE_NXZ		; tinyxml2::XMLDocument::Error
PUBLIC	?ErrorName@XMLDocument@tinyxml2@@QBEPBDXZ	; tinyxml2::XMLDocument::ErrorName
PUBLIC	?PrintError@XMLDocument@tinyxml2@@QBEXXZ	; tinyxml2::XMLDocument::PrintError
PUBLIC	?Clear@XMLDocument@tinyxml2@@QAEXXZ		; tinyxml2::XMLDocument::Clear
PUBLIC	?Identify@XMLDocument@tinyxml2@@QAEPADPADPAPAVXMLNode@2@@Z ; tinyxml2::XMLDocument::Identify
PUBLIC	?ShallowClone@XMLDocument@tinyxml2@@UBEPAVXMLNode@2@PAV12@@Z ; tinyxml2::XMLDocument::ShallowClone
PUBLIC	?ShallowEqual@XMLDocument@tinyxml2@@UBE_NPBVXMLNode@2@@Z ; tinyxml2::XMLDocument::ShallowEqual
PUBLIC	??0?$MemPoolT@$0DE@@tinyxml2@@QAE@XZ		; tinyxml2::MemPoolT<52>::MemPoolT<52>
PUBLIC	??1?$MemPoolT@$0DE@@tinyxml2@@UAE@XZ		; tinyxml2::MemPoolT<52>::~MemPoolT<52>
PUBLIC	?Clear@?$MemPoolT@$0DE@@tinyxml2@@UAEXXZ	; tinyxml2::MemPoolT<52>::Clear
PUBLIC	?ItemSize@?$MemPoolT@$0DE@@tinyxml2@@UBEHXZ	; tinyxml2::MemPoolT<52>::ItemSize
PUBLIC	?CurrentAllocs@?$MemPoolT@$0DE@@tinyxml2@@QBEHXZ ; tinyxml2::MemPoolT<52>::CurrentAllocs
PUBLIC	?Alloc@?$MemPoolT@$0DE@@tinyxml2@@UAEPAXXZ	; tinyxml2::MemPoolT<52>::Alloc
PUBLIC	?Free@?$MemPoolT@$0DE@@tinyxml2@@UAEXPAX@Z	; tinyxml2::MemPoolT<52>::Free
PUBLIC	?SetTracked@?$MemPoolT@$0DE@@tinyxml2@@UAEXXZ	; tinyxml2::MemPoolT<52>::SetTracked
PUBLIC	?Untracked@?$MemPoolT@$0DE@@tinyxml2@@QBEHXZ	; tinyxml2::MemPoolT<52>::Untracked
PUBLIC	??0?$DynArray@PAUBlock@?$MemPoolT@$0DE@@tinyxml2@@$09@tinyxml2@@QAE@XZ ; tinyxml2::DynArray<tinyxml2::MemPoolT<52>::Block *,10>::DynArray<tinyxml2::MemPoolT<52>::Block *,10>
PUBLIC	??1?$DynArray@PAUBlock@?$MemPoolT@$0DE@@tinyxml2@@$09@tinyxml2@@QAE@XZ ; tinyxml2::DynArray<tinyxml2::MemPoolT<52>::Block *,10>::~DynArray<tinyxml2::MemPoolT<52>::Block *,10>
PUBLIC	?Push@?$DynArray@PAUBlock@?$MemPoolT@$0DE@@tinyxml2@@$09@tinyxml2@@QAEXPAUBlock@?$MemPoolT@$0DE@@2@@Z ; tinyxml2::DynArray<tinyxml2::MemPoolT<52>::Block *,10>::Push
PUBLIC	?Pop@?$DynArray@PAUBlock@?$MemPoolT@$0DE@@tinyxml2@@$09@tinyxml2@@QAEPAUBlock@?$MemPoolT@$0DE@@2@XZ ; tinyxml2::DynArray<tinyxml2::MemPoolT<52>::Block *,10>::Pop
PUBLIC	?Empty@?$DynArray@PAUBlock@?$MemPoolT@$0DE@@tinyxml2@@$09@tinyxml2@@QBE_NXZ ; tinyxml2::DynArray<tinyxml2::MemPoolT<52>::Block *,10>::Empty
PUBLIC	?EnsureCapacity@?$DynArray@PAUBlock@?$MemPoolT@$0DE@@tinyxml2@@$09@tinyxml2@@AAEXH@Z ; tinyxml2::DynArray<tinyxml2::MemPoolT<52>::Block *,10>::EnsureCapacity
PUBLIC	??_G?$MemPoolT@$0DE@@tinyxml2@@UAEPAXI@Z	; tinyxml2::MemPoolT<52>::`scalar deleting destructor'
PUBLIC	??0?$MemPoolT@$0CE@@tinyxml2@@QAE@XZ		; tinyxml2::MemPoolT<36>::MemPoolT<36>
PUBLIC	??1?$MemPoolT@$0CE@@tinyxml2@@UAE@XZ		; tinyxml2::MemPoolT<36>::~MemPoolT<36>
PUBLIC	?Clear@?$MemPoolT@$0CE@@tinyxml2@@UAEXXZ	; tinyxml2::MemPoolT<36>::Clear
PUBLIC	?ItemSize@?$MemPoolT@$0CE@@tinyxml2@@UBEHXZ	; tinyxml2::MemPoolT<36>::ItemSize
PUBLIC	?CurrentAllocs@?$MemPoolT@$0CE@@tinyxml2@@QBEHXZ ; tinyxml2::MemPoolT<36>::CurrentAllocs
PUBLIC	?Alloc@?$MemPoolT@$0CE@@tinyxml2@@UAEPAXXZ	; tinyxml2::MemPoolT<36>::Alloc
PUBLIC	?Free@?$MemPoolT@$0CE@@tinyxml2@@UAEXPAX@Z	; tinyxml2::MemPoolT<36>::Free
PUBLIC	?SetTracked@?$MemPoolT@$0CE@@tinyxml2@@UAEXXZ	; tinyxml2::MemPoolT<36>::SetTracked
PUBLIC	?Untracked@?$MemPoolT@$0CE@@tinyxml2@@QBEHXZ	; tinyxml2::MemPoolT<36>::Untracked
PUBLIC	??0?$DynArray@PAUBlock@?$MemPoolT@$0CE@@tinyxml2@@$09@tinyxml2@@QAE@XZ ; tinyxml2::DynArray<tinyxml2::MemPoolT<36>::Block *,10>::DynArray<tinyxml2::MemPoolT<36>::Block *,10>
PUBLIC	??1?$DynArray@PAUBlock@?$MemPoolT@$0CE@@tinyxml2@@$09@tinyxml2@@QAE@XZ ; tinyxml2::DynArray<tinyxml2::MemPoolT<36>::Block *,10>::~DynArray<tinyxml2::MemPoolT<36>::Block *,10>
PUBLIC	?Push@?$DynArray@PAUBlock@?$MemPoolT@$0CE@@tinyxml2@@$09@tinyxml2@@QAEXPAUBlock@?$MemPoolT@$0CE@@2@@Z ; tinyxml2::DynArray<tinyxml2::MemPoolT<36>::Block *,10>::Push
PUBLIC	?Pop@?$DynArray@PAUBlock@?$MemPoolT@$0CE@@tinyxml2@@$09@tinyxml2@@QAEPAUBlock@?$MemPoolT@$0CE@@2@XZ ; tinyxml2::DynArray<tinyxml2::MemPoolT<36>::Block *,10>::Pop
PUBLIC	?Empty@?$DynArray@PAUBlock@?$MemPoolT@$0CE@@tinyxml2@@$09@tinyxml2@@QBE_NXZ ; tinyxml2::DynArray<tinyxml2::MemPoolT<36>::Block *,10>::Empty
PUBLIC	?EnsureCapacity@?$DynArray@PAUBlock@?$MemPoolT@$0CE@@tinyxml2@@$09@tinyxml2@@AAEXH@Z ; tinyxml2::DynArray<tinyxml2::MemPoolT<36>::Block *,10>::EnsureCapacity
PUBLIC	??_G?$MemPoolT@$0CE@@tinyxml2@@UAEPAXI@Z	; tinyxml2::MemPoolT<36>::`scalar deleting destructor'
PUBLIC	??0?$MemPoolT@$0DA@@tinyxml2@@QAE@XZ		; tinyxml2::MemPoolT<48>::MemPoolT<48>
PUBLIC	??1?$MemPoolT@$0DA@@tinyxml2@@UAE@XZ		; tinyxml2::MemPoolT<48>::~MemPoolT<48>
PUBLIC	?Clear@?$MemPoolT@$0DA@@tinyxml2@@UAEXXZ	; tinyxml2::MemPoolT<48>::Clear
PUBLIC	?ItemSize@?$MemPoolT@$0DA@@tinyxml2@@UBEHXZ	; tinyxml2::MemPoolT<48>::ItemSize
PUBLIC	?CurrentAllocs@?$MemPoolT@$0DA@@tinyxml2@@QBEHXZ ; tinyxml2::MemPoolT<48>::CurrentAllocs
PUBLIC	?Alloc@?$MemPoolT@$0DA@@tinyxml2@@UAEPAXXZ	; tinyxml2::MemPoolT<48>::Alloc
PUBLIC	?Free@?$MemPoolT@$0DA@@tinyxml2@@UAEXPAX@Z	; tinyxml2::MemPoolT<48>::Free
PUBLIC	?SetTracked@?$MemPoolT@$0DA@@tinyxml2@@UAEXXZ	; tinyxml2::MemPoolT<48>::SetTracked
PUBLIC	?Untracked@?$MemPoolT@$0DA@@tinyxml2@@QBEHXZ	; tinyxml2::MemPoolT<48>::Untracked
PUBLIC	??0?$DynArray@PAUBlock@?$MemPoolT@$0DA@@tinyxml2@@$09@tinyxml2@@QAE@XZ ; tinyxml2::DynArray<tinyxml2::MemPoolT<48>::Block *,10>::DynArray<tinyxml2::MemPoolT<48>::Block *,10>
PUBLIC	??1?$DynArray@PAUBlock@?$MemPoolT@$0DA@@tinyxml2@@$09@tinyxml2@@QAE@XZ ; tinyxml2::DynArray<tinyxml2::MemPoolT<48>::Block *,10>::~DynArray<tinyxml2::MemPoolT<48>::Block *,10>
PUBLIC	?Push@?$DynArray@PAUBlock@?$MemPoolT@$0DA@@tinyxml2@@$09@tinyxml2@@QAEXPAUBlock@?$MemPoolT@$0DA@@2@@Z ; tinyxml2::DynArray<tinyxml2::MemPoolT<48>::Block *,10>::Push
PUBLIC	?Pop@?$DynArray@PAUBlock@?$MemPoolT@$0DA@@tinyxml2@@$09@tinyxml2@@QAEPAUBlock@?$MemPoolT@$0DA@@2@XZ ; tinyxml2::DynArray<tinyxml2::MemPoolT<48>::Block *,10>::Pop
PUBLIC	?Empty@?$DynArray@PAUBlock@?$MemPoolT@$0DA@@tinyxml2@@$09@tinyxml2@@QBE_NXZ ; tinyxml2::DynArray<tinyxml2::MemPoolT<48>::Block *,10>::Empty
PUBLIC	?EnsureCapacity@?$DynArray@PAUBlock@?$MemPoolT@$0DA@@tinyxml2@@$09@tinyxml2@@AAEXH@Z ; tinyxml2::DynArray<tinyxml2::MemPoolT<48>::Block *,10>::EnsureCapacity
PUBLIC	??_G?$MemPoolT@$0DA@@tinyxml2@@UAEPAXI@Z	; tinyxml2::MemPoolT<48>::`scalar deleting destructor'
PUBLIC	??0?$MemPoolT@$0CM@@tinyxml2@@QAE@XZ		; tinyxml2::MemPoolT<44>::MemPoolT<44>
PUBLIC	??1?$MemPoolT@$0CM@@tinyxml2@@UAE@XZ		; tinyxml2::MemPoolT<44>::~MemPoolT<44>
PUBLIC	?Clear@?$MemPoolT@$0CM@@tinyxml2@@UAEXXZ	; tinyxml2::MemPoolT<44>::Clear
PUBLIC	?ItemSize@?$MemPoolT@$0CM@@tinyxml2@@UBEHXZ	; tinyxml2::MemPoolT<44>::ItemSize
PUBLIC	?CurrentAllocs@?$MemPoolT@$0CM@@tinyxml2@@QBEHXZ ; tinyxml2::MemPoolT<44>::CurrentAllocs
PUBLIC	?Alloc@?$MemPoolT@$0CM@@tinyxml2@@UAEPAXXZ	; tinyxml2::MemPoolT<44>::Alloc
PUBLIC	?Free@?$MemPoolT@$0CM@@tinyxml2@@UAEXPAX@Z	; tinyxml2::MemPoolT<44>::Free
PUBLIC	?SetTracked@?$MemPoolT@$0CM@@tinyxml2@@UAEXXZ	; tinyxml2::MemPoolT<44>::SetTracked
PUBLIC	?Untracked@?$MemPoolT@$0CM@@tinyxml2@@QBEHXZ	; tinyxml2::MemPoolT<44>::Untracked
PUBLIC	??0?$DynArray@PAUBlock@?$MemPoolT@$0CM@@tinyxml2@@$09@tinyxml2@@QAE@XZ ; tinyxml2::DynArray<tinyxml2::MemPoolT<44>::Block *,10>::DynArray<tinyxml2::MemPoolT<44>::Block *,10>
PUBLIC	??1?$DynArray@PAUBlock@?$MemPoolT@$0CM@@tinyxml2@@$09@tinyxml2@@QAE@XZ ; tinyxml2::DynArray<tinyxml2::MemPoolT<44>::Block *,10>::~DynArray<tinyxml2::MemPoolT<44>::Block *,10>
PUBLIC	?Push@?$DynArray@PAUBlock@?$MemPoolT@$0CM@@tinyxml2@@$09@tinyxml2@@QAEXPAUBlock@?$MemPoolT@$0CM@@2@@Z ; tinyxml2::DynArray<tinyxml2::MemPoolT<44>::Block *,10>::Push
PUBLIC	?Pop@?$DynArray@PAUBlock@?$MemPoolT@$0CM@@tinyxml2@@$09@tinyxml2@@QAEPAUBlock@?$MemPoolT@$0CM@@2@XZ ; tinyxml2::DynArray<tinyxml2::MemPoolT<44>::Block *,10>::Pop
PUBLIC	?Empty@?$DynArray@PAUBlock@?$MemPoolT@$0CM@@tinyxml2@@$09@tinyxml2@@QBE_NXZ ; tinyxml2::DynArray<tinyxml2::MemPoolT<44>::Block *,10>::Empty
PUBLIC	?EnsureCapacity@?$DynArray@PAUBlock@?$MemPoolT@$0CM@@tinyxml2@@$09@tinyxml2@@AAEXH@Z ; tinyxml2::DynArray<tinyxml2::MemPoolT<44>::Block *,10>::EnsureCapacity
PUBLIC	??_G?$MemPoolT@$0CM@@tinyxml2@@UAEPAXI@Z	; tinyxml2::MemPoolT<44>::`scalar deleting destructor'
PUBLIC	??_GXMLDocument@tinyxml2@@UAEPAXI@Z		; tinyxml2::XMLDocument::`scalar deleting destructor'
PUBLIC	??0XMLPrinter@tinyxml2@@QAE@PAU_iobuf@@_NH@Z	; tinyxml2::XMLPrinter::XMLPrinter
PUBLIC	??1XMLPrinter@tinyxml2@@UAE@XZ			; tinyxml2::XMLPrinter::~XMLPrinter
PUBLIC	?PushHeader@XMLPrinter@tinyxml2@@QAEX_N0@Z	; tinyxml2::XMLPrinter::PushHeader
PUBLIC	?OpenElement@XMLPrinter@tinyxml2@@QAEXPBD_N@Z	; tinyxml2::XMLPrinter::OpenElement
PUBLIC	?PushAttribute@XMLPrinter@tinyxml2@@QAEXPBD0@Z	; tinyxml2::XMLPrinter::PushAttribute
PUBLIC	?PushAttribute@XMLPrinter@tinyxml2@@QAEXPBDH@Z	; tinyxml2::XMLPrinter::PushAttribute
PUBLIC	?PushAttribute@XMLPrinter@tinyxml2@@QAEXPBDI@Z	; tinyxml2::XMLPrinter::PushAttribute
PUBLIC	?PushAttribute@XMLPrinter@tinyxml2@@QAEXPBD_N@Z	; tinyxml2::XMLPrinter::PushAttribute
PUBLIC	?PushAttribute@XMLPrinter@tinyxml2@@QAEXPBDN@Z	; tinyxml2::XMLPrinter::PushAttribute
PUBLIC	?CloseElement@XMLPrinter@tinyxml2@@UAEX_N@Z	; tinyxml2::XMLPrinter::CloseElement
PUBLIC	?PushText@XMLPrinter@tinyxml2@@QAEXPBD_N@Z	; tinyxml2::XMLPrinter::PushText
PUBLIC	?PushText@XMLPrinter@tinyxml2@@QAEXH@Z		; tinyxml2::XMLPrinter::PushText
PUBLIC	?PushText@XMLPrinter@tinyxml2@@QAEXI@Z		; tinyxml2::XMLPrinter::PushText
PUBLIC	?PushText@XMLPrinter@tinyxml2@@QAEX_N@Z		; tinyxml2::XMLPrinter::PushText
PUBLIC	?PushText@XMLPrinter@tinyxml2@@QAEXM@Z		; tinyxml2::XMLPrinter::PushText
PUBLIC	?PushText@XMLPrinter@tinyxml2@@QAEXN@Z		; tinyxml2::XMLPrinter::PushText
PUBLIC	?PushComment@XMLPrinter@tinyxml2@@QAEXPBD@Z	; tinyxml2::XMLPrinter::PushComment
PUBLIC	?PushDeclaration@XMLPrinter@tinyxml2@@QAEXPBD@Z	; tinyxml2::XMLPrinter::PushDeclaration
PUBLIC	?PushUnknown@XMLPrinter@tinyxml2@@QAEXPBD@Z	; tinyxml2::XMLPrinter::PushUnknown
PUBLIC	?VisitEnter@XMLPrinter@tinyxml2@@UAE_NABVXMLDocument@2@@Z ; tinyxml2::XMLPrinter::VisitEnter
PUBLIC	?VisitExit@XMLPrinter@tinyxml2@@UAE_NABVXMLDocument@2@@Z ; tinyxml2::XMLPrinter::VisitExit
PUBLIC	?VisitEnter@XMLPrinter@tinyxml2@@UAE_NABVXMLElement@2@PBVXMLAttribute@2@@Z ; tinyxml2::XMLPrinter::VisitEnter
PUBLIC	?VisitExit@XMLPrinter@tinyxml2@@UAE_NABVXMLElement@2@@Z ; tinyxml2::XMLPrinter::VisitExit
PUBLIC	?Visit@XMLPrinter@tinyxml2@@UAE_NABVXMLText@2@@Z ; tinyxml2::XMLPrinter::Visit
PUBLIC	?Visit@XMLPrinter@tinyxml2@@UAE_NABVXMLComment@2@@Z ; tinyxml2::XMLPrinter::Visit
PUBLIC	?Visit@XMLPrinter@tinyxml2@@UAE_NABVXMLDeclaration@2@@Z ; tinyxml2::XMLPrinter::Visit
PUBLIC	?Visit@XMLPrinter@tinyxml2@@UAE_NABVXMLUnknown@2@@Z ; tinyxml2::XMLPrinter::Visit
PUBLIC	?CompactMode@XMLPrinter@tinyxml2@@MAE_NABVXMLElement@2@@Z ; tinyxml2::XMLPrinter::CompactMode
PUBLIC	?PrintSpace@XMLPrinter@tinyxml2@@MAEXH@Z	; tinyxml2::XMLPrinter::PrintSpace
PUBLIC	?Print@XMLPrinter@tinyxml2@@IAAXPBDZZ		; tinyxml2::XMLPrinter::Print
PUBLIC	?SealElement@XMLPrinter@tinyxml2@@IAEXXZ	; tinyxml2::XMLPrinter::SealElement
PUBLIC	??0?$DynArray@PBD$09@tinyxml2@@QAE@XZ		; tinyxml2::DynArray<char const *,10>::DynArray<char const *,10>
PUBLIC	??1?$DynArray@PBD$09@tinyxml2@@QAE@XZ		; tinyxml2::DynArray<char const *,10>::~DynArray<char const *,10>
PUBLIC	?Push@?$DynArray@PBD$09@tinyxml2@@QAEXPBD@Z	; tinyxml2::DynArray<char const *,10>::Push
PUBLIC	?Pop@?$DynArray@PBD$09@tinyxml2@@QAEPBDXZ	; tinyxml2::DynArray<char const *,10>::Pop
PUBLIC	?EnsureCapacity@?$DynArray@PBD$09@tinyxml2@@AAEXH@Z ; tinyxml2::DynArray<char const *,10>::EnsureCapacity
PUBLIC	?__autoclassinit@?$DynArray@PBD$09@tinyxml2@@QAEXI@Z ; tinyxml2::DynArray<char const *,10>::__autoclassinit
PUBLIC	?PrintString@XMLPrinter@tinyxml2@@AAEXPBD_N@Z	; tinyxml2::XMLPrinter::PrintString
PUBLIC	??0?$DynArray@D$0BE@@tinyxml2@@QAE@XZ		; tinyxml2::DynArray<char,20>::DynArray<char,20>
PUBLIC	??1?$DynArray@D$0BE@@tinyxml2@@QAE@XZ		; tinyxml2::DynArray<char,20>::~DynArray<char,20>
PUBLIC	?Push@?$DynArray@D$0BE@@tinyxml2@@QAEXD@Z	; tinyxml2::DynArray<char,20>::Push
PUBLIC	?PushArr@?$DynArray@D$0BE@@tinyxml2@@QAEPADH@Z	; tinyxml2::DynArray<char,20>::PushArr
PUBLIC	?EnsureCapacity@?$DynArray@D$0BE@@tinyxml2@@AAEXH@Z ; tinyxml2::DynArray<char,20>::EnsureCapacity
PUBLIC	?__autoclassinit@?$DynArray@D$0BE@@tinyxml2@@QAEXI@Z ; tinyxml2::DynArray<char,20>::__autoclassinit
PUBLIC	?__autoclassinit@XMLPrinter@tinyxml2@@QAEXI@Z	; tinyxml2::XMLPrinter::__autoclassinit
PUBLIC	??_GXMLPrinter@tinyxml2@@UAEPAXI@Z		; tinyxml2::XMLPrinter::`scalar deleting destructor'
PUBLIC	??2@YAPAXIPAX@Z					; operator new
PUBLIC	??3@YAXPAX0@Z					; operator delete
PUBLIC	??_7MemPool@tinyxml2@@6B@			; tinyxml2::MemPool::`vftable'
PUBLIC	??_7XMLVisitor@tinyxml2@@6B@			; tinyxml2::XMLVisitor::`vftable'
PUBLIC	??_7XMLNode@tinyxml2@@6B@			; tinyxml2::XMLNode::`vftable'
PUBLIC	??_7XMLText@tinyxml2@@6B@			; tinyxml2::XMLText::`vftable'
PUBLIC	??_7XMLComment@tinyxml2@@6B@			; tinyxml2::XMLComment::`vftable'
PUBLIC	??_7XMLDeclaration@tinyxml2@@6B@		; tinyxml2::XMLDeclaration::`vftable'
PUBLIC	??_7XMLUnknown@tinyxml2@@6B@			; tinyxml2::XMLUnknown::`vftable'
PUBLIC	??_7XMLAttribute@tinyxml2@@6B@			; tinyxml2::XMLAttribute::`vftable'
PUBLIC	??_7XMLElement@tinyxml2@@6B@			; tinyxml2::XMLElement::`vftable'
PUBLIC	??_7?$MemPoolT@$0DE@@tinyxml2@@6B@		; tinyxml2::MemPoolT<52>::`vftable'
PUBLIC	??_7?$MemPoolT@$0CE@@tinyxml2@@6B@		; tinyxml2::MemPoolT<36>::`vftable'
PUBLIC	??_7?$MemPoolT@$0DA@@tinyxml2@@6B@		; tinyxml2::MemPoolT<48>::`vftable'
PUBLIC	??_7?$MemPoolT@$0CM@@tinyxml2@@6B@		; tinyxml2::MemPoolT<44>::`vftable'
PUBLIC	??_7XMLDocument@tinyxml2@@6B@			; tinyxml2::XMLDocument::`vftable'
PUBLIC	??_7XMLPrinter@tinyxml2@@6B@			; tinyxml2::XMLPrinter::`vftable'
PUBLIC	??_C@_02DPKJAMEF@?$CFd?$AA@			; `string'
PUBLIC	??_C@_02GMHACPFF@?$CFu?$AA@			; `string'
PUBLIC	??_C@_04HANFDJND@?$CF?48g?$AA@			; `string'
PUBLIC	??_C@_05CEKCMKAN@?$CF?417g?$AA@			; `string'
PUBLIC	??_C@_04LOAJBDKD@true?$AA@			; `string'
PUBLIC	??_C@_05LAPONLG@false?$AA@			; `string'
PUBLIC	??_C@_02NJPGOMH@?$CFf?$AA@			; `string'
PUBLIC	??_C@_03DLDNIBIK@?$CFlf?$AA@			; `string'
PUBLIC	??_C@_03MCHNFBAC@?$FN?$FN?$DO?$AA@		; `string'
PUBLIC	??_C@_03PNLDJJMO@?9?9?$DO?$AA@			; `string'
PUBLIC	??_C@_02GOEMJPDN@?$DP?$DO?$AA@			; `string'
PUBLIC	??_C@_01PPODPGHN@?$DO?$AA@			; `string'
PUBLIC	??_C@_0CD@MCGGMGEP@xml?5version?$DN?$CC1?40?$CC?5encoding?$DN?$CCUTF?9@ ; `string'
PUBLIC	??_C@_02JDPG@rb?$AA@				; `string'
PUBLIC	??_C@_01NOFIACDB@w?$AA@				; `string'
PUBLIC	??_C@_02DKCKIIND@?$CFs?$AA@			; `string'
PUBLIC	??_C@_0CO@CKABJOJH@XMLDocument?5error?5id?$DN?$CFd?5?8?$CFs?8?5str@ ; `string'
PUBLIC	??_C@_04PFOHOKJK@?5?5?5?5?$AA@			; `string'
PUBLIC	??_C@_02HAOIJKIC@?$CFc?$AA@			; `string'
PUBLIC	??_C@_04IKLFLEHL@?$CG?$CFs?$DL?$AA@		; `string'
PUBLIC	??_C@_0BC@CIAMHNHO@xml?5version?$DN?$CC1?40?$CC?$AA@ ; `string'
PUBLIC	??_C@_01EEMJAFIK@?6?$AA@			; `string'
PUBLIC	??_C@_03FONCMJME@?$DM?$CFs?$AA@			; `string'
PUBLIC	??_C@_05LCDLMEIP@?5?$CFs?$DN?$CC?$AA@		; `string'
PUBLIC	??_C@_01BJJEKLCA@?$CC?$AA@			; `string'
PUBLIC	??_C@_02HCGKDMEN@?1?$DO?$AA@			; `string'
PUBLIC	??_C@_05POIKLDCH@?$DM?1?$CFs?$DO?$AA@		; `string'
PUBLIC	??_C@_09PNDCPLLD@?$DM?$CB?9?9?$CFs?9?9?$DO?$AA@	; `string'
PUBLIC	??_C@_06OGCFEMAJ@?$DM?$DP?$CFs?$DP?$DO?$AA@	; `string'
PUBLIC	??_C@_05EBLKANEG@?$DM?$CB?$CFs?$DO?$AA@		; `string'
PUBLIC	??_R4XMLDocument@tinyxml2@@6B@			; tinyxml2::XMLDocument::`RTTI Complete Object Locator'
PUBLIC	??_R0?AVXMLDocument@tinyxml2@@@8		; tinyxml2::XMLDocument `RTTI Type Descriptor'
PUBLIC	??_R3XMLDocument@tinyxml2@@8			; tinyxml2::XMLDocument::`RTTI Class Hierarchy Descriptor'
PUBLIC	??_R2XMLDocument@tinyxml2@@8			; tinyxml2::XMLDocument::`RTTI Base Class Array'
PUBLIC	??_R1A@?0A@EA@XMLDocument@tinyxml2@@8		; tinyxml2::XMLDocument::`RTTI Base Class Descriptor at (0,-1,0,64)'
PUBLIC	??_R1A@?0A@EA@XMLNode@tinyxml2@@8		; tinyxml2::XMLNode::`RTTI Base Class Descriptor at (0,-1,0,64)'
PUBLIC	??_R0?AVXMLNode@tinyxml2@@@8			; tinyxml2::XMLNode `RTTI Type Descriptor'
PUBLIC	??_R3XMLNode@tinyxml2@@8			; tinyxml2::XMLNode::`RTTI Class Hierarchy Descriptor'
PUBLIC	??_R2XMLNode@tinyxml2@@8			; tinyxml2::XMLNode::`RTTI Base Class Array'
PUBLIC	??_R4XMLElement@tinyxml2@@6B@			; tinyxml2::XMLElement::`RTTI Complete Object Locator'
PUBLIC	??_R0?AVXMLElement@tinyxml2@@@8			; tinyxml2::XMLElement `RTTI Type Descriptor'
PUBLIC	??_R3XMLElement@tinyxml2@@8			; tinyxml2::XMLElement::`RTTI Class Hierarchy Descriptor'
PUBLIC	??_R2XMLElement@tinyxml2@@8			; tinyxml2::XMLElement::`RTTI Base Class Array'
PUBLIC	??_R1A@?0A@EA@XMLElement@tinyxml2@@8		; tinyxml2::XMLElement::`RTTI Base Class Descriptor at (0,-1,0,64)'
PUBLIC	??_R4XMLAttribute@tinyxml2@@6B@			; tinyxml2::XMLAttribute::`RTTI Complete Object Locator'
PUBLIC	??_R0?AVXMLAttribute@tinyxml2@@@8		; tinyxml2::XMLAttribute `RTTI Type Descriptor'
PUBLIC	??_R3XMLAttribute@tinyxml2@@8			; tinyxml2::XMLAttribute::`RTTI Class Hierarchy Descriptor'
PUBLIC	??_R2XMLAttribute@tinyxml2@@8			; tinyxml2::XMLAttribute::`RTTI Base Class Array'
PUBLIC	??_R1A@?0A@EA@XMLAttribute@tinyxml2@@8		; tinyxml2::XMLAttribute::`RTTI Base Class Descriptor at (0,-1,0,64)'
PUBLIC	??_R4XMLComment@tinyxml2@@6B@			; tinyxml2::XMLComment::`RTTI Complete Object Locator'
PUBLIC	??_R0?AVXMLComment@tinyxml2@@@8			; tinyxml2::XMLComment `RTTI Type Descriptor'
PUBLIC	??_R3XMLComment@tinyxml2@@8			; tinyxml2::XMLComment::`RTTI Class Hierarchy Descriptor'
PUBLIC	??_R2XMLComment@tinyxml2@@8			; tinyxml2::XMLComment::`RTTI Base Class Array'
PUBLIC	??_R1A@?0A@EA@XMLComment@tinyxml2@@8		; tinyxml2::XMLComment::`RTTI Base Class Descriptor at (0,-1,0,64)'
PUBLIC	??_R4XMLText@tinyxml2@@6B@			; tinyxml2::XMLText::`RTTI Complete Object Locator'
PUBLIC	??_R0?AVXMLText@tinyxml2@@@8			; tinyxml2::XMLText `RTTI Type Descriptor'
PUBLIC	??_R3XMLText@tinyxml2@@8			; tinyxml2::XMLText::`RTTI Class Hierarchy Descriptor'
PUBLIC	??_R2XMLText@tinyxml2@@8			; tinyxml2::XMLText::`RTTI Base Class Array'
PUBLIC	??_R1A@?0A@EA@XMLText@tinyxml2@@8		; tinyxml2::XMLText::`RTTI Base Class Descriptor at (0,-1,0,64)'
PUBLIC	??_R4XMLDeclaration@tinyxml2@@6B@		; tinyxml2::XMLDeclaration::`RTTI Complete Object Locator'
PUBLIC	??_R0?AVXMLDeclaration@tinyxml2@@@8		; tinyxml2::XMLDeclaration `RTTI Type Descriptor'
PUBLIC	??_R3XMLDeclaration@tinyxml2@@8			; tinyxml2::XMLDeclaration::`RTTI Class Hierarchy Descriptor'
PUBLIC	??_R2XMLDeclaration@tinyxml2@@8			; tinyxml2::XMLDeclaration::`RTTI Base Class Array'
PUBLIC	??_R1A@?0A@EA@XMLDeclaration@tinyxml2@@8	; tinyxml2::XMLDeclaration::`RTTI Base Class Descriptor at (0,-1,0,64)'
PUBLIC	??_R4XMLUnknown@tinyxml2@@6B@			; tinyxml2::XMLUnknown::`RTTI Complete Object Locator'
PUBLIC	??_R0?AVXMLUnknown@tinyxml2@@@8			; tinyxml2::XMLUnknown `RTTI Type Descriptor'
PUBLIC	??_R3XMLUnknown@tinyxml2@@8			; tinyxml2::XMLUnknown::`RTTI Class Hierarchy Descriptor'
PUBLIC	??_R2XMLUnknown@tinyxml2@@8			; tinyxml2::XMLUnknown::`RTTI Base Class Array'
PUBLIC	??_R1A@?0A@EA@XMLUnknown@tinyxml2@@8		; tinyxml2::XMLUnknown::`RTTI Base Class Descriptor at (0,-1,0,64)'
PUBLIC	??_R4XMLPrinter@tinyxml2@@6B@			; tinyxml2::XMLPrinter::`RTTI Complete Object Locator'
PUBLIC	??_R0?AVXMLPrinter@tinyxml2@@@8			; tinyxml2::XMLPrinter `RTTI Type Descriptor'
PUBLIC	??_R3XMLPrinter@tinyxml2@@8			; tinyxml2::XMLPrinter::`RTTI Class Hierarchy Descriptor'
PUBLIC	??_R2XMLPrinter@tinyxml2@@8			; tinyxml2::XMLPrinter::`RTTI Base Class Array'
PUBLIC	??_R1A@?0A@EA@XMLPrinter@tinyxml2@@8		; tinyxml2::XMLPrinter::`RTTI Base Class Descriptor at (0,-1,0,64)'
PUBLIC	??_R1A@?0A@EA@XMLVisitor@tinyxml2@@8		; tinyxml2::XMLVisitor::`RTTI Base Class Descriptor at (0,-1,0,64)'
PUBLIC	??_R0?AVXMLVisitor@tinyxml2@@@8			; tinyxml2::XMLVisitor `RTTI Type Descriptor'
PUBLIC	??_R3XMLVisitor@tinyxml2@@8			; tinyxml2::XMLVisitor::`RTTI Class Hierarchy Descriptor'
PUBLIC	??_R2XMLVisitor@tinyxml2@@8			; tinyxml2::XMLVisitor::`RTTI Base Class Array'
PUBLIC	??_R4MemPool@tinyxml2@@6B@			; tinyxml2::MemPool::`RTTI Complete Object Locator'
PUBLIC	??_R0?AVMemPool@tinyxml2@@@8			; tinyxml2::MemPool `RTTI Type Descriptor'
PUBLIC	??_R3MemPool@tinyxml2@@8			; tinyxml2::MemPool::`RTTI Class Hierarchy Descriptor'
PUBLIC	??_R2MemPool@tinyxml2@@8			; tinyxml2::MemPool::`RTTI Base Class Array'
PUBLIC	??_R1A@?0A@EA@MemPool@tinyxml2@@8		; tinyxml2::MemPool::`RTTI Base Class Descriptor at (0,-1,0,64)'
PUBLIC	??_R4XMLVisitor@tinyxml2@@6B@			; tinyxml2::XMLVisitor::`RTTI Complete Object Locator'
PUBLIC	??_R4XMLNode@tinyxml2@@6B@			; tinyxml2::XMLNode::`RTTI Complete Object Locator'
PUBLIC	??_R4?$MemPoolT@$0DE@@tinyxml2@@6B@		; tinyxml2::MemPoolT<52>::`RTTI Complete Object Locator'
PUBLIC	??_R0?AV?$MemPoolT@$0DE@@tinyxml2@@@8		; tinyxml2::MemPoolT<52> `RTTI Type Descriptor'
PUBLIC	??_R3?$MemPoolT@$0DE@@tinyxml2@@8		; tinyxml2::MemPoolT<52>::`RTTI Class Hierarchy Descriptor'
PUBLIC	??_R2?$MemPoolT@$0DE@@tinyxml2@@8		; tinyxml2::MemPoolT<52>::`RTTI Base Class Array'
PUBLIC	??_R1A@?0A@EA@?$MemPoolT@$0DE@@tinyxml2@@8	; tinyxml2::MemPoolT<52>::`RTTI Base Class Descriptor at (0,-1,0,64)'
PUBLIC	??_R4?$MemPoolT@$0CE@@tinyxml2@@6B@		; tinyxml2::MemPoolT<36>::`RTTI Complete Object Locator'
PUBLIC	??_R0?AV?$MemPoolT@$0CE@@tinyxml2@@@8		; tinyxml2::MemPoolT<36> `RTTI Type Descriptor'
PUBLIC	??_R3?$MemPoolT@$0CE@@tinyxml2@@8		; tinyxml2::MemPoolT<36>::`RTTI Class Hierarchy Descriptor'
PUBLIC	??_R2?$MemPoolT@$0CE@@tinyxml2@@8		; tinyxml2::MemPoolT<36>::`RTTI Base Class Array'
PUBLIC	??_R1A@?0A@EA@?$MemPoolT@$0CE@@tinyxml2@@8	; tinyxml2::MemPoolT<36>::`RTTI Base Class Descriptor at (0,-1,0,64)'
PUBLIC	??_R4?$MemPoolT@$0DA@@tinyxml2@@6B@		; tinyxml2::MemPoolT<48>::`RTTI Complete Object Locator'
PUBLIC	??_R0?AV?$MemPoolT@$0DA@@tinyxml2@@@8		; tinyxml2::MemPoolT<48> `RTTI Type Descriptor'
PUBLIC	??_R3?$MemPoolT@$0DA@@tinyxml2@@8		; tinyxml2::MemPoolT<48>::`RTTI Class Hierarchy Descriptor'
PUBLIC	??_R2?$MemPoolT@$0DA@@tinyxml2@@8		; tinyxml2::MemPoolT<48>::`RTTI Base Class Array'
PUBLIC	??_R1A@?0A@EA@?$MemPoolT@$0DA@@tinyxml2@@8	; tinyxml2::MemPoolT<48>::`RTTI Base Class Descriptor at (0,-1,0,64)'
PUBLIC	??_R4?$MemPoolT@$0CM@@tinyxml2@@6B@		; tinyxml2::MemPoolT<44>::`RTTI Complete Object Locator'
PUBLIC	??_R0?AV?$MemPoolT@$0CM@@tinyxml2@@@8		; tinyxml2::MemPoolT<44> `RTTI Type Descriptor'
PUBLIC	??_R3?$MemPoolT@$0CM@@tinyxml2@@8		; tinyxml2::MemPoolT<44>::`RTTI Class Hierarchy Descriptor'
PUBLIC	??_R2?$MemPoolT@$0CM@@tinyxml2@@8		; tinyxml2::MemPoolT<44>::`RTTI Base Class Array'
PUBLIC	??_R1A@?0A@EA@?$MemPoolT@$0CM@@tinyxml2@@8	; tinyxml2::MemPoolT<44>::`RTTI Base Class Descriptor at (0,-1,0,64)'
EXTRN	__purecall:PROC
EXTRN	??2@YAPAXI@Z:PROC				; operator new
EXTRN	??3@YAXPAX@Z:PROC				; operator delete
EXTRN	__imp__isalpha:PROC
EXTRN	__imp__isdigit:PROC
EXTRN	__imp__isspace:PROC
EXTRN	__imp____iob_func:PROC
EXTRN	__imp__fclose:PROC
EXTRN	__imp__ferror:PROC
EXTRN	__imp__fgetc:PROC
EXTRN	__imp__fopen_s:PROC
EXTRN	__imp__fread:PROC
EXTRN	__imp__fseek:PROC
EXTRN	__imp__ftell:PROC
EXTRN	__imp__printf:PROC
EXTRN	__imp__sscanf_s:PROC
EXTRN	__imp__vfprintf:PROC
EXTRN	__imp__vsnprintf_s:PROC
EXTRN	__imp___vscprintf:PROC
EXTRN	_memcpy:PROC
EXTRN	_memset:PROC
EXTRN	_strlen:PROC
EXTRN	__imp__strchr:PROC
EXTRN	__imp__strncmp:PROC
EXTRN	??_EMemPool@tinyxml2@@UAEPAXI@Z:PROC		; tinyxml2::MemPool::`vector deleting destructor'
EXTRN	??_EXMLVisitor@tinyxml2@@UAEPAXI@Z:PROC		; tinyxml2::XMLVisitor::`vector deleting destructor'
EXTRN	??_EXMLNode@tinyxml2@@MAEPAXI@Z:PROC		; tinyxml2::XMLNode::`vector deleting destructor'
EXTRN	??_EXMLText@tinyxml2@@MAEPAXI@Z:PROC		; tinyxml2::XMLText::`vector deleting destructor'
EXTRN	??_EXMLComment@tinyxml2@@MAEPAXI@Z:PROC		; tinyxml2::XMLComment::`vector deleting destructor'
EXTRN	??_EXMLDeclaration@tinyxml2@@MAEPAXI@Z:PROC	; tinyxml2::XMLDeclaration::`vector deleting destructor'
EXTRN	??_EXMLUnknown@tinyxml2@@MAEPAXI@Z:PROC		; tinyxml2::XMLUnknown::`vector deleting destructor'
EXTRN	??_EXMLAttribute@tinyxml2@@EAEPAXI@Z:PROC	; tinyxml2::XMLAttribute::`vector deleting destructor'
EXTRN	??_EXMLElement@tinyxml2@@EAEPAXI@Z:PROC		; tinyxml2::XMLElement::`vector deleting destructor'
EXTRN	??_E?$MemPoolT@$0DE@@tinyxml2@@UAEPAXI@Z:PROC	; tinyxml2::MemPoolT<52>::`vector deleting destructor'
EXTRN	??_E?$MemPoolT@$0CE@@tinyxml2@@UAEPAXI@Z:PROC	; tinyxml2::MemPoolT<36>::`vector deleting destructor'
EXTRN	??_E?$MemPoolT@$0DA@@tinyxml2@@UAEPAXI@Z:PROC	; tinyxml2::MemPoolT<48>::`vector deleting destructor'
EXTRN	??_E?$MemPoolT@$0CM@@tinyxml2@@UAEPAXI@Z:PROC	; tinyxml2::MemPoolT<44>::`vector deleting destructor'
EXTRN	??_EXMLDocument@tinyxml2@@UAEPAXI@Z:PROC	; tinyxml2::XMLDocument::`vector deleting destructor'
EXTRN	??_EXMLPrinter@tinyxml2@@UAEPAXI@Z:PROC		; tinyxml2::XMLPrinter::`vector deleting destructor'
EXTRN	??_V@YAXPAX@Z:PROC				; operator delete[]
EXTRN	??_U@YAPAXI@Z:PROC				; operator new[]
EXTRN	@_RTC_CheckStackVars@8:PROC
EXTRN	@__security_check_cookie@4:PROC
EXTRN	__RTC_CheckEsp:PROC
EXTRN	__RTC_InitBase:PROC
EXTRN	__RTC_Shutdown:PROC
EXTRN	___CxxFrameHandler3:PROC
EXTRN	_memset:PROC
EXTRN	??_7type_info@@6B@:QWORD			; type_info::`vftable'
EXTRN	___security_cookie:DWORD
EXTRN	__fltused:DWORD
;	COMDAT rtc$TMZ
rtc$TMZ	SEGMENT
__RTC_Shutdown.rtc$TMZ DD FLAT:__RTC_Shutdown
rtc$TMZ	ENDS
;	COMDAT rtc$IMZ
rtc$IMZ	SEGMENT
__RTC_InitBase.rtc$IMZ DD FLAT:__RTC_InitBase
rtc$IMZ	ENDS
;	COMDAT ??_R1A@?0A@EA@?$MemPoolT@$0CM@@tinyxml2@@8
rdata$r	SEGMENT
??_R1A@?0A@EA@?$MemPoolT@$0CM@@tinyxml2@@8 DD FLAT:??_R0?AV?$MemPoolT@$0CM@@tinyxml2@@@8 ; tinyxml2::MemPoolT<44>::`RTTI Base Class Descriptor at (0,-1,0,64)'
	DD	01H
	DD	00H
	DD	0ffffffffH
	DD	00H
	DD	040H
	DD	FLAT:??_R3?$MemPoolT@$0CM@@tinyxml2@@8
rdata$r	ENDS
;	COMDAT ??_R2?$MemPoolT@$0CM@@tinyxml2@@8
rdata$r	SEGMENT
??_R2?$MemPoolT@$0CM@@tinyxml2@@8 DD FLAT:??_R1A@?0A@EA@?$MemPoolT@$0CM@@tinyxml2@@8 ; tinyxml2::MemPoolT<44>::`RTTI Base Class Array'
	DD	FLAT:??_R1A@?0A@EA@MemPool@tinyxml2@@8
rdata$r	ENDS
;	COMDAT ??_R3?$MemPoolT@$0CM@@tinyxml2@@8
rdata$r	SEGMENT
??_R3?$MemPoolT@$0CM@@tinyxml2@@8 DD 00H		; tinyxml2::MemPoolT<44>::`RTTI Class Hierarchy Descriptor'
	DD	00H
	DD	02H
	DD	FLAT:??_R2?$MemPoolT@$0CM@@tinyxml2@@8
rdata$r	ENDS
;	COMDAT ??_R0?AV?$MemPoolT@$0CM@@tinyxml2@@@8
_DATA	SEGMENT
??_R0?AV?$MemPoolT@$0CM@@tinyxml2@@@8 DD FLAT:??_7type_info@@6B@ ; tinyxml2::MemPoolT<44> `RTTI Type Descriptor'
	DD	00H
	DB	'.?AV?$MemPoolT@$0CM@@tinyxml2@@', 00H
_DATA	ENDS
;	COMDAT ??_R4?$MemPoolT@$0CM@@tinyxml2@@6B@
rdata$r	SEGMENT
??_R4?$MemPoolT@$0CM@@tinyxml2@@6B@ DD 00H		; tinyxml2::MemPoolT<44>::`RTTI Complete Object Locator'
	DD	00H
	DD	00H
	DD	FLAT:??_R0?AV?$MemPoolT@$0CM@@tinyxml2@@@8
	DD	FLAT:??_R3?$MemPoolT@$0CM@@tinyxml2@@8
rdata$r	ENDS
;	COMDAT ??_R1A@?0A@EA@?$MemPoolT@$0DA@@tinyxml2@@8
rdata$r	SEGMENT
??_R1A@?0A@EA@?$MemPoolT@$0DA@@tinyxml2@@8 DD FLAT:??_R0?AV?$MemPoolT@$0DA@@tinyxml2@@@8 ; tinyxml2::MemPoolT<48>::`RTTI Base Class Descriptor at (0,-1,0,64)'
	DD	01H
	DD	00H
	DD	0ffffffffH
	DD	00H
	DD	040H
	DD	FLAT:??_R3?$MemPoolT@$0DA@@tinyxml2@@8
rdata$r	ENDS
;	COMDAT ??_R2?$MemPoolT@$0DA@@tinyxml2@@8
rdata$r	SEGMENT
??_R2?$MemPoolT@$0DA@@tinyxml2@@8 DD FLAT:??_R1A@?0A@EA@?$MemPoolT@$0DA@@tinyxml2@@8 ; tinyxml2::MemPoolT<48>::`RTTI Base Class Array'
	DD	FLAT:??_R1A@?0A@EA@MemPool@tinyxml2@@8
rdata$r	ENDS
;	COMDAT ??_R3?$MemPoolT@$0DA@@tinyxml2@@8
rdata$r	SEGMENT
??_R3?$MemPoolT@$0DA@@tinyxml2@@8 DD 00H		; tinyxml2::MemPoolT<48>::`RTTI Class Hierarchy Descriptor'
	DD	00H
	DD	02H
	DD	FLAT:??_R2?$MemPoolT@$0DA@@tinyxml2@@8
rdata$r	ENDS
;	COMDAT ??_R0?AV?$MemPoolT@$0DA@@tinyxml2@@@8
_DATA	SEGMENT
??_R0?AV?$MemPoolT@$0DA@@tinyxml2@@@8 DD FLAT:??_7type_info@@6B@ ; tinyxml2::MemPoolT<48> `RTTI Type Descriptor'
	DD	00H
	DB	'.?AV?$MemPoolT@$0DA@@tinyxml2@@', 00H
_DATA	ENDS
;	COMDAT ??_R4?$MemPoolT@$0DA@@tinyxml2@@6B@
rdata$r	SEGMENT
??_R4?$MemPoolT@$0DA@@tinyxml2@@6B@ DD 00H		; tinyxml2::MemPoolT<48>::`RTTI Complete Object Locator'
	DD	00H
	DD	00H
	DD	FLAT:??_R0?AV?$MemPoolT@$0DA@@tinyxml2@@@8
	DD	FLAT:??_R3?$MemPoolT@$0DA@@tinyxml2@@8
rdata$r	ENDS
;	COMDAT ??_R1A@?0A@EA@?$MemPoolT@$0CE@@tinyxml2@@8
rdata$r	SEGMENT
??_R1A@?0A@EA@?$MemPoolT@$0CE@@tinyxml2@@8 DD FLAT:??_R0?AV?$MemPoolT@$0CE@@tinyxml2@@@8 ; tinyxml2::MemPoolT<36>::`RTTI Base Class Descriptor at (0,-1,0,64)'
	DD	01H
	DD	00H
	DD	0ffffffffH
	DD	00H
	DD	040H
	DD	FLAT:??_R3?$MemPoolT@$0CE@@tinyxml2@@8
rdata$r	ENDS
;	COMDAT ??_R2?$MemPoolT@$0CE@@tinyxml2@@8
rdata$r	SEGMENT
??_R2?$MemPoolT@$0CE@@tinyxml2@@8 DD FLAT:??_R1A@?0A@EA@?$MemPoolT@$0CE@@tinyxml2@@8 ; tinyxml2::MemPoolT<36>::`RTTI Base Class Array'
	DD	FLAT:??_R1A@?0A@EA@MemPool@tinyxml2@@8
rdata$r	ENDS
;	COMDAT ??_R3?$MemPoolT@$0CE@@tinyxml2@@8
rdata$r	SEGMENT
??_R3?$MemPoolT@$0CE@@tinyxml2@@8 DD 00H		; tinyxml2::MemPoolT<36>::`RTTI Class Hierarchy Descriptor'
	DD	00H
	DD	02H
	DD	FLAT:??_R2?$MemPoolT@$0CE@@tinyxml2@@8
rdata$r	ENDS
;	COMDAT ??_R0?AV?$MemPoolT@$0CE@@tinyxml2@@@8
_DATA	SEGMENT
??_R0?AV?$MemPoolT@$0CE@@tinyxml2@@@8 DD FLAT:??_7type_info@@6B@ ; tinyxml2::MemPoolT<36> `RTTI Type Descriptor'
	DD	00H
	DB	'.?AV?$MemPoolT@$0CE@@tinyxml2@@', 00H
_DATA	ENDS
;	COMDAT ??_R4?$MemPoolT@$0CE@@tinyxml2@@6B@
rdata$r	SEGMENT
??_R4?$MemPoolT@$0CE@@tinyxml2@@6B@ DD 00H		; tinyxml2::MemPoolT<36>::`RTTI Complete Object Locator'
	DD	00H
	DD	00H
	DD	FLAT:??_R0?AV?$MemPoolT@$0CE@@tinyxml2@@@8
	DD	FLAT:??_R3?$MemPoolT@$0CE@@tinyxml2@@8
rdata$r	ENDS
;	COMDAT ??_R1A@?0A@EA@?$MemPoolT@$0DE@@tinyxml2@@8
rdata$r	SEGMENT
??_R1A@?0A@EA@?$MemPoolT@$0DE@@tinyxml2@@8 DD FLAT:??_R0?AV?$MemPoolT@$0DE@@tinyxml2@@@8 ; tinyxml2::MemPoolT<52>::`RTTI Base Class Descriptor at (0,-1,0,64)'
	DD	01H
	DD	00H
	DD	0ffffffffH
	DD	00H
	DD	040H
	DD	FLAT:??_R3?$MemPoolT@$0DE@@tinyxml2@@8
rdata$r	ENDS
;	COMDAT ??_R2?$MemPoolT@$0DE@@tinyxml2@@8
rdata$r	SEGMENT
??_R2?$MemPoolT@$0DE@@tinyxml2@@8 DD FLAT:??_R1A@?0A@EA@?$MemPoolT@$0DE@@tinyxml2@@8 ; tinyxml2::MemPoolT<52>::`RTTI Base Class Array'
	DD	FLAT:??_R1A@?0A@EA@MemPool@tinyxml2@@8
rdata$r	ENDS
;	COMDAT ??_R3?$MemPoolT@$0DE@@tinyxml2@@8
rdata$r	SEGMENT
??_R3?$MemPoolT@$0DE@@tinyxml2@@8 DD 00H		; tinyxml2::MemPoolT<52>::`RTTI Class Hierarchy Descriptor'
	DD	00H
	DD	02H
	DD	FLAT:??_R2?$MemPoolT@$0DE@@tinyxml2@@8
rdata$r	ENDS
;	COMDAT ??_R0?AV?$MemPoolT@$0DE@@tinyxml2@@@8
_DATA	SEGMENT
??_R0?AV?$MemPoolT@$0DE@@tinyxml2@@@8 DD FLAT:??_7type_info@@6B@ ; tinyxml2::MemPoolT<52> `RTTI Type Descriptor'
	DD	00H
	DB	'.?AV?$MemPoolT@$0DE@@tinyxml2@@', 00H
_DATA	ENDS
;	COMDAT ??_R4?$MemPoolT@$0DE@@tinyxml2@@6B@
rdata$r	SEGMENT
??_R4?$MemPoolT@$0DE@@tinyxml2@@6B@ DD 00H		; tinyxml2::MemPoolT<52>::`RTTI Complete Object Locator'
	DD	00H
	DD	00H
	DD	FLAT:??_R0?AV?$MemPoolT@$0DE@@tinyxml2@@@8
	DD	FLAT:??_R3?$MemPoolT@$0DE@@tinyxml2@@8
rdata$r	ENDS
;	COMDAT ??_R4XMLNode@tinyxml2@@6B@
rdata$r	SEGMENT
??_R4XMLNode@tinyxml2@@6B@ DD 00H			; tinyxml2::XMLNode::`RTTI Complete Object Locator'
	DD	00H
	DD	00H
	DD	FLAT:??_R0?AVXMLNode@tinyxml2@@@8
	DD	FLAT:??_R3XMLNode@tinyxml2@@8
rdata$r	ENDS
;	COMDAT ??_R4XMLVisitor@tinyxml2@@6B@
rdata$r	SEGMENT
??_R4XMLVisitor@tinyxml2@@6B@ DD 00H			; tinyxml2::XMLVisitor::`RTTI Complete Object Locator'
	DD	00H
	DD	00H
	DD	FLAT:??_R0?AVXMLVisitor@tinyxml2@@@8
	DD	FLAT:??_R3XMLVisitor@tinyxml2@@8
rdata$r	ENDS
;	COMDAT ??_R1A@?0A@EA@MemPool@tinyxml2@@8
rdata$r	SEGMENT
??_R1A@?0A@EA@MemPool@tinyxml2@@8 DD FLAT:??_R0?AVMemPool@tinyxml2@@@8 ; tinyxml2::MemPool::`RTTI Base Class Descriptor at (0,-1,0,64)'
	DD	00H
	DD	00H
	DD	0ffffffffH
	DD	00H
	DD	040H
	DD	FLAT:??_R3MemPool@tinyxml2@@8
rdata$r	ENDS
;	COMDAT ??_R2MemPool@tinyxml2@@8
rdata$r	SEGMENT
??_R2MemPool@tinyxml2@@8 DD FLAT:??_R1A@?0A@EA@MemPool@tinyxml2@@8 ; tinyxml2::MemPool::`RTTI Base Class Array'
rdata$r	ENDS
;	COMDAT ??_R3MemPool@tinyxml2@@8
rdata$r	SEGMENT
??_R3MemPool@tinyxml2@@8 DD 00H				; tinyxml2::MemPool::`RTTI Class Hierarchy Descriptor'
	DD	00H
	DD	01H
	DD	FLAT:??_R2MemPool@tinyxml2@@8
rdata$r	ENDS
;	COMDAT ??_R0?AVMemPool@tinyxml2@@@8
_DATA	SEGMENT
??_R0?AVMemPool@tinyxml2@@@8 DD FLAT:??_7type_info@@6B@	; tinyxml2::MemPool `RTTI Type Descriptor'
	DD	00H
	DB	'.?AVMemPool@tinyxml2@@', 00H
_DATA	ENDS
;	COMDAT ??_R4MemPool@tinyxml2@@6B@
rdata$r	SEGMENT
??_R4MemPool@tinyxml2@@6B@ DD 00H			; tinyxml2::MemPool::`RTTI Complete Object Locator'
	DD	00H
	DD	00H
	DD	FLAT:??_R0?AVMemPool@tinyxml2@@@8
	DD	FLAT:??_R3MemPool@tinyxml2@@8
rdata$r	ENDS
;	COMDAT ??_R2XMLVisitor@tinyxml2@@8
rdata$r	SEGMENT
??_R2XMLVisitor@tinyxml2@@8 DD FLAT:??_R1A@?0A@EA@XMLVisitor@tinyxml2@@8 ; tinyxml2::XMLVisitor::`RTTI Base Class Array'
rdata$r	ENDS
;	COMDAT ??_R3XMLVisitor@tinyxml2@@8
rdata$r	SEGMENT
??_R3XMLVisitor@tinyxml2@@8 DD 00H			; tinyxml2::XMLVisitor::`RTTI Class Hierarchy Descriptor'
	DD	00H
	DD	01H
	DD	FLAT:??_R2XMLVisitor@tinyxml2@@8
rdata$r	ENDS
;	COMDAT ??_R0?AVXMLVisitor@tinyxml2@@@8
_DATA	SEGMENT
??_R0?AVXMLVisitor@tinyxml2@@@8 DD FLAT:??_7type_info@@6B@ ; tinyxml2::XMLVisitor `RTTI Type Descriptor'
	DD	00H
	DB	'.?AVXMLVisitor@tinyxml2@@', 00H
_DATA	ENDS
;	COMDAT ??_R1A@?0A@EA@XMLVisitor@tinyxml2@@8
rdata$r	SEGMENT
??_R1A@?0A@EA@XMLVisitor@tinyxml2@@8 DD FLAT:??_R0?AVXMLVisitor@tinyxml2@@@8 ; tinyxml2::XMLVisitor::`RTTI Base Class Descriptor at (0,-1,0,64)'
	DD	00H
	DD	00H
	DD	0ffffffffH
	DD	00H
	DD	040H
	DD	FLAT:??_R3XMLVisitor@tinyxml2@@8
rdata$r	ENDS
;	COMDAT ??_R1A@?0A@EA@XMLPrinter@tinyxml2@@8
rdata$r	SEGMENT
??_R1A@?0A@EA@XMLPrinter@tinyxml2@@8 DD FLAT:??_R0?AVXMLPrinter@tinyxml2@@@8 ; tinyxml2::XMLPrinter::`RTTI Base Class Descriptor at (0,-1,0,64)'
	DD	01H
	DD	00H
	DD	0ffffffffH
	DD	00H
	DD	040H
	DD	FLAT:??_R3XMLPrinter@tinyxml2@@8
rdata$r	ENDS
;	COMDAT ??_R2XMLPrinter@tinyxml2@@8
rdata$r	SEGMENT
??_R2XMLPrinter@tinyxml2@@8 DD FLAT:??_R1A@?0A@EA@XMLPrinter@tinyxml2@@8 ; tinyxml2::XMLPrinter::`RTTI Base Class Array'
	DD	FLAT:??_R1A@?0A@EA@XMLVisitor@tinyxml2@@8
rdata$r	ENDS
;	COMDAT ??_R3XMLPrinter@tinyxml2@@8
rdata$r	SEGMENT
??_R3XMLPrinter@tinyxml2@@8 DD 00H			; tinyxml2::XMLPrinter::`RTTI Class Hierarchy Descriptor'
	DD	00H
	DD	02H
	DD	FLAT:??_R2XMLPrinter@tinyxml2@@8
rdata$r	ENDS
;	COMDAT ??_R0?AVXMLPrinter@tinyxml2@@@8
_DATA	SEGMENT
??_R0?AVXMLPrinter@tinyxml2@@@8 DD FLAT:??_7type_info@@6B@ ; tinyxml2::XMLPrinter `RTTI Type Descriptor'
	DD	00H
	DB	'.?AVXMLPrinter@tinyxml2@@', 00H
_DATA	ENDS
;	COMDAT ??_R4XMLPrinter@tinyxml2@@6B@
rdata$r	SEGMENT
??_R4XMLPrinter@tinyxml2@@6B@ DD 00H			; tinyxml2::XMLPrinter::`RTTI Complete Object Locator'
	DD	00H
	DD	00H
	DD	FLAT:??_R0?AVXMLPrinter@tinyxml2@@@8
	DD	FLAT:??_R3XMLPrinter@tinyxml2@@8
rdata$r	ENDS
;	COMDAT ??_R1A@?0A@EA@XMLUnknown@tinyxml2@@8
rdata$r	SEGMENT
??_R1A@?0A@EA@XMLUnknown@tinyxml2@@8 DD FLAT:??_R0?AVXMLUnknown@tinyxml2@@@8 ; tinyxml2::XMLUnknown::`RTTI Base Class Descriptor at (0,-1,0,64)'
	DD	01H
	DD	00H
	DD	0ffffffffH
	DD	00H
	DD	040H
	DD	FLAT:??_R3XMLUnknown@tinyxml2@@8
rdata$r	ENDS
;	COMDAT ??_R2XMLUnknown@tinyxml2@@8
rdata$r	SEGMENT
??_R2XMLUnknown@tinyxml2@@8 DD FLAT:??_R1A@?0A@EA@XMLUnknown@tinyxml2@@8 ; tinyxml2::XMLUnknown::`RTTI Base Class Array'
	DD	FLAT:??_R1A@?0A@EA@XMLNode@tinyxml2@@8
rdata$r	ENDS
;	COMDAT ??_R3XMLUnknown@tinyxml2@@8
rdata$r	SEGMENT
??_R3XMLUnknown@tinyxml2@@8 DD 00H			; tinyxml2::XMLUnknown::`RTTI Class Hierarchy Descriptor'
	DD	00H
	DD	02H
	DD	FLAT:??_R2XMLUnknown@tinyxml2@@8
rdata$r	ENDS
;	COMDAT ??_R0?AVXMLUnknown@tinyxml2@@@8
_DATA	SEGMENT
??_R0?AVXMLUnknown@tinyxml2@@@8 DD FLAT:??_7type_info@@6B@ ; tinyxml2::XMLUnknown `RTTI Type Descriptor'
	DD	00H
	DB	'.?AVXMLUnknown@tinyxml2@@', 00H
_DATA	ENDS
;	COMDAT ??_R4XMLUnknown@tinyxml2@@6B@
rdata$r	SEGMENT
??_R4XMLUnknown@tinyxml2@@6B@ DD 00H			; tinyxml2::XMLUnknown::`RTTI Complete Object Locator'
	DD	00H
	DD	00H
	DD	FLAT:??_R0?AVXMLUnknown@tinyxml2@@@8
	DD	FLAT:??_R3XMLUnknown@tinyxml2@@8
rdata$r	ENDS
;	COMDAT ??_R1A@?0A@EA@XMLDeclaration@tinyxml2@@8
rdata$r	SEGMENT
??_R1A@?0A@EA@XMLDeclaration@tinyxml2@@8 DD FLAT:??_R0?AVXMLDeclaration@tinyxml2@@@8 ; tinyxml2::XMLDeclaration::`RTTI Base Class Descriptor at (0,-1,0,64)'
	DD	01H
	DD	00H
	DD	0ffffffffH
	DD	00H
	DD	040H
	DD	FLAT:??_R3XMLDeclaration@tinyxml2@@8
rdata$r	ENDS
;	COMDAT ??_R2XMLDeclaration@tinyxml2@@8
rdata$r	SEGMENT
??_R2XMLDeclaration@tinyxml2@@8 DD FLAT:??_R1A@?0A@EA@XMLDeclaration@tinyxml2@@8 ; tinyxml2::XMLDeclaration::`RTTI Base Class Array'
	DD	FLAT:??_R1A@?0A@EA@XMLNode@tinyxml2@@8
rdata$r	ENDS
;	COMDAT ??_R3XMLDeclaration@tinyxml2@@8
rdata$r	SEGMENT
??_R3XMLDeclaration@tinyxml2@@8 DD 00H			; tinyxml2::XMLDeclaration::`RTTI Class Hierarchy Descriptor'
	DD	00H
	DD	02H
	DD	FLAT:??_R2XMLDeclaration@tinyxml2@@8
rdata$r	ENDS
;	COMDAT ??_R0?AVXMLDeclaration@tinyxml2@@@8
_DATA	SEGMENT
??_R0?AVXMLDeclaration@tinyxml2@@@8 DD FLAT:??_7type_info@@6B@ ; tinyxml2::XMLDeclaration `RTTI Type Descriptor'
	DD	00H
	DB	'.?AVXMLDeclaration@tinyxml2@@', 00H
_DATA	ENDS
;	COMDAT ??_R4XMLDeclaration@tinyxml2@@6B@
rdata$r	SEGMENT
??_R4XMLDeclaration@tinyxml2@@6B@ DD 00H		; tinyxml2::XMLDeclaration::`RTTI Complete Object Locator'
	DD	00H
	DD	00H
	DD	FLAT:??_R0?AVXMLDeclaration@tinyxml2@@@8
	DD	FLAT:??_R3XMLDeclaration@tinyxml2@@8
rdata$r	ENDS
;	COMDAT ??_R1A@?0A@EA@XMLText@tinyxml2@@8
rdata$r	SEGMENT
??_R1A@?0A@EA@XMLText@tinyxml2@@8 DD FLAT:??_R0?AVXMLText@tinyxml2@@@8 ; tinyxml2::XMLText::`RTTI Base Class Descriptor at (0,-1,0,64)'
	DD	01H
	DD	00H
	DD	0ffffffffH
	DD	00H
	DD	040H
	DD	FLAT:??_R3XMLText@tinyxml2@@8
rdata$r	ENDS
;	COMDAT ??_R2XMLText@tinyxml2@@8
rdata$r	SEGMENT
??_R2XMLText@tinyxml2@@8 DD FLAT:??_R1A@?0A@EA@XMLText@tinyxml2@@8 ; tinyxml2::XMLText::`RTTI Base Class Array'
	DD	FLAT:??_R1A@?0A@EA@XMLNode@tinyxml2@@8
rdata$r	ENDS
;	COMDAT ??_R3XMLText@tinyxml2@@8
rdata$r	SEGMENT
??_R3XMLText@tinyxml2@@8 DD 00H				; tinyxml2::XMLText::`RTTI Class Hierarchy Descriptor'
	DD	00H
	DD	02H
	DD	FLAT:??_R2XMLText@tinyxml2@@8
rdata$r	ENDS
;	COMDAT ??_R0?AVXMLText@tinyxml2@@@8
_DATA	SEGMENT
??_R0?AVXMLText@tinyxml2@@@8 DD FLAT:??_7type_info@@6B@	; tinyxml2::XMLText `RTTI Type Descriptor'
	DD	00H
	DB	'.?AVXMLText@tinyxml2@@', 00H
_DATA	ENDS
;	COMDAT ??_R4XMLText@tinyxml2@@6B@
rdata$r	SEGMENT
??_R4XMLText@tinyxml2@@6B@ DD 00H			; tinyxml2::XMLText::`RTTI Complete Object Locator'
	DD	00H
	DD	00H
	DD	FLAT:??_R0?AVXMLText@tinyxml2@@@8
	DD	FLAT:??_R3XMLText@tinyxml2@@8
rdata$r	ENDS
;	COMDAT ??_R1A@?0A@EA@XMLComment@tinyxml2@@8
rdata$r	SEGMENT
??_R1A@?0A@EA@XMLComment@tinyxml2@@8 DD FLAT:??_R0?AVXMLComment@tinyxml2@@@8 ; tinyxml2::XMLComment::`RTTI Base Class Descriptor at (0,-1,0,64)'
	DD	01H
	DD	00H
	DD	0ffffffffH
	DD	00H
	DD	040H
	DD	FLAT:??_R3XMLComment@tinyxml2@@8
rdata$r	ENDS
;	COMDAT ??_R2XMLComment@tinyxml2@@8
rdata$r	SEGMENT
??_R2XMLComment@tinyxml2@@8 DD FLAT:??_R1A@?0A@EA@XMLComment@tinyxml2@@8 ; tinyxml2::XMLComment::`RTTI Base Class Array'
	DD	FLAT:??_R1A@?0A@EA@XMLNode@tinyxml2@@8
rdata$r	ENDS
;	COMDAT ??_R3XMLComment@tinyxml2@@8
rdata$r	SEGMENT
??_R3XMLComment@tinyxml2@@8 DD 00H			; tinyxml2::XMLComment::`RTTI Class Hierarchy Descriptor'
	DD	00H
	DD	02H
	DD	FLAT:??_R2XMLComment@tinyxml2@@8
rdata$r	ENDS
;	COMDAT ??_R0?AVXMLComment@tinyxml2@@@8
_DATA	SEGMENT
??_R0?AVXMLComment@tinyxml2@@@8 DD FLAT:??_7type_info@@6B@ ; tinyxml2::XMLComment `RTTI Type Descriptor'
	DD	00H
	DB	'.?AVXMLComment@tinyxml2@@', 00H
_DATA	ENDS
;	COMDAT ??_R4XMLComment@tinyxml2@@6B@
rdata$r	SEGMENT
??_R4XMLComment@tinyxml2@@6B@ DD 00H			; tinyxml2::XMLComment::`RTTI Complete Object Locator'
	DD	00H
	DD	00H
	DD	FLAT:??_R0?AVXMLComment@tinyxml2@@@8
	DD	FLAT:??_R3XMLComment@tinyxml2@@8
rdata$r	ENDS
;	COMDAT ??_R1A@?0A@EA@XMLAttribute@tinyxml2@@8
rdata$r	SEGMENT
??_R1A@?0A@EA@XMLAttribute@tinyxml2@@8 DD FLAT:??_R0?AVXMLAttribute@tinyxml2@@@8 ; tinyxml2::XMLAttribute::`RTTI Base Class Descriptor at (0,-1,0,64)'
	DD	00H
	DD	00H
	DD	0ffffffffH
	DD	00H
	DD	040H
	DD	FLAT:??_R3XMLAttribute@tinyxml2@@8
rdata$r	ENDS
;	COMDAT ??_R2XMLAttribute@tinyxml2@@8
rdata$r	SEGMENT
??_R2XMLAttribute@tinyxml2@@8 DD FLAT:??_R1A@?0A@EA@XMLAttribute@tinyxml2@@8 ; tinyxml2::XMLAttribute::`RTTI Base Class Array'
rdata$r	ENDS
;	COMDAT ??_R3XMLAttribute@tinyxml2@@8
rdata$r	SEGMENT
??_R3XMLAttribute@tinyxml2@@8 DD 00H			; tinyxml2::XMLAttribute::`RTTI Class Hierarchy Descriptor'
	DD	00H
	DD	01H
	DD	FLAT:??_R2XMLAttribute@tinyxml2@@8
rdata$r	ENDS
;	COMDAT ??_R0?AVXMLAttribute@tinyxml2@@@8
_DATA	SEGMENT
??_R0?AVXMLAttribute@tinyxml2@@@8 DD FLAT:??_7type_info@@6B@ ; tinyxml2::XMLAttribute `RTTI Type Descriptor'
	DD	00H
	DB	'.?AVXMLAttribute@tinyxml2@@', 00H
_DATA	ENDS
;	COMDAT ??_R4XMLAttribute@tinyxml2@@6B@
rdata$r	SEGMENT
??_R4XMLAttribute@tinyxml2@@6B@ DD 00H			; tinyxml2::XMLAttribute::`RTTI Complete Object Locator'
	DD	00H
	DD	00H
	DD	FLAT:??_R0?AVXMLAttribute@tinyxml2@@@8
	DD	FLAT:??_R3XMLAttribute@tinyxml2@@8
rdata$r	ENDS
;	COMDAT ??_R1A@?0A@EA@XMLElement@tinyxml2@@8
rdata$r	SEGMENT
??_R1A@?0A@EA@XMLElement@tinyxml2@@8 DD FLAT:??_R0?AVXMLElement@tinyxml2@@@8 ; tinyxml2::XMLElement::`RTTI Base Class Descriptor at (0,-1,0,64)'
	DD	01H
	DD	00H
	DD	0ffffffffH
	DD	00H
	DD	040H
	DD	FLAT:??_R3XMLElement@tinyxml2@@8
rdata$r	ENDS
;	COMDAT ??_R2XMLElement@tinyxml2@@8
rdata$r	SEGMENT
??_R2XMLElement@tinyxml2@@8 DD FLAT:??_R1A@?0A@EA@XMLElement@tinyxml2@@8 ; tinyxml2::XMLElement::`RTTI Base Class Array'
	DD	FLAT:??_R1A@?0A@EA@XMLNode@tinyxml2@@8
rdata$r	ENDS
;	COMDAT ??_R3XMLElement@tinyxml2@@8
rdata$r	SEGMENT
??_R3XMLElement@tinyxml2@@8 DD 00H			; tinyxml2::XMLElement::`RTTI Class Hierarchy Descriptor'
	DD	00H
	DD	02H
	DD	FLAT:??_R2XMLElement@tinyxml2@@8
rdata$r	ENDS
;	COMDAT ??_R0?AVXMLElement@tinyxml2@@@8
_DATA	SEGMENT
??_R0?AVXMLElement@tinyxml2@@@8 DD FLAT:??_7type_info@@6B@ ; tinyxml2::XMLElement `RTTI Type Descriptor'
	DD	00H
	DB	'.?AVXMLElement@tinyxml2@@', 00H
_DATA	ENDS
;	COMDAT ??_R4XMLElement@tinyxml2@@6B@
rdata$r	SEGMENT
??_R4XMLElement@tinyxml2@@6B@ DD 00H			; tinyxml2::XMLElement::`RTTI Complete Object Locator'
	DD	00H
	DD	00H
	DD	FLAT:??_R0?AVXMLElement@tinyxml2@@@8
	DD	FLAT:??_R3XMLElement@tinyxml2@@8
rdata$r	ENDS
;	COMDAT ??_R2XMLNode@tinyxml2@@8
rdata$r	SEGMENT
??_R2XMLNode@tinyxml2@@8 DD FLAT:??_R1A@?0A@EA@XMLNode@tinyxml2@@8 ; tinyxml2::XMLNode::`RTTI Base Class Array'
rdata$r	ENDS
;	COMDAT ??_R3XMLNode@tinyxml2@@8
rdata$r	SEGMENT
??_R3XMLNode@tinyxml2@@8 DD 00H				; tinyxml2::XMLNode::`RTTI Class Hierarchy Descriptor'
	DD	00H
	DD	01H
	DD	FLAT:??_R2XMLNode@tinyxml2@@8
rdata$r	ENDS
;	COMDAT ??_R0?AVXMLNode@tinyxml2@@@8
_DATA	SEGMENT
??_R0?AVXMLNode@tinyxml2@@@8 DD FLAT:??_7type_info@@6B@	; tinyxml2::XMLNode `RTTI Type Descriptor'
	DD	00H
	DB	'.?AVXMLNode@tinyxml2@@', 00H
_DATA	ENDS
;	COMDAT ??_R1A@?0A@EA@XMLNode@tinyxml2@@8
rdata$r	SEGMENT
??_R1A@?0A@EA@XMLNode@tinyxml2@@8 DD FLAT:??_R0?AVXMLNode@tinyxml2@@@8 ; tinyxml2::XMLNode::`RTTI Base Class Descriptor at (0,-1,0,64)'
	DD	00H
	DD	00H
	DD	0ffffffffH
	DD	00H
	DD	040H
	DD	FLAT:??_R3XMLNode@tinyxml2@@8
rdata$r	ENDS
;	COMDAT ??_R1A@?0A@EA@XMLDocument@tinyxml2@@8
rdata$r	SEGMENT
??_R1A@?0A@EA@XMLDocument@tinyxml2@@8 DD FLAT:??_R0?AVXMLDocument@tinyxml2@@@8 ; tinyxml2::XMLDocument::`RTTI Base Class Descriptor at (0,-1,0,64)'
	DD	01H
	DD	00H
	DD	0ffffffffH
	DD	00H
	DD	040H
	DD	FLAT:??_R3XMLDocument@tinyxml2@@8
rdata$r	ENDS
;	COMDAT ??_R2XMLDocument@tinyxml2@@8
rdata$r	SEGMENT
??_R2XMLDocument@tinyxml2@@8 DD FLAT:??_R1A@?0A@EA@XMLDocument@tinyxml2@@8 ; tinyxml2::XMLDocument::`RTTI Base Class Array'
	DD	FLAT:??_R1A@?0A@EA@XMLNode@tinyxml2@@8
rdata$r	ENDS
;	COMDAT ??_R3XMLDocument@tinyxml2@@8
rdata$r	SEGMENT
??_R3XMLDocument@tinyxml2@@8 DD 00H			; tinyxml2::XMLDocument::`RTTI Class Hierarchy Descriptor'
	DD	00H
	DD	02H
	DD	FLAT:??_R2XMLDocument@tinyxml2@@8
rdata$r	ENDS
;	COMDAT ??_R0?AVXMLDocument@tinyxml2@@@8
_DATA	SEGMENT
??_R0?AVXMLDocument@tinyxml2@@@8 DD FLAT:??_7type_info@@6B@ ; tinyxml2::XMLDocument `RTTI Type Descriptor'
	DD	00H
	DB	'.?AVXMLDocument@tinyxml2@@', 00H
_DATA	ENDS
;	COMDAT ??_R4XMLDocument@tinyxml2@@6B@
rdata$r	SEGMENT
??_R4XMLDocument@tinyxml2@@6B@ DD 00H			; tinyxml2::XMLDocument::`RTTI Complete Object Locator'
	DD	00H
	DD	00H
	DD	FLAT:??_R0?AVXMLDocument@tinyxml2@@@8
	DD	FLAT:??_R3XMLDocument@tinyxml2@@8
rdata$r	ENDS
;	COMDAT ??_C@_05EBLKANEG@?$DM?$CB?$CFs?$DO?$AA@
CONST	SEGMENT
??_C@_05EBLKANEG@?$DM?$CB?$CFs?$DO?$AA@ DB '<!%s>', 00H	; `string'
CONST	ENDS
;	COMDAT ??_C@_06OGCFEMAJ@?$DM?$DP?$CFs?$DP?$DO?$AA@
CONST	SEGMENT
??_C@_06OGCFEMAJ@?$DM?$DP?$CFs?$DP?$DO?$AA@ DB '<?%s?>', 00H ; `string'
CONST	ENDS
;	COMDAT ??_C@_09PNDCPLLD@?$DM?$CB?9?9?$CFs?9?9?$DO?$AA@
CONST	SEGMENT
??_C@_09PNDCPLLD@?$DM?$CB?9?9?$CFs?9?9?$DO?$AA@ DB '<!--%s-->', 00H ; `string'
CONST	ENDS
;	COMDAT ??_C@_05POIKLDCH@?$DM?1?$CFs?$DO?$AA@
CONST	SEGMENT
??_C@_05POIKLDCH@?$DM?1?$CFs?$DO?$AA@ DB '</%s>', 00H	; `string'
CONST	ENDS
;	COMDAT ??_C@_02HCGKDMEN@?1?$DO?$AA@
CONST	SEGMENT
??_C@_02HCGKDMEN@?1?$DO?$AA@ DB '/>', 00H		; `string'
CONST	ENDS
;	COMDAT ??_C@_01BJJEKLCA@?$CC?$AA@
CONST	SEGMENT
??_C@_01BJJEKLCA@?$CC?$AA@ DB '"', 00H			; `string'
CONST	ENDS
;	COMDAT ??_C@_05LCDLMEIP@?5?$CFs?$DN?$CC?$AA@
CONST	SEGMENT
??_C@_05LCDLMEIP@?5?$CFs?$DN?$CC?$AA@ DB ' %s="', 00H	; `string'
CONST	ENDS
;	COMDAT ??_C@_03FONCMJME@?$DM?$CFs?$AA@
CONST	SEGMENT
??_C@_03FONCMJME@?$DM?$CFs?$AA@ DB '<%s', 00H		; `string'
CONST	ENDS
;	COMDAT ??_C@_01EEMJAFIK@?6?$AA@
CONST	SEGMENT
??_C@_01EEMJAFIK@?6?$AA@ DB 0aH, 00H			; `string'
CONST	ENDS
;	COMDAT ??_C@_0BC@CIAMHNHO@xml?5version?$DN?$CC1?40?$CC?$AA@
CONST	SEGMENT
??_C@_0BC@CIAMHNHO@xml?5version?$DN?$CC1?40?$CC?$AA@ DB 'xml version="1.0'
	DB	'"', 00H					; `string'
CONST	ENDS
;	COMDAT ??_C@_04IKLFLEHL@?$CG?$CFs?$DL?$AA@
CONST	SEGMENT
??_C@_04IKLFLEHL@?$CG?$CFs?$DL?$AA@ DB '&%s;', 00H	; `string'
CONST	ENDS
;	COMDAT ??_C@_02HAOIJKIC@?$CFc?$AA@
CONST	SEGMENT
??_C@_02HAOIJKIC@?$CFc?$AA@ DB '%c', 00H		; `string'
CONST	ENDS
;	COMDAT ??_C@_04PFOHOKJK@?5?5?5?5?$AA@
CONST	SEGMENT
??_C@_04PFOHOKJK@?5?5?5?5?$AA@ DB '    ', 00H		; `string'
CONST	ENDS
;	COMDAT ??_C@_0CO@CKABJOJH@XMLDocument?5error?5id?$DN?$CFd?5?8?$CFs?8?5str@
CONST	SEGMENT
??_C@_0CO@CKABJOJH@XMLDocument?5error?5id?$DN?$CFd?5?8?$CFs?8?5str@ DB 'X'
	DB	'MLDocument error id=%d ''%s'' str1=%s str2=%s', 0aH, 00H ; `string'
CONST	ENDS
;	COMDAT ??_C@_02DKCKIIND@?$CFs?$AA@
CONST	SEGMENT
??_C@_02DKCKIIND@?$CFs?$AA@ DB '%s', 00H		; `string'
CONST	ENDS
;	COMDAT ??_C@_01NOFIACDB@w?$AA@
CONST	SEGMENT
??_C@_01NOFIACDB@w?$AA@ DB 'w', 00H			; `string'
CONST	ENDS
;	COMDAT ??_C@_02JDPG@rb?$AA@
CONST	SEGMENT
??_C@_02JDPG@rb?$AA@ DB 'rb', 00H			; `string'
CONST	ENDS
;	COMDAT ??_C@_0CD@MCGGMGEP@xml?5version?$DN?$CC1?40?$CC?5encoding?$DN?$CCUTF?9@
CONST	SEGMENT
??_C@_0CD@MCGGMGEP@xml?5version?$DN?$CC1?40?$CC?5encoding?$DN?$CCUTF?9@ DB 'x'
	DB	'ml version="1.0" encoding="UTF-8"', 00H	; `string'
CONST	ENDS
;	COMDAT ??_C@_01PPODPGHN@?$DO?$AA@
CONST	SEGMENT
??_C@_01PPODPGHN@?$DO?$AA@ DB '>', 00H			; `string'
CONST	ENDS
;	COMDAT ??_C@_02GOEMJPDN@?$DP?$DO?$AA@
CONST	SEGMENT
??_C@_02GOEMJPDN@?$DP?$DO?$AA@ DB '?>', 00H		; `string'
CONST	ENDS
;	COMDAT ??_C@_03PNLDJJMO@?9?9?$DO?$AA@
CONST	SEGMENT
??_C@_03PNLDJJMO@?9?9?$DO?$AA@ DB '-->', 00H		; `string'
CONST	ENDS
;	COMDAT ??_C@_03MCHNFBAC@?$FN?$FN?$DO?$AA@
CONST	SEGMENT
??_C@_03MCHNFBAC@?$FN?$FN?$DO?$AA@ DB ']]>', 00H	; `string'
CONST	ENDS
;	COMDAT ??_C@_03DLDNIBIK@?$CFlf?$AA@
CONST	SEGMENT
??_C@_03DLDNIBIK@?$CFlf?$AA@ DB '%lf', 00H		; `string'
CONST	ENDS
;	COMDAT ??_C@_02NJPGOMH@?$CFf?$AA@
CONST	SEGMENT
??_C@_02NJPGOMH@?$CFf?$AA@ DB '%f', 00H			; `string'
CONST	ENDS
;	COMDAT ??_C@_05LAPONLG@false?$AA@
CONST	SEGMENT
??_C@_05LAPONLG@false?$AA@ DB 'false', 00H		; `string'
CONST	ENDS
;	COMDAT ??_C@_04LOAJBDKD@true?$AA@
CONST	SEGMENT
??_C@_04LOAJBDKD@true?$AA@ DB 'true', 00H		; `string'
CONST	ENDS
;	COMDAT ??_C@_05CEKCMKAN@?$CF?417g?$AA@
CONST	SEGMENT
??_C@_05CEKCMKAN@?$CF?417g?$AA@ DB '%.17g', 00H		; `string'
CONST	ENDS
;	COMDAT ??_C@_04HANFDJND@?$CF?48g?$AA@
CONST	SEGMENT
??_C@_04HANFDJND@?$CF?48g?$AA@ DB '%.8g', 00H		; `string'
CONST	ENDS
;	COMDAT ??_C@_02GMHACPFF@?$CFu?$AA@
CONST	SEGMENT
??_C@_02GMHACPFF@?$CFu?$AA@ DB '%u', 00H		; `string'
CONST	ENDS
;	COMDAT ??_C@_02DPKJAMEF@?$CFd?$AA@
CONST	SEGMENT
??_C@_02DPKJAMEF@?$CFd?$AA@ DB '%d', 00H		; `string'
CONST	ENDS
;	COMDAT ??_7XMLPrinter@tinyxml2@@6B@
CONST	SEGMENT
??_7XMLPrinter@tinyxml2@@6B@ DD FLAT:??_R4XMLPrinter@tinyxml2@@6B@ ; tinyxml2::XMLPrinter::`vftable'
	DD	FLAT:??_EXMLPrinter@tinyxml2@@UAEPAXI@Z
	DD	FLAT:?VisitEnter@XMLPrinter@tinyxml2@@UAE_NABVXMLElement@2@PBVXMLAttribute@2@@Z
	DD	FLAT:?VisitEnter@XMLPrinter@tinyxml2@@UAE_NABVXMLDocument@2@@Z
	DD	FLAT:?VisitExit@XMLPrinter@tinyxml2@@UAE_NABVXMLElement@2@@Z
	DD	FLAT:?VisitExit@XMLPrinter@tinyxml2@@UAE_NABVXMLDocument@2@@Z
	DD	FLAT:?Visit@XMLPrinter@tinyxml2@@UAE_NABVXMLUnknown@2@@Z
	DD	FLAT:?Visit@XMLPrinter@tinyxml2@@UAE_NABVXMLComment@2@@Z
	DD	FLAT:?Visit@XMLPrinter@tinyxml2@@UAE_NABVXMLText@2@@Z
	DD	FLAT:?Visit@XMLPrinter@tinyxml2@@UAE_NABVXMLDeclaration@2@@Z
	DD	FLAT:?CloseElement@XMLPrinter@tinyxml2@@UAEX_N@Z
	DD	FLAT:?CompactMode@XMLPrinter@tinyxml2@@MAE_NABVXMLElement@2@@Z
	DD	FLAT:?PrintSpace@XMLPrinter@tinyxml2@@MAEXH@Z
CONST	ENDS
;	COMDAT ??_7XMLDocument@tinyxml2@@6B@
CONST	SEGMENT
??_7XMLDocument@tinyxml2@@6B@ DD FLAT:??_R4XMLDocument@tinyxml2@@6B@ ; tinyxml2::XMLDocument::`vftable'
	DD	FLAT:?ToElement@XMLNode@tinyxml2@@UBEPBVXMLElement@2@XZ
	DD	FLAT:?ToElement@XMLNode@tinyxml2@@UAEPAVXMLElement@2@XZ
	DD	FLAT:?ToText@XMLNode@tinyxml2@@UBEPBVXMLText@2@XZ
	DD	FLAT:?ToText@XMLNode@tinyxml2@@UAEPAVXMLText@2@XZ
	DD	FLAT:?ToComment@XMLNode@tinyxml2@@UBEPBVXMLComment@2@XZ
	DD	FLAT:?ToComment@XMLNode@tinyxml2@@UAEPAVXMLComment@2@XZ
	DD	FLAT:?ToDocument@XMLDocument@tinyxml2@@UBEPBV12@XZ
	DD	FLAT:?ToDocument@XMLDocument@tinyxml2@@UAEPAV12@XZ
	DD	FLAT:?ToDeclaration@XMLNode@tinyxml2@@UBEPBVXMLDeclaration@2@XZ
	DD	FLAT:?ToDeclaration@XMLNode@tinyxml2@@UAEPAVXMLDeclaration@2@XZ
	DD	FLAT:?ToUnknown@XMLNode@tinyxml2@@UBEPBVXMLUnknown@2@XZ
	DD	FLAT:?ToUnknown@XMLNode@tinyxml2@@UAEPAVXMLUnknown@2@XZ
	DD	FLAT:?ShallowClone@XMLDocument@tinyxml2@@UBEPAVXMLNode@2@PAV12@@Z
	DD	FLAT:?ShallowEqual@XMLDocument@tinyxml2@@UBE_NPBVXMLNode@2@@Z
	DD	FLAT:?Accept@XMLDocument@tinyxml2@@UBE_NPAVXMLVisitor@2@@Z
	DD	FLAT:?ParseDeep@XMLNode@tinyxml2@@UAEPADPADPAVStrPair@2@@Z
	DD	FLAT:??_EXMLDocument@tinyxml2@@UAEPAXI@Z
CONST	ENDS
;	COMDAT ??_7?$MemPoolT@$0CM@@tinyxml2@@6B@
CONST	SEGMENT
??_7?$MemPoolT@$0CM@@tinyxml2@@6B@ DD FLAT:??_R4?$MemPoolT@$0CM@@tinyxml2@@6B@ ; tinyxml2::MemPoolT<44>::`vftable'
	DD	FLAT:??_E?$MemPoolT@$0CM@@tinyxml2@@UAEPAXI@Z
	DD	FLAT:?ItemSize@?$MemPoolT@$0CM@@tinyxml2@@UBEHXZ
	DD	FLAT:?Alloc@?$MemPoolT@$0CM@@tinyxml2@@UAEPAXXZ
	DD	FLAT:?Free@?$MemPoolT@$0CM@@tinyxml2@@UAEXPAX@Z
	DD	FLAT:?SetTracked@?$MemPoolT@$0CM@@tinyxml2@@UAEXXZ
	DD	FLAT:?Clear@?$MemPoolT@$0CM@@tinyxml2@@UAEXXZ
CONST	ENDS
;	COMDAT ??_7?$MemPoolT@$0DA@@tinyxml2@@6B@
CONST	SEGMENT
??_7?$MemPoolT@$0DA@@tinyxml2@@6B@ DD FLAT:??_R4?$MemPoolT@$0DA@@tinyxml2@@6B@ ; tinyxml2::MemPoolT<48>::`vftable'
	DD	FLAT:??_E?$MemPoolT@$0DA@@tinyxml2@@UAEPAXI@Z
	DD	FLAT:?ItemSize@?$MemPoolT@$0DA@@tinyxml2@@UBEHXZ
	DD	FLAT:?Alloc@?$MemPoolT@$0DA@@tinyxml2@@UAEPAXXZ
	DD	FLAT:?Free@?$MemPoolT@$0DA@@tinyxml2@@UAEXPAX@Z
	DD	FLAT:?SetTracked@?$MemPoolT@$0DA@@tinyxml2@@UAEXXZ
	DD	FLAT:?Clear@?$MemPoolT@$0DA@@tinyxml2@@UAEXXZ
CONST	ENDS
;	COMDAT ??_7?$MemPoolT@$0CE@@tinyxml2@@6B@
CONST	SEGMENT
??_7?$MemPoolT@$0CE@@tinyxml2@@6B@ DD FLAT:??_R4?$MemPoolT@$0CE@@tinyxml2@@6B@ ; tinyxml2::MemPoolT<36>::`vftable'
	DD	FLAT:??_E?$MemPoolT@$0CE@@tinyxml2@@UAEPAXI@Z
	DD	FLAT:?ItemSize@?$MemPoolT@$0CE@@tinyxml2@@UBEHXZ
	DD	FLAT:?Alloc@?$MemPoolT@$0CE@@tinyxml2@@UAEPAXXZ
	DD	FLAT:?Free@?$MemPoolT@$0CE@@tinyxml2@@UAEXPAX@Z
	DD	FLAT:?SetTracked@?$MemPoolT@$0CE@@tinyxml2@@UAEXXZ
	DD	FLAT:?Clear@?$MemPoolT@$0CE@@tinyxml2@@UAEXXZ
CONST	ENDS
;	COMDAT ??_7?$MemPoolT@$0DE@@tinyxml2@@6B@
CONST	SEGMENT
??_7?$MemPoolT@$0DE@@tinyxml2@@6B@ DD FLAT:??_R4?$MemPoolT@$0DE@@tinyxml2@@6B@ ; tinyxml2::MemPoolT<52>::`vftable'
	DD	FLAT:??_E?$MemPoolT@$0DE@@tinyxml2@@UAEPAXI@Z
	DD	FLAT:?ItemSize@?$MemPoolT@$0DE@@tinyxml2@@UBEHXZ
	DD	FLAT:?Alloc@?$MemPoolT@$0DE@@tinyxml2@@UAEPAXXZ
	DD	FLAT:?Free@?$MemPoolT@$0DE@@tinyxml2@@UAEXPAX@Z
	DD	FLAT:?SetTracked@?$MemPoolT@$0DE@@tinyxml2@@UAEXXZ
	DD	FLAT:?Clear@?$MemPoolT@$0DE@@tinyxml2@@UAEXXZ
CONST	ENDS
;	COMDAT ??_7XMLElement@tinyxml2@@6B@
CONST	SEGMENT
??_7XMLElement@tinyxml2@@6B@ DD FLAT:??_R4XMLElement@tinyxml2@@6B@ ; tinyxml2::XMLElement::`vftable'
	DD	FLAT:?ToElement@XMLElement@tinyxml2@@UBEPBV12@XZ
	DD	FLAT:?ToElement@XMLElement@tinyxml2@@UAEPAV12@XZ
	DD	FLAT:?ToText@XMLNode@tinyxml2@@UBEPBVXMLText@2@XZ
	DD	FLAT:?ToText@XMLNode@tinyxml2@@UAEPAVXMLText@2@XZ
	DD	FLAT:?ToComment@XMLNode@tinyxml2@@UBEPBVXMLComment@2@XZ
	DD	FLAT:?ToComment@XMLNode@tinyxml2@@UAEPAVXMLComment@2@XZ
	DD	FLAT:?ToDocument@XMLNode@tinyxml2@@UBEPBVXMLDocument@2@XZ
	DD	FLAT:?ToDocument@XMLNode@tinyxml2@@UAEPAVXMLDocument@2@XZ
	DD	FLAT:?ToDeclaration@XMLNode@tinyxml2@@UBEPBVXMLDeclaration@2@XZ
	DD	FLAT:?ToDeclaration@XMLNode@tinyxml2@@UAEPAVXMLDeclaration@2@XZ
	DD	FLAT:?ToUnknown@XMLNode@tinyxml2@@UBEPBVXMLUnknown@2@XZ
	DD	FLAT:?ToUnknown@XMLNode@tinyxml2@@UAEPAVXMLUnknown@2@XZ
	DD	FLAT:?ShallowClone@XMLElement@tinyxml2@@UBEPAVXMLNode@2@PAVXMLDocument@2@@Z
	DD	FLAT:?ShallowEqual@XMLElement@tinyxml2@@UBE_NPBVXMLNode@2@@Z
	DD	FLAT:?Accept@XMLElement@tinyxml2@@UBE_NPAVXMLVisitor@2@@Z
	DD	FLAT:?ParseDeep@XMLElement@tinyxml2@@UAEPADPADPAVStrPair@2@@Z
	DD	FLAT:??_EXMLElement@tinyxml2@@EAEPAXI@Z
CONST	ENDS
;	COMDAT ??_7XMLAttribute@tinyxml2@@6B@
CONST	SEGMENT
??_7XMLAttribute@tinyxml2@@6B@ DD FLAT:??_R4XMLAttribute@tinyxml2@@6B@ ; tinyxml2::XMLAttribute::`vftable'
	DD	FLAT:??_EXMLAttribute@tinyxml2@@EAEPAXI@Z
CONST	ENDS
;	COMDAT ??_7XMLUnknown@tinyxml2@@6B@
CONST	SEGMENT
??_7XMLUnknown@tinyxml2@@6B@ DD FLAT:??_R4XMLUnknown@tinyxml2@@6B@ ; tinyxml2::XMLUnknown::`vftable'
	DD	FLAT:?ToElement@XMLNode@tinyxml2@@UBEPBVXMLElement@2@XZ
	DD	FLAT:?ToElement@XMLNode@tinyxml2@@UAEPAVXMLElement@2@XZ
	DD	FLAT:?ToText@XMLNode@tinyxml2@@UBEPBVXMLText@2@XZ
	DD	FLAT:?ToText@XMLNode@tinyxml2@@UAEPAVXMLText@2@XZ
	DD	FLAT:?ToComment@XMLNode@tinyxml2@@UBEPBVXMLComment@2@XZ
	DD	FLAT:?ToComment@XMLNode@tinyxml2@@UAEPAVXMLComment@2@XZ
	DD	FLAT:?ToDocument@XMLNode@tinyxml2@@UBEPBVXMLDocument@2@XZ
	DD	FLAT:?ToDocument@XMLNode@tinyxml2@@UAEPAVXMLDocument@2@XZ
	DD	FLAT:?ToDeclaration@XMLNode@tinyxml2@@UBEPBVXMLDeclaration@2@XZ
	DD	FLAT:?ToDeclaration@XMLNode@tinyxml2@@UAEPAVXMLDeclaration@2@XZ
	DD	FLAT:?ToUnknown@XMLUnknown@tinyxml2@@UBEPBV12@XZ
	DD	FLAT:?ToUnknown@XMLUnknown@tinyxml2@@UAEPAV12@XZ
	DD	FLAT:?ShallowClone@XMLUnknown@tinyxml2@@UBEPAVXMLNode@2@PAVXMLDocument@2@@Z
	DD	FLAT:?ShallowEqual@XMLUnknown@tinyxml2@@UBE_NPBVXMLNode@2@@Z
	DD	FLAT:?Accept@XMLUnknown@tinyxml2@@UBE_NPAVXMLVisitor@2@@Z
	DD	FLAT:?ParseDeep@XMLUnknown@tinyxml2@@UAEPADPADPAVStrPair@2@@Z
	DD	FLAT:??_EXMLUnknown@tinyxml2@@MAEPAXI@Z
CONST	ENDS
;	COMDAT ??_7XMLDeclaration@tinyxml2@@6B@
CONST	SEGMENT
??_7XMLDeclaration@tinyxml2@@6B@ DD FLAT:??_R4XMLDeclaration@tinyxml2@@6B@ ; tinyxml2::XMLDeclaration::`vftable'
	DD	FLAT:?ToElement@XMLNode@tinyxml2@@UBEPBVXMLElement@2@XZ
	DD	FLAT:?ToElement@XMLNode@tinyxml2@@UAEPAVXMLElement@2@XZ
	DD	FLAT:?ToText@XMLNode@tinyxml2@@UBEPBVXMLText@2@XZ
	DD	FLAT:?ToText@XMLNode@tinyxml2@@UAEPAVXMLText@2@XZ
	DD	FLAT:?ToComment@XMLNode@tinyxml2@@UBEPBVXMLComment@2@XZ
	DD	FLAT:?ToComment@XMLNode@tinyxml2@@UAEPAVXMLComment@2@XZ
	DD	FLAT:?ToDocument@XMLNode@tinyxml2@@UBEPBVXMLDocument@2@XZ
	DD	FLAT:?ToDocument@XMLNode@tinyxml2@@UAEPAVXMLDocument@2@XZ
	DD	FLAT:?ToDeclaration@XMLDeclaration@tinyxml2@@UBEPBV12@XZ
	DD	FLAT:?ToDeclaration@XMLDeclaration@tinyxml2@@UAEPAV12@XZ
	DD	FLAT:?ToUnknown@XMLNode@tinyxml2@@UBEPBVXMLUnknown@2@XZ
	DD	FLAT:?ToUnknown@XMLNode@tinyxml2@@UAEPAVXMLUnknown@2@XZ
	DD	FLAT:?ShallowClone@XMLDeclaration@tinyxml2@@UBEPAVXMLNode@2@PAVXMLDocument@2@@Z
	DD	FLAT:?ShallowEqual@XMLDeclaration@tinyxml2@@UBE_NPBVXMLNode@2@@Z
	DD	FLAT:?Accept@XMLDeclaration@tinyxml2@@UBE_NPAVXMLVisitor@2@@Z
	DD	FLAT:?ParseDeep@XMLDeclaration@tinyxml2@@UAEPADPADPAVStrPair@2@@Z
	DD	FLAT:??_EXMLDeclaration@tinyxml2@@MAEPAXI@Z
CONST	ENDS
;	COMDAT ??_7XMLComment@tinyxml2@@6B@
CONST	SEGMENT
??_7XMLComment@tinyxml2@@6B@ DD FLAT:??_R4XMLComment@tinyxml2@@6B@ ; tinyxml2::XMLComment::`vftable'
	DD	FLAT:?ToElement@XMLNode@tinyxml2@@UBEPBVXMLElement@2@XZ
	DD	FLAT:?ToElement@XMLNode@tinyxml2@@UAEPAVXMLElement@2@XZ
	DD	FLAT:?ToText@XMLNode@tinyxml2@@UBEPBVXMLText@2@XZ
	DD	FLAT:?ToText@XMLNode@tinyxml2@@UAEPAVXMLText@2@XZ
	DD	FLAT:?ToComment@XMLComment@tinyxml2@@UBEPBV12@XZ
	DD	FLAT:?ToComment@XMLComment@tinyxml2@@UAEPAV12@XZ
	DD	FLAT:?ToDocument@XMLNode@tinyxml2@@UBEPBVXMLDocument@2@XZ
	DD	FLAT:?ToDocument@XMLNode@tinyxml2@@UAEPAVXMLDocument@2@XZ
	DD	FLAT:?ToDeclaration@XMLNode@tinyxml2@@UBEPBVXMLDeclaration@2@XZ
	DD	FLAT:?ToDeclaration@XMLNode@tinyxml2@@UAEPAVXMLDeclaration@2@XZ
	DD	FLAT:?ToUnknown@XMLNode@tinyxml2@@UBEPBVXMLUnknown@2@XZ
	DD	FLAT:?ToUnknown@XMLNode@tinyxml2@@UAEPAVXMLUnknown@2@XZ
	DD	FLAT:?ShallowClone@XMLComment@tinyxml2@@UBEPAVXMLNode@2@PAVXMLDocument@2@@Z
	DD	FLAT:?ShallowEqual@XMLComment@tinyxml2@@UBE_NPBVXMLNode@2@@Z
	DD	FLAT:?Accept@XMLComment@tinyxml2@@UBE_NPAVXMLVisitor@2@@Z
	DD	FLAT:?ParseDeep@XMLComment@tinyxml2@@UAEPADPADPAVStrPair@2@@Z
	DD	FLAT:??_EXMLComment@tinyxml2@@MAEPAXI@Z
CONST	ENDS
;	COMDAT ??_7XMLText@tinyxml2@@6B@
CONST	SEGMENT
??_7XMLText@tinyxml2@@6B@ DD FLAT:??_R4XMLText@tinyxml2@@6B@ ; tinyxml2::XMLText::`vftable'
	DD	FLAT:?ToElement@XMLNode@tinyxml2@@UBEPBVXMLElement@2@XZ
	DD	FLAT:?ToElement@XMLNode@tinyxml2@@UAEPAVXMLElement@2@XZ
	DD	FLAT:?ToText@XMLText@tinyxml2@@UBEPBV12@XZ
	DD	FLAT:?ToText@XMLText@tinyxml2@@UAEPAV12@XZ
	DD	FLAT:?ToComment@XMLNode@tinyxml2@@UBEPBVXMLComment@2@XZ
	DD	FLAT:?ToComment@XMLNode@tinyxml2@@UAEPAVXMLComment@2@XZ
	DD	FLAT:?ToDocument@XMLNode@tinyxml2@@UBEPBVXMLDocument@2@XZ
	DD	FLAT:?ToDocument@XMLNode@tinyxml2@@UAEPAVXMLDocument@2@XZ
	DD	FLAT:?ToDeclaration@XMLNode@tinyxml2@@UBEPBVXMLDeclaration@2@XZ
	DD	FLAT:?ToDeclaration@XMLNode@tinyxml2@@UAEPAVXMLDeclaration@2@XZ
	DD	FLAT:?ToUnknown@XMLNode@tinyxml2@@UBEPBVXMLUnknown@2@XZ
	DD	FLAT:?ToUnknown@XMLNode@tinyxml2@@UAEPAVXMLUnknown@2@XZ
	DD	FLAT:?ShallowClone@XMLText@tinyxml2@@UBEPAVXMLNode@2@PAVXMLDocument@2@@Z
	DD	FLAT:?ShallowEqual@XMLText@tinyxml2@@UBE_NPBVXMLNode@2@@Z
	DD	FLAT:?Accept@XMLText@tinyxml2@@UBE_NPAVXMLVisitor@2@@Z
	DD	FLAT:?ParseDeep@XMLText@tinyxml2@@UAEPADPADPAVStrPair@2@@Z
	DD	FLAT:??_EXMLText@tinyxml2@@MAEPAXI@Z
CONST	ENDS
;	COMDAT ??_7XMLNode@tinyxml2@@6B@
CONST	SEGMENT
??_7XMLNode@tinyxml2@@6B@ DD FLAT:??_R4XMLNode@tinyxml2@@6B@ ; tinyxml2::XMLNode::`vftable'
	DD	FLAT:?ToElement@XMLNode@tinyxml2@@UBEPBVXMLElement@2@XZ
	DD	FLAT:?ToElement@XMLNode@tinyxml2@@UAEPAVXMLElement@2@XZ
	DD	FLAT:?ToText@XMLNode@tinyxml2@@UBEPBVXMLText@2@XZ
	DD	FLAT:?ToText@XMLNode@tinyxml2@@UAEPAVXMLText@2@XZ
	DD	FLAT:?ToComment@XMLNode@tinyxml2@@UBEPBVXMLComment@2@XZ
	DD	FLAT:?ToComment@XMLNode@tinyxml2@@UAEPAVXMLComment@2@XZ
	DD	FLAT:?ToDocument@XMLNode@tinyxml2@@UBEPBVXMLDocument@2@XZ
	DD	FLAT:?ToDocument@XMLNode@tinyxml2@@UAEPAVXMLDocument@2@XZ
	DD	FLAT:?ToDeclaration@XMLNode@tinyxml2@@UBEPBVXMLDeclaration@2@XZ
	DD	FLAT:?ToDeclaration@XMLNode@tinyxml2@@UAEPAVXMLDeclaration@2@XZ
	DD	FLAT:?ToUnknown@XMLNode@tinyxml2@@UBEPBVXMLUnknown@2@XZ
	DD	FLAT:?ToUnknown@XMLNode@tinyxml2@@UAEPAVXMLUnknown@2@XZ
	DD	FLAT:__purecall
	DD	FLAT:__purecall
	DD	FLAT:__purecall
	DD	FLAT:?ParseDeep@XMLNode@tinyxml2@@UAEPADPADPAVStrPair@2@@Z
	DD	FLAT:??_EXMLNode@tinyxml2@@MAEPAXI@Z
CONST	ENDS
;	COMDAT ??_7XMLVisitor@tinyxml2@@6B@
CONST	SEGMENT
??_7XMLVisitor@tinyxml2@@6B@ DD FLAT:??_R4XMLVisitor@tinyxml2@@6B@ ; tinyxml2::XMLVisitor::`vftable'
	DD	FLAT:??_EXMLVisitor@tinyxml2@@UAEPAXI@Z
	DD	FLAT:?VisitEnter@XMLVisitor@tinyxml2@@UAE_NABVXMLElement@2@PBVXMLAttribute@2@@Z
	DD	FLAT:?VisitEnter@XMLVisitor@tinyxml2@@UAE_NABVXMLDocument@2@@Z
	DD	FLAT:?VisitExit@XMLVisitor@tinyxml2@@UAE_NABVXMLElement@2@@Z
	DD	FLAT:?VisitExit@XMLVisitor@tinyxml2@@UAE_NABVXMLDocument@2@@Z
	DD	FLAT:?Visit@XMLVisitor@tinyxml2@@UAE_NABVXMLUnknown@2@@Z
	DD	FLAT:?Visit@XMLVisitor@tinyxml2@@UAE_NABVXMLComment@2@@Z
	DD	FLAT:?Visit@XMLVisitor@tinyxml2@@UAE_NABVXMLText@2@@Z
	DD	FLAT:?Visit@XMLVisitor@tinyxml2@@UAE_NABVXMLDeclaration@2@@Z
CONST	ENDS
;	COMDAT ??_7MemPool@tinyxml2@@6B@
CONST	SEGMENT
??_7MemPool@tinyxml2@@6B@ DD FLAT:??_R4MemPool@tinyxml2@@6B@ ; tinyxml2::MemPool::`vftable'
	DD	FLAT:??_EMemPool@tinyxml2@@UAEPAXI@Z
	DD	FLAT:__purecall
	DD	FLAT:__purecall
	DD	FLAT:__purecall
	DD	FLAT:__purecall
	DD	FLAT:__purecall
CONST	ENDS
;	COMDAT xdata$x
xdata$x	SEGMENT
__unwindtable$??1XMLPrinter@tinyxml2@@UAE@XZ DD 0ffffffffH
	DD	FLAT:__unwindfunclet$??1XMLPrinter@tinyxml2@@UAE@XZ$0
	DD	00H
	DD	FLAT:__unwindfunclet$??1XMLPrinter@tinyxml2@@UAE@XZ$1
__ehfuncinfo$??1XMLPrinter@tinyxml2@@UAE@XZ DD 019930522H
	DD	02H
	DD	FLAT:__unwindtable$??1XMLPrinter@tinyxml2@@UAE@XZ
	DD	2 DUP(00H)
	DD	2 DUP(00H)
	DD	00H
	DD	01H
xdata$x	ENDS
;	COMDAT xdata$x
xdata$x	SEGMENT
__unwindtable$??0XMLPrinter@tinyxml2@@QAE@PAU_iobuf@@_NH@Z DD 0ffffffffH
	DD	FLAT:__unwindfunclet$??0XMLPrinter@tinyxml2@@QAE@PAU_iobuf@@_NH@Z$0
	DD	00H
	DD	FLAT:__unwindfunclet$??0XMLPrinter@tinyxml2@@QAE@PAU_iobuf@@_NH@Z$1
	DD	01H
	DD	FLAT:__unwindfunclet$??0XMLPrinter@tinyxml2@@QAE@PAU_iobuf@@_NH@Z$2
__ehfuncinfo$??0XMLPrinter@tinyxml2@@QAE@PAU_iobuf@@_NH@Z DD 019930522H
	DD	03H
	DD	FLAT:__unwindtable$??0XMLPrinter@tinyxml2@@QAE@PAU_iobuf@@_NH@Z
	DD	2 DUP(00H)
	DD	2 DUP(00H)
	DD	00H
	DD	01H
xdata$x	ENDS
;	COMDAT xdata$x
xdata$x	SEGMENT
__unwindtable$??1?$MemPoolT@$0CM@@tinyxml2@@UAE@XZ DD 0ffffffffH
	DD	FLAT:__unwindfunclet$??1?$MemPoolT@$0CM@@tinyxml2@@UAE@XZ$0
	DD	00H
	DD	FLAT:__unwindfunclet$??1?$MemPoolT@$0CM@@tinyxml2@@UAE@XZ$1
__ehfuncinfo$??1?$MemPoolT@$0CM@@tinyxml2@@UAE@XZ DD 019930522H
	DD	02H
	DD	FLAT:__unwindtable$??1?$MemPoolT@$0CM@@tinyxml2@@UAE@XZ
	DD	2 DUP(00H)
	DD	2 DUP(00H)
	DD	00H
	DD	01H
xdata$x	ENDS
;	COMDAT xdata$x
xdata$x	SEGMENT
__unwindtable$??0?$MemPoolT@$0CM@@tinyxml2@@QAE@XZ DD 0ffffffffH
	DD	FLAT:__unwindfunclet$??0?$MemPoolT@$0CM@@tinyxml2@@QAE@XZ$0
__ehfuncinfo$??0?$MemPoolT@$0CM@@tinyxml2@@QAE@XZ DD 019930522H
	DD	01H
	DD	FLAT:__unwindtable$??0?$MemPoolT@$0CM@@tinyxml2@@QAE@XZ
	DD	2 DUP(00H)
	DD	2 DUP(00H)
	DD	00H
	DD	01H
xdata$x	ENDS
;	COMDAT xdata$x
xdata$x	SEGMENT
__unwindtable$??1?$MemPoolT@$0DA@@tinyxml2@@UAE@XZ DD 0ffffffffH
	DD	FLAT:__unwindfunclet$??1?$MemPoolT@$0DA@@tinyxml2@@UAE@XZ$0
	DD	00H
	DD	FLAT:__unwindfunclet$??1?$MemPoolT@$0DA@@tinyxml2@@UAE@XZ$1
__ehfuncinfo$??1?$MemPoolT@$0DA@@tinyxml2@@UAE@XZ DD 019930522H
	DD	02H
	DD	FLAT:__unwindtable$??1?$MemPoolT@$0DA@@tinyxml2@@UAE@XZ
	DD	2 DUP(00H)
	DD	2 DUP(00H)
	DD	00H
	DD	01H
xdata$x	ENDS
;	COMDAT xdata$x
xdata$x	SEGMENT
__unwindtable$??0?$MemPoolT@$0DA@@tinyxml2@@QAE@XZ DD 0ffffffffH
	DD	FLAT:__unwindfunclet$??0?$MemPoolT@$0DA@@tinyxml2@@QAE@XZ$0
__ehfuncinfo$??0?$MemPoolT@$0DA@@tinyxml2@@QAE@XZ DD 019930522H
	DD	01H
	DD	FLAT:__unwindtable$??0?$MemPoolT@$0DA@@tinyxml2@@QAE@XZ
	DD	2 DUP(00H)
	DD	2 DUP(00H)
	DD	00H
	DD	01H
xdata$x	ENDS
;	COMDAT xdata$x
xdata$x	SEGMENT
__unwindtable$??1?$MemPoolT@$0CE@@tinyxml2@@UAE@XZ DD 0ffffffffH
	DD	FLAT:__unwindfunclet$??1?$MemPoolT@$0CE@@tinyxml2@@UAE@XZ$0
	DD	00H
	DD	FLAT:__unwindfunclet$??1?$MemPoolT@$0CE@@tinyxml2@@UAE@XZ$1
__ehfuncinfo$??1?$MemPoolT@$0CE@@tinyxml2@@UAE@XZ DD 019930522H
	DD	02H
	DD	FLAT:__unwindtable$??1?$MemPoolT@$0CE@@tinyxml2@@UAE@XZ
	DD	2 DUP(00H)
	DD	2 DUP(00H)
	DD	00H
	DD	01H
xdata$x	ENDS
;	COMDAT xdata$x
xdata$x	SEGMENT
__unwindtable$??0?$MemPoolT@$0CE@@tinyxml2@@QAE@XZ DD 0ffffffffH
	DD	FLAT:__unwindfunclet$??0?$MemPoolT@$0CE@@tinyxml2@@QAE@XZ$0
__ehfuncinfo$??0?$MemPoolT@$0CE@@tinyxml2@@QAE@XZ DD 019930522H
	DD	01H
	DD	FLAT:__unwindtable$??0?$MemPoolT@$0CE@@tinyxml2@@QAE@XZ
	DD	2 DUP(00H)
	DD	2 DUP(00H)
	DD	00H
	DD	01H
xdata$x	ENDS
;	COMDAT xdata$x
xdata$x	SEGMENT
__unwindtable$??1?$MemPoolT@$0DE@@tinyxml2@@UAE@XZ DD 0ffffffffH
	DD	FLAT:__unwindfunclet$??1?$MemPoolT@$0DE@@tinyxml2@@UAE@XZ$0
	DD	00H
	DD	FLAT:__unwindfunclet$??1?$MemPoolT@$0DE@@tinyxml2@@UAE@XZ$1
__ehfuncinfo$??1?$MemPoolT@$0DE@@tinyxml2@@UAE@XZ DD 019930522H
	DD	02H
	DD	FLAT:__unwindtable$??1?$MemPoolT@$0DE@@tinyxml2@@UAE@XZ
	DD	2 DUP(00H)
	DD	2 DUP(00H)
	DD	00H
	DD	01H
xdata$x	ENDS
;	COMDAT xdata$x
xdata$x	SEGMENT
__unwindtable$??0?$MemPoolT@$0DE@@tinyxml2@@QAE@XZ DD 0ffffffffH
	DD	FLAT:__unwindfunclet$??0?$MemPoolT@$0DE@@tinyxml2@@QAE@XZ$0
__ehfuncinfo$??0?$MemPoolT@$0DE@@tinyxml2@@QAE@XZ DD 019930522H
	DD	01H
	DD	FLAT:__unwindtable$??0?$MemPoolT@$0DE@@tinyxml2@@QAE@XZ
	DD	2 DUP(00H)
	DD	2 DUP(00H)
	DD	00H
	DD	01H
xdata$x	ENDS
;	COMDAT xdata$x
xdata$x	SEGMENT
__ehfuncinfo$?Identify@XMLDocument@tinyxml2@@QAEPADPADPAPAVXMLNode@2@@Z DD 019930522H
	DD	06H
	DD	FLAT:__unwindtable$?Identify@XMLDocument@tinyxml2@@QAEPADPADPAPAVXMLNode@2@@Z
	DD	2 DUP(00H)
	DD	2 DUP(00H)
	DD	00H
	DD	01H
__unwindtable$?Identify@XMLDocument@tinyxml2@@QAEPADPADPAPAVXMLNode@2@@Z DD 0ffffffffH
	DD	FLAT:__unwindfunclet$?Identify@XMLDocument@tinyxml2@@QAEPADPADPAPAVXMLNode@2@@Z$0
	DD	0ffffffffH
	DD	FLAT:__unwindfunclet$?Identify@XMLDocument@tinyxml2@@QAEPADPADPAPAVXMLNode@2@@Z$1
	DD	0ffffffffH
	DD	FLAT:__unwindfunclet$?Identify@XMLDocument@tinyxml2@@QAEPADPADPAPAVXMLNode@2@@Z$2
	DD	0ffffffffH
	DD	FLAT:__unwindfunclet$?Identify@XMLDocument@tinyxml2@@QAEPADPADPAPAVXMLNode@2@@Z$3
	DD	0ffffffffH
	DD	FLAT:__unwindfunclet$?Identify@XMLDocument@tinyxml2@@QAEPADPADPAPAVXMLNode@2@@Z$4
	DD	0ffffffffH
	DD	FLAT:__unwindfunclet$?Identify@XMLDocument@tinyxml2@@QAEPADPADPAPAVXMLNode@2@@Z$5
xdata$x	ENDS
;	COMDAT xdata$x
xdata$x	SEGMENT
__unwindtable$?NewUnknown@XMLDocument@tinyxml2@@QAEPAVXMLUnknown@2@PBD@Z DD 0ffffffffH
	DD	FLAT:__unwindfunclet$?NewUnknown@XMLDocument@tinyxml2@@QAEPAVXMLUnknown@2@PBD@Z$0
__ehfuncinfo$?NewUnknown@XMLDocument@tinyxml2@@QAEPAVXMLUnknown@2@PBD@Z DD 019930522H
	DD	01H
	DD	FLAT:__unwindtable$?NewUnknown@XMLDocument@tinyxml2@@QAEPAVXMLUnknown@2@PBD@Z
	DD	2 DUP(00H)
	DD	2 DUP(00H)
	DD	00H
	DD	01H
xdata$x	ENDS
;	COMDAT xdata$x
xdata$x	SEGMENT
__unwindtable$?NewDeclaration@XMLDocument@tinyxml2@@QAEPAVXMLDeclaration@2@PBD@Z DD 0ffffffffH
	DD	FLAT:__unwindfunclet$?NewDeclaration@XMLDocument@tinyxml2@@QAEPAVXMLDeclaration@2@PBD@Z$0
__ehfuncinfo$?NewDeclaration@XMLDocument@tinyxml2@@QAEPAVXMLDeclaration@2@PBD@Z DD 019930522H
	DD	01H
	DD	FLAT:__unwindtable$?NewDeclaration@XMLDocument@tinyxml2@@QAEPAVXMLDeclaration@2@PBD@Z
	DD	2 DUP(00H)
	DD	2 DUP(00H)
	DD	00H
	DD	01H
xdata$x	ENDS
;	COMDAT xdata$x
xdata$x	SEGMENT
__unwindtable$?NewText@XMLDocument@tinyxml2@@QAEPAVXMLText@2@PBD@Z DD 0ffffffffH
	DD	FLAT:__unwindfunclet$?NewText@XMLDocument@tinyxml2@@QAEPAVXMLText@2@PBD@Z$0
__ehfuncinfo$?NewText@XMLDocument@tinyxml2@@QAEPAVXMLText@2@PBD@Z DD 019930522H
	DD	01H
	DD	FLAT:__unwindtable$?NewText@XMLDocument@tinyxml2@@QAEPAVXMLText@2@PBD@Z
	DD	2 DUP(00H)
	DD	2 DUP(00H)
	DD	00H
	DD	01H
xdata$x	ENDS
;	COMDAT xdata$x
xdata$x	SEGMENT
__unwindtable$?NewComment@XMLDocument@tinyxml2@@QAEPAVXMLComment@2@PBD@Z DD 0ffffffffH
	DD	FLAT:__unwindfunclet$?NewComment@XMLDocument@tinyxml2@@QAEPAVXMLComment@2@PBD@Z$0
__ehfuncinfo$?NewComment@XMLDocument@tinyxml2@@QAEPAVXMLComment@2@PBD@Z DD 019930522H
	DD	01H
	DD	FLAT:__unwindtable$?NewComment@XMLDocument@tinyxml2@@QAEPAVXMLComment@2@PBD@Z
	DD	2 DUP(00H)
	DD	2 DUP(00H)
	DD	00H
	DD	01H
xdata$x	ENDS
;	COMDAT xdata$x
xdata$x	SEGMENT
__unwindtable$?NewElement@XMLDocument@tinyxml2@@QAEPAVXMLElement@2@PBD@Z DD 0ffffffffH
	DD	FLAT:__unwindfunclet$?NewElement@XMLDocument@tinyxml2@@QAEPAVXMLElement@2@PBD@Z$0
__ehfuncinfo$?NewElement@XMLDocument@tinyxml2@@QAEPAVXMLElement@2@PBD@Z DD 019930522H
	DD	01H
	DD	FLAT:__unwindtable$?NewElement@XMLDocument@tinyxml2@@QAEPAVXMLElement@2@PBD@Z
	DD	2 DUP(00H)
	DD	2 DUP(00H)
	DD	00H
	DD	01H
xdata$x	ENDS
;	COMDAT xdata$x
xdata$x	SEGMENT
__unwindtable$?Print@XMLDocument@tinyxml2@@QBEXPAVXMLPrinter@2@@Z DD 0ffffffffH
	DD	FLAT:__unwindfunclet$?Print@XMLDocument@tinyxml2@@QBEXPAVXMLPrinter@2@@Z$0
__ehfuncinfo$?Print@XMLDocument@tinyxml2@@QBEXPAVXMLPrinter@2@@Z DD 019930522H
	DD	01H
	DD	FLAT:__unwindtable$?Print@XMLDocument@tinyxml2@@QBEXPAVXMLPrinter@2@@Z
	DD	2 DUP(00H)
	DD	2 DUP(00H)
	DD	00H
	DD	01H
xdata$x	ENDS
;	COMDAT xdata$x
xdata$x	SEGMENT
__unwindtable$?SaveFile@XMLDocument@tinyxml2@@QAE?AW4XMLError@2@PAU_iobuf@@_N@Z DD 0ffffffffH
	DD	FLAT:__unwindfunclet$?SaveFile@XMLDocument@tinyxml2@@QAE?AW4XMLError@2@PAU_iobuf@@_N@Z$0
__ehfuncinfo$?SaveFile@XMLDocument@tinyxml2@@QAE?AW4XMLError@2@PAU_iobuf@@_N@Z DD 019930522H
	DD	01H
	DD	FLAT:__unwindtable$?SaveFile@XMLDocument@tinyxml2@@QAE?AW4XMLError@2@PAU_iobuf@@_N@Z
	DD	2 DUP(00H)
	DD	2 DUP(00H)
	DD	00H
	DD	01H
xdata$x	ENDS
;	COMDAT xdata$x
xdata$x	SEGMENT
__ehfuncinfo$??1XMLDocument@tinyxml2@@UAE@XZ DD 019930522H
	DD	05H
	DD	FLAT:__unwindtable$??1XMLDocument@tinyxml2@@UAE@XZ
	DD	2 DUP(00H)
	DD	2 DUP(00H)
	DD	00H
	DD	01H
__unwindtable$??1XMLDocument@tinyxml2@@UAE@XZ DD 0ffffffffH
	DD	FLAT:__unwindfunclet$??1XMLDocument@tinyxml2@@UAE@XZ$0
	DD	00H
	DD	FLAT:__unwindfunclet$??1XMLDocument@tinyxml2@@UAE@XZ$1
	DD	01H
	DD	FLAT:__unwindfunclet$??1XMLDocument@tinyxml2@@UAE@XZ$2
	DD	02H
	DD	FLAT:__unwindfunclet$??1XMLDocument@tinyxml2@@UAE@XZ$3
	DD	03H
	DD	FLAT:__unwindfunclet$??1XMLDocument@tinyxml2@@UAE@XZ$4
xdata$x	ENDS
;	COMDAT xdata$x
xdata$x	SEGMENT
__unwindtable$??0XMLDocument@tinyxml2@@QAE@_NW4Whitespace@1@@Z DD 0ffffffffH
	DD	FLAT:__unwindfunclet$??0XMLDocument@tinyxml2@@QAE@_NW4Whitespace@1@@Z$0
	DD	00H
	DD	FLAT:__unwindfunclet$??0XMLDocument@tinyxml2@@QAE@_NW4Whitespace@1@@Z$1
	DD	01H
	DD	FLAT:__unwindfunclet$??0XMLDocument@tinyxml2@@QAE@_NW4Whitespace@1@@Z$2
	DD	02H
	DD	FLAT:__unwindfunclet$??0XMLDocument@tinyxml2@@QAE@_NW4Whitespace@1@@Z$3
__ehfuncinfo$??0XMLDocument@tinyxml2@@QAE@_NW4Whitespace@1@@Z DD 019930522H
	DD	04H
	DD	FLAT:__unwindtable$??0XMLDocument@tinyxml2@@QAE@_NW4Whitespace@1@@Z
	DD	2 DUP(00H)
	DD	2 DUP(00H)
	DD	00H
	DD	01H
xdata$x	ENDS
;	COMDAT xdata$x
xdata$x	SEGMENT
__unwindtable$?ParseAttributes@XMLElement@tinyxml2@@AAEPADPAD@Z DD 0ffffffffH
	DD	FLAT:__unwindfunclet$?ParseAttributes@XMLElement@tinyxml2@@AAEPADPAD@Z$0
__ehfuncinfo$?ParseAttributes@XMLElement@tinyxml2@@AAEPADPAD@Z DD 019930522H
	DD	01H
	DD	FLAT:__unwindtable$?ParseAttributes@XMLElement@tinyxml2@@AAEPADPAD@Z
	DD	2 DUP(00H)
	DD	2 DUP(00H)
	DD	00H
	DD	01H
xdata$x	ENDS
;	COMDAT xdata$x
xdata$x	SEGMENT
__unwindtable$?FindOrCreateAttribute@XMLElement@tinyxml2@@AAEPAVXMLAttribute@2@PBD@Z DD 0ffffffffH
	DD	FLAT:__unwindfunclet$?FindOrCreateAttribute@XMLElement@tinyxml2@@AAEPAVXMLAttribute@2@PBD@Z$0
__ehfuncinfo$?FindOrCreateAttribute@XMLElement@tinyxml2@@AAEPAVXMLAttribute@2@PBD@Z DD 019930522H
	DD	01H
	DD	FLAT:__unwindtable$?FindOrCreateAttribute@XMLElement@tinyxml2@@AAEPAVXMLAttribute@2@PBD@Z
	DD	2 DUP(00H)
	DD	2 DUP(00H)
	DD	00H
	DD	01H
xdata$x	ENDS
;	COMDAT xdata$x
xdata$x	SEGMENT
__unwindtable$??1XMLElement@tinyxml2@@EAE@XZ DD 0ffffffffH
	DD	FLAT:__unwindfunclet$??1XMLElement@tinyxml2@@EAE@XZ$0
__ehfuncinfo$??1XMLElement@tinyxml2@@EAE@XZ DD 019930522H
	DD	01H
	DD	FLAT:__unwindtable$??1XMLElement@tinyxml2@@EAE@XZ
	DD	2 DUP(00H)
	DD	2 DUP(00H)
	DD	00H
	DD	01H
xdata$x	ENDS
;	COMDAT xdata$x
xdata$x	SEGMENT
__unwindtable$??1XMLAttribute@tinyxml2@@EAE@XZ DD 0ffffffffH
	DD	FLAT:__unwindfunclet$??1XMLAttribute@tinyxml2@@EAE@XZ$0
__ehfuncinfo$??1XMLAttribute@tinyxml2@@EAE@XZ DD 019930522H
	DD	01H
	DD	FLAT:__unwindtable$??1XMLAttribute@tinyxml2@@EAE@XZ
	DD	2 DUP(00H)
	DD	2 DUP(00H)
	DD	00H
	DD	01H
xdata$x	ENDS
;	COMDAT xdata$x
xdata$x	SEGMENT
__unwindtable$??0XMLAttribute@tinyxml2@@AAE@XZ DD 0ffffffffH
	DD	FLAT:__unwindfunclet$??0XMLAttribute@tinyxml2@@AAE@XZ$0
__ehfuncinfo$??0XMLAttribute@tinyxml2@@AAE@XZ DD 019930522H
	DD	01H
	DD	FLAT:__unwindtable$??0XMLAttribute@tinyxml2@@AAE@XZ
	DD	2 DUP(00H)
	DD	2 DUP(00H)
	DD	00H
	DD	01H
xdata$x	ENDS
;	COMDAT xdata$x
xdata$x	SEGMENT
__unwindtable$??1XMLNode@tinyxml2@@MAE@XZ DD 0ffffffffH
	DD	FLAT:__unwindfunclet$??1XMLNode@tinyxml2@@MAE@XZ$0
__ehfuncinfo$??1XMLNode@tinyxml2@@MAE@XZ DD 019930522H
	DD	01H
	DD	FLAT:__unwindtable$??1XMLNode@tinyxml2@@MAE@XZ
	DD	2 DUP(00H)
	DD	2 DUP(00H)
	DD	00H
	DD	01H
xdata$x	ENDS
;	COMDAT xdata$x
xdata$x	SEGMENT
__unwindtable$?ParseDeep@XMLNode@tinyxml2@@UAEPADPADPAVStrPair@2@@Z DD 0ffffffffH
	DD	FLAT:__unwindfunclet$?ParseDeep@XMLNode@tinyxml2@@UAEPADPADPAVStrPair@2@@Z$0
__ehfuncinfo$?ParseDeep@XMLNode@tinyxml2@@UAEPADPADPAVStrPair@2@@Z DD 019930522H
	DD	01H
	DD	FLAT:__unwindtable$?ParseDeep@XMLNode@tinyxml2@@UAEPADPADPAVStrPair@2@@Z
	DD	2 DUP(00H)
	DD	2 DUP(00H)
	DD	00H
	DD	01H
xdata$x	ENDS
; Function compile flags: /Odtp /RTCsu /ZI
; File c:\users\simon\documents\github\uclan-sparta\dissertation project\tinyxml\tinyxml2.cpp
;	COMDAT ?callfopen@tinyxml2@@YAPAU_iobuf@@PBD0@Z
_TEXT	SEGMENT
_err$ = -24						; size = 4
_fp$ = -12						; size = 4
__$ArrayPad$ = -4					; size = 4
_filepath$ = 8						; size = 4
_mode$ = 12						; size = 4
?callfopen@tinyxml2@@YAPAU_iobuf@@PBD0@Z PROC		; tinyxml2::callfopen, COMDAT

; 1704 : {

	push	ebp
	mov	ebp, esp
	sub	esp, 220				; 000000dcH
	push	ebx
	push	esi
	push	edi
	lea	edi, DWORD PTR [ebp-220]
	mov	ecx, 55					; 00000037H
	mov	eax, -858993460				; ccccccccH
	rep stosd
	mov	eax, DWORD PTR ___security_cookie
	xor	eax, ebp
	mov	DWORD PTR __$ArrayPad$[ebp], eax

; 1705 : #if defined(_MSC_VER) && (_MSC_VER >= 1400 ) && (!defined WINCE)
; 1706 :     FILE* fp = 0;

	mov	DWORD PTR _fp$[ebp], 0

; 1707 :     errno_t err = fopen_s( &fp, filepath, mode );

	mov	esi, esp
	mov	eax, DWORD PTR _mode$[ebp]
	push	eax
	mov	ecx, DWORD PTR _filepath$[ebp]
	push	ecx
	lea	edx, DWORD PTR _fp$[ebp]
	push	edx
	call	DWORD PTR __imp__fopen_s
	add	esp, 12					; 0000000cH
	cmp	esi, esp
	call	__RTC_CheckEsp
	mov	DWORD PTR _err$[ebp], eax

; 1708 :     if ( err ) {

	cmp	DWORD PTR _err$[ebp], 0
	je	SHORT $LN1@callfopen

; 1709 :         return 0;

	xor	eax, eax
	jmp	SHORT $LN2@callfopen
$LN1@callfopen:

; 1710 :     }
; 1711 : #else
; 1712 :     FILE* fp = fopen( filepath, mode );
; 1713 : #endif
; 1714 :     return fp;

	mov	eax, DWORD PTR _fp$[ebp]
$LN2@callfopen:

; 1715 : }

	push	edx
	mov	ecx, ebp
	push	eax
	lea	edx, DWORD PTR $LN6@callfopen
	call	@_RTC_CheckStackVars@8
	pop	eax
	pop	edx
	pop	edi
	pop	esi
	pop	ebx
	mov	ecx, DWORD PTR __$ArrayPad$[ebp]
	xor	ecx, ebp
	call	@__security_check_cookie@4
	add	esp, 220				; 000000dcH
	cmp	ebp, esp
	call	__RTC_CheckEsp
	mov	esp, ebp
	pop	ebp
	ret	0
$LN6@callfopen:
	DD	1
	DD	$LN5@callfopen
$LN5@callfopen:
	DD	-12					; fffffff4H
	DD	4
	DD	$LN4@callfopen
$LN4@callfopen:
	DB	102					; 00000066H
	DB	112					; 00000070H
	DB	0
?callfopen@tinyxml2@@YAPAU_iobuf@@PBD0@Z ENDP		; tinyxml2::callfopen
_TEXT	ENDS
; Function compile flags: /Odtp /RTCsu /ZI
; File c:\program files (x86)\microsoft visual studio 11.0\vc\include\new
;	COMDAT ??3@YAXPAX0@Z
_TEXT	SEGMENT
___formal$ = 8						; size = 4
___formal$ = 12						; size = 4
??3@YAXPAX0@Z PROC					; operator delete, COMDAT

; 64   : 	{	// delete if placement new fails

	push	ebp
	mov	ebp, esp
	sub	esp, 192				; 000000c0H
	push	ebx
	push	esi
	push	edi
	lea	edi, DWORD PTR [ebp-192]
	mov	ecx, 48					; 00000030H
	mov	eax, -858993460				; ccccccccH
	rep stosd

; 65   : 	}

	pop	edi
	pop	esi
	pop	ebx
	mov	esp, ebp
	pop	ebp
	ret	0
??3@YAXPAX0@Z ENDP					; operator delete
_TEXT	ENDS
; Function compile flags: /Odtp /RTCsu /ZI
; File c:\program files (x86)\microsoft visual studio 11.0\vc\include\new
;	COMDAT ??2@YAPAXIPAX@Z
_TEXT	SEGMENT
___formal$ = 8						; size = 4
__Where$ = 12						; size = 4
??2@YAPAXIPAX@Z PROC					; operator new, COMDAT

; 59   : 	{	// construct array with placement at _Where

	push	ebp
	mov	ebp, esp
	sub	esp, 192				; 000000c0H
	push	ebx
	push	esi
	push	edi
	lea	edi, DWORD PTR [ebp-192]
	mov	ecx, 48					; 00000030H
	mov	eax, -858993460				; ccccccccH
	rep stosd

; 60   : 	return (_Where);

	mov	eax, DWORD PTR __Where$[ebp]

; 61   : 	}

	pop	edi
	pop	esi
	pop	ebx
	mov	esp, ebp
	pop	ebp
	ret	0
??2@YAPAXIPAX@Z ENDP					; operator new
_TEXT	ENDS
; Function compile flags: /Odtp /RTCsu /ZI
;	COMDAT ??_GXMLPrinter@tinyxml2@@UAEPAXI@Z
_TEXT	SEGMENT
_this$ = -8						; size = 4
___flags$ = 8						; size = 4
??_GXMLPrinter@tinyxml2@@UAEPAXI@Z PROC			; tinyxml2::XMLPrinter::`scalar deleting destructor', COMDAT
; _this$ = ecx
	push	ebp
	mov	ebp, esp
	sub	esp, 204				; 000000ccH
	push	ebx
	push	esi
	push	edi
	push	ecx
	lea	edi, DWORD PTR [ebp-204]
	mov	ecx, 51					; 00000033H
	mov	eax, -858993460				; ccccccccH
	rep stosd
	pop	ecx
	mov	DWORD PTR _this$[ebp], ecx
	mov	ecx, DWORD PTR _this$[ebp]
	call	??1XMLPrinter@tinyxml2@@UAE@XZ		; tinyxml2::XMLPrinter::~XMLPrinter
	mov	eax, DWORD PTR ___flags$[ebp]
	and	eax, 1
	je	SHORT $LN1@scalar
	mov	eax, DWORD PTR _this$[ebp]
	push	eax
	call	??3@YAXPAX@Z				; operator delete
	add	esp, 4
$LN1@scalar:
	mov	eax, DWORD PTR _this$[ebp]
	pop	edi
	pop	esi
	pop	ebx
	add	esp, 204				; 000000ccH
	cmp	ebp, esp
	call	__RTC_CheckEsp
	mov	esp, ebp
	pop	ebp
	ret	4
??_GXMLPrinter@tinyxml2@@UAEPAXI@Z ENDP			; tinyxml2::XMLPrinter::`scalar deleting destructor'
_TEXT	ENDS
; Function compile flags: /Odtp /RTCsu /ZI
;	COMDAT ?__autoclassinit@XMLPrinter@tinyxml2@@QAEXI@Z
_TEXT	SEGMENT
_this$ = -8						; size = 4
_$initVBases$ = 8					; size = 4
?__autoclassinit@XMLPrinter@tinyxml2@@QAEXI@Z PROC	; tinyxml2::XMLPrinter::__autoclassinit, COMDAT
; _this$ = ecx
	push	ebp
	mov	ebp, esp
	sub	esp, 204				; 000000ccH
	push	ebx
	push	esi
	push	edi
	push	ecx
	lea	edi, DWORD PTR [ebp-204]
	mov	ecx, 51					; 00000033H
	mov	eax, -858993460				; ccccccccH
	rep stosd
	pop	ecx
	mov	DWORD PTR _this$[ebp], ecx
	push	1
	mov	ecx, DWORD PTR _this$[ebp]
	add	ecx, 8
	call	?__autoclassinit@?$DynArray@PBD$09@tinyxml2@@QAEXI@Z
	mov	eax, DWORD PTR _this$[ebp]
	mov	DWORD PTR [eax+64], 0
	push	1
	mov	ecx, DWORD PTR _this$[ebp]
	add	ecx, 208				; 000000d0H
	call	?__autoclassinit@?$DynArray@D$0BE@@tinyxml2@@QAEXI@Z
	pop	edi
	pop	esi
	pop	ebx
	add	esp, 204				; 000000ccH
	cmp	ebp, esp
	call	__RTC_CheckEsp
	mov	esp, ebp
	pop	ebp
	ret	4
?__autoclassinit@XMLPrinter@tinyxml2@@QAEXI@Z ENDP	; tinyxml2::XMLPrinter::__autoclassinit
_TEXT	ENDS
; Function compile flags: /Odtp /RTCsu /ZI
;	COMDAT ?__autoclassinit@?$DynArray@D$0BE@@tinyxml2@@QAEXI@Z
_TEXT	SEGMENT
_this$ = -8						; size = 4
_$initVBases$ = 8					; size = 4
?__autoclassinit@?$DynArray@D$0BE@@tinyxml2@@QAEXI@Z PROC ; tinyxml2::DynArray<char,20>::__autoclassinit, COMDAT
; _this$ = ecx
	push	ebp
	mov	ebp, esp
	sub	esp, 204				; 000000ccH
	push	ebx
	push	esi
	push	edi
	push	ecx
	lea	edi, DWORD PTR [ebp-204]
	mov	ecx, 51					; 00000033H
	mov	eax, -858993460				; ccccccccH
	rep stosd
	pop	ecx
	mov	DWORD PTR _this$[ebp], ecx
	mov	eax, DWORD PTR _this$[ebp]
	mov	DWORD PTR [eax], 0
	pop	edi
	pop	esi
	pop	ebx
	mov	esp, ebp
	pop	ebp
	ret	4
?__autoclassinit@?$DynArray@D$0BE@@tinyxml2@@QAEXI@Z ENDP ; tinyxml2::DynArray<char,20>::__autoclassinit
_TEXT	ENDS
; Function compile flags: /Odtp /RTCsu /ZI
; File c:\users\simon\documents\github\uclan-sparta\dissertation project\tinyxml\tinyxml2.h
;	COMDAT ?EnsureCapacity@?$DynArray@D$0BE@@tinyxml2@@AAEXH@Z
_TEXT	SEGMENT
$T1 = -248						; size = 4
$T2 = -236						; size = 4
_newMem$3 = -32						; size = 4
_newAllocated$4 = -20					; size = 4
_this$ = -8						; size = 4
_cap$ = 8						; size = 4
?EnsureCapacity@?$DynArray@D$0BE@@tinyxml2@@AAEXH@Z PROC ; tinyxml2::DynArray<char,20>::EnsureCapacity, COMDAT
; _this$ = ecx

; 285  :     void EnsureCapacity( int cap ) {

	push	ebp
	mov	ebp, esp
	sub	esp, 252				; 000000fcH
	push	ebx
	push	esi
	push	edi
	push	ecx
	lea	edi, DWORD PTR [ebp-252]
	mov	ecx, 63					; 0000003fH
	mov	eax, -858993460				; ccccccccH
	rep stosd
	pop	ecx
	mov	DWORD PTR _this$[ebp], ecx

; 286  :         if ( cap > _allocated ) {

	mov	eax, DWORD PTR _this$[ebp]
	mov	ecx, DWORD PTR _cap$[ebp]
	cmp	ecx, DWORD PTR [eax+24]
	jle	SHORT $LN3@EnsureCapa

; 287  :             int newAllocated = cap * 2;

	mov	eax, DWORD PTR _cap$[ebp]
	shl	eax, 1
	mov	DWORD PTR _newAllocated$4[ebp], eax

; 288  :             T* newMem = new T[newAllocated];

	mov	eax, DWORD PTR _newAllocated$4[ebp]
	push	eax
	call	??_U@YAPAXI@Z				; operator new[]
	add	esp, 4
	mov	DWORD PTR $T1[ebp], eax
	mov	ecx, DWORD PTR $T1[ebp]
	mov	DWORD PTR _newMem$3[ebp], ecx

; 289  :             memcpy( newMem, _mem, sizeof(T)*_size );	// warning: not using constructors, only works for PODs

	mov	eax, DWORD PTR _this$[ebp]
	mov	ecx, DWORD PTR [eax+28]
	push	ecx
	mov	edx, DWORD PTR _this$[ebp]
	mov	eax, DWORD PTR [edx]
	push	eax
	mov	ecx, DWORD PTR _newMem$3[ebp]
	push	ecx
	call	_memcpy
	add	esp, 12					; 0000000cH

; 290  :             if ( _mem != _pool ) {

	mov	eax, DWORD PTR _this$[ebp]
	add	eax, 4
	mov	ecx, DWORD PTR _this$[ebp]
	cmp	DWORD PTR [ecx], eax
	je	SHORT $LN1@EnsureCapa

; 291  :                 delete [] _mem;

	mov	eax, DWORD PTR _this$[ebp]
	mov	ecx, DWORD PTR [eax]
	mov	DWORD PTR $T2[ebp], ecx
	mov	edx, DWORD PTR $T2[ebp]
	push	edx
	call	??_V@YAXPAX@Z				; operator delete[]
	add	esp, 4
$LN1@EnsureCapa:

; 292  :             }
; 293  :             _mem = newMem;

	mov	eax, DWORD PTR _this$[ebp]
	mov	ecx, DWORD PTR _newMem$3[ebp]
	mov	DWORD PTR [eax], ecx

; 294  :             _allocated = newAllocated;

	mov	eax, DWORD PTR _this$[ebp]
	mov	ecx, DWORD PTR _newAllocated$4[ebp]
	mov	DWORD PTR [eax+24], ecx
$LN3@EnsureCapa:

; 295  :         }
; 296  :     }

	pop	edi
	pop	esi
	pop	ebx
	add	esp, 252				; 000000fcH
	cmp	ebp, esp
	call	__RTC_CheckEsp
	mov	esp, ebp
	pop	ebp
	ret	4
?EnsureCapacity@?$DynArray@D$0BE@@tinyxml2@@AAEXH@Z ENDP ; tinyxml2::DynArray<char,20>::EnsureCapacity
_TEXT	ENDS
; Function compile flags: /Odtp /RTCsu /ZI
; File c:\users\simon\documents\github\uclan-sparta\dissertation project\tinyxml\tinyxml2.h
;	COMDAT ?PushArr@?$DynArray@D$0BE@@tinyxml2@@QAEPADH@Z
_TEXT	SEGMENT
_ret$ = -20						; size = 4
_this$ = -8						; size = 4
_count$ = 8						; size = 4
?PushArr@?$DynArray@D$0BE@@tinyxml2@@QAEPADH@Z PROC	; tinyxml2::DynArray<char,20>::PushArr, COMDAT
; _this$ = ecx

; 233  :     T* PushArr( int count ) {

	push	ebp
	mov	ebp, esp
	sub	esp, 216				; 000000d8H
	push	ebx
	push	esi
	push	edi
	push	ecx
	lea	edi, DWORD PTR [ebp-216]
	mov	ecx, 54					; 00000036H
	mov	eax, -858993460				; ccccccccH
	rep stosd
	pop	ecx
	mov	DWORD PTR _this$[ebp], ecx

; 234  :         EnsureCapacity( _size+count );

	mov	eax, DWORD PTR _this$[ebp]
	mov	ecx, DWORD PTR [eax+28]
	add	ecx, DWORD PTR _count$[ebp]
	push	ecx
	mov	ecx, DWORD PTR _this$[ebp]
	call	?EnsureCapacity@?$DynArray@D$0BE@@tinyxml2@@AAEXH@Z ; tinyxml2::DynArray<char,20>::EnsureCapacity

; 235  :         T* ret = &_mem[_size];

	mov	eax, DWORD PTR _this$[ebp]
	mov	ecx, DWORD PTR [eax]
	mov	edx, DWORD PTR _this$[ebp]
	add	ecx, DWORD PTR [edx+28]
	mov	DWORD PTR _ret$[ebp], ecx

; 236  :         _size += count;

	mov	eax, DWORD PTR _this$[ebp]
	mov	ecx, DWORD PTR [eax+28]
	add	ecx, DWORD PTR _count$[ebp]
	mov	edx, DWORD PTR _this$[ebp]
	mov	DWORD PTR [edx+28], ecx

; 237  :         return ret;

	mov	eax, DWORD PTR _ret$[ebp]

; 238  :     }

	pop	edi
	pop	esi
	pop	ebx
	add	esp, 216				; 000000d8H
	cmp	ebp, esp
	call	__RTC_CheckEsp
	mov	esp, ebp
	pop	ebp
	ret	4
?PushArr@?$DynArray@D$0BE@@tinyxml2@@QAEPADH@Z ENDP	; tinyxml2::DynArray<char,20>::PushArr
_TEXT	ENDS
; Function compile flags: /Odtp /RTCsu /ZI
; File c:\users\simon\documents\github\uclan-sparta\dissertation project\tinyxml\tinyxml2.h
;	COMDAT ?Push@?$DynArray@D$0BE@@tinyxml2@@QAEXD@Z
_TEXT	SEGMENT
_this$ = -8						; size = 4
_t$ = 8							; size = 1
?Push@?$DynArray@D$0BE@@tinyxml2@@QAEXD@Z PROC		; tinyxml2::DynArray<char,20>::Push, COMDAT
; _this$ = ecx

; 228  :     void Push( T t ) {

	push	ebp
	mov	ebp, esp
	sub	esp, 204				; 000000ccH
	push	ebx
	push	esi
	push	edi
	push	ecx
	lea	edi, DWORD PTR [ebp-204]
	mov	ecx, 51					; 00000033H
	mov	eax, -858993460				; ccccccccH
	rep stosd
	pop	ecx
	mov	DWORD PTR _this$[ebp], ecx

; 229  :         EnsureCapacity( _size+1 );

	mov	eax, DWORD PTR _this$[ebp]
	mov	ecx, DWORD PTR [eax+28]
	add	ecx, 1
	push	ecx
	mov	ecx, DWORD PTR _this$[ebp]
	call	?EnsureCapacity@?$DynArray@D$0BE@@tinyxml2@@AAEXH@Z ; tinyxml2::DynArray<char,20>::EnsureCapacity

; 230  :         _mem[_size++] = t;

	mov	eax, DWORD PTR _this$[ebp]
	mov	ecx, DWORD PTR [eax+28]
	mov	edx, DWORD PTR _this$[ebp]
	mov	eax, DWORD PTR [edx]
	mov	dl, BYTE PTR _t$[ebp]
	mov	BYTE PTR [eax+ecx], dl
	mov	eax, DWORD PTR _this$[ebp]
	mov	ecx, DWORD PTR [eax+28]
	add	ecx, 1
	mov	edx, DWORD PTR _this$[ebp]
	mov	DWORD PTR [edx+28], ecx

; 231  :     }

	pop	edi
	pop	esi
	pop	ebx
	add	esp, 204				; 000000ccH
	cmp	ebp, esp
	call	__RTC_CheckEsp
	mov	esp, ebp
	pop	ebp
	ret	4
?Push@?$DynArray@D$0BE@@tinyxml2@@QAEXD@Z ENDP		; tinyxml2::DynArray<char,20>::Push
_TEXT	ENDS
; Function compile flags: /Odtp /RTCsu /ZI
; File c:\users\simon\documents\github\uclan-sparta\dissertation project\tinyxml\tinyxml2.h
;	COMDAT ??1?$DynArray@D$0BE@@tinyxml2@@QAE@XZ
_TEXT	SEGMENT
$T1 = -212						; size = 4
_this$ = -8						; size = 4
??1?$DynArray@D$0BE@@tinyxml2@@QAE@XZ PROC		; tinyxml2::DynArray<char,20>::~DynArray<char,20>, COMDAT
; _this$ = ecx

; 218  :     ~DynArray() {

	push	ebp
	mov	ebp, esp
	sub	esp, 216				; 000000d8H
	push	ebx
	push	esi
	push	edi
	push	ecx
	lea	edi, DWORD PTR [ebp-216]
	mov	ecx, 54					; 00000036H
	mov	eax, -858993460				; ccccccccH
	rep stosd
	pop	ecx
	mov	DWORD PTR _this$[ebp], ecx

; 219  :         if ( _mem != _pool ) {

	mov	eax, DWORD PTR _this$[ebp]
	add	eax, 4
	mov	ecx, DWORD PTR _this$[ebp]
	cmp	DWORD PTR [ecx], eax
	je	SHORT $LN2@DynArray

; 220  :             delete [] _mem;

	mov	eax, DWORD PTR _this$[ebp]
	mov	ecx, DWORD PTR [eax]
	mov	DWORD PTR $T1[ebp], ecx
	mov	edx, DWORD PTR $T1[ebp]
	push	edx
	call	??_V@YAXPAX@Z				; operator delete[]
	add	esp, 4
$LN2@DynArray:

; 221  :         }
; 222  :     }

	pop	edi
	pop	esi
	pop	ebx
	add	esp, 216				; 000000d8H
	cmp	ebp, esp
	call	__RTC_CheckEsp
	mov	esp, ebp
	pop	ebp
	ret	0
??1?$DynArray@D$0BE@@tinyxml2@@QAE@XZ ENDP		; tinyxml2::DynArray<char,20>::~DynArray<char,20>
_TEXT	ENDS
; Function compile flags: /Odtp /RTCsu /ZI
; File c:\users\simon\documents\github\uclan-sparta\dissertation project\tinyxml\tinyxml2.h
;	COMDAT ??0?$DynArray@D$0BE@@tinyxml2@@QAE@XZ
_TEXT	SEGMENT
_this$ = -8						; size = 4
??0?$DynArray@D$0BE@@tinyxml2@@QAE@XZ PROC		; tinyxml2::DynArray<char,20>::DynArray<char,20>, COMDAT
; _this$ = ecx

; 212  :     DynArray< T, INIT >() {

	push	ebp
	mov	ebp, esp
	sub	esp, 204				; 000000ccH
	push	ebx
	push	esi
	push	edi
	push	ecx
	lea	edi, DWORD PTR [ebp-204]
	mov	ecx, 51					; 00000033H
	mov	eax, -858993460				; ccccccccH
	rep stosd
	pop	ecx
	mov	DWORD PTR _this$[ebp], ecx

; 213  :         _mem = _pool;

	mov	eax, DWORD PTR _this$[ebp]
	add	eax, 4
	mov	ecx, DWORD PTR _this$[ebp]
	mov	DWORD PTR [ecx], eax

; 214  :         _allocated = INIT;

	mov	eax, DWORD PTR _this$[ebp]
	mov	DWORD PTR [eax+24], 20			; 00000014H

; 215  :         _size = 0;

	mov	eax, DWORD PTR _this$[ebp]
	mov	DWORD PTR [eax+28], 0

; 216  :     }

	mov	eax, DWORD PTR _this$[ebp]
	pop	edi
	pop	esi
	pop	ebx
	mov	esp, ebp
	pop	ebp
	ret	0
??0?$DynArray@D$0BE@@tinyxml2@@QAE@XZ ENDP		; tinyxml2::DynArray<char,20>::DynArray<char,20>
_TEXT	ENDS
; Function compile flags: /Odtp /RTCsu /ZI
; File c:\users\simon\documents\github\uclan-sparta\dissertation project\tinyxml\tinyxml2.cpp
;	COMDAT ?PrintString@XMLPrinter@tinyxml2@@AAEXPBD_N@Z
_TEXT	SEGMENT
tv68 = -244						; size = 4
_i$1 = -44						; size = 4
_flag$ = -32						; size = 4
_q$ = -20						; size = 4
_this$ = -8						; size = 4
_p$ = 8							; size = 4
_restricted$ = 12					; size = 1
?PrintString@XMLPrinter@tinyxml2@@AAEXPBD_N@Z PROC	; tinyxml2::XMLPrinter::PrintString, COMDAT
; _this$ = ecx

; 1958 : {

	push	ebp
	mov	ebp, esp
	sub	esp, 244				; 000000f4H
	push	ebx
	push	esi
	push	edi
	push	ecx
	lea	edi, DWORD PTR [ebp-244]
	mov	ecx, 61					; 0000003dH
	mov	eax, -858993460				; ccccccccH
	rep stosd
	pop	ecx
	mov	DWORD PTR _this$[ebp], ecx

; 1959 :     // Look for runs of bytes between entities to print.
; 1960 :     const char* q = p;

	mov	eax, DWORD PTR _p$[ebp]
	mov	DWORD PTR _q$[ebp], eax

; 1961 :     const bool* flag = restricted ? _restrictedEntityFlag : _entityFlag;

	movzx	eax, BYTE PTR _restricted$[ebp]
	test	eax, eax
	je	SHORT $LN16@PrintStrin
	mov	ecx, DWORD PTR _this$[ebp]
	add	ecx, 142				; 0000008eH
	mov	DWORD PTR tv68[ebp], ecx
	jmp	SHORT $LN17@PrintStrin
$LN16@PrintStrin:
	mov	edx, DWORD PTR _this$[ebp]
	add	edx, 78					; 0000004eH
	mov	DWORD PTR tv68[ebp], edx
$LN17@PrintStrin:
	mov	eax, DWORD PTR tv68[ebp]
	mov	DWORD PTR _flag$[ebp], eax

; 1962 : 
; 1963 :     if ( _processEntities ) {

	mov	eax, DWORD PTR _this$[ebp]
	movzx	ecx, BYTE PTR [eax+76]
	test	ecx, ecx
	je	$LN13@PrintStrin
$LN12@PrintStrin:

; 1964 :         while ( *q ) {

	mov	eax, DWORD PTR _q$[ebp]
	movsx	ecx, BYTE PTR [eax]
	test	ecx, ecx
	je	$LN13@PrintStrin

; 1965 :             // Remember, char is sometimes signed. (How many times has that bitten me?)
; 1966 :             if ( *q > 0 && *q < ENTITY_RANGE ) {

	mov	eax, DWORD PTR _q$[ebp]
	movsx	ecx, BYTE PTR [eax]
	test	ecx, ecx
	jle	$LN10@PrintStrin
	mov	eax, DWORD PTR _q$[ebp]
	movsx	ecx, BYTE PTR [eax]
	cmp	ecx, 64					; 00000040H
	jge	$LN10@PrintStrin

; 1967 :                 // Check for entities. If one is found, flush
; 1968 :                 // the stream up until the entity, write the
; 1969 :                 // entity, and keep looking.
; 1970 :                 if ( flag[(unsigned)(*q)] ) {

	mov	eax, DWORD PTR _q$[ebp]
	movsx	ecx, BYTE PTR [eax]
	mov	edx, DWORD PTR _flag$[ebp]
	movzx	eax, BYTE PTR [edx+ecx]
	test	eax, eax
	je	$LN10@PrintStrin
$LN8@PrintStrin:

; 1971 :                     while ( p < q ) {

	mov	eax, DWORD PTR _p$[ebp]
	cmp	eax, DWORD PTR _q$[ebp]
	jae	SHORT $LN7@PrintStrin

; 1972 :                         Print( "%c", *p );

	mov	eax, DWORD PTR _p$[ebp]
	movsx	ecx, BYTE PTR [eax]
	push	ecx
	push	OFFSET ??_C@_02HAOIJKIC@?$CFc?$AA@
	mov	edx, DWORD PTR _this$[ebp]
	push	edx
	call	?Print@XMLPrinter@tinyxml2@@IAAXPBDZZ	; tinyxml2::XMLPrinter::Print
	add	esp, 12					; 0000000cH

; 1973 :                         ++p;

	mov	eax, DWORD PTR _p$[ebp]
	add	eax, 1
	mov	DWORD PTR _p$[ebp], eax

; 1974 :                     }

	jmp	SHORT $LN8@PrintStrin
$LN7@PrintStrin:

; 1975 :                     for( int i=0; i<NUM_ENTITIES; ++i ) {

	mov	DWORD PTR _i$1[ebp], 0
	jmp	SHORT $LN6@PrintStrin
$LN5@PrintStrin:
	mov	eax, DWORD PTR _i$1[ebp]
	add	eax, 1
	mov	DWORD PTR _i$1[ebp], eax
$LN6@PrintStrin:
	cmp	DWORD PTR _i$1[ebp], 5
	jge	SHORT $LN4@PrintStrin

; 1976 :                         if ( entities[i].value == *q ) {

	mov	eax, DWORD PTR _i$1[ebp]
	imul	eax, 12					; 0000000cH
	movsx	ecx, BYTE PTR _entities[eax+8]
	mov	edx, DWORD PTR _q$[ebp]
	movsx	eax, BYTE PTR [edx]
	cmp	ecx, eax
	jne	SHORT $LN3@PrintStrin

; 1977 :                             Print( "&%s;", entities[i].pattern );

	mov	eax, DWORD PTR _i$1[ebp]
	imul	eax, 12					; 0000000cH
	mov	ecx, DWORD PTR _entities[eax]
	push	ecx
	push	OFFSET ??_C@_04IKLFLEHL@?$CG?$CFs?$DL?$AA@
	mov	edx, DWORD PTR _this$[ebp]
	push	edx
	call	?Print@XMLPrinter@tinyxml2@@IAAXPBDZZ	; tinyxml2::XMLPrinter::Print
	add	esp, 12					; 0000000cH

; 1978 :                             break;

	jmp	SHORT $LN4@PrintStrin
$LN3@PrintStrin:

; 1979 :                         }
; 1980 :                     }

	jmp	SHORT $LN5@PrintStrin
$LN4@PrintStrin:

; 1981 :                     ++p;

	mov	eax, DWORD PTR _p$[ebp]
	add	eax, 1
	mov	DWORD PTR _p$[ebp], eax
$LN10@PrintStrin:

; 1982 :                 }
; 1983 :             }
; 1984 :             ++q;

	mov	eax, DWORD PTR _q$[ebp]
	add	eax, 1
	mov	DWORD PTR _q$[ebp], eax

; 1985 :         }

	jmp	$LN12@PrintStrin
$LN13@PrintStrin:

; 1986 :     }
; 1987 :     // Flush the remaining string. This will be the entire
; 1988 :     // string if an entity wasn't found.
; 1989 :     if ( !_processEntities || (q-p > 0) ) {

	mov	eax, DWORD PTR _this$[ebp]
	movzx	ecx, BYTE PTR [eax+76]
	test	ecx, ecx
	je	SHORT $LN1@PrintStrin
	mov	eax, DWORD PTR _q$[ebp]
	sub	eax, DWORD PTR _p$[ebp]
	test	eax, eax
	jle	SHORT $LN14@PrintStrin
$LN1@PrintStrin:

; 1990 :         Print( "%s", p );

	mov	eax, DWORD PTR _p$[ebp]
	push	eax
	push	OFFSET ??_C@_02DKCKIIND@?$CFs?$AA@
	mov	ecx, DWORD PTR _this$[ebp]
	push	ecx
	call	?Print@XMLPrinter@tinyxml2@@IAAXPBDZZ	; tinyxml2::XMLPrinter::Print
	add	esp, 12					; 0000000cH
$LN14@PrintStrin:

; 1991 :     }
; 1992 : }

	pop	edi
	pop	esi
	pop	ebx
	add	esp, 244				; 000000f4H
	cmp	ebp, esp
	call	__RTC_CheckEsp
	mov	esp, ebp
	pop	ebp
	ret	8
?PrintString@XMLPrinter@tinyxml2@@AAEXPBD_N@Z ENDP	; tinyxml2::XMLPrinter::PrintString
_TEXT	ENDS
; Function compile flags: /Odtp /RTCsu /ZI
;	COMDAT ?__autoclassinit@?$DynArray@PBD$09@tinyxml2@@QAEXI@Z
_TEXT	SEGMENT
_this$ = -8						; size = 4
_$initVBases$ = 8					; size = 4
?__autoclassinit@?$DynArray@PBD$09@tinyxml2@@QAEXI@Z PROC ; tinyxml2::DynArray<char const *,10>::__autoclassinit, COMDAT
; _this$ = ecx
	push	ebp
	mov	ebp, esp
	sub	esp, 204				; 000000ccH
	push	ebx
	push	esi
	push	edi
	push	ecx
	lea	edi, DWORD PTR [ebp-204]
	mov	ecx, 51					; 00000033H
	mov	eax, -858993460				; ccccccccH
	rep stosd
	pop	ecx
	mov	DWORD PTR _this$[ebp], ecx
	mov	eax, DWORD PTR _this$[ebp]
	mov	DWORD PTR [eax], 0
	pop	edi
	pop	esi
	pop	ebx
	mov	esp, ebp
	pop	ebp
	ret	4
?__autoclassinit@?$DynArray@PBD$09@tinyxml2@@QAEXI@Z ENDP ; tinyxml2::DynArray<char const *,10>::__autoclassinit
_TEXT	ENDS
; Function compile flags: /Odtp /RTCsu /ZI
; File c:\users\simon\documents\github\uclan-sparta\dissertation project\tinyxml\tinyxml2.h
;	COMDAT ?EnsureCapacity@?$DynArray@PBD$09@tinyxml2@@AAEXH@Z
_TEXT	SEGMENT
$T1 = -248						; size = 4
$T2 = -236						; size = 4
_newMem$3 = -32						; size = 4
_newAllocated$4 = -20					; size = 4
_this$ = -8						; size = 4
_cap$ = 8						; size = 4
?EnsureCapacity@?$DynArray@PBD$09@tinyxml2@@AAEXH@Z PROC ; tinyxml2::DynArray<char const *,10>::EnsureCapacity, COMDAT
; _this$ = ecx

; 285  :     void EnsureCapacity( int cap ) {

	push	ebp
	mov	ebp, esp
	sub	esp, 252				; 000000fcH
	push	ebx
	push	esi
	push	edi
	push	ecx
	lea	edi, DWORD PTR [ebp-252]
	mov	ecx, 63					; 0000003fH
	mov	eax, -858993460				; ccccccccH
	rep stosd
	pop	ecx
	mov	DWORD PTR _this$[ebp], ecx

; 286  :         if ( cap > _allocated ) {

	mov	eax, DWORD PTR _this$[ebp]
	mov	ecx, DWORD PTR _cap$[ebp]
	cmp	ecx, DWORD PTR [eax+44]
	jle	$LN3@EnsureCapa

; 287  :             int newAllocated = cap * 2;

	mov	eax, DWORD PTR _cap$[ebp]
	shl	eax, 1
	mov	DWORD PTR _newAllocated$4[ebp], eax

; 288  :             T* newMem = new T[newAllocated];

	xor	ecx, ecx
	mov	eax, DWORD PTR _newAllocated$4[ebp]
	mov	edx, 4
	mul	edx
	seto	cl
	neg	ecx
	or	ecx, eax
	push	ecx
	call	??_U@YAPAXI@Z				; operator new[]
	add	esp, 4
	mov	DWORD PTR $T1[ebp], eax
	mov	eax, DWORD PTR $T1[ebp]
	mov	DWORD PTR _newMem$3[ebp], eax

; 289  :             memcpy( newMem, _mem, sizeof(T)*_size );	// warning: not using constructors, only works for PODs

	mov	eax, DWORD PTR _this$[ebp]
	mov	ecx, DWORD PTR [eax+48]
	shl	ecx, 2
	push	ecx
	mov	edx, DWORD PTR _this$[ebp]
	mov	eax, DWORD PTR [edx]
	push	eax
	mov	ecx, DWORD PTR _newMem$3[ebp]
	push	ecx
	call	_memcpy
	add	esp, 12					; 0000000cH

; 290  :             if ( _mem != _pool ) {

	mov	eax, DWORD PTR _this$[ebp]
	add	eax, 4
	mov	ecx, DWORD PTR _this$[ebp]
	cmp	DWORD PTR [ecx], eax
	je	SHORT $LN1@EnsureCapa

; 291  :                 delete [] _mem;

	mov	eax, DWORD PTR _this$[ebp]
	mov	ecx, DWORD PTR [eax]
	mov	DWORD PTR $T2[ebp], ecx
	mov	edx, DWORD PTR $T2[ebp]
	push	edx
	call	??_V@YAXPAX@Z				; operator delete[]
	add	esp, 4
$LN1@EnsureCapa:

; 292  :             }
; 293  :             _mem = newMem;

	mov	eax, DWORD PTR _this$[ebp]
	mov	ecx, DWORD PTR _newMem$3[ebp]
	mov	DWORD PTR [eax], ecx

; 294  :             _allocated = newAllocated;

	mov	eax, DWORD PTR _this$[ebp]
	mov	ecx, DWORD PTR _newAllocated$4[ebp]
	mov	DWORD PTR [eax+44], ecx
$LN3@EnsureCapa:

; 295  :         }
; 296  :     }

	pop	edi
	pop	esi
	pop	ebx
	add	esp, 252				; 000000fcH
	cmp	ebp, esp
	call	__RTC_CheckEsp
	mov	esp, ebp
	pop	ebp
	ret	4
?EnsureCapacity@?$DynArray@PBD$09@tinyxml2@@AAEXH@Z ENDP ; tinyxml2::DynArray<char const *,10>::EnsureCapacity
_TEXT	ENDS
; Function compile flags: /Odtp /RTCsu /ZI
; File c:\users\simon\documents\github\uclan-sparta\dissertation project\tinyxml\tinyxml2.h
;	COMDAT ?Pop@?$DynArray@PBD$09@tinyxml2@@QAEPBDXZ
_TEXT	SEGMENT
tv69 = -208						; size = 4
_this$ = -8						; size = 4
?Pop@?$DynArray@PBD$09@tinyxml2@@QAEPBDXZ PROC		; tinyxml2::DynArray<char const *,10>::Pop, COMDAT
; _this$ = ecx

; 240  :     T Pop() {

	push	ebp
	mov	ebp, esp
	sub	esp, 208				; 000000d0H
	push	ebx
	push	esi
	push	edi
	push	ecx
	lea	edi, DWORD PTR [ebp-208]
	mov	ecx, 52					; 00000034H
	mov	eax, -858993460				; ccccccccH
	rep stosd
	pop	ecx
	mov	DWORD PTR _this$[ebp], ecx

; 241  :         return _mem[--_size];

	mov	eax, DWORD PTR _this$[ebp]
	mov	ecx, DWORD PTR [eax+48]
	sub	ecx, 1
	mov	DWORD PTR tv69[ebp], ecx
	mov	edx, DWORD PTR _this$[ebp]
	mov	eax, DWORD PTR tv69[ebp]
	mov	DWORD PTR [edx+48], eax
	mov	ecx, DWORD PTR _this$[ebp]
	mov	edx, DWORD PTR [ecx]
	mov	eax, DWORD PTR tv69[ebp]
	mov	eax, DWORD PTR [edx+eax*4]

; 242  :     }

	pop	edi
	pop	esi
	pop	ebx
	mov	esp, ebp
	pop	ebp
	ret	0
?Pop@?$DynArray@PBD$09@tinyxml2@@QAEPBDXZ ENDP		; tinyxml2::DynArray<char const *,10>::Pop
_TEXT	ENDS
; Function compile flags: /Odtp /RTCsu /ZI
; File c:\users\simon\documents\github\uclan-sparta\dissertation project\tinyxml\tinyxml2.h
;	COMDAT ?Push@?$DynArray@PBD$09@tinyxml2@@QAEXPBD@Z
_TEXT	SEGMENT
_this$ = -8						; size = 4
_t$ = 8							; size = 4
?Push@?$DynArray@PBD$09@tinyxml2@@QAEXPBD@Z PROC	; tinyxml2::DynArray<char const *,10>::Push, COMDAT
; _this$ = ecx

; 228  :     void Push( T t ) {

	push	ebp
	mov	ebp, esp
	sub	esp, 204				; 000000ccH
	push	ebx
	push	esi
	push	edi
	push	ecx
	lea	edi, DWORD PTR [ebp-204]
	mov	ecx, 51					; 00000033H
	mov	eax, -858993460				; ccccccccH
	rep stosd
	pop	ecx
	mov	DWORD PTR _this$[ebp], ecx

; 229  :         EnsureCapacity( _size+1 );

	mov	eax, DWORD PTR _this$[ebp]
	mov	ecx, DWORD PTR [eax+48]
	add	ecx, 1
	push	ecx
	mov	ecx, DWORD PTR _this$[ebp]
	call	?EnsureCapacity@?$DynArray@PBD$09@tinyxml2@@AAEXH@Z ; tinyxml2::DynArray<char const *,10>::EnsureCapacity

; 230  :         _mem[_size++] = t;

	mov	eax, DWORD PTR _this$[ebp]
	mov	ecx, DWORD PTR [eax+48]
	mov	edx, DWORD PTR _this$[ebp]
	mov	eax, DWORD PTR [edx]
	mov	edx, DWORD PTR _t$[ebp]
	mov	DWORD PTR [eax+ecx*4], edx
	mov	eax, DWORD PTR _this$[ebp]
	mov	ecx, DWORD PTR [eax+48]
	add	ecx, 1
	mov	edx, DWORD PTR _this$[ebp]
	mov	DWORD PTR [edx+48], ecx

; 231  :     }

	pop	edi
	pop	esi
	pop	ebx
	add	esp, 204				; 000000ccH
	cmp	ebp, esp
	call	__RTC_CheckEsp
	mov	esp, ebp
	pop	ebp
	ret	4
?Push@?$DynArray@PBD$09@tinyxml2@@QAEXPBD@Z ENDP	; tinyxml2::DynArray<char const *,10>::Push
_TEXT	ENDS
; Function compile flags: /Odtp /RTCsu /ZI
; File c:\users\simon\documents\github\uclan-sparta\dissertation project\tinyxml\tinyxml2.h
;	COMDAT ??1?$DynArray@PBD$09@tinyxml2@@QAE@XZ
_TEXT	SEGMENT
$T1 = -212						; size = 4
_this$ = -8						; size = 4
??1?$DynArray@PBD$09@tinyxml2@@QAE@XZ PROC		; tinyxml2::DynArray<char const *,10>::~DynArray<char const *,10>, COMDAT
; _this$ = ecx

; 218  :     ~DynArray() {

	push	ebp
	mov	ebp, esp
	sub	esp, 216				; 000000d8H
	push	ebx
	push	esi
	push	edi
	push	ecx
	lea	edi, DWORD PTR [ebp-216]
	mov	ecx, 54					; 00000036H
	mov	eax, -858993460				; ccccccccH
	rep stosd
	pop	ecx
	mov	DWORD PTR _this$[ebp], ecx

; 219  :         if ( _mem != _pool ) {

	mov	eax, DWORD PTR _this$[ebp]
	add	eax, 4
	mov	ecx, DWORD PTR _this$[ebp]
	cmp	DWORD PTR [ecx], eax
	je	SHORT $LN2@DynArray

; 220  :             delete [] _mem;

	mov	eax, DWORD PTR _this$[ebp]
	mov	ecx, DWORD PTR [eax]
	mov	DWORD PTR $T1[ebp], ecx
	mov	edx, DWORD PTR $T1[ebp]
	push	edx
	call	??_V@YAXPAX@Z				; operator delete[]
	add	esp, 4
$LN2@DynArray:

; 221  :         }
; 222  :     }

	pop	edi
	pop	esi
	pop	ebx
	add	esp, 216				; 000000d8H
	cmp	ebp, esp
	call	__RTC_CheckEsp
	mov	esp, ebp
	pop	ebp
	ret	0
??1?$DynArray@PBD$09@tinyxml2@@QAE@XZ ENDP		; tinyxml2::DynArray<char const *,10>::~DynArray<char const *,10>
_TEXT	ENDS
; Function compile flags: /Odtp /RTCsu /ZI
; File c:\users\simon\documents\github\uclan-sparta\dissertation project\tinyxml\tinyxml2.h
;	COMDAT ??0?$DynArray@PBD$09@tinyxml2@@QAE@XZ
_TEXT	SEGMENT
_this$ = -8						; size = 4
??0?$DynArray@PBD$09@tinyxml2@@QAE@XZ PROC		; tinyxml2::DynArray<char const *,10>::DynArray<char const *,10>, COMDAT
; _this$ = ecx

; 212  :     DynArray< T, INIT >() {

	push	ebp
	mov	ebp, esp
	sub	esp, 204				; 000000ccH
	push	ebx
	push	esi
	push	edi
	push	ecx
	lea	edi, DWORD PTR [ebp-204]
	mov	ecx, 51					; 00000033H
	mov	eax, -858993460				; ccccccccH
	rep stosd
	pop	ecx
	mov	DWORD PTR _this$[ebp], ecx

; 213  :         _mem = _pool;

	mov	eax, DWORD PTR _this$[ebp]
	add	eax, 4
	mov	ecx, DWORD PTR _this$[ebp]
	mov	DWORD PTR [ecx], eax

; 214  :         _allocated = INIT;

	mov	eax, DWORD PTR _this$[ebp]
	mov	DWORD PTR [eax+44], 10			; 0000000aH

; 215  :         _size = 0;

	mov	eax, DWORD PTR _this$[ebp]
	mov	DWORD PTR [eax+48], 0

; 216  :     }

	mov	eax, DWORD PTR _this$[ebp]
	pop	edi
	pop	esi
	pop	ebx
	mov	esp, ebp
	pop	ebp
	ret	0
??0?$DynArray@PBD$09@tinyxml2@@QAE@XZ ENDP		; tinyxml2::DynArray<char const *,10>::DynArray<char const *,10>
_TEXT	ENDS
; Function compile flags: /Odtp /RTCsu /ZI
; File c:\users\simon\documents\github\uclan-sparta\dissertation project\tinyxml\tinyxml2.cpp
;	COMDAT ?SealElement@XMLPrinter@tinyxml2@@IAEXXZ
_TEXT	SEGMENT
_this$ = -8						; size = 4
?SealElement@XMLPrinter@tinyxml2@@IAEXXZ PROC		; tinyxml2::XMLPrinter::SealElement, COMDAT
; _this$ = ecx

; 2096 : {

	push	ebp
	mov	ebp, esp
	sub	esp, 204				; 000000ccH
	push	ebx
	push	esi
	push	edi
	push	ecx
	lea	edi, DWORD PTR [ebp-204]
	mov	ecx, 51					; 00000033H
	mov	eax, -858993460				; ccccccccH
	rep stosd
	pop	ecx
	mov	DWORD PTR _this$[ebp], ecx

; 2097 :     _elementJustOpened = false;

	mov	eax, DWORD PTR _this$[ebp]
	mov	BYTE PTR [eax+4], 0

; 2098 :     Print( ">" );

	push	OFFSET ??_C@_01PPODPGHN@?$DO?$AA@
	mov	eax, DWORD PTR _this$[ebp]
	push	eax
	call	?Print@XMLPrinter@tinyxml2@@IAAXPBDZZ	; tinyxml2::XMLPrinter::Print
	add	esp, 8

; 2099 : }

	pop	edi
	pop	esi
	pop	ebx
	add	esp, 204				; 000000ccH
	cmp	ebp, esp
	call	__RTC_CheckEsp
	mov	esp, ebp
	pop	ebp
	ret	0
?SealElement@XMLPrinter@tinyxml2@@IAEXXZ ENDP		; tinyxml2::XMLPrinter::SealElement
_TEXT	ENDS
; Function compile flags: /Odtp /RTCsu /ZI
; File c:\users\simon\documents\github\uclan-sparta\dissertation project\tinyxml\tinyxml2.cpp
;	COMDAT ?Print@XMLPrinter@tinyxml2@@IAAXPBDZZ
_TEXT	SEGMENT
_p$1 = -32						; size = 4
_len$2 = -20						; size = 4
_va$ = -8						; size = 4
_this$ = 8						; size = 4
_format$ = 12						; size = 4
?Print@XMLPrinter@tinyxml2@@IAAXPBDZZ PROC		; tinyxml2::XMLPrinter::Print, COMDAT

; 1908 : {

	push	ebp
	mov	ebp, esp
	sub	esp, 228				; 000000e4H
	push	ebx
	push	esi
	push	edi
	lea	edi, DWORD PTR [ebp-228]
	mov	ecx, 57					; 00000039H
	mov	eax, -858993460				; ccccccccH
	rep stosd

; 1909 :     va_list     va;
; 1910 :     va_start( va, format );

	lea	eax, DWORD PTR _format$[ebp+4]
	mov	DWORD PTR _va$[ebp], eax

; 1911 : 
; 1912 :     if ( _fp ) {

	mov	eax, DWORD PTR _this$[ebp]
	cmp	DWORD PTR [eax+64], 0
	je	SHORT $LN2@Print

; 1913 :         vfprintf( _fp, format, va );

	mov	esi, esp
	mov	eax, DWORD PTR _va$[ebp]
	push	eax
	mov	ecx, DWORD PTR _format$[ebp]
	push	ecx
	mov	edx, DWORD PTR _this$[ebp]
	mov	eax, DWORD PTR [edx+64]
	push	eax
	call	DWORD PTR __imp__vfprintf
	add	esp, 12					; 0000000cH
	cmp	esi, esp
	call	__RTC_CheckEsp

; 1914 :     }
; 1915 :     else {

	jmp	SHORT $LN1@Print
$LN2@Print:

; 1916 : #if defined(_MSC_VER) && (_MSC_VER >= 1400 )
; 1917 : 		#if defined(WINCE)
; 1918 : 		int len = 512;
; 1919 : 		do {
; 1920 : 		    len = len*2;
; 1921 : 		    char* str = new char[len]();
; 1922 : 			len = _vsnprintf(str, len, format, va);
; 1923 : 			delete[] str;
; 1924 : 		}while (len < 0);
; 1925 : 		#else
; 1926 :         int len = _vscprintf( format, va );

	mov	esi, esp
	mov	eax, DWORD PTR _va$[ebp]
	push	eax
	mov	ecx, DWORD PTR _format$[ebp]
	push	ecx
	call	DWORD PTR __imp___vscprintf
	add	esp, 8
	cmp	esi, esp
	call	__RTC_CheckEsp
	mov	DWORD PTR _len$2[ebp], eax

; 1927 : 		#endif
; 1928 : #else
; 1929 :         int len = vsnprintf( 0, 0, format, va );
; 1930 : #endif
; 1931 :         // Close out and re-start the va-args
; 1932 :         va_end( va );

	mov	DWORD PTR _va$[ebp], 0

; 1933 :         va_start( va, format );

	lea	eax, DWORD PTR _format$[ebp+4]
	mov	DWORD PTR _va$[ebp], eax

; 1934 :         char* p = _buffer.PushArr( len ) - 1;	// back up over the null terminator.

	mov	eax, DWORD PTR _len$2[ebp]
	push	eax
	mov	ecx, DWORD PTR _this$[ebp]
	add	ecx, 208				; 000000d0H
	call	?PushArr@?$DynArray@D$0BE@@tinyxml2@@QAEPADH@Z ; tinyxml2::DynArray<char,20>::PushArr
	sub	eax, 1
	mov	DWORD PTR _p$1[ebp], eax

; 1935 : #if defined(_MSC_VER) && (_MSC_VER >= 1400 )
; 1936 : 		#if defined(WINCE)
; 1937 : 		_vsnprintf( p, len+1, format, va );
; 1938 : 		#else
; 1939 : 		vsnprintf_s( p, len+1, _TRUNCATE, format, va );

	mov	esi, esp
	mov	eax, DWORD PTR _va$[ebp]
	push	eax
	mov	ecx, DWORD PTR _format$[ebp]
	push	ecx
	push	-1
	mov	edx, DWORD PTR _len$2[ebp]
	add	edx, 1
	push	edx
	mov	eax, DWORD PTR _p$1[ebp]
	push	eax
	call	DWORD PTR __imp__vsnprintf_s
	add	esp, 20					; 00000014H
	cmp	esi, esp
	call	__RTC_CheckEsp
$LN1@Print:

; 1940 : 		#endif
; 1941 : #else
; 1942 : 		vsnprintf( p, len+1, format, va );
; 1943 : #endif
; 1944 :     }
; 1945 :     va_end( va );

	mov	DWORD PTR _va$[ebp], 0

; 1946 : }

	pop	edi
	pop	esi
	pop	ebx
	add	esp, 228				; 000000e4H
	cmp	ebp, esp
	call	__RTC_CheckEsp
	mov	esp, ebp
	pop	ebp
	ret	0
?Print@XMLPrinter@tinyxml2@@IAAXPBDZZ ENDP		; tinyxml2::XMLPrinter::Print
_TEXT	ENDS
; Function compile flags: /Odtp /RTCsu /ZI
; File c:\users\simon\documents\github\uclan-sparta\dissertation project\tinyxml\tinyxml2.cpp
;	COMDAT ?PrintSpace@XMLPrinter@tinyxml2@@MAEXH@Z
_TEXT	SEGMENT
_i$1 = -20						; size = 4
_this$ = -8						; size = 4
_depth$ = 8						; size = 4
?PrintSpace@XMLPrinter@tinyxml2@@MAEXH@Z PROC		; tinyxml2::XMLPrinter::PrintSpace, COMDAT
; _this$ = ecx

; 1950 : {

	push	ebp
	mov	ebp, esp
	sub	esp, 216				; 000000d8H
	push	ebx
	push	esi
	push	edi
	push	ecx
	lea	edi, DWORD PTR [ebp-216]
	mov	ecx, 54					; 00000036H
	mov	eax, -858993460				; ccccccccH
	rep stosd
	pop	ecx
	mov	DWORD PTR _this$[ebp], ecx

; 1951 :     for( int i=0; i<depth; ++i ) {

	mov	DWORD PTR _i$1[ebp], 0
	jmp	SHORT $LN3@PrintSpace
$LN2@PrintSpace:
	mov	eax, DWORD PTR _i$1[ebp]
	add	eax, 1
	mov	DWORD PTR _i$1[ebp], eax
$LN3@PrintSpace:
	mov	eax, DWORD PTR _i$1[ebp]
	cmp	eax, DWORD PTR _depth$[ebp]
	jge	SHORT $LN4@PrintSpace

; 1952 :         Print( "    " );

	push	OFFSET ??_C@_04PFOHOKJK@?5?5?5?5?$AA@
	mov	eax, DWORD PTR _this$[ebp]
	push	eax
	call	?Print@XMLPrinter@tinyxml2@@IAAXPBDZZ	; tinyxml2::XMLPrinter::Print
	add	esp, 8

; 1953 :     }

	jmp	SHORT $LN2@PrintSpace
$LN4@PrintSpace:

; 1954 : }

	pop	edi
	pop	esi
	pop	ebx
	add	esp, 216				; 000000d8H
	cmp	ebp, esp
	call	__RTC_CheckEsp
	mov	esp, ebp
	pop	ebp
	ret	4
?PrintSpace@XMLPrinter@tinyxml2@@MAEXH@Z ENDP		; tinyxml2::XMLPrinter::PrintSpace
_TEXT	ENDS
; Function compile flags: /Odtp /RTCsu /ZI
; File c:\users\simon\documents\github\uclan-sparta\dissertation project\tinyxml\tinyxml2.h
;	COMDAT ?CompactMode@XMLPrinter@tinyxml2@@MAE_NABVXMLElement@2@@Z
_TEXT	SEGMENT
_this$ = -8						; size = 4
___formal$ = 8						; size = 4
?CompactMode@XMLPrinter@tinyxml2@@MAE_NABVXMLElement@2@@Z PROC ; tinyxml2::XMLPrinter::CompactMode, COMDAT
; _this$ = ecx

; 2052 : 	virtual bool CompactMode( const XMLElement& )	{ return _compactMode; }

	push	ebp
	mov	ebp, esp
	sub	esp, 204				; 000000ccH
	push	ebx
	push	esi
	push	edi
	push	ecx
	lea	edi, DWORD PTR [ebp-204]
	mov	ecx, 51					; 00000033H
	mov	eax, -858993460				; ccccccccH
	rep stosd
	pop	ecx
	mov	DWORD PTR _this$[ebp], ecx
	mov	eax, DWORD PTR _this$[ebp]
	mov	al, BYTE PTR [eax+77]
	pop	edi
	pop	esi
	pop	ebx
	mov	esp, ebp
	pop	ebp
	ret	4
?CompactMode@XMLPrinter@tinyxml2@@MAE_NABVXMLElement@2@@Z ENDP ; tinyxml2::XMLPrinter::CompactMode
_TEXT	ENDS
; Function compile flags: /Odtp /RTCsu /ZI
; File c:\users\simon\documents\github\uclan-sparta\dissertation project\tinyxml\tinyxml2.cpp
;	COMDAT ?Visit@XMLPrinter@tinyxml2@@UAE_NABVXMLUnknown@2@@Z
_TEXT	SEGMENT
_this$ = -8						; size = 4
_unknown$ = 8						; size = 4
?Visit@XMLPrinter@tinyxml2@@UAE_NABVXMLUnknown@2@@Z PROC ; tinyxml2::XMLPrinter::Visit, COMDAT
; _this$ = ecx

; 2252 : {

	push	ebp
	mov	ebp, esp
	sub	esp, 204				; 000000ccH
	push	ebx
	push	esi
	push	edi
	push	ecx
	lea	edi, DWORD PTR [ebp-204]
	mov	ecx, 51					; 00000033H
	mov	eax, -858993460				; ccccccccH
	rep stosd
	pop	ecx
	mov	DWORD PTR _this$[ebp], ecx

; 2253 :     PushUnknown( unknown.Value() );

	mov	ecx, DWORD PTR _unknown$[ebp]
	call	?Value@XMLNode@tinyxml2@@QBEPBDXZ	; tinyxml2::XMLNode::Value
	push	eax
	mov	ecx, DWORD PTR _this$[ebp]
	call	?PushUnknown@XMLPrinter@tinyxml2@@QAEXPBD@Z ; tinyxml2::XMLPrinter::PushUnknown

; 2254 :     return true;

	mov	al, 1

; 2255 : }

	pop	edi
	pop	esi
	pop	ebx
	add	esp, 204				; 000000ccH
	cmp	ebp, esp
	call	__RTC_CheckEsp
	mov	esp, ebp
	pop	ebp
	ret	4
?Visit@XMLPrinter@tinyxml2@@UAE_NABVXMLUnknown@2@@Z ENDP ; tinyxml2::XMLPrinter::Visit
_TEXT	ENDS
; Function compile flags: /Odtp /RTCsu /ZI
; File c:\users\simon\documents\github\uclan-sparta\dissertation project\tinyxml\tinyxml2.cpp
;	COMDAT ?Visit@XMLPrinter@tinyxml2@@UAE_NABVXMLDeclaration@2@@Z
_TEXT	SEGMENT
_this$ = -8						; size = 4
_declaration$ = 8					; size = 4
?Visit@XMLPrinter@tinyxml2@@UAE_NABVXMLDeclaration@2@@Z PROC ; tinyxml2::XMLPrinter::Visit, COMDAT
; _this$ = ecx

; 2245 : {

	push	ebp
	mov	ebp, esp
	sub	esp, 204				; 000000ccH
	push	ebx
	push	esi
	push	edi
	push	ecx
	lea	edi, DWORD PTR [ebp-204]
	mov	ecx, 51					; 00000033H
	mov	eax, -858993460				; ccccccccH
	rep stosd
	pop	ecx
	mov	DWORD PTR _this$[ebp], ecx

; 2246 :     PushDeclaration( declaration.Value() );

	mov	ecx, DWORD PTR _declaration$[ebp]
	call	?Value@XMLNode@tinyxml2@@QBEPBDXZ	; tinyxml2::XMLNode::Value
	push	eax
	mov	ecx, DWORD PTR _this$[ebp]
	call	?PushDeclaration@XMLPrinter@tinyxml2@@QAEXPBD@Z ; tinyxml2::XMLPrinter::PushDeclaration

; 2247 :     return true;

	mov	al, 1

; 2248 : }

	pop	edi
	pop	esi
	pop	ebx
	add	esp, 204				; 000000ccH
	cmp	ebp, esp
	call	__RTC_CheckEsp
	mov	esp, ebp
	pop	ebp
	ret	4
?Visit@XMLPrinter@tinyxml2@@UAE_NABVXMLDeclaration@2@@Z ENDP ; tinyxml2::XMLPrinter::Visit
_TEXT	ENDS
; Function compile flags: /Odtp /RTCsu /ZI
; File c:\users\simon\documents\github\uclan-sparta\dissertation project\tinyxml\tinyxml2.cpp
;	COMDAT ?Visit@XMLPrinter@tinyxml2@@UAE_NABVXMLComment@2@@Z
_TEXT	SEGMENT
_this$ = -8						; size = 4
_comment$ = 8						; size = 4
?Visit@XMLPrinter@tinyxml2@@UAE_NABVXMLComment@2@@Z PROC ; tinyxml2::XMLPrinter::Visit, COMDAT
; _this$ = ecx

; 2239 : {

	push	ebp
	mov	ebp, esp
	sub	esp, 204				; 000000ccH
	push	ebx
	push	esi
	push	edi
	push	ecx
	lea	edi, DWORD PTR [ebp-204]
	mov	ecx, 51					; 00000033H
	mov	eax, -858993460				; ccccccccH
	rep stosd
	pop	ecx
	mov	DWORD PTR _this$[ebp], ecx

; 2240 :     PushComment( comment.Value() );

	mov	ecx, DWORD PTR _comment$[ebp]
	call	?Value@XMLNode@tinyxml2@@QBEPBDXZ	; tinyxml2::XMLNode::Value
	push	eax
	mov	ecx, DWORD PTR _this$[ebp]
	call	?PushComment@XMLPrinter@tinyxml2@@QAEXPBD@Z ; tinyxml2::XMLPrinter::PushComment

; 2241 :     return true;

	mov	al, 1

; 2242 : }

	pop	edi
	pop	esi
	pop	ebx
	add	esp, 204				; 000000ccH
	cmp	ebp, esp
	call	__RTC_CheckEsp
	mov	esp, ebp
	pop	ebp
	ret	4
?Visit@XMLPrinter@tinyxml2@@UAE_NABVXMLComment@2@@Z ENDP ; tinyxml2::XMLPrinter::Visit
_TEXT	ENDS
; Function compile flags: /Odtp /RTCsu /ZI
; File c:\users\simon\documents\github\uclan-sparta\dissertation project\tinyxml\tinyxml2.cpp
;	COMDAT ?Visit@XMLPrinter@tinyxml2@@UAE_NABVXMLText@2@@Z
_TEXT	SEGMENT
_this$ = -8						; size = 4
_text$ = 8						; size = 4
?Visit@XMLPrinter@tinyxml2@@UAE_NABVXMLText@2@@Z PROC	; tinyxml2::XMLPrinter::Visit, COMDAT
; _this$ = ecx

; 2232 : {

	push	ebp
	mov	ebp, esp
	sub	esp, 204				; 000000ccH
	push	ebx
	push	esi
	push	edi
	push	ecx
	lea	edi, DWORD PTR [ebp-204]
	mov	ecx, 51					; 00000033H
	mov	eax, -858993460				; ccccccccH
	rep stosd
	pop	ecx
	mov	DWORD PTR _this$[ebp], ecx

; 2233 :     PushText( text.Value(), text.CData() );

	mov	ecx, DWORD PTR _text$[ebp]
	call	?CData@XMLText@tinyxml2@@QBE_NXZ	; tinyxml2::XMLText::CData
	movzx	eax, al
	push	eax
	mov	ecx, DWORD PTR _text$[ebp]
	call	?Value@XMLNode@tinyxml2@@QBEPBDXZ	; tinyxml2::XMLNode::Value
	push	eax
	mov	ecx, DWORD PTR _this$[ebp]
	call	?PushText@XMLPrinter@tinyxml2@@QAEXPBD_N@Z ; tinyxml2::XMLPrinter::PushText

; 2234 :     return true;

	mov	al, 1

; 2235 : }

	pop	edi
	pop	esi
	pop	ebx
	add	esp, 204				; 000000ccH
	cmp	ebp, esp
	call	__RTC_CheckEsp
	mov	esp, ebp
	pop	ebp
	ret	4
?Visit@XMLPrinter@tinyxml2@@UAE_NABVXMLText@2@@Z ENDP	; tinyxml2::XMLPrinter::Visit
_TEXT	ENDS
; Function compile flags: /Odtp /RTCsu /ZI
; File c:\users\simon\documents\github\uclan-sparta\dissertation project\tinyxml\tinyxml2.cpp
;	COMDAT ?VisitExit@XMLPrinter@tinyxml2@@UAE_NABVXMLElement@2@@Z
_TEXT	SEGMENT
_this$ = -8						; size = 4
_element$ = 8						; size = 4
?VisitExit@XMLPrinter@tinyxml2@@UAE_NABVXMLElement@2@@Z PROC ; tinyxml2::XMLPrinter::VisitExit, COMDAT
; _this$ = ecx

; 2225 : {

	push	ebp
	mov	ebp, esp
	sub	esp, 204				; 000000ccH
	push	ebx
	push	esi
	push	edi
	push	ecx
	lea	edi, DWORD PTR [ebp-204]
	mov	ecx, 51					; 00000033H
	mov	eax, -858993460				; ccccccccH
	rep stosd
	pop	ecx
	mov	DWORD PTR _this$[ebp], ecx

; 2226 :     CloseElement( CompactMode(element) );

	mov	esi, esp
	mov	eax, DWORD PTR _element$[ebp]
	push	eax
	mov	ecx, DWORD PTR _this$[ebp]
	mov	edx, DWORD PTR [ecx]
	mov	ecx, DWORD PTR _this$[ebp]
	mov	eax, DWORD PTR [edx+40]
	call	eax
	cmp	esi, esp
	call	__RTC_CheckEsp
	mov	esi, esp
	movzx	ecx, al
	push	ecx
	mov	edx, DWORD PTR _this$[ebp]
	mov	eax, DWORD PTR [edx]
	mov	ecx, DWORD PTR _this$[ebp]
	mov	edx, DWORD PTR [eax+36]
	call	edx
	cmp	esi, esp
	call	__RTC_CheckEsp

; 2227 :     return true;

	mov	al, 1

; 2228 : }

	pop	edi
	pop	esi
	pop	ebx
	add	esp, 204				; 000000ccH
	cmp	ebp, esp
	call	__RTC_CheckEsp
	mov	esp, ebp
	pop	ebp
	ret	4
?VisitExit@XMLPrinter@tinyxml2@@UAE_NABVXMLElement@2@@Z ENDP ; tinyxml2::XMLPrinter::VisitExit
_TEXT	ENDS
; Function compile flags: /Odtp /RTCsu /ZI
; File c:\users\simon\documents\github\uclan-sparta\dissertation project\tinyxml\tinyxml2.cpp
;	COMDAT ?VisitEnter@XMLPrinter@tinyxml2@@UAE_NABVXMLElement@2@PBVXMLAttribute@2@@Z
_TEXT	SEGMENT
tv71 = -232						; size = 4
tv82 = -229						; size = 1
_compactMode$ = -29					; size = 1
_parentElem$ = -20					; size = 4
_this$ = -8						; size = 4
_element$ = 8						; size = 4
_attribute$ = 12					; size = 4
?VisitEnter@XMLPrinter@tinyxml2@@UAE_NABVXMLElement@2@PBVXMLAttribute@2@@Z PROC ; tinyxml2::XMLPrinter::VisitEnter, COMDAT
; _this$ = ecx

; 2212 : {

	push	ebp
	mov	ebp, esp
	sub	esp, 232				; 000000e8H
	push	ebx
	push	esi
	push	edi
	push	ecx
	lea	edi, DWORD PTR [ebp-232]
	mov	ecx, 58					; 0000003aH
	mov	eax, -858993460				; ccccccccH
	rep stosd
	pop	ecx
	mov	DWORD PTR _this$[ebp], ecx

; 2213 : 	const XMLElement*	parentElem = element.Parent()->ToElement();

	mov	ecx, DWORD PTR _element$[ebp]
	call	?Parent@XMLNode@tinyxml2@@QBEPBV12@XZ	; tinyxml2::XMLNode::Parent
	mov	DWORD PTR tv71[ebp], eax
	mov	eax, DWORD PTR tv71[ebp]
	mov	edx, DWORD PTR [eax]
	mov	esi, esp
	mov	ecx, DWORD PTR tv71[ebp]
	mov	eax, DWORD PTR [edx]
	call	eax
	cmp	esi, esp
	call	__RTC_CheckEsp
	mov	DWORD PTR _parentElem$[ebp], eax

; 2214 : 	bool		compactMode = parentElem ? CompactMode(*parentElem) : _compactMode;

	cmp	DWORD PTR _parentElem$[ebp], 0
	je	SHORT $LN5@VisitEnter
	mov	esi, esp
	mov	eax, DWORD PTR _parentElem$[ebp]
	push	eax
	mov	ecx, DWORD PTR _this$[ebp]
	mov	edx, DWORD PTR [ecx]
	mov	ecx, DWORD PTR _this$[ebp]
	mov	eax, DWORD PTR [edx+40]
	call	eax
	cmp	esi, esp
	call	__RTC_CheckEsp
	mov	BYTE PTR tv82[ebp], al
	jmp	SHORT $LN6@VisitEnter
$LN5@VisitEnter:
	mov	ecx, DWORD PTR _this$[ebp]
	mov	dl, BYTE PTR [ecx+77]
	mov	BYTE PTR tv82[ebp], dl
$LN6@VisitEnter:
	mov	al, BYTE PTR tv82[ebp]
	mov	BYTE PTR _compactMode$[ebp], al

; 2215 :     OpenElement( element.Name(), compactMode );

	movzx	eax, BYTE PTR _compactMode$[ebp]
	push	eax
	mov	ecx, DWORD PTR _element$[ebp]
	call	?Name@XMLElement@tinyxml2@@QBEPBDXZ	; tinyxml2::XMLElement::Name
	push	eax
	mov	ecx, DWORD PTR _this$[ebp]
	call	?OpenElement@XMLPrinter@tinyxml2@@QAEXPBD_N@Z ; tinyxml2::XMLPrinter::OpenElement
$LN2@VisitEnter:

; 2216 :     while ( attribute ) {

	cmp	DWORD PTR _attribute$[ebp], 0
	je	SHORT $LN1@VisitEnter

; 2217 :         PushAttribute( attribute->Name(), attribute->Value() );

	mov	ecx, DWORD PTR _attribute$[ebp]
	call	?Value@XMLAttribute@tinyxml2@@QBEPBDXZ	; tinyxml2::XMLAttribute::Value
	push	eax
	mov	ecx, DWORD PTR _attribute$[ebp]
	call	?Name@XMLAttribute@tinyxml2@@QBEPBDXZ	; tinyxml2::XMLAttribute::Name
	push	eax
	mov	ecx, DWORD PTR _this$[ebp]
	call	?PushAttribute@XMLPrinter@tinyxml2@@QAEXPBD0@Z ; tinyxml2::XMLPrinter::PushAttribute

; 2218 :         attribute = attribute->Next();

	mov	ecx, DWORD PTR _attribute$[ebp]
	call	?Next@XMLAttribute@tinyxml2@@QBEPBV12@XZ ; tinyxml2::XMLAttribute::Next
	mov	DWORD PTR _attribute$[ebp], eax

; 2219 :     }

	jmp	SHORT $LN2@VisitEnter
$LN1@VisitEnter:

; 2220 :     return true;

	mov	al, 1

; 2221 : }

	pop	edi
	pop	esi
	pop	ebx
	add	esp, 232				; 000000e8H
	cmp	ebp, esp
	call	__RTC_CheckEsp
	mov	esp, ebp
	pop	ebp
	ret	8
?VisitEnter@XMLPrinter@tinyxml2@@UAE_NABVXMLElement@2@PBVXMLAttribute@2@@Z ENDP ; tinyxml2::XMLPrinter::VisitEnter
_TEXT	ENDS
; Function compile flags: /Odtp /RTCsu /ZI
; File c:\users\simon\documents\github\uclan-sparta\dissertation project\tinyxml\tinyxml2.h
;	COMDAT ?VisitExit@XMLPrinter@tinyxml2@@UAE_NABVXMLDocument@2@@Z
_TEXT	SEGMENT
_this$ = -8						; size = 4
___formal$ = 8						; size = 4
?VisitExit@XMLPrinter@tinyxml2@@UAE_NABVXMLDocument@2@@Z PROC ; tinyxml2::XMLPrinter::VisitExit, COMDAT
; _this$ = ecx

; 2015 :     virtual bool VisitExit( const XMLDocument& /*doc*/ )			{

	push	ebp
	mov	ebp, esp
	sub	esp, 204				; 000000ccH
	push	ebx
	push	esi
	push	edi
	push	ecx
	lea	edi, DWORD PTR [ebp-204]
	mov	ecx, 51					; 00000033H
	mov	eax, -858993460				; ccccccccH
	rep stosd
	pop	ecx
	mov	DWORD PTR _this$[ebp], ecx

; 2016 :         return true;

	mov	al, 1

; 2017 :     }

	pop	edi
	pop	esi
	pop	ebx
	mov	esp, ebp
	pop	ebp
	ret	4
?VisitExit@XMLPrinter@tinyxml2@@UAE_NABVXMLDocument@2@@Z ENDP ; tinyxml2::XMLPrinter::VisitExit
_TEXT	ENDS
; Function compile flags: /Odtp /RTCsu /ZI
; File c:\users\simon\documents\github\uclan-sparta\dissertation project\tinyxml\tinyxml2.cpp
;	COMDAT ?VisitEnter@XMLPrinter@tinyxml2@@UAE_NABVXMLDocument@2@@Z
_TEXT	SEGMENT
_this$ = -8						; size = 4
_doc$ = 8						; size = 4
?VisitEnter@XMLPrinter@tinyxml2@@UAE_NABVXMLDocument@2@@Z PROC ; tinyxml2::XMLPrinter::VisitEnter, COMDAT
; _this$ = ecx

; 2202 : {

	push	ebp
	mov	ebp, esp
	sub	esp, 204				; 000000ccH
	push	ebx
	push	esi
	push	edi
	push	ecx
	lea	edi, DWORD PTR [ebp-204]
	mov	ecx, 51					; 00000033H
	mov	eax, -858993460				; ccccccccH
	rep stosd
	pop	ecx
	mov	DWORD PTR _this$[ebp], ecx

; 2203 :     _processEntities = doc.ProcessEntities();

	mov	ecx, DWORD PTR _doc$[ebp]
	call	?ProcessEntities@XMLDocument@tinyxml2@@QBE_NXZ ; tinyxml2::XMLDocument::ProcessEntities
	mov	ecx, DWORD PTR _this$[ebp]
	mov	BYTE PTR [ecx+76], al

; 2204 :     if ( doc.HasBOM() ) {

	mov	ecx, DWORD PTR _doc$[ebp]
	call	?HasBOM@XMLDocument@tinyxml2@@QBE_NXZ	; tinyxml2::XMLDocument::HasBOM
	movzx	eax, al
	test	eax, eax
	je	SHORT $LN1@VisitEnter

; 2205 :         PushHeader( true, false );

	push	0
	push	1
	mov	ecx, DWORD PTR _this$[ebp]
	call	?PushHeader@XMLPrinter@tinyxml2@@QAEX_N0@Z ; tinyxml2::XMLPrinter::PushHeader
$LN1@VisitEnter:

; 2206 :     }
; 2207 :     return true;

	mov	al, 1

; 2208 : }

	pop	edi
	pop	esi
	pop	ebx
	add	esp, 204				; 000000ccH
	cmp	ebp, esp
	call	__RTC_CheckEsp
	mov	esp, ebp
	pop	ebp
	ret	4
?VisitEnter@XMLPrinter@tinyxml2@@UAE_NABVXMLDocument@2@@Z ENDP ; tinyxml2::XMLPrinter::VisitEnter
_TEXT	ENDS
; Function compile flags: /Odtp /RTCsu /ZI
; File c:\users\simon\documents\github\uclan-sparta\dissertation project\tinyxml\tinyxml2.cpp
;	COMDAT ?PushUnknown@XMLPrinter@tinyxml2@@QAEXPBD@Z
_TEXT	SEGMENT
_this$ = -8						; size = 4
_value$ = 8						; size = 4
?PushUnknown@XMLPrinter@tinyxml2@@QAEXPBD@Z PROC	; tinyxml2::XMLPrinter::PushUnknown, COMDAT
; _this$ = ecx

; 2188 : {

	push	ebp
	mov	ebp, esp
	sub	esp, 204				; 000000ccH
	push	ebx
	push	esi
	push	edi
	push	ecx
	lea	edi, DWORD PTR [ebp-204]
	mov	ecx, 51					; 00000033H
	mov	eax, -858993460				; ccccccccH
	rep stosd
	pop	ecx
	mov	DWORD PTR _this$[ebp], ecx

; 2189 :     if ( _elementJustOpened ) {

	mov	eax, DWORD PTR _this$[ebp]
	movzx	ecx, BYTE PTR [eax+4]
	test	ecx, ecx
	je	SHORT $LN2@PushUnknow

; 2190 :         SealElement();

	mov	ecx, DWORD PTR _this$[ebp]
	call	?SealElement@XMLPrinter@tinyxml2@@IAEXXZ ; tinyxml2::XMLPrinter::SealElement
$LN2@PushUnknow:

; 2191 :     }
; 2192 :     if ( _textDepth < 0 && !_firstElement && !_compactMode) {

	mov	eax, DWORD PTR _this$[ebp]
	cmp	DWORD PTR [eax+72], 0
	jge	SHORT $LN1@PushUnknow
	mov	eax, DWORD PTR _this$[ebp]
	movzx	ecx, BYTE PTR [eax+60]
	test	ecx, ecx
	jne	SHORT $LN1@PushUnknow
	mov	eax, DWORD PTR _this$[ebp]
	movzx	ecx, BYTE PTR [eax+77]
	test	ecx, ecx
	jne	SHORT $LN1@PushUnknow

; 2193 :         Print( "\n" );

	push	OFFSET ??_C@_01EEMJAFIK@?6?$AA@
	mov	eax, DWORD PTR _this$[ebp]
	push	eax
	call	?Print@XMLPrinter@tinyxml2@@IAAXPBDZZ	; tinyxml2::XMLPrinter::Print
	add	esp, 8

; 2194 :         PrintSpace( _depth );

	mov	esi, esp
	mov	eax, DWORD PTR _this$[ebp]
	mov	ecx, DWORD PTR [eax+68]
	push	ecx
	mov	edx, DWORD PTR _this$[ebp]
	mov	eax, DWORD PTR [edx]
	mov	ecx, DWORD PTR _this$[ebp]
	mov	edx, DWORD PTR [eax+44]
	call	edx
	cmp	esi, esp
	call	__RTC_CheckEsp
$LN1@PushUnknow:

; 2195 :     }
; 2196 :     _firstElement = false;

	mov	eax, DWORD PTR _this$[ebp]
	mov	BYTE PTR [eax+60], 0

; 2197 :     Print( "<!%s>", value );

	mov	eax, DWORD PTR _value$[ebp]
	push	eax
	push	OFFSET ??_C@_05EBLKANEG@?$DM?$CB?$CFs?$DO?$AA@
	mov	ecx, DWORD PTR _this$[ebp]
	push	ecx
	call	?Print@XMLPrinter@tinyxml2@@IAAXPBDZZ	; tinyxml2::XMLPrinter::Print
	add	esp, 12					; 0000000cH

; 2198 : }

	pop	edi
	pop	esi
	pop	ebx
	add	esp, 204				; 000000ccH
	cmp	ebp, esp
	call	__RTC_CheckEsp
	mov	esp, ebp
	pop	ebp
	ret	4
?PushUnknown@XMLPrinter@tinyxml2@@QAEXPBD@Z ENDP	; tinyxml2::XMLPrinter::PushUnknown
_TEXT	ENDS
; Function compile flags: /Odtp /RTCsu /ZI
; File c:\users\simon\documents\github\uclan-sparta\dissertation project\tinyxml\tinyxml2.cpp
;	COMDAT ?PushDeclaration@XMLPrinter@tinyxml2@@QAEXPBD@Z
_TEXT	SEGMENT
_this$ = -8						; size = 4
_value$ = 8						; size = 4
?PushDeclaration@XMLPrinter@tinyxml2@@QAEXPBD@Z PROC	; tinyxml2::XMLPrinter::PushDeclaration, COMDAT
; _this$ = ecx

; 2174 : {

	push	ebp
	mov	ebp, esp
	sub	esp, 204				; 000000ccH
	push	ebx
	push	esi
	push	edi
	push	ecx
	lea	edi, DWORD PTR [ebp-204]
	mov	ecx, 51					; 00000033H
	mov	eax, -858993460				; ccccccccH
	rep stosd
	pop	ecx
	mov	DWORD PTR _this$[ebp], ecx

; 2175 :     if ( _elementJustOpened ) {

	mov	eax, DWORD PTR _this$[ebp]
	movzx	ecx, BYTE PTR [eax+4]
	test	ecx, ecx
	je	SHORT $LN2@PushDeclar

; 2176 :         SealElement();

	mov	ecx, DWORD PTR _this$[ebp]
	call	?SealElement@XMLPrinter@tinyxml2@@IAEXXZ ; tinyxml2::XMLPrinter::SealElement
$LN2@PushDeclar:

; 2177 :     }
; 2178 :     if ( _textDepth < 0 && !_firstElement && !_compactMode) {

	mov	eax, DWORD PTR _this$[ebp]
	cmp	DWORD PTR [eax+72], 0
	jge	SHORT $LN1@PushDeclar
	mov	eax, DWORD PTR _this$[ebp]
	movzx	ecx, BYTE PTR [eax+60]
	test	ecx, ecx
	jne	SHORT $LN1@PushDeclar
	mov	eax, DWORD PTR _this$[ebp]
	movzx	ecx, BYTE PTR [eax+77]
	test	ecx, ecx
	jne	SHORT $LN1@PushDeclar

; 2179 :         Print( "\n" );

	push	OFFSET ??_C@_01EEMJAFIK@?6?$AA@
	mov	eax, DWORD PTR _this$[ebp]
	push	eax
	call	?Print@XMLPrinter@tinyxml2@@IAAXPBDZZ	; tinyxml2::XMLPrinter::Print
	add	esp, 8

; 2180 :         PrintSpace( _depth );

	mov	esi, esp
	mov	eax, DWORD PTR _this$[ebp]
	mov	ecx, DWORD PTR [eax+68]
	push	ecx
	mov	edx, DWORD PTR _this$[ebp]
	mov	eax, DWORD PTR [edx]
	mov	ecx, DWORD PTR _this$[ebp]
	mov	edx, DWORD PTR [eax+44]
	call	edx
	cmp	esi, esp
	call	__RTC_CheckEsp
$LN1@PushDeclar:

; 2181 :     }
; 2182 :     _firstElement = false;

	mov	eax, DWORD PTR _this$[ebp]
	mov	BYTE PTR [eax+60], 0

; 2183 :     Print( "<?%s?>", value );

	mov	eax, DWORD PTR _value$[ebp]
	push	eax
	push	OFFSET ??_C@_06OGCFEMAJ@?$DM?$DP?$CFs?$DP?$DO?$AA@
	mov	ecx, DWORD PTR _this$[ebp]
	push	ecx
	call	?Print@XMLPrinter@tinyxml2@@IAAXPBDZZ	; tinyxml2::XMLPrinter::Print
	add	esp, 12					; 0000000cH

; 2184 : }

	pop	edi
	pop	esi
	pop	ebx
	add	esp, 204				; 000000ccH
	cmp	ebp, esp
	call	__RTC_CheckEsp
	mov	esp, ebp
	pop	ebp
	ret	4
?PushDeclaration@XMLPrinter@tinyxml2@@QAEXPBD@Z ENDP	; tinyxml2::XMLPrinter::PushDeclaration
_TEXT	ENDS
; Function compile flags: /Odtp /RTCsu /ZI
; File c:\users\simon\documents\github\uclan-sparta\dissertation project\tinyxml\tinyxml2.cpp
;	COMDAT ?PushComment@XMLPrinter@tinyxml2@@QAEXPBD@Z
_TEXT	SEGMENT
_this$ = -8						; size = 4
_comment$ = 8						; size = 4
?PushComment@XMLPrinter@tinyxml2@@QAEXPBD@Z PROC	; tinyxml2::XMLPrinter::PushComment, COMDAT
; _this$ = ecx

; 2160 : {

	push	ebp
	mov	ebp, esp
	sub	esp, 204				; 000000ccH
	push	ebx
	push	esi
	push	edi
	push	ecx
	lea	edi, DWORD PTR [ebp-204]
	mov	ecx, 51					; 00000033H
	mov	eax, -858993460				; ccccccccH
	rep stosd
	pop	ecx
	mov	DWORD PTR _this$[ebp], ecx

; 2161 :     if ( _elementJustOpened ) {

	mov	eax, DWORD PTR _this$[ebp]
	movzx	ecx, BYTE PTR [eax+4]
	test	ecx, ecx
	je	SHORT $LN2@PushCommen

; 2162 :         SealElement();

	mov	ecx, DWORD PTR _this$[ebp]
	call	?SealElement@XMLPrinter@tinyxml2@@IAEXXZ ; tinyxml2::XMLPrinter::SealElement
$LN2@PushCommen:

; 2163 :     }
; 2164 :     if ( _textDepth < 0 && !_firstElement && !_compactMode) {

	mov	eax, DWORD PTR _this$[ebp]
	cmp	DWORD PTR [eax+72], 0
	jge	SHORT $LN1@PushCommen
	mov	eax, DWORD PTR _this$[ebp]
	movzx	ecx, BYTE PTR [eax+60]
	test	ecx, ecx
	jne	SHORT $LN1@PushCommen
	mov	eax, DWORD PTR _this$[ebp]
	movzx	ecx, BYTE PTR [eax+77]
	test	ecx, ecx
	jne	SHORT $LN1@PushCommen

; 2165 :         Print( "\n" );

	push	OFFSET ??_C@_01EEMJAFIK@?6?$AA@
	mov	eax, DWORD PTR _this$[ebp]
	push	eax
	call	?Print@XMLPrinter@tinyxml2@@IAAXPBDZZ	; tinyxml2::XMLPrinter::Print
	add	esp, 8

; 2166 :         PrintSpace( _depth );

	mov	esi, esp
	mov	eax, DWORD PTR _this$[ebp]
	mov	ecx, DWORD PTR [eax+68]
	push	ecx
	mov	edx, DWORD PTR _this$[ebp]
	mov	eax, DWORD PTR [edx]
	mov	ecx, DWORD PTR _this$[ebp]
	mov	edx, DWORD PTR [eax+44]
	call	edx
	cmp	esi, esp
	call	__RTC_CheckEsp
$LN1@PushCommen:

; 2167 :     }
; 2168 :     _firstElement = false;

	mov	eax, DWORD PTR _this$[ebp]
	mov	BYTE PTR [eax+60], 0

; 2169 :     Print( "<!--%s-->", comment );

	mov	eax, DWORD PTR _comment$[ebp]
	push	eax
	push	OFFSET ??_C@_09PNDCPLLD@?$DM?$CB?9?9?$CFs?9?9?$DO?$AA@
	mov	ecx, DWORD PTR _this$[ebp]
	push	ecx
	call	?Print@XMLPrinter@tinyxml2@@IAAXPBDZZ	; tinyxml2::XMLPrinter::Print
	add	esp, 12					; 0000000cH

; 2170 : }

	pop	edi
	pop	esi
	pop	ebx
	add	esp, 204				; 000000ccH
	cmp	ebp, esp
	call	__RTC_CheckEsp
	mov	esp, ebp
	pop	ebp
	ret	4
?PushComment@XMLPrinter@tinyxml2@@QAEXPBD@Z ENDP	; tinyxml2::XMLPrinter::PushComment
_TEXT	ENDS
; Function compile flags: /Odtp /RTCsu /ZI
; File c:\users\simon\documents\github\uclan-sparta\dissertation project\tinyxml\tinyxml2.cpp
;	COMDAT ?PushText@XMLPrinter@tinyxml2@@QAEXN@Z
_TEXT	SEGMENT
_buf$ = -220						; size = 200
_this$ = -12						; size = 4
__$ArrayPad$ = -4					; size = 4
_value$ = 8						; size = 8
?PushText@XMLPrinter@tinyxml2@@QAEXN@Z PROC		; tinyxml2::XMLPrinter::PushText, COMDAT
; _this$ = ecx

; 2152 : {

	push	ebp
	mov	ebp, esp
	sub	esp, 416				; 000001a0H
	push	ebx
	push	esi
	push	edi
	push	ecx
	lea	edi, DWORD PTR [ebp-416]
	mov	ecx, 104				; 00000068H
	mov	eax, -858993460				; ccccccccH
	rep stosd
	pop	ecx
	mov	eax, DWORD PTR ___security_cookie
	xor	eax, ebp
	mov	DWORD PTR __$ArrayPad$[ebp], eax
	mov	DWORD PTR _this$[ebp], ecx

; 2153 :     char buf[BUF_SIZE];
; 2154 :     XMLUtil::ToStr( value, buf, BUF_SIZE );

	push	200					; 000000c8H
	lea	eax, DWORD PTR _buf$[ebp]
	push	eax
	sub	esp, 8
	movsd	xmm0, QWORD PTR _value$[ebp]
	movsd	QWORD PTR [esp], xmm0
	call	?ToStr@XMLUtil@tinyxml2@@SAXNPADH@Z	; tinyxml2::XMLUtil::ToStr
	add	esp, 16					; 00000010H

; 2155 :     PushText( buf, false );

	push	0
	lea	eax, DWORD PTR _buf$[ebp]
	push	eax
	mov	ecx, DWORD PTR _this$[ebp]
	call	?PushText@XMLPrinter@tinyxml2@@QAEXPBD_N@Z ; tinyxml2::XMLPrinter::PushText

; 2156 : }

	push	edx
	mov	ecx, ebp
	push	eax
	lea	edx, DWORD PTR $LN5@PushText
	call	@_RTC_CheckStackVars@8
	pop	eax
	pop	edx
	pop	edi
	pop	esi
	pop	ebx
	mov	ecx, DWORD PTR __$ArrayPad$[ebp]
	xor	ecx, ebp
	call	@__security_check_cookie@4
	add	esp, 416				; 000001a0H
	cmp	ebp, esp
	call	__RTC_CheckEsp
	mov	esp, ebp
	pop	ebp
	ret	8
$LN5@PushText:
	DD	1
	DD	$LN4@PushText
$LN4@PushText:
	DD	-220					; ffffff24H
	DD	200					; 000000c8H
	DD	$LN3@PushText
$LN3@PushText:
	DB	98					; 00000062H
	DB	117					; 00000075H
	DB	102					; 00000066H
	DB	0
?PushText@XMLPrinter@tinyxml2@@QAEXN@Z ENDP		; tinyxml2::XMLPrinter::PushText
_TEXT	ENDS
; Function compile flags: /Odtp /RTCsu /ZI
; File c:\users\simon\documents\github\uclan-sparta\dissertation project\tinyxml\tinyxml2.cpp
;	COMDAT ?PushText@XMLPrinter@tinyxml2@@QAEXM@Z
_TEXT	SEGMENT
_buf$ = -220						; size = 200
_this$ = -12						; size = 4
__$ArrayPad$ = -4					; size = 4
_value$ = 8						; size = 4
?PushText@XMLPrinter@tinyxml2@@QAEXM@Z PROC		; tinyxml2::XMLPrinter::PushText, COMDAT
; _this$ = ecx

; 2144 : {

	push	ebp
	mov	ebp, esp
	sub	esp, 416				; 000001a0H
	push	ebx
	push	esi
	push	edi
	push	ecx
	lea	edi, DWORD PTR [ebp-416]
	mov	ecx, 104				; 00000068H
	mov	eax, -858993460				; ccccccccH
	rep stosd
	pop	ecx
	mov	eax, DWORD PTR ___security_cookie
	xor	eax, ebp
	mov	DWORD PTR __$ArrayPad$[ebp], eax
	mov	DWORD PTR _this$[ebp], ecx

; 2145 :     char buf[BUF_SIZE];
; 2146 :     XMLUtil::ToStr( value, buf, BUF_SIZE );

	push	200					; 000000c8H
	lea	eax, DWORD PTR _buf$[ebp]
	push	eax
	push	ecx
	movss	xmm0, DWORD PTR _value$[ebp]
	movss	DWORD PTR [esp], xmm0
	call	?ToStr@XMLUtil@tinyxml2@@SAXMPADH@Z	; tinyxml2::XMLUtil::ToStr
	add	esp, 12					; 0000000cH

; 2147 :     PushText( buf, false );

	push	0
	lea	eax, DWORD PTR _buf$[ebp]
	push	eax
	mov	ecx, DWORD PTR _this$[ebp]
	call	?PushText@XMLPrinter@tinyxml2@@QAEXPBD_N@Z ; tinyxml2::XMLPrinter::PushText

; 2148 : }

	push	edx
	mov	ecx, ebp
	push	eax
	lea	edx, DWORD PTR $LN5@PushText
	call	@_RTC_CheckStackVars@8
	pop	eax
	pop	edx
	pop	edi
	pop	esi
	pop	ebx
	mov	ecx, DWORD PTR __$ArrayPad$[ebp]
	xor	ecx, ebp
	call	@__security_check_cookie@4
	add	esp, 416				; 000001a0H
	cmp	ebp, esp
	call	__RTC_CheckEsp
	mov	esp, ebp
	pop	ebp
	ret	4
	npad	2
$LN5@PushText:
	DD	1
	DD	$LN4@PushText
$LN4@PushText:
	DD	-220					; ffffff24H
	DD	200					; 000000c8H
	DD	$LN3@PushText
$LN3@PushText:
	DB	98					; 00000062H
	DB	117					; 00000075H
	DB	102					; 00000066H
	DB	0
?PushText@XMLPrinter@tinyxml2@@QAEXM@Z ENDP		; tinyxml2::XMLPrinter::PushText
_TEXT	ENDS
; Function compile flags: /Odtp /RTCsu /ZI
; File c:\users\simon\documents\github\uclan-sparta\dissertation project\tinyxml\tinyxml2.cpp
;	COMDAT ?PushText@XMLPrinter@tinyxml2@@QAEX_N@Z
_TEXT	SEGMENT
_buf$ = -220						; size = 200
_this$ = -12						; size = 4
__$ArrayPad$ = -4					; size = 4
_value$ = 8						; size = 1
?PushText@XMLPrinter@tinyxml2@@QAEX_N@Z PROC		; tinyxml2::XMLPrinter::PushText, COMDAT
; _this$ = ecx

; 2136 : {

	push	ebp
	mov	ebp, esp
	sub	esp, 416				; 000001a0H
	push	ebx
	push	esi
	push	edi
	push	ecx
	lea	edi, DWORD PTR [ebp-416]
	mov	ecx, 104				; 00000068H
	mov	eax, -858993460				; ccccccccH
	rep stosd
	pop	ecx
	mov	eax, DWORD PTR ___security_cookie
	xor	eax, ebp
	mov	DWORD PTR __$ArrayPad$[ebp], eax
	mov	DWORD PTR _this$[ebp], ecx

; 2137 :     char buf[BUF_SIZE];
; 2138 :     XMLUtil::ToStr( value, buf, BUF_SIZE );

	push	200					; 000000c8H
	lea	eax, DWORD PTR _buf$[ebp]
	push	eax
	movzx	ecx, BYTE PTR _value$[ebp]
	push	ecx
	call	?ToStr@XMLUtil@tinyxml2@@SAX_NPADH@Z	; tinyxml2::XMLUtil::ToStr
	add	esp, 12					; 0000000cH

; 2139 :     PushText( buf, false );

	push	0
	lea	eax, DWORD PTR _buf$[ebp]
	push	eax
	mov	ecx, DWORD PTR _this$[ebp]
	call	?PushText@XMLPrinter@tinyxml2@@QAEXPBD_N@Z ; tinyxml2::XMLPrinter::PushText

; 2140 : }

	push	edx
	mov	ecx, ebp
	push	eax
	lea	edx, DWORD PTR $LN5@PushText
	call	@_RTC_CheckStackVars@8
	pop	eax
	pop	edx
	pop	edi
	pop	esi
	pop	ebx
	mov	ecx, DWORD PTR __$ArrayPad$[ebp]
	xor	ecx, ebp
	call	@__security_check_cookie@4
	add	esp, 416				; 000001a0H
	cmp	ebp, esp
	call	__RTC_CheckEsp
	mov	esp, ebp
	pop	ebp
	ret	4
$LN5@PushText:
	DD	1
	DD	$LN4@PushText
$LN4@PushText:
	DD	-220					; ffffff24H
	DD	200					; 000000c8H
	DD	$LN3@PushText
$LN3@PushText:
	DB	98					; 00000062H
	DB	117					; 00000075H
	DB	102					; 00000066H
	DB	0
?PushText@XMLPrinter@tinyxml2@@QAEX_N@Z ENDP		; tinyxml2::XMLPrinter::PushText
_TEXT	ENDS
; Function compile flags: /Odtp /RTCsu /ZI
; File c:\users\simon\documents\github\uclan-sparta\dissertation project\tinyxml\tinyxml2.cpp
;	COMDAT ?PushText@XMLPrinter@tinyxml2@@QAEXI@Z
_TEXT	SEGMENT
_buf$ = -220						; size = 200
_this$ = -12						; size = 4
__$ArrayPad$ = -4					; size = 4
_value$ = 8						; size = 4
?PushText@XMLPrinter@tinyxml2@@QAEXI@Z PROC		; tinyxml2::XMLPrinter::PushText, COMDAT
; _this$ = ecx

; 2128 : {

	push	ebp
	mov	ebp, esp
	sub	esp, 416				; 000001a0H
	push	ebx
	push	esi
	push	edi
	push	ecx
	lea	edi, DWORD PTR [ebp-416]
	mov	ecx, 104				; 00000068H
	mov	eax, -858993460				; ccccccccH
	rep stosd
	pop	ecx
	mov	eax, DWORD PTR ___security_cookie
	xor	eax, ebp
	mov	DWORD PTR __$ArrayPad$[ebp], eax
	mov	DWORD PTR _this$[ebp], ecx

; 2129 :     char buf[BUF_SIZE];
; 2130 :     XMLUtil::ToStr( value, buf, BUF_SIZE );

	push	200					; 000000c8H
	lea	eax, DWORD PTR _buf$[ebp]
	push	eax
	mov	ecx, DWORD PTR _value$[ebp]
	push	ecx
	call	?ToStr@XMLUtil@tinyxml2@@SAXIPADH@Z	; tinyxml2::XMLUtil::ToStr
	add	esp, 12					; 0000000cH

; 2131 :     PushText( buf, false );

	push	0
	lea	eax, DWORD PTR _buf$[ebp]
	push	eax
	mov	ecx, DWORD PTR _this$[ebp]
	call	?PushText@XMLPrinter@tinyxml2@@QAEXPBD_N@Z ; tinyxml2::XMLPrinter::PushText

; 2132 : }

	push	edx
	mov	ecx, ebp
	push	eax
	lea	edx, DWORD PTR $LN5@PushText
	call	@_RTC_CheckStackVars@8
	pop	eax
	pop	edx
	pop	edi
	pop	esi
	pop	ebx
	mov	ecx, DWORD PTR __$ArrayPad$[ebp]
	xor	ecx, ebp
	call	@__security_check_cookie@4
	add	esp, 416				; 000001a0H
	cmp	ebp, esp
	call	__RTC_CheckEsp
	mov	esp, ebp
	pop	ebp
	ret	4
	npad	1
$LN5@PushText:
	DD	1
	DD	$LN4@PushText
$LN4@PushText:
	DD	-220					; ffffff24H
	DD	200					; 000000c8H
	DD	$LN3@PushText
$LN3@PushText:
	DB	98					; 00000062H
	DB	117					; 00000075H
	DB	102					; 00000066H
	DB	0
?PushText@XMLPrinter@tinyxml2@@QAEXI@Z ENDP		; tinyxml2::XMLPrinter::PushText
_TEXT	ENDS
; Function compile flags: /Odtp /RTCsu /ZI
; File c:\users\simon\documents\github\uclan-sparta\dissertation project\tinyxml\tinyxml2.cpp
;	COMDAT ?PushText@XMLPrinter@tinyxml2@@QAEXH@Z
_TEXT	SEGMENT
_buf$ = -220						; size = 200
_this$ = -12						; size = 4
__$ArrayPad$ = -4					; size = 4
_value$ = 8						; size = 4
?PushText@XMLPrinter@tinyxml2@@QAEXH@Z PROC		; tinyxml2::XMLPrinter::PushText, COMDAT
; _this$ = ecx

; 2120 : {

	push	ebp
	mov	ebp, esp
	sub	esp, 416				; 000001a0H
	push	ebx
	push	esi
	push	edi
	push	ecx
	lea	edi, DWORD PTR [ebp-416]
	mov	ecx, 104				; 00000068H
	mov	eax, -858993460				; ccccccccH
	rep stosd
	pop	ecx
	mov	eax, DWORD PTR ___security_cookie
	xor	eax, ebp
	mov	DWORD PTR __$ArrayPad$[ebp], eax
	mov	DWORD PTR _this$[ebp], ecx

; 2121 :     char buf[BUF_SIZE];
; 2122 :     XMLUtil::ToStr( value, buf, BUF_SIZE );

	push	200					; 000000c8H
	lea	eax, DWORD PTR _buf$[ebp]
	push	eax
	mov	ecx, DWORD PTR _value$[ebp]
	push	ecx
	call	?ToStr@XMLUtil@tinyxml2@@SAXHPADH@Z	; tinyxml2::XMLUtil::ToStr
	add	esp, 12					; 0000000cH

; 2123 :     PushText( buf, false );

	push	0
	lea	eax, DWORD PTR _buf$[ebp]
	push	eax
	mov	ecx, DWORD PTR _this$[ebp]
	call	?PushText@XMLPrinter@tinyxml2@@QAEXPBD_N@Z ; tinyxml2::XMLPrinter::PushText

; 2124 : }

	push	edx
	mov	ecx, ebp
	push	eax
	lea	edx, DWORD PTR $LN5@PushText
	call	@_RTC_CheckStackVars@8
	pop	eax
	pop	edx
	pop	edi
	pop	esi
	pop	ebx
	mov	ecx, DWORD PTR __$ArrayPad$[ebp]
	xor	ecx, ebp
	call	@__security_check_cookie@4
	add	esp, 416				; 000001a0H
	cmp	ebp, esp
	call	__RTC_CheckEsp
	mov	esp, ebp
	pop	ebp
	ret	4
	npad	1
$LN5@PushText:
	DD	1
	DD	$LN4@PushText
$LN4@PushText:
	DD	-220					; ffffff24H
	DD	200					; 000000c8H
	DD	$LN3@PushText
$LN3@PushText:
	DB	98					; 00000062H
	DB	117					; 00000075H
	DB	102					; 00000066H
	DB	0
?PushText@XMLPrinter@tinyxml2@@QAEXH@Z ENDP		; tinyxml2::XMLPrinter::PushText
_TEXT	ENDS
; Function compile flags: /Odtp /RTCsu /ZI
; File c:\users\simon\documents\github\uclan-sparta\dissertation project\tinyxml\tinyxml2.cpp
;	COMDAT ?PushText@XMLPrinter@tinyxml2@@QAEXPBD_N@Z
_TEXT	SEGMENT
_this$ = -8						; size = 4
_text$ = 8						; size = 4
_cdata$ = 12						; size = 1
?PushText@XMLPrinter@tinyxml2@@QAEXPBD_N@Z PROC		; tinyxml2::XMLPrinter::PushText, COMDAT
; _this$ = ecx

; 2103 : {

	push	ebp
	mov	ebp, esp
	sub	esp, 204				; 000000ccH
	push	ebx
	push	esi
	push	edi
	push	ecx
	lea	edi, DWORD PTR [ebp-204]
	mov	ecx, 51					; 00000033H
	mov	eax, -858993460				; ccccccccH
	rep stosd
	pop	ecx
	mov	DWORD PTR _this$[ebp], ecx

; 2104 :     _textDepth = _depth-1;

	mov	eax, DWORD PTR _this$[ebp]
	mov	ecx, DWORD PTR [eax+68]
	sub	ecx, 1
	mov	edx, DWORD PTR _this$[ebp]
	mov	DWORD PTR [edx+72], ecx

; 2105 : 
; 2106 :     if ( _elementJustOpened ) {

	mov	eax, DWORD PTR _this$[ebp]
	movzx	ecx, BYTE PTR [eax+4]
	test	ecx, ecx
	je	SHORT $LN3@PushText

; 2107 :         SealElement();

	mov	ecx, DWORD PTR _this$[ebp]
	call	?SealElement@XMLPrinter@tinyxml2@@IAEXXZ ; tinyxml2::XMLPrinter::SealElement
$LN3@PushText:

; 2108 :     }
; 2109 :     if ( cdata ) {

	movzx	eax, BYTE PTR _cdata$[ebp]
	test	eax, eax
	je	SHORT $LN2@PushText

; 2110 :         Print( "<![CDATA[" );

	push	OFFSET ??_C@_09BLLNCBLF@?$DM?$CB?$FLCDATA?$FL?$AA@
	mov	eax, DWORD PTR _this$[ebp]
	push	eax
	call	?Print@XMLPrinter@tinyxml2@@IAAXPBDZZ	; tinyxml2::XMLPrinter::Print
	add	esp, 8

; 2111 :         Print( "%s", text );

	mov	eax, DWORD PTR _text$[ebp]
	push	eax
	push	OFFSET ??_C@_02DKCKIIND@?$CFs?$AA@
	mov	ecx, DWORD PTR _this$[ebp]
	push	ecx
	call	?Print@XMLPrinter@tinyxml2@@IAAXPBDZZ	; tinyxml2::XMLPrinter::Print
	add	esp, 12					; 0000000cH

; 2112 :         Print( "]]>" );

	push	OFFSET ??_C@_03MCHNFBAC@?$FN?$FN?$DO?$AA@
	mov	eax, DWORD PTR _this$[ebp]
	push	eax
	call	?Print@XMLPrinter@tinyxml2@@IAAXPBDZZ	; tinyxml2::XMLPrinter::Print
	add	esp, 8

; 2113 :     }
; 2114 :     else {

	jmp	SHORT $LN4@PushText
$LN2@PushText:

; 2115 :         PrintString( text, true );

	push	1
	mov	eax, DWORD PTR _text$[ebp]
	push	eax
	mov	ecx, DWORD PTR _this$[ebp]
	call	?PrintString@XMLPrinter@tinyxml2@@AAEXPBD_N@Z ; tinyxml2::XMLPrinter::PrintString
$LN4@PushText:

; 2116 :     }
; 2117 : }

	pop	edi
	pop	esi
	pop	ebx
	add	esp, 204				; 000000ccH
	cmp	ebp, esp
	call	__RTC_CheckEsp
	mov	esp, ebp
	pop	ebp
	ret	8
?PushText@XMLPrinter@tinyxml2@@QAEXPBD_N@Z ENDP		; tinyxml2::XMLPrinter::PushText
_TEXT	ENDS
; Function compile flags: /Odtp /RTCsu /ZI
; File c:\users\simon\documents\github\uclan-sparta\dissertation project\tinyxml\tinyxml2.cpp
;	COMDAT ?CloseElement@XMLPrinter@tinyxml2@@UAEX_N@Z
_TEXT	SEGMENT
_name$ = -20						; size = 4
_this$ = -8						; size = 4
_compactMode$ = 8					; size = 1
?CloseElement@XMLPrinter@tinyxml2@@UAEX_N@Z PROC	; tinyxml2::XMLPrinter::CloseElement, COMDAT
; _this$ = ecx

; 2070 : {

	push	ebp
	mov	ebp, esp
	sub	esp, 216				; 000000d8H
	push	ebx
	push	esi
	push	edi
	push	ecx
	lea	edi, DWORD PTR [ebp-216]
	mov	ecx, 54					; 00000036H
	mov	eax, -858993460				; ccccccccH
	rep stosd
	pop	ecx
	mov	DWORD PTR _this$[ebp], ecx

; 2071 :     --_depth;

	mov	eax, DWORD PTR _this$[ebp]
	mov	ecx, DWORD PTR [eax+68]
	sub	ecx, 1
	mov	edx, DWORD PTR _this$[ebp]
	mov	DWORD PTR [edx+68], ecx

; 2072 :     const char* name = _stack.Pop();

	mov	ecx, DWORD PTR _this$[ebp]
	add	ecx, 8
	call	?Pop@?$DynArray@PBD$09@tinyxml2@@QAEPBDXZ ; tinyxml2::DynArray<char const *,10>::Pop
	mov	DWORD PTR _name$[ebp], eax

; 2073 : 
; 2074 :     if ( _elementJustOpened ) {

	mov	eax, DWORD PTR _this$[ebp]
	movzx	ecx, BYTE PTR [eax+4]
	test	ecx, ecx
	je	SHORT $LN5@CloseEleme

; 2075 :         Print( "/>" );

	push	OFFSET ??_C@_02HCGKDMEN@?1?$DO?$AA@
	mov	eax, DWORD PTR _this$[ebp]
	push	eax
	call	?Print@XMLPrinter@tinyxml2@@IAAXPBDZZ	; tinyxml2::XMLPrinter::Print
	add	esp, 8

; 2076 :     }
; 2077 :     else {

	jmp	SHORT $LN4@CloseEleme
$LN5@CloseEleme:

; 2078 :         if ( _textDepth < 0 && !compactMode) {

	mov	eax, DWORD PTR _this$[ebp]
	cmp	DWORD PTR [eax+72], 0
	jge	SHORT $LN3@CloseEleme
	movzx	eax, BYTE PTR _compactMode$[ebp]
	test	eax, eax
	jne	SHORT $LN3@CloseEleme

; 2079 :             Print( "\n" );

	push	OFFSET ??_C@_01EEMJAFIK@?6?$AA@
	mov	eax, DWORD PTR _this$[ebp]
	push	eax
	call	?Print@XMLPrinter@tinyxml2@@IAAXPBDZZ	; tinyxml2::XMLPrinter::Print
	add	esp, 8

; 2080 :             PrintSpace( _depth );

	mov	esi, esp
	mov	eax, DWORD PTR _this$[ebp]
	mov	ecx, DWORD PTR [eax+68]
	push	ecx
	mov	edx, DWORD PTR _this$[ebp]
	mov	eax, DWORD PTR [edx]
	mov	ecx, DWORD PTR _this$[ebp]
	mov	edx, DWORD PTR [eax+44]
	call	edx
	cmp	esi, esp
	call	__RTC_CheckEsp
$LN3@CloseEleme:

; 2081 :         }
; 2082 :         Print( "</%s>", name );

	mov	eax, DWORD PTR _name$[ebp]
	push	eax
	push	OFFSET ??_C@_05POIKLDCH@?$DM?1?$CFs?$DO?$AA@
	mov	ecx, DWORD PTR _this$[ebp]
	push	ecx
	call	?Print@XMLPrinter@tinyxml2@@IAAXPBDZZ	; tinyxml2::XMLPrinter::Print
	add	esp, 12					; 0000000cH
$LN4@CloseEleme:

; 2083 :     }
; 2084 : 
; 2085 :     if ( _textDepth == _depth ) {

	mov	eax, DWORD PTR _this$[ebp]
	mov	ecx, DWORD PTR _this$[ebp]
	mov	edx, DWORD PTR [eax+72]
	cmp	edx, DWORD PTR [ecx+68]
	jne	SHORT $LN2@CloseEleme

; 2086 :         _textDepth = -1;

	mov	eax, DWORD PTR _this$[ebp]
	mov	DWORD PTR [eax+72], -1
$LN2@CloseEleme:

; 2087 :     }
; 2088 :     if ( _depth == 0 && !compactMode) {

	mov	eax, DWORD PTR _this$[ebp]
	cmp	DWORD PTR [eax+68], 0
	jne	SHORT $LN1@CloseEleme
	movzx	eax, BYTE PTR _compactMode$[ebp]
	test	eax, eax
	jne	SHORT $LN1@CloseEleme

; 2089 :         Print( "\n" );

	push	OFFSET ??_C@_01EEMJAFIK@?6?$AA@
	mov	eax, DWORD PTR _this$[ebp]
	push	eax
	call	?Print@XMLPrinter@tinyxml2@@IAAXPBDZZ	; tinyxml2::XMLPrinter::Print
	add	esp, 8
$LN1@CloseEleme:

; 2090 :     }
; 2091 :     _elementJustOpened = false;

	mov	eax, DWORD PTR _this$[ebp]
	mov	BYTE PTR [eax+4], 0

; 2092 : }

	pop	edi
	pop	esi
	pop	ebx
	add	esp, 216				; 000000d8H
	cmp	ebp, esp
	call	__RTC_CheckEsp
	mov	esp, ebp
	pop	ebp
	ret	4
?CloseElement@XMLPrinter@tinyxml2@@UAEX_N@Z ENDP	; tinyxml2::XMLPrinter::CloseElement
_TEXT	ENDS
; Function compile flags: /Odtp /RTCsu /ZI
; File c:\users\simon\documents\github\uclan-sparta\dissertation project\tinyxml\tinyxml2.cpp
;	COMDAT ?PushAttribute@XMLPrinter@tinyxml2@@QAEXPBDN@Z
_TEXT	SEGMENT
_buf$ = -220						; size = 200
_this$ = -12						; size = 4
__$ArrayPad$ = -4					; size = 4
_name$ = 8						; size = 4
_v$ = 12						; size = 8
?PushAttribute@XMLPrinter@tinyxml2@@QAEXPBDN@Z PROC	; tinyxml2::XMLPrinter::PushAttribute, COMDAT
; _this$ = ecx

; 2062 : {

	push	ebp
	mov	ebp, esp
	sub	esp, 416				; 000001a0H
	push	ebx
	push	esi
	push	edi
	push	ecx
	lea	edi, DWORD PTR [ebp-416]
	mov	ecx, 104				; 00000068H
	mov	eax, -858993460				; ccccccccH
	rep stosd
	pop	ecx
	mov	eax, DWORD PTR ___security_cookie
	xor	eax, ebp
	mov	DWORD PTR __$ArrayPad$[ebp], eax
	mov	DWORD PTR _this$[ebp], ecx

; 2063 :     char buf[BUF_SIZE];
; 2064 :     XMLUtil::ToStr( v, buf, BUF_SIZE );

	push	200					; 000000c8H
	lea	eax, DWORD PTR _buf$[ebp]
	push	eax
	sub	esp, 8
	movsd	xmm0, QWORD PTR _v$[ebp]
	movsd	QWORD PTR [esp], xmm0
	call	?ToStr@XMLUtil@tinyxml2@@SAXNPADH@Z	; tinyxml2::XMLUtil::ToStr
	add	esp, 16					; 00000010H

; 2065 :     PushAttribute( name, buf );

	lea	eax, DWORD PTR _buf$[ebp]
	push	eax
	mov	ecx, DWORD PTR _name$[ebp]
	push	ecx
	mov	ecx, DWORD PTR _this$[ebp]
	call	?PushAttribute@XMLPrinter@tinyxml2@@QAEXPBD0@Z ; tinyxml2::XMLPrinter::PushAttribute

; 2066 : }

	push	edx
	mov	ecx, ebp
	push	eax
	lea	edx, DWORD PTR $LN5@PushAttrib
	call	@_RTC_CheckStackVars@8
	pop	eax
	pop	edx
	pop	edi
	pop	esi
	pop	ebx
	mov	ecx, DWORD PTR __$ArrayPad$[ebp]
	xor	ecx, ebp
	call	@__security_check_cookie@4
	add	esp, 416				; 000001a0H
	cmp	ebp, esp
	call	__RTC_CheckEsp
	mov	esp, ebp
	pop	ebp
	ret	12					; 0000000cH
	npad	2
$LN5@PushAttrib:
	DD	1
	DD	$LN4@PushAttrib
$LN4@PushAttrib:
	DD	-220					; ffffff24H
	DD	200					; 000000c8H
	DD	$LN3@PushAttrib
$LN3@PushAttrib:
	DB	98					; 00000062H
	DB	117					; 00000075H
	DB	102					; 00000066H
	DB	0
?PushAttribute@XMLPrinter@tinyxml2@@QAEXPBDN@Z ENDP	; tinyxml2::XMLPrinter::PushAttribute
_TEXT	ENDS
; Function compile flags: /Odtp /RTCsu /ZI
; File c:\users\simon\documents\github\uclan-sparta\dissertation project\tinyxml\tinyxml2.cpp
;	COMDAT ?PushAttribute@XMLPrinter@tinyxml2@@QAEXPBD_N@Z
_TEXT	SEGMENT
_buf$ = -220						; size = 200
_this$ = -12						; size = 4
__$ArrayPad$ = -4					; size = 4
_name$ = 8						; size = 4
_v$ = 12						; size = 1
?PushAttribute@XMLPrinter@tinyxml2@@QAEXPBD_N@Z PROC	; tinyxml2::XMLPrinter::PushAttribute, COMDAT
; _this$ = ecx

; 2054 : {

	push	ebp
	mov	ebp, esp
	sub	esp, 416				; 000001a0H
	push	ebx
	push	esi
	push	edi
	push	ecx
	lea	edi, DWORD PTR [ebp-416]
	mov	ecx, 104				; 00000068H
	mov	eax, -858993460				; ccccccccH
	rep stosd
	pop	ecx
	mov	eax, DWORD PTR ___security_cookie
	xor	eax, ebp
	mov	DWORD PTR __$ArrayPad$[ebp], eax
	mov	DWORD PTR _this$[ebp], ecx

; 2055 :     char buf[BUF_SIZE];
; 2056 :     XMLUtil::ToStr( v, buf, BUF_SIZE );

	push	200					; 000000c8H
	lea	eax, DWORD PTR _buf$[ebp]
	push	eax
	movzx	ecx, BYTE PTR _v$[ebp]
	push	ecx
	call	?ToStr@XMLUtil@tinyxml2@@SAX_NPADH@Z	; tinyxml2::XMLUtil::ToStr
	add	esp, 12					; 0000000cH

; 2057 :     PushAttribute( name, buf );

	lea	eax, DWORD PTR _buf$[ebp]
	push	eax
	mov	ecx, DWORD PTR _name$[ebp]
	push	ecx
	mov	ecx, DWORD PTR _this$[ebp]
	call	?PushAttribute@XMLPrinter@tinyxml2@@QAEXPBD0@Z ; tinyxml2::XMLPrinter::PushAttribute

; 2058 : }

	push	edx
	mov	ecx, ebp
	push	eax
	lea	edx, DWORD PTR $LN5@PushAttrib
	call	@_RTC_CheckStackVars@8
	pop	eax
	pop	edx
	pop	edi
	pop	esi
	pop	ebx
	mov	ecx, DWORD PTR __$ArrayPad$[ebp]
	xor	ecx, ebp
	call	@__security_check_cookie@4
	add	esp, 416				; 000001a0H
	cmp	ebp, esp
	call	__RTC_CheckEsp
	mov	esp, ebp
	pop	ebp
	ret	8
	npad	2
$LN5@PushAttrib:
	DD	1
	DD	$LN4@PushAttrib
$LN4@PushAttrib:
	DD	-220					; ffffff24H
	DD	200					; 000000c8H
	DD	$LN3@PushAttrib
$LN3@PushAttrib:
	DB	98					; 00000062H
	DB	117					; 00000075H
	DB	102					; 00000066H
	DB	0
?PushAttribute@XMLPrinter@tinyxml2@@QAEXPBD_N@Z ENDP	; tinyxml2::XMLPrinter::PushAttribute
_TEXT	ENDS
; Function compile flags: /Odtp /RTCsu /ZI
; File c:\users\simon\documents\github\uclan-sparta\dissertation project\tinyxml\tinyxml2.cpp
;	COMDAT ?PushAttribute@XMLPrinter@tinyxml2@@QAEXPBDI@Z
_TEXT	SEGMENT
_buf$ = -220						; size = 200
_this$ = -12						; size = 4
__$ArrayPad$ = -4					; size = 4
_name$ = 8						; size = 4
_v$ = 12						; size = 4
?PushAttribute@XMLPrinter@tinyxml2@@QAEXPBDI@Z PROC	; tinyxml2::XMLPrinter::PushAttribute, COMDAT
; _this$ = ecx

; 2046 : {

	push	ebp
	mov	ebp, esp
	sub	esp, 416				; 000001a0H
	push	ebx
	push	esi
	push	edi
	push	ecx
	lea	edi, DWORD PTR [ebp-416]
	mov	ecx, 104				; 00000068H
	mov	eax, -858993460				; ccccccccH
	rep stosd
	pop	ecx
	mov	eax, DWORD PTR ___security_cookie
	xor	eax, ebp
	mov	DWORD PTR __$ArrayPad$[ebp], eax
	mov	DWORD PTR _this$[ebp], ecx

; 2047 :     char buf[BUF_SIZE];
; 2048 :     XMLUtil::ToStr( v, buf, BUF_SIZE );

	push	200					; 000000c8H
	lea	eax, DWORD PTR _buf$[ebp]
	push	eax
	mov	ecx, DWORD PTR _v$[ebp]
	push	ecx
	call	?ToStr@XMLUtil@tinyxml2@@SAXIPADH@Z	; tinyxml2::XMLUtil::ToStr
	add	esp, 12					; 0000000cH

; 2049 :     PushAttribute( name, buf );

	lea	eax, DWORD PTR _buf$[ebp]
	push	eax
	mov	ecx, DWORD PTR _name$[ebp]
	push	ecx
	mov	ecx, DWORD PTR _this$[ebp]
	call	?PushAttribute@XMLPrinter@tinyxml2@@QAEXPBD0@Z ; tinyxml2::XMLPrinter::PushAttribute

; 2050 : }

	push	edx
	mov	ecx, ebp
	push	eax
	lea	edx, DWORD PTR $LN5@PushAttrib
	call	@_RTC_CheckStackVars@8
	pop	eax
	pop	edx
	pop	edi
	pop	esi
	pop	ebx
	mov	ecx, DWORD PTR __$ArrayPad$[ebp]
	xor	ecx, ebp
	call	@__security_check_cookie@4
	add	esp, 416				; 000001a0H
	cmp	ebp, esp
	call	__RTC_CheckEsp
	mov	esp, ebp
	pop	ebp
	ret	8
	npad	3
$LN5@PushAttrib:
	DD	1
	DD	$LN4@PushAttrib
$LN4@PushAttrib:
	DD	-220					; ffffff24H
	DD	200					; 000000c8H
	DD	$LN3@PushAttrib
$LN3@PushAttrib:
	DB	98					; 00000062H
	DB	117					; 00000075H
	DB	102					; 00000066H
	DB	0
?PushAttribute@XMLPrinter@tinyxml2@@QAEXPBDI@Z ENDP	; tinyxml2::XMLPrinter::PushAttribute
_TEXT	ENDS
; Function compile flags: /Odtp /RTCsu /ZI
; File c:\users\simon\documents\github\uclan-sparta\dissertation project\tinyxml\tinyxml2.cpp
;	COMDAT ?PushAttribute@XMLPrinter@tinyxml2@@QAEXPBDH@Z
_TEXT	SEGMENT
_buf$ = -220						; size = 200
_this$ = -12						; size = 4
__$ArrayPad$ = -4					; size = 4
_name$ = 8						; size = 4
_v$ = 12						; size = 4
?PushAttribute@XMLPrinter@tinyxml2@@QAEXPBDH@Z PROC	; tinyxml2::XMLPrinter::PushAttribute, COMDAT
; _this$ = ecx

; 2038 : {

	push	ebp
	mov	ebp, esp
	sub	esp, 416				; 000001a0H
	push	ebx
	push	esi
	push	edi
	push	ecx
	lea	edi, DWORD PTR [ebp-416]
	mov	ecx, 104				; 00000068H
	mov	eax, -858993460				; ccccccccH
	rep stosd
	pop	ecx
	mov	eax, DWORD PTR ___security_cookie
	xor	eax, ebp
	mov	DWORD PTR __$ArrayPad$[ebp], eax
	mov	DWORD PTR _this$[ebp], ecx

; 2039 :     char buf[BUF_SIZE];
; 2040 :     XMLUtil::ToStr( v, buf, BUF_SIZE );

	push	200					; 000000c8H
	lea	eax, DWORD PTR _buf$[ebp]
	push	eax
	mov	ecx, DWORD PTR _v$[ebp]
	push	ecx
	call	?ToStr@XMLUtil@tinyxml2@@SAXHPADH@Z	; tinyxml2::XMLUtil::ToStr
	add	esp, 12					; 0000000cH

; 2041 :     PushAttribute( name, buf );

	lea	eax, DWORD PTR _buf$[ebp]
	push	eax
	mov	ecx, DWORD PTR _name$[ebp]
	push	ecx
	mov	ecx, DWORD PTR _this$[ebp]
	call	?PushAttribute@XMLPrinter@tinyxml2@@QAEXPBD0@Z ; tinyxml2::XMLPrinter::PushAttribute

; 2042 : }

	push	edx
	mov	ecx, ebp
	push	eax
	lea	edx, DWORD PTR $LN5@PushAttrib
	call	@_RTC_CheckStackVars@8
	pop	eax
	pop	edx
	pop	edi
	pop	esi
	pop	ebx
	mov	ecx, DWORD PTR __$ArrayPad$[ebp]
	xor	ecx, ebp
	call	@__security_check_cookie@4
	add	esp, 416				; 000001a0H
	cmp	ebp, esp
	call	__RTC_CheckEsp
	mov	esp, ebp
	pop	ebp
	ret	8
	npad	3
$LN5@PushAttrib:
	DD	1
	DD	$LN4@PushAttrib
$LN4@PushAttrib:
	DD	-220					; ffffff24H
	DD	200					; 000000c8H
	DD	$LN3@PushAttrib
$LN3@PushAttrib:
	DB	98					; 00000062H
	DB	117					; 00000075H
	DB	102					; 00000066H
	DB	0
?PushAttribute@XMLPrinter@tinyxml2@@QAEXPBDH@Z ENDP	; tinyxml2::XMLPrinter::PushAttribute
_TEXT	ENDS
; Function compile flags: /Odtp /RTCsu /ZI
; File c:\users\simon\documents\github\uclan-sparta\dissertation project\tinyxml\tinyxml2.cpp
;	COMDAT ?PushAttribute@XMLPrinter@tinyxml2@@QAEXPBD0@Z
_TEXT	SEGMENT
_this$ = -8						; size = 4
_name$ = 8						; size = 4
_value$ = 12						; size = 4
?PushAttribute@XMLPrinter@tinyxml2@@QAEXPBD0@Z PROC	; tinyxml2::XMLPrinter::PushAttribute, COMDAT
; _this$ = ecx

; 2029 : {

	push	ebp
	mov	ebp, esp
	sub	esp, 204				; 000000ccH
	push	ebx
	push	esi
	push	edi
	push	ecx
	lea	edi, DWORD PTR [ebp-204]
	mov	ecx, 51					; 00000033H
	mov	eax, -858993460				; ccccccccH
	rep stosd
	pop	ecx
	mov	DWORD PTR _this$[ebp], ecx

; 2030 :     TIXMLASSERT( _elementJustOpened );

	mov	eax, DWORD PTR _this$[ebp]
	movzx	ecx, BYTE PTR [eax+4]
	test	ecx, ecx
	jne	SHORT $LN1@PushAttrib
	int	3
$LN1@PushAttrib:

; 2031 :     Print( " %s=\"", name );

	mov	eax, DWORD PTR _name$[ebp]
	push	eax
	push	OFFSET ??_C@_05LCDLMEIP@?5?$CFs?$DN?$CC?$AA@
	mov	ecx, DWORD PTR _this$[ebp]
	push	ecx
	call	?Print@XMLPrinter@tinyxml2@@IAAXPBDZZ	; tinyxml2::XMLPrinter::Print
	add	esp, 12					; 0000000cH

; 2032 :     PrintString( value, false );

	push	0
	mov	eax, DWORD PTR _value$[ebp]
	push	eax
	mov	ecx, DWORD PTR _this$[ebp]
	call	?PrintString@XMLPrinter@tinyxml2@@AAEXPBD_N@Z ; tinyxml2::XMLPrinter::PrintString

; 2033 :     Print( "\"" );

	push	OFFSET ??_C@_01BJJEKLCA@?$CC?$AA@
	mov	eax, DWORD PTR _this$[ebp]
	push	eax
	call	?Print@XMLPrinter@tinyxml2@@IAAXPBDZZ	; tinyxml2::XMLPrinter::Print
	add	esp, 8

; 2034 : }

	pop	edi
	pop	esi
	pop	ebx
	add	esp, 204				; 000000ccH
	cmp	ebp, esp
	call	__RTC_CheckEsp
	mov	esp, ebp
	pop	ebp
	ret	8
?PushAttribute@XMLPrinter@tinyxml2@@QAEXPBD0@Z ENDP	; tinyxml2::XMLPrinter::PushAttribute
_TEXT	ENDS
; Function compile flags: /Odtp /RTCsu /ZI
; File c:\users\simon\documents\github\uclan-sparta\dissertation project\tinyxml\tinyxml2.cpp
;	COMDAT ?OpenElement@XMLPrinter@tinyxml2@@QAEXPBD_N@Z
_TEXT	SEGMENT
_this$ = -8						; size = 4
_name$ = 8						; size = 4
_compactMode$ = 12					; size = 1
?OpenElement@XMLPrinter@tinyxml2@@QAEXPBD_N@Z PROC	; tinyxml2::XMLPrinter::OpenElement, COMDAT
; _this$ = ecx

; 2008 : {

	push	ebp
	mov	ebp, esp
	sub	esp, 204				; 000000ccH
	push	ebx
	push	esi
	push	edi
	push	ecx
	lea	edi, DWORD PTR [ebp-204]
	mov	ecx, 51					; 00000033H
	mov	eax, -858993460				; ccccccccH
	rep stosd
	pop	ecx
	mov	DWORD PTR _this$[ebp], ecx

; 2009 :     if ( _elementJustOpened ) {

	mov	eax, DWORD PTR _this$[ebp]
	movzx	ecx, BYTE PTR [eax+4]
	test	ecx, ecx
	je	SHORT $LN3@OpenElemen

; 2010 :         SealElement();

	mov	ecx, DWORD PTR _this$[ebp]
	call	?SealElement@XMLPrinter@tinyxml2@@IAEXXZ ; tinyxml2::XMLPrinter::SealElement
$LN3@OpenElemen:

; 2011 :     }
; 2012 :     _stack.Push( name );

	mov	eax, DWORD PTR _name$[ebp]
	push	eax
	mov	ecx, DWORD PTR _this$[ebp]
	add	ecx, 8
	call	?Push@?$DynArray@PBD$09@tinyxml2@@QAEXPBD@Z ; tinyxml2::DynArray<char const *,10>::Push

; 2013 : 
; 2014 :     if ( _textDepth < 0 && !_firstElement && !compactMode ) {

	mov	eax, DWORD PTR _this$[ebp]
	cmp	DWORD PTR [eax+72], 0
	jge	SHORT $LN2@OpenElemen
	mov	eax, DWORD PTR _this$[ebp]
	movzx	ecx, BYTE PTR [eax+60]
	test	ecx, ecx
	jne	SHORT $LN2@OpenElemen
	movzx	eax, BYTE PTR _compactMode$[ebp]
	test	eax, eax
	jne	SHORT $LN2@OpenElemen

; 2015 :         Print( "\n" );

	push	OFFSET ??_C@_01EEMJAFIK@?6?$AA@
	mov	eax, DWORD PTR _this$[ebp]
	push	eax
	call	?Print@XMLPrinter@tinyxml2@@IAAXPBDZZ	; tinyxml2::XMLPrinter::Print
	add	esp, 8
$LN2@OpenElemen:

; 2016 :     }
; 2017 :     if ( !compactMode ) {

	movzx	eax, BYTE PTR _compactMode$[ebp]
	test	eax, eax
	jne	SHORT $LN1@OpenElemen

; 2018 :         PrintSpace( _depth );

	mov	esi, esp
	mov	eax, DWORD PTR _this$[ebp]
	mov	ecx, DWORD PTR [eax+68]
	push	ecx
	mov	edx, DWORD PTR _this$[ebp]
	mov	eax, DWORD PTR [edx]
	mov	ecx, DWORD PTR _this$[ebp]
	mov	edx, DWORD PTR [eax+44]
	call	edx
	cmp	esi, esp
	call	__RTC_CheckEsp
$LN1@OpenElemen:

; 2019 :     }
; 2020 : 
; 2021 :     Print( "<%s", name );

	mov	eax, DWORD PTR _name$[ebp]
	push	eax
	push	OFFSET ??_C@_03FONCMJME@?$DM?$CFs?$AA@
	mov	ecx, DWORD PTR _this$[ebp]
	push	ecx
	call	?Print@XMLPrinter@tinyxml2@@IAAXPBDZZ	; tinyxml2::XMLPrinter::Print
	add	esp, 12					; 0000000cH

; 2022 :     _elementJustOpened = true;

	mov	eax, DWORD PTR _this$[ebp]
	mov	BYTE PTR [eax+4], 1

; 2023 :     _firstElement = false;

	mov	eax, DWORD PTR _this$[ebp]
	mov	BYTE PTR [eax+60], 0

; 2024 :     ++_depth;

	mov	eax, DWORD PTR _this$[ebp]
	mov	ecx, DWORD PTR [eax+68]
	add	ecx, 1
	mov	edx, DWORD PTR _this$[ebp]
	mov	DWORD PTR [edx+68], ecx

; 2025 : }

	pop	edi
	pop	esi
	pop	ebx
	add	esp, 204				; 000000ccH
	cmp	ebp, esp
	call	__RTC_CheckEsp
	mov	esp, ebp
	pop	ebp
	ret	8
?OpenElement@XMLPrinter@tinyxml2@@QAEXPBD_N@Z ENDP	; tinyxml2::XMLPrinter::OpenElement
_TEXT	ENDS
; Function compile flags: /Odtp /RTCsu /ZI
; File c:\users\simon\documents\github\uclan-sparta\dissertation project\tinyxml\tinyxml2.cpp
;	COMDAT ?PushHeader@XMLPrinter@tinyxml2@@QAEX_N0@Z
_TEXT	SEGMENT
_this$ = -8						; size = 4
_writeBOM$ = 8						; size = 1
_writeDec$ = 12						; size = 1
?PushHeader@XMLPrinter@tinyxml2@@QAEX_N0@Z PROC		; tinyxml2::XMLPrinter::PushHeader, COMDAT
; _this$ = ecx

; 1996 : {

	push	ebp
	mov	ebp, esp
	sub	esp, 204				; 000000ccH
	push	ebx
	push	esi
	push	edi
	push	ecx
	lea	edi, DWORD PTR [ebp-204]
	mov	ecx, 51					; 00000033H
	mov	eax, -858993460				; ccccccccH
	rep stosd
	pop	ecx
	mov	DWORD PTR _this$[ebp], ecx

; 1997 :     if ( writeBOM ) {

	movzx	eax, BYTE PTR _writeBOM$[ebp]
	test	eax, eax
	je	SHORT $LN2@PushHeader

; 1998 :         static const unsigned char bom[] = { TIXML_UTF_LEAD_0, TIXML_UTF_LEAD_1, TIXML_UTF_LEAD_2, 0 };
; 1999 :         Print( "%s", bom );

	push	OFFSET ?bom@?4??PushHeader@XMLPrinter@tinyxml2@@QAEX_N0@Z@4QBEB
	push	OFFSET ??_C@_02DKCKIIND@?$CFs?$AA@
	mov	eax, DWORD PTR _this$[ebp]
	push	eax
	call	?Print@XMLPrinter@tinyxml2@@IAAXPBDZZ	; tinyxml2::XMLPrinter::Print
	add	esp, 12					; 0000000cH
$LN2@PushHeader:

; 2000 :     }
; 2001 :     if ( writeDec ) {

	movzx	eax, BYTE PTR _writeDec$[ebp]
	test	eax, eax
	je	SHORT $LN3@PushHeader

; 2002 :         PushDeclaration( "xml version=\"1.0\"" );

	push	OFFSET ??_C@_0BC@CIAMHNHO@xml?5version?$DN?$CC1?40?$CC?$AA@
	mov	ecx, DWORD PTR _this$[ebp]
	call	?PushDeclaration@XMLPrinter@tinyxml2@@QAEXPBD@Z ; tinyxml2::XMLPrinter::PushDeclaration
$LN3@PushHeader:

; 2003 :     }
; 2004 : }

	pop	edi
	pop	esi
	pop	ebx
	add	esp, 204				; 000000ccH
	cmp	ebp, esp
	call	__RTC_CheckEsp
	mov	esp, ebp
	pop	ebp
	ret	8
?PushHeader@XMLPrinter@tinyxml2@@QAEX_N0@Z ENDP		; tinyxml2::XMLPrinter::PushHeader
_TEXT	ENDS
; Function compile flags: /Odtp /RTCsu /ZI
; File c:\users\simon\documents\github\uclan-sparta\dissertation project\tinyxml\tinyxml2.h
;	COMDAT ??1XMLPrinter@tinyxml2@@UAE@XZ
_TEXT	SEGMENT
_this$ = -20						; size = 4
__$EHRec$ = -12						; size = 12
??1XMLPrinter@tinyxml2@@UAE@XZ PROC			; tinyxml2::XMLPrinter::~XMLPrinter, COMDAT
; _this$ = ecx

; 1978 :     virtual ~XMLPrinter()	{}

	push	ebp
	mov	ebp, esp
	push	-1
	push	__ehhandler$??1XMLPrinter@tinyxml2@@UAE@XZ
	mov	eax, DWORD PTR fs:0
	push	eax
	sub	esp, 204				; 000000ccH
	push	ebx
	push	esi
	push	edi
	push	ecx
	lea	edi, DWORD PTR [ebp-216]
	mov	ecx, 51					; 00000033H
	mov	eax, -858993460				; ccccccccH
	rep stosd
	pop	ecx
	mov	eax, DWORD PTR ___security_cookie
	xor	eax, ebp
	push	eax
	lea	eax, DWORD PTR __$EHRec$[ebp]
	mov	DWORD PTR fs:0, eax
	mov	DWORD PTR _this$[ebp], ecx
	mov	eax, DWORD PTR _this$[ebp]
	mov	DWORD PTR [eax], OFFSET ??_7XMLPrinter@tinyxml2@@6B@
	mov	DWORD PTR __$EHRec$[ebp+8], 1
	mov	ecx, DWORD PTR _this$[ebp]
	add	ecx, 208				; 000000d0H
	call	??1?$DynArray@D$0BE@@tinyxml2@@QAE@XZ	; tinyxml2::DynArray<char,20>::~DynArray<char,20>
	mov	BYTE PTR __$EHRec$[ebp+8], 0
	mov	ecx, DWORD PTR _this$[ebp]
	add	ecx, 8
	call	??1?$DynArray@PBD$09@tinyxml2@@QAE@XZ	; tinyxml2::DynArray<char const *,10>::~DynArray<char const *,10>
	mov	DWORD PTR __$EHRec$[ebp+8], -1
	mov	ecx, DWORD PTR _this$[ebp]
	call	??1XMLVisitor@tinyxml2@@UAE@XZ		; tinyxml2::XMLVisitor::~XMLVisitor
	mov	ecx, DWORD PTR __$EHRec$[ebp]
	mov	DWORD PTR fs:0, ecx
	pop	ecx
	pop	edi
	pop	esi
	pop	ebx
	add	esp, 216				; 000000d8H
	cmp	ebp, esp
	call	__RTC_CheckEsp
	mov	esp, ebp
	pop	ebp
	ret	0
_TEXT	ENDS
;	COMDAT text$x
text$x	SEGMENT
__unwindfunclet$??1XMLPrinter@tinyxml2@@UAE@XZ$0:
	mov	ecx, DWORD PTR _this$[ebp]
	jmp	??1XMLVisitor@tinyxml2@@UAE@XZ		; tinyxml2::XMLVisitor::~XMLVisitor
__unwindfunclet$??1XMLPrinter@tinyxml2@@UAE@XZ$1:
	mov	ecx, DWORD PTR _this$[ebp]
	add	ecx, 8
	jmp	??1?$DynArray@PBD$09@tinyxml2@@QAE@XZ	; tinyxml2::DynArray<char const *,10>::~DynArray<char const *,10>
__ehhandler$??1XMLPrinter@tinyxml2@@UAE@XZ:
	mov	edx, DWORD PTR [esp+8]
	lea	eax, DWORD PTR [edx+12]
	mov	ecx, DWORD PTR [edx-220]
	xor	ecx, eax
	call	@__security_check_cookie@4
	mov	eax, OFFSET __ehfuncinfo$??1XMLPrinter@tinyxml2@@UAE@XZ
	jmp	___CxxFrameHandler3
text$x	ENDS
??1XMLPrinter@tinyxml2@@UAE@XZ ENDP			; tinyxml2::XMLPrinter::~XMLPrinter
; Function compile flags: /Odtp /RTCsu /ZI
; File c:\users\simon\documents\github\uclan-sparta\dissertation project\tinyxml\tinyxml2.cpp
;	COMDAT ??0XMLPrinter@tinyxml2@@QAE@PAU_iobuf@@_NH@Z
_TEXT	SEGMENT
_i$2 = -44						; size = 4
_i$3 = -32						; size = 4
_this$ = -20						; size = 4
__$EHRec$ = -12						; size = 12
_file$ = 8						; size = 4
_compact$ = 12						; size = 1
_depth$ = 16						; size = 4
??0XMLPrinter@tinyxml2@@QAE@PAU_iobuf@@_NH@Z PROC	; tinyxml2::XMLPrinter::XMLPrinter, COMDAT
; _this$ = ecx

; 1889 : {

	push	ebp
	mov	ebp, esp
	push	-1
	push	__ehhandler$??0XMLPrinter@tinyxml2@@QAE@PAU_iobuf@@_NH@Z
	mov	eax, DWORD PTR fs:0
	push	eax
	sub	esp, 228				; 000000e4H
	push	ebx
	push	esi
	push	edi
	push	ecx
	lea	edi, DWORD PTR [ebp-240]
	mov	ecx, 57					; 00000039H
	mov	eax, -858993460				; ccccccccH
	rep stosd
	pop	ecx
	mov	eax, DWORD PTR ___security_cookie
	xor	eax, ebp
	push	eax
	lea	eax, DWORD PTR __$EHRec$[ebp]
	mov	DWORD PTR fs:0, eax
	mov	DWORD PTR _this$[ebp], ecx
	mov	ecx, DWORD PTR _this$[ebp]
	call	??0XMLVisitor@tinyxml2@@QAE@XZ
	mov	DWORD PTR __$EHRec$[ebp+8], 0
	mov	eax, DWORD PTR _this$[ebp]
	mov	DWORD PTR [eax], OFFSET ??_7XMLPrinter@tinyxml2@@6B@
	mov	eax, DWORD PTR _this$[ebp]
	mov	BYTE PTR [eax+4], 0
	mov	ecx, DWORD PTR _this$[ebp]
	add	ecx, 8
	call	??0?$DynArray@PBD$09@tinyxml2@@QAE@XZ	; tinyxml2::DynArray<char const *,10>::DynArray<char const *,10>
	mov	BYTE PTR __$EHRec$[ebp+8], 1
	mov	eax, DWORD PTR _this$[ebp]
	mov	BYTE PTR [eax+60], 1
	mov	eax, DWORD PTR _this$[ebp]
	mov	ecx, DWORD PTR _file$[ebp]
	mov	DWORD PTR [eax+64], ecx
	mov	eax, DWORD PTR _this$[ebp]
	mov	ecx, DWORD PTR _depth$[ebp]
	mov	DWORD PTR [eax+68], ecx
	mov	eax, DWORD PTR _this$[ebp]
	mov	DWORD PTR [eax+72], -1
	mov	eax, DWORD PTR _this$[ebp]
	mov	BYTE PTR [eax+76], 1
	mov	eax, DWORD PTR _this$[ebp]
	mov	cl, BYTE PTR _compact$[ebp]
	mov	BYTE PTR [eax+77], cl
	mov	ecx, DWORD PTR _this$[ebp]
	add	ecx, 208				; 000000d0H
	call	??0?$DynArray@D$0BE@@tinyxml2@@QAE@XZ	; tinyxml2::DynArray<char,20>::DynArray<char,20>
	mov	BYTE PTR __$EHRec$[ebp+8], 2

; 1890 :     for( int i=0; i<ENTITY_RANGE; ++i ) {

	mov	DWORD PTR _i$3[ebp], 0
	jmp	SHORT $LN8@XMLPrinter
$LN7@XMLPrinter:
	mov	eax, DWORD PTR _i$3[ebp]
	add	eax, 1
	mov	DWORD PTR _i$3[ebp], eax
$LN8@XMLPrinter:
	cmp	DWORD PTR _i$3[ebp], 64			; 00000040H
	jge	SHORT $LN6@XMLPrinter

; 1891 :         _entityFlag[i] = false;

	mov	eax, DWORD PTR _this$[ebp]
	add	eax, DWORD PTR _i$3[ebp]
	mov	BYTE PTR [eax+78], 0

; 1892 :         _restrictedEntityFlag[i] = false;

	mov	eax, DWORD PTR _this$[ebp]
	add	eax, DWORD PTR _i$3[ebp]
	mov	BYTE PTR [eax+142], 0

; 1893 :     }

	jmp	SHORT $LN7@XMLPrinter
$LN6@XMLPrinter:

; 1894 :     for( int i=0; i<NUM_ENTITIES; ++i ) {

	mov	DWORD PTR _i$2[ebp], 0
	jmp	SHORT $LN5@XMLPrinter
$LN4@XMLPrinter:
	mov	eax, DWORD PTR _i$2[ebp]
	add	eax, 1
	mov	DWORD PTR _i$2[ebp], eax
$LN5@XMLPrinter:
	cmp	DWORD PTR _i$2[ebp], 5
	jge	SHORT $LN3@XMLPrinter

; 1895 :         TIXMLASSERT( entities[i].value < ENTITY_RANGE );

	mov	eax, DWORD PTR _i$2[ebp]
	imul	eax, 12					; 0000000cH
	movsx	ecx, BYTE PTR _entities[eax+8]
	cmp	ecx, 64					; 00000040H
	jl	SHORT $LN2@XMLPrinter
	int	3
$LN2@XMLPrinter:

; 1896 :         if ( entities[i].value < ENTITY_RANGE ) {

	mov	eax, DWORD PTR _i$2[ebp]
	imul	eax, 12					; 0000000cH
	movsx	ecx, BYTE PTR _entities[eax+8]
	cmp	ecx, 64					; 00000040H
	jge	SHORT $LN1@XMLPrinter

; 1897 :             _entityFlag[ (int)entities[i].value ] = true;

	mov	eax, DWORD PTR _i$2[ebp]
	imul	eax, 12					; 0000000cH
	movsx	ecx, BYTE PTR _entities[eax+8]
	mov	edx, DWORD PTR _this$[ebp]
	mov	BYTE PTR [edx+ecx+78], 1
$LN1@XMLPrinter:

; 1898 :         }
; 1899 :     }

	jmp	SHORT $LN4@XMLPrinter
$LN3@XMLPrinter:

; 1900 :     _restrictedEntityFlag[(int)'&'] = true;

	mov	eax, 1
	imul	eax, 38					; 00000026H
	mov	ecx, DWORD PTR _this$[ebp]
	mov	BYTE PTR [ecx+eax+142], 1

; 1901 :     _restrictedEntityFlag[(int)'<'] = true;

	mov	eax, 1
	imul	eax, 60					; 0000003cH
	mov	ecx, DWORD PTR _this$[ebp]
	mov	BYTE PTR [ecx+eax+142], 1

; 1902 :     _restrictedEntityFlag[(int)'>'] = true;	// not required, but consistency is nice

	mov	eax, 1
	imul	eax, 62					; 0000003eH
	mov	ecx, DWORD PTR _this$[ebp]
	mov	BYTE PTR [ecx+eax+142], 1

; 1903 :     _buffer.Push( 0 );

	push	0
	mov	ecx, DWORD PTR _this$[ebp]
	add	ecx, 208				; 000000d0H
	call	?Push@?$DynArray@D$0BE@@tinyxml2@@QAEXD@Z ; tinyxml2::DynArray<char,20>::Push

; 1904 : }

	mov	DWORD PTR __$EHRec$[ebp+8], -1
	mov	eax, DWORD PTR _this$[ebp]
	mov	ecx, DWORD PTR __$EHRec$[ebp]
	mov	DWORD PTR fs:0, ecx
	pop	ecx
	pop	edi
	pop	esi
	pop	ebx
	add	esp, 240				; 000000f0H
	cmp	ebp, esp
	call	__RTC_CheckEsp
	mov	esp, ebp
	pop	ebp
	ret	12					; 0000000cH
_TEXT	ENDS
;	COMDAT text$x
text$x	SEGMENT
__unwindfunclet$??0XMLPrinter@tinyxml2@@QAE@PAU_iobuf@@_NH@Z$0:
	mov	ecx, DWORD PTR _this$[ebp]
	jmp	??1XMLVisitor@tinyxml2@@UAE@XZ		; tinyxml2::XMLVisitor::~XMLVisitor
__unwindfunclet$??0XMLPrinter@tinyxml2@@QAE@PAU_iobuf@@_NH@Z$1:
	mov	ecx, DWORD PTR _this$[ebp]
	add	ecx, 8
	jmp	??1?$DynArray@PBD$09@tinyxml2@@QAE@XZ	; tinyxml2::DynArray<char const *,10>::~DynArray<char const *,10>
__unwindfunclet$??0XMLPrinter@tinyxml2@@QAE@PAU_iobuf@@_NH@Z$2:
	mov	ecx, DWORD PTR _this$[ebp]
	add	ecx, 208				; 000000d0H
	jmp	??1?$DynArray@D$0BE@@tinyxml2@@QAE@XZ	; tinyxml2::DynArray<char,20>::~DynArray<char,20>
__ehhandler$??0XMLPrinter@tinyxml2@@QAE@PAU_iobuf@@_NH@Z:
	mov	edx, DWORD PTR [esp+8]
	lea	eax, DWORD PTR [edx+12]
	mov	ecx, DWORD PTR [edx-244]
	xor	ecx, eax
	call	@__security_check_cookie@4
	mov	eax, OFFSET __ehfuncinfo$??0XMLPrinter@tinyxml2@@QAE@PAU_iobuf@@_NH@Z
	jmp	___CxxFrameHandler3
text$x	ENDS
??0XMLPrinter@tinyxml2@@QAE@PAU_iobuf@@_NH@Z ENDP	; tinyxml2::XMLPrinter::XMLPrinter
; Function compile flags: /Odtp /RTCsu /ZI
;	COMDAT ??_GXMLDocument@tinyxml2@@UAEPAXI@Z
_TEXT	SEGMENT
_this$ = -8						; size = 4
___flags$ = 8						; size = 4
??_GXMLDocument@tinyxml2@@UAEPAXI@Z PROC		; tinyxml2::XMLDocument::`scalar deleting destructor', COMDAT
; _this$ = ecx
	push	ebp
	mov	ebp, esp
	sub	esp, 204				; 000000ccH
	push	ebx
	push	esi
	push	edi
	push	ecx
	lea	edi, DWORD PTR [ebp-204]
	mov	ecx, 51					; 00000033H
	mov	eax, -858993460				; ccccccccH
	rep stosd
	pop	ecx
	mov	DWORD PTR _this$[ebp], ecx
	mov	ecx, DWORD PTR _this$[ebp]
	call	??1XMLDocument@tinyxml2@@UAE@XZ		; tinyxml2::XMLDocument::~XMLDocument
	mov	eax, DWORD PTR ___flags$[ebp]
	and	eax, 1
	je	SHORT $LN1@scalar
	mov	eax, DWORD PTR _this$[ebp]
	push	eax
	call	??3@YAXPAX@Z				; operator delete
	add	esp, 4
$LN1@scalar:
	mov	eax, DWORD PTR _this$[ebp]
	pop	edi
	pop	esi
	pop	ebx
	add	esp, 204				; 000000ccH
	cmp	ebp, esp
	call	__RTC_CheckEsp
	mov	esp, ebp
	pop	ebp
	ret	4
??_GXMLDocument@tinyxml2@@UAEPAXI@Z ENDP		; tinyxml2::XMLDocument::`scalar deleting destructor'
_TEXT	ENDS
; Function compile flags: /Odtp /RTCsu /ZI
;	COMDAT ??_G?$MemPoolT@$0CM@@tinyxml2@@UAEPAXI@Z
_TEXT	SEGMENT
_this$ = -8						; size = 4
___flags$ = 8						; size = 4
??_G?$MemPoolT@$0CM@@tinyxml2@@UAEPAXI@Z PROC		; tinyxml2::MemPoolT<44>::`scalar deleting destructor', COMDAT
; _this$ = ecx
	push	ebp
	mov	ebp, esp
	sub	esp, 204				; 000000ccH
	push	ebx
	push	esi
	push	edi
	push	ecx
	lea	edi, DWORD PTR [ebp-204]
	mov	ecx, 51					; 00000033H
	mov	eax, -858993460				; ccccccccH
	rep stosd
	pop	ecx
	mov	DWORD PTR _this$[ebp], ecx
	mov	ecx, DWORD PTR _this$[ebp]
	call	??1?$MemPoolT@$0CM@@tinyxml2@@UAE@XZ	; tinyxml2::MemPoolT<44>::~MemPoolT<44>
	mov	eax, DWORD PTR ___flags$[ebp]
	and	eax, 1
	je	SHORT $LN1@scalar
	mov	eax, DWORD PTR _this$[ebp]
	push	eax
	call	??3@YAXPAX@Z				; operator delete
	add	esp, 4
$LN1@scalar:
	mov	eax, DWORD PTR _this$[ebp]
	pop	edi
	pop	esi
	pop	ebx
	add	esp, 204				; 000000ccH
	cmp	ebp, esp
	call	__RTC_CheckEsp
	mov	esp, ebp
	pop	ebp
	ret	4
??_G?$MemPoolT@$0CM@@tinyxml2@@UAEPAXI@Z ENDP		; tinyxml2::MemPoolT<44>::`scalar deleting destructor'
_TEXT	ENDS
; Function compile flags: /Odtp /RTCsu /ZI
; File c:\users\simon\documents\github\uclan-sparta\dissertation project\tinyxml\tinyxml2.h
;	COMDAT ?EnsureCapacity@?$DynArray@PAUBlock@?$MemPoolT@$0CM@@tinyxml2@@$09@tinyxml2@@AAEXH@Z
_TEXT	SEGMENT
$T1 = -248						; size = 4
$T2 = -236						; size = 4
_newMem$3 = -32						; size = 4
_newAllocated$4 = -20					; size = 4
_this$ = -8						; size = 4
_cap$ = 8						; size = 4
?EnsureCapacity@?$DynArray@PAUBlock@?$MemPoolT@$0CM@@tinyxml2@@$09@tinyxml2@@AAEXH@Z PROC ; tinyxml2::DynArray<tinyxml2::MemPoolT<44>::Block *,10>::EnsureCapacity, COMDAT
; _this$ = ecx

; 285  :     void EnsureCapacity( int cap ) {

	push	ebp
	mov	ebp, esp
	sub	esp, 252				; 000000fcH
	push	ebx
	push	esi
	push	edi
	push	ecx
	lea	edi, DWORD PTR [ebp-252]
	mov	ecx, 63					; 0000003fH
	mov	eax, -858993460				; ccccccccH
	rep stosd
	pop	ecx
	mov	DWORD PTR _this$[ebp], ecx

; 286  :         if ( cap > _allocated ) {

	mov	eax, DWORD PTR _this$[ebp]
	mov	ecx, DWORD PTR _cap$[ebp]
	cmp	ecx, DWORD PTR [eax+44]
	jle	$LN3@EnsureCapa

; 287  :             int newAllocated = cap * 2;

	mov	eax, DWORD PTR _cap$[ebp]
	shl	eax, 1
	mov	DWORD PTR _newAllocated$4[ebp], eax

; 288  :             T* newMem = new T[newAllocated];

	xor	ecx, ecx
	mov	eax, DWORD PTR _newAllocated$4[ebp]
	mov	edx, 4
	mul	edx
	seto	cl
	neg	ecx
	or	ecx, eax
	push	ecx
	call	??_U@YAPAXI@Z				; operator new[]
	add	esp, 4
	mov	DWORD PTR $T1[ebp], eax
	mov	eax, DWORD PTR $T1[ebp]
	mov	DWORD PTR _newMem$3[ebp], eax

; 289  :             memcpy( newMem, _mem, sizeof(T)*_size );	// warning: not using constructors, only works for PODs

	mov	eax, DWORD PTR _this$[ebp]
	mov	ecx, DWORD PTR [eax+48]
	shl	ecx, 2
	push	ecx
	mov	edx, DWORD PTR _this$[ebp]
	mov	eax, DWORD PTR [edx]
	push	eax
	mov	ecx, DWORD PTR _newMem$3[ebp]
	push	ecx
	call	_memcpy
	add	esp, 12					; 0000000cH

; 290  :             if ( _mem != _pool ) {

	mov	eax, DWORD PTR _this$[ebp]
	add	eax, 4
	mov	ecx, DWORD PTR _this$[ebp]
	cmp	DWORD PTR [ecx], eax
	je	SHORT $LN1@EnsureCapa

; 291  :                 delete [] _mem;

	mov	eax, DWORD PTR _this$[ebp]
	mov	ecx, DWORD PTR [eax]
	mov	DWORD PTR $T2[ebp], ecx
	mov	edx, DWORD PTR $T2[ebp]
	push	edx
	call	??_V@YAXPAX@Z				; operator delete[]
	add	esp, 4
$LN1@EnsureCapa:

; 292  :             }
; 293  :             _mem = newMem;

	mov	eax, DWORD PTR _this$[ebp]
	mov	ecx, DWORD PTR _newMem$3[ebp]
	mov	DWORD PTR [eax], ecx

; 294  :             _allocated = newAllocated;

	mov	eax, DWORD PTR _this$[ebp]
	mov	ecx, DWORD PTR _newAllocated$4[ebp]
	mov	DWORD PTR [eax+44], ecx
$LN3@EnsureCapa:

; 295  :         }
; 296  :     }

	pop	edi
	pop	esi
	pop	ebx
	add	esp, 252				; 000000fcH
	cmp	ebp, esp
	call	__RTC_CheckEsp
	mov	esp, ebp
	pop	ebp
	ret	4
?EnsureCapacity@?$DynArray@PAUBlock@?$MemPoolT@$0CM@@tinyxml2@@$09@tinyxml2@@AAEXH@Z ENDP ; tinyxml2::DynArray<tinyxml2::MemPoolT<44>::Block *,10>::EnsureCapacity
_TEXT	ENDS
; Function compile flags: /Odtp /RTCsu /ZI
; File c:\users\simon\documents\github\uclan-sparta\dissertation project\tinyxml\tinyxml2.h
;	COMDAT ?Empty@?$DynArray@PAUBlock@?$MemPoolT@$0CM@@tinyxml2@@$09@tinyxml2@@QBE_NXZ
_TEXT	SEGMENT
tv66 = -208						; size = 4
_this$ = -8						; size = 4
?Empty@?$DynArray@PAUBlock@?$MemPoolT@$0CM@@tinyxml2@@$09@tinyxml2@@QBE_NXZ PROC ; tinyxml2::DynArray<tinyxml2::MemPoolT<44>::Block *,10>::Empty, COMDAT
; _this$ = ecx

; 249  :     bool Empty() const					{

	push	ebp
	mov	ebp, esp
	sub	esp, 208				; 000000d0H
	push	ebx
	push	esi
	push	edi
	push	ecx
	lea	edi, DWORD PTR [ebp-208]
	mov	ecx, 52					; 00000034H
	mov	eax, -858993460				; ccccccccH
	rep stosd
	pop	ecx
	mov	DWORD PTR _this$[ebp], ecx

; 250  :         return _size == 0;

	mov	eax, DWORD PTR _this$[ebp]
	cmp	DWORD PTR [eax+48], 0
	jne	SHORT $LN3@Empty
	mov	DWORD PTR tv66[ebp], 1
	jmp	SHORT $LN4@Empty
$LN3@Empty:
	mov	DWORD PTR tv66[ebp], 0
$LN4@Empty:
	mov	al, BYTE PTR tv66[ebp]

; 251  :     }

	pop	edi
	pop	esi
	pop	ebx
	mov	esp, ebp
	pop	ebp
	ret	0
?Empty@?$DynArray@PAUBlock@?$MemPoolT@$0CM@@tinyxml2@@$09@tinyxml2@@QBE_NXZ ENDP ; tinyxml2::DynArray<tinyxml2::MemPoolT<44>::Block *,10>::Empty
_TEXT	ENDS
; Function compile flags: /Odtp /RTCsu /ZI
; File c:\users\simon\documents\github\uclan-sparta\dissertation project\tinyxml\tinyxml2.h
;	COMDAT ?Pop@?$DynArray@PAUBlock@?$MemPoolT@$0CM@@tinyxml2@@$09@tinyxml2@@QAEPAUBlock@?$MemPoolT@$0CM@@2@XZ
_TEXT	SEGMENT
tv69 = -208						; size = 4
_this$ = -8						; size = 4
?Pop@?$DynArray@PAUBlock@?$MemPoolT@$0CM@@tinyxml2@@$09@tinyxml2@@QAEPAUBlock@?$MemPoolT@$0CM@@2@XZ PROC ; tinyxml2::DynArray<tinyxml2::MemPoolT<44>::Block *,10>::Pop, COMDAT
; _this$ = ecx

; 240  :     T Pop() {

	push	ebp
	mov	ebp, esp
	sub	esp, 208				; 000000d0H
	push	ebx
	push	esi
	push	edi
	push	ecx
	lea	edi, DWORD PTR [ebp-208]
	mov	ecx, 52					; 00000034H
	mov	eax, -858993460				; ccccccccH
	rep stosd
	pop	ecx
	mov	DWORD PTR _this$[ebp], ecx

; 241  :         return _mem[--_size];

	mov	eax, DWORD PTR _this$[ebp]
	mov	ecx, DWORD PTR [eax+48]
	sub	ecx, 1
	mov	DWORD PTR tv69[ebp], ecx
	mov	edx, DWORD PTR _this$[ebp]
	mov	eax, DWORD PTR tv69[ebp]
	mov	DWORD PTR [edx+48], eax
	mov	ecx, DWORD PTR _this$[ebp]
	mov	edx, DWORD PTR [ecx]
	mov	eax, DWORD PTR tv69[ebp]
	mov	eax, DWORD PTR [edx+eax*4]

; 242  :     }

	pop	edi
	pop	esi
	pop	ebx
	mov	esp, ebp
	pop	ebp
	ret	0
?Pop@?$DynArray@PAUBlock@?$MemPoolT@$0CM@@tinyxml2@@$09@tinyxml2@@QAEPAUBlock@?$MemPoolT@$0CM@@2@XZ ENDP ; tinyxml2::DynArray<tinyxml2::MemPoolT<44>::Block *,10>::Pop
_TEXT	ENDS
; Function compile flags: /Odtp /RTCsu /ZI
; File c:\users\simon\documents\github\uclan-sparta\dissertation project\tinyxml\tinyxml2.h
;	COMDAT ?Push@?$DynArray@PAUBlock@?$MemPoolT@$0CM@@tinyxml2@@$09@tinyxml2@@QAEXPAUBlock@?$MemPoolT@$0CM@@2@@Z
_TEXT	SEGMENT
_this$ = -8						; size = 4
_t$ = 8							; size = 4
?Push@?$DynArray@PAUBlock@?$MemPoolT@$0CM@@tinyxml2@@$09@tinyxml2@@QAEXPAUBlock@?$MemPoolT@$0CM@@2@@Z PROC ; tinyxml2::DynArray<tinyxml2::MemPoolT<44>::Block *,10>::Push, COMDAT
; _this$ = ecx

; 228  :     void Push( T t ) {

	push	ebp
	mov	ebp, esp
	sub	esp, 204				; 000000ccH
	push	ebx
	push	esi
	push	edi
	push	ecx
	lea	edi, DWORD PTR [ebp-204]
	mov	ecx, 51					; 00000033H
	mov	eax, -858993460				; ccccccccH
	rep stosd
	pop	ecx
	mov	DWORD PTR _this$[ebp], ecx

; 229  :         EnsureCapacity( _size+1 );

	mov	eax, DWORD PTR _this$[ebp]
	mov	ecx, DWORD PTR [eax+48]
	add	ecx, 1
	push	ecx
	mov	ecx, DWORD PTR _this$[ebp]
	call	?EnsureCapacity@?$DynArray@PAUBlock@?$MemPoolT@$0CM@@tinyxml2@@$09@tinyxml2@@AAEXH@Z ; tinyxml2::DynArray<tinyxml2::MemPoolT<44>::Block *,10>::EnsureCapacity

; 230  :         _mem[_size++] = t;

	mov	eax, DWORD PTR _this$[ebp]
	mov	ecx, DWORD PTR [eax+48]
	mov	edx, DWORD PTR _this$[ebp]
	mov	eax, DWORD PTR [edx]
	mov	edx, DWORD PTR _t$[ebp]
	mov	DWORD PTR [eax+ecx*4], edx
	mov	eax, DWORD PTR _this$[ebp]
	mov	ecx, DWORD PTR [eax+48]
	add	ecx, 1
	mov	edx, DWORD PTR _this$[ebp]
	mov	DWORD PTR [edx+48], ecx

; 231  :     }

	pop	edi
	pop	esi
	pop	ebx
	add	esp, 204				; 000000ccH
	cmp	ebp, esp
	call	__RTC_CheckEsp
	mov	esp, ebp
	pop	ebp
	ret	4
?Push@?$DynArray@PAUBlock@?$MemPoolT@$0CM@@tinyxml2@@$09@tinyxml2@@QAEXPAUBlock@?$MemPoolT@$0CM@@2@@Z ENDP ; tinyxml2::DynArray<tinyxml2::MemPoolT<44>::Block *,10>::Push
_TEXT	ENDS
; Function compile flags: /Odtp /RTCsu /ZI
; File c:\users\simon\documents\github\uclan-sparta\dissertation project\tinyxml\tinyxml2.h
;	COMDAT ??1?$DynArray@PAUBlock@?$MemPoolT@$0CM@@tinyxml2@@$09@tinyxml2@@QAE@XZ
_TEXT	SEGMENT
$T1 = -212						; size = 4
_this$ = -8						; size = 4
??1?$DynArray@PAUBlock@?$MemPoolT@$0CM@@tinyxml2@@$09@tinyxml2@@QAE@XZ PROC ; tinyxml2::DynArray<tinyxml2::MemPoolT<44>::Block *,10>::~DynArray<tinyxml2::MemPoolT<44>::Block *,10>, COMDAT
; _this$ = ecx

; 218  :     ~DynArray() {

	push	ebp
	mov	ebp, esp
	sub	esp, 216				; 000000d8H
	push	ebx
	push	esi
	push	edi
	push	ecx
	lea	edi, DWORD PTR [ebp-216]
	mov	ecx, 54					; 00000036H
	mov	eax, -858993460				; ccccccccH
	rep stosd
	pop	ecx
	mov	DWORD PTR _this$[ebp], ecx

; 219  :         if ( _mem != _pool ) {

	mov	eax, DWORD PTR _this$[ebp]
	add	eax, 4
	mov	ecx, DWORD PTR _this$[ebp]
	cmp	DWORD PTR [ecx], eax
	je	SHORT $LN2@DynArray

; 220  :             delete [] _mem;

	mov	eax, DWORD PTR _this$[ebp]
	mov	ecx, DWORD PTR [eax]
	mov	DWORD PTR $T1[ebp], ecx
	mov	edx, DWORD PTR $T1[ebp]
	push	edx
	call	??_V@YAXPAX@Z				; operator delete[]
	add	esp, 4
$LN2@DynArray:

; 221  :         }
; 222  :     }

	pop	edi
	pop	esi
	pop	ebx
	add	esp, 216				; 000000d8H
	cmp	ebp, esp
	call	__RTC_CheckEsp
	mov	esp, ebp
	pop	ebp
	ret	0
??1?$DynArray@PAUBlock@?$MemPoolT@$0CM@@tinyxml2@@$09@tinyxml2@@QAE@XZ ENDP ; tinyxml2::DynArray<tinyxml2::MemPoolT<44>::Block *,10>::~DynArray<tinyxml2::MemPoolT<44>::Block *,10>
_TEXT	ENDS
; Function compile flags: /Odtp /RTCsu /ZI
; File c:\users\simon\documents\github\uclan-sparta\dissertation project\tinyxml\tinyxml2.h
;	COMDAT ??0?$DynArray@PAUBlock@?$MemPoolT@$0CM@@tinyxml2@@$09@tinyxml2@@QAE@XZ
_TEXT	SEGMENT
_this$ = -8						; size = 4
??0?$DynArray@PAUBlock@?$MemPoolT@$0CM@@tinyxml2@@$09@tinyxml2@@QAE@XZ PROC ; tinyxml2::DynArray<tinyxml2::MemPoolT<44>::Block *,10>::DynArray<tinyxml2::MemPoolT<44>::Block *,10>, COMDAT
; _this$ = ecx

; 212  :     DynArray< T, INIT >() {

	push	ebp
	mov	ebp, esp
	sub	esp, 204				; 000000ccH
	push	ebx
	push	esi
	push	edi
	push	ecx
	lea	edi, DWORD PTR [ebp-204]
	mov	ecx, 51					; 00000033H
	mov	eax, -858993460				; ccccccccH
	rep stosd
	pop	ecx
	mov	DWORD PTR _this$[ebp], ecx

; 213  :         _mem = _pool;

	mov	eax, DWORD PTR _this$[ebp]
	add	eax, 4
	mov	ecx, DWORD PTR _this$[ebp]
	mov	DWORD PTR [ecx], eax

; 214  :         _allocated = INIT;

	mov	eax, DWORD PTR _this$[ebp]
	mov	DWORD PTR [eax+44], 10			; 0000000aH

; 215  :         _size = 0;

	mov	eax, DWORD PTR _this$[ebp]
	mov	DWORD PTR [eax+48], 0

; 216  :     }

	mov	eax, DWORD PTR _this$[ebp]
	pop	edi
	pop	esi
	pop	ebx
	mov	esp, ebp
	pop	ebp
	ret	0
??0?$DynArray@PAUBlock@?$MemPoolT@$0CM@@tinyxml2@@$09@tinyxml2@@QAE@XZ ENDP ; tinyxml2::DynArray<tinyxml2::MemPoolT<44>::Block *,10>::DynArray<tinyxml2::MemPoolT<44>::Block *,10>
_TEXT	ENDS
; Function compile flags: /Odtp /RTCsu /ZI
; File c:\users\simon\documents\github\uclan-sparta\dissertation project\tinyxml\tinyxml2.h
;	COMDAT ?Untracked@?$MemPoolT@$0CM@@tinyxml2@@QBEHXZ
_TEXT	SEGMENT
_this$ = -8						; size = 4
?Untracked@?$MemPoolT@$0CM@@tinyxml2@@QBEHXZ PROC	; tinyxml2::MemPoolT<44>::Untracked, COMDAT
; _this$ = ecx

; 400  :     int Untracked() const {

	push	ebp
	mov	ebp, esp
	sub	esp, 204				; 000000ccH
	push	ebx
	push	esi
	push	edi
	push	ecx
	lea	edi, DWORD PTR [ebp-204]
	mov	ecx, 51					; 00000033H
	mov	eax, -858993460				; ccccccccH
	rep stosd
	pop	ecx
	mov	DWORD PTR _this$[ebp], ecx

; 401  :         return _nUntracked;

	mov	eax, DWORD PTR _this$[ebp]
	mov	eax, DWORD PTR [eax+72]

; 402  :     }

	pop	edi
	pop	esi
	pop	ebx
	mov	esp, ebp
	pop	ebp
	ret	0
?Untracked@?$MemPoolT@$0CM@@tinyxml2@@QBEHXZ ENDP	; tinyxml2::MemPoolT<44>::Untracked
_TEXT	ENDS
; Function compile flags: /Odtp /RTCsu /ZI
; File c:\users\simon\documents\github\uclan-sparta\dissertation project\tinyxml\tinyxml2.h
;	COMDAT ?SetTracked@?$MemPoolT@$0CM@@tinyxml2@@UAEXXZ
_TEXT	SEGMENT
_this$ = -8						; size = 4
?SetTracked@?$MemPoolT@$0CM@@tinyxml2@@UAEXXZ PROC	; tinyxml2::MemPoolT<44>::SetTracked, COMDAT
; _this$ = ecx

; 396  :     void SetTracked() {

	push	ebp
	mov	ebp, esp
	sub	esp, 204				; 000000ccH
	push	ebx
	push	esi
	push	edi
	push	ecx
	lea	edi, DWORD PTR [ebp-204]
	mov	ecx, 51					; 00000033H
	mov	eax, -858993460				; ccccccccH
	rep stosd
	pop	ecx
	mov	DWORD PTR _this$[ebp], ecx

; 397  :         _nUntracked--;

	mov	eax, DWORD PTR _this$[ebp]
	mov	ecx, DWORD PTR [eax+72]
	sub	ecx, 1
	mov	edx, DWORD PTR _this$[ebp]
	mov	DWORD PTR [edx+72], ecx

; 398  :     }

	pop	edi
	pop	esi
	pop	ebx
	mov	esp, ebp
	pop	ebp
	ret	0
?SetTracked@?$MemPoolT@$0CM@@tinyxml2@@UAEXXZ ENDP	; tinyxml2::MemPoolT<44>::SetTracked
_TEXT	ENDS
; Function compile flags: /Odtp /RTCsu /ZI
; File c:\users\simon\documents\github\uclan-sparta\dissertation project\tinyxml\tinyxml2.h
;	COMDAT ?Free@?$MemPoolT@$0CM@@tinyxml2@@UAEXPAX@Z
_TEXT	SEGMENT
_chunk$ = -20						; size = 4
_this$ = -8						; size = 4
_mem$ = 8						; size = 4
?Free@?$MemPoolT@$0CM@@tinyxml2@@UAEXPAX@Z PROC		; tinyxml2::MemPoolT<44>::Free, COMDAT
; _this$ = ecx

; 379  :     virtual void Free( void* mem ) {

	push	ebp
	mov	ebp, esp
	sub	esp, 216				; 000000d8H
	push	ebx
	push	esi
	push	edi
	push	ecx
	lea	edi, DWORD PTR [ebp-216]
	mov	ecx, 54					; 00000036H
	mov	eax, -858993460				; ccccccccH
	rep stosd
	pop	ecx
	mov	DWORD PTR _this$[ebp], ecx

; 380  :         if ( !mem ) {

	cmp	DWORD PTR _mem$[ebp], 0
	jne	SHORT $LN1@Free

; 381  :             return;

	jmp	SHORT $LN2@Free
$LN1@Free:

; 382  :         }
; 383  :         --_currentAllocs;

	mov	eax, DWORD PTR _this$[ebp]
	mov	ecx, DWORD PTR [eax+60]
	sub	ecx, 1
	mov	edx, DWORD PTR _this$[ebp]
	mov	DWORD PTR [edx+60], ecx

; 384  :         Chunk* chunk = static_cast<Chunk*>( mem );

	mov	eax, DWORD PTR _mem$[ebp]
	mov	DWORD PTR _chunk$[ebp], eax

; 385  : #ifdef DEBUG
; 386  :         memset( chunk, 0xfe, sizeof(Chunk) );

	push	44					; 0000002cH
	push	254					; 000000feH
	mov	eax, DWORD PTR _chunk$[ebp]
	push	eax
	call	_memset
	add	esp, 12					; 0000000cH

; 387  : #endif
; 388  :         chunk->next = _root;

	mov	eax, DWORD PTR _chunk$[ebp]
	mov	ecx, DWORD PTR _this$[ebp]
	mov	edx, DWORD PTR [ecx+56]
	mov	DWORD PTR [eax], edx

; 389  :         _root = chunk;

	mov	eax, DWORD PTR _this$[ebp]
	mov	ecx, DWORD PTR _chunk$[ebp]
	mov	DWORD PTR [eax+56], ecx
$LN2@Free:

; 390  :     }

	pop	edi
	pop	esi
	pop	ebx
	add	esp, 216				; 000000d8H
	cmp	ebp, esp
	call	__RTC_CheckEsp
	mov	esp, ebp
	pop	ebp
	ret	4
?Free@?$MemPoolT@$0CM@@tinyxml2@@UAEXPAX@Z ENDP		; tinyxml2::MemPoolT<44>::Free
_TEXT	ENDS
; Function compile flags: /Odtp /RTCsu /ZI
; File c:\users\simon\documents\github\uclan-sparta\dissertation project\tinyxml\tinyxml2.h
;	COMDAT ?Alloc@?$MemPoolT@$0CM@@tinyxml2@@UAEPAXXZ
_TEXT	SEGMENT
tv69 = -268						; size = 4
$T1 = -260						; size = 4
$T2 = -248						; size = 4
_result$ = -44						; size = 4
_i$3 = -32						; size = 4
_block$4 = -20						; size = 4
_this$ = -8						; size = 4
?Alloc@?$MemPoolT@$0CM@@tinyxml2@@UAEPAXXZ PROC		; tinyxml2::MemPoolT<44>::Alloc, COMDAT
; _this$ = ecx

; 355  :     virtual void* Alloc() {

	push	ebp
	mov	ebp, esp
	sub	esp, 268				; 0000010cH
	push	ebx
	push	esi
	push	edi
	push	ecx
	lea	edi, DWORD PTR [ebp-268]
	mov	ecx, 67					; 00000043H
	mov	eax, -858993460				; ccccccccH
	rep stosd
	pop	ecx
	mov	DWORD PTR _this$[ebp], ecx

; 356  :         if ( !_root ) {

	mov	eax, DWORD PTR _this$[ebp]
	cmp	DWORD PTR [eax+56], 0
	jne	$LN5@Alloc

; 357  :             // Need a new block.
; 358  :             Block* block = new Block();

	mov	DWORD PTR $T1[ebp], 4092		; 00000ffcH
	mov	eax, DWORD PTR $T1[ebp]
	push	eax
	call	??2@YAPAXI@Z				; operator new
	add	esp, 4
	mov	DWORD PTR $T2[ebp], eax
	cmp	DWORD PTR $T2[ebp], 0
	je	SHORT $LN8@Alloc
	mov	ecx, DWORD PTR $T1[ebp]
	push	ecx
	push	0
	mov	edx, DWORD PTR $T2[ebp]
	push	edx
	call	_memset
	add	esp, 12					; 0000000cH
	mov	eax, DWORD PTR $T2[ebp]
	mov	DWORD PTR tv69[ebp], eax
	jmp	SHORT $LN9@Alloc
$LN8@Alloc:
	mov	DWORD PTR tv69[ebp], 0
$LN9@Alloc:
	mov	ecx, DWORD PTR tv69[ebp]
	mov	DWORD PTR _block$4[ebp], ecx

; 359  :             _blockPtrs.Push( block );

	mov	eax, DWORD PTR _block$4[ebp]
	push	eax
	mov	ecx, DWORD PTR _this$[ebp]
	add	ecx, 4
	call	?Push@?$DynArray@PAUBlock@?$MemPoolT@$0CM@@tinyxml2@@$09@tinyxml2@@QAEXPAUBlock@?$MemPoolT@$0CM@@2@@Z ; tinyxml2::DynArray<tinyxml2::MemPoolT<44>::Block *,10>::Push

; 360  : 
; 361  :             for( int i=0; i<COUNT-1; ++i ) {

	mov	DWORD PTR _i$3[ebp], 0
	jmp	SHORT $LN4@Alloc
$LN3@Alloc:
	mov	eax, DWORD PTR _i$3[ebp]
	add	eax, 1
	mov	DWORD PTR _i$3[ebp], eax
$LN4@Alloc:
	cmp	DWORD PTR _i$3[ebp], 92			; 0000005cH
	jge	SHORT $LN2@Alloc

; 362  :                 block->chunk[i].next = &block->chunk[i+1];

	mov	eax, DWORD PTR _i$3[ebp]
	add	eax, 1
	imul	eax, 44					; 0000002cH
	add	eax, DWORD PTR _block$4[ebp]
	mov	ecx, DWORD PTR _i$3[ebp]
	imul	ecx, 44					; 0000002cH
	mov	edx, DWORD PTR _block$4[ebp]
	mov	DWORD PTR [edx+ecx], eax

; 363  :             }

	jmp	SHORT $LN3@Alloc
$LN2@Alloc:

; 364  :             block->chunk[COUNT-1].next = 0;

	mov	eax, 44					; 0000002cH
	imul	eax, 92					; 0000005cH
	mov	ecx, DWORD PTR _block$4[ebp]
	mov	DWORD PTR [ecx+eax], 0

; 365  :             _root = block->chunk;

	mov	eax, DWORD PTR _block$4[ebp]
	mov	ecx, DWORD PTR _this$[ebp]
	mov	DWORD PTR [ecx+56], eax
$LN5@Alloc:

; 366  :         }
; 367  :         void* result = _root;

	mov	eax, DWORD PTR _this$[ebp]
	mov	ecx, DWORD PTR [eax+56]
	mov	DWORD PTR _result$[ebp], ecx

; 368  :         _root = _root->next;

	mov	eax, DWORD PTR _this$[ebp]
	mov	ecx, DWORD PTR [eax+56]
	mov	edx, DWORD PTR _this$[ebp]
	mov	eax, DWORD PTR [ecx]
	mov	DWORD PTR [edx+56], eax

; 369  : 
; 370  :         ++_currentAllocs;

	mov	eax, DWORD PTR _this$[ebp]
	mov	ecx, DWORD PTR [eax+60]
	add	ecx, 1
	mov	edx, DWORD PTR _this$[ebp]
	mov	DWORD PTR [edx+60], ecx

; 371  :         if ( _currentAllocs > _maxAllocs ) {

	mov	eax, DWORD PTR _this$[ebp]
	mov	ecx, DWORD PTR _this$[ebp]
	mov	edx, DWORD PTR [eax+60]
	cmp	edx, DWORD PTR [ecx+68]
	jle	SHORT $LN1@Alloc

; 372  :             _maxAllocs = _currentAllocs;

	mov	eax, DWORD PTR _this$[ebp]
	mov	ecx, DWORD PTR _this$[ebp]
	mov	edx, DWORD PTR [ecx+60]
	mov	DWORD PTR [eax+68], edx
$LN1@Alloc:

; 373  :         }
; 374  :         _nAllocs++;

	mov	eax, DWORD PTR _this$[ebp]
	mov	ecx, DWORD PTR [eax+64]
	add	ecx, 1
	mov	edx, DWORD PTR _this$[ebp]
	mov	DWORD PTR [edx+64], ecx

; 375  :         _nUntracked++;

	mov	eax, DWORD PTR _this$[ebp]
	mov	ecx, DWORD PTR [eax+72]
	add	ecx, 1
	mov	edx, DWORD PTR _this$[ebp]
	mov	DWORD PTR [edx+72], ecx

; 376  :         return result;

	mov	eax, DWORD PTR _result$[ebp]

; 377  :     }

	pop	edi
	pop	esi
	pop	ebx
	add	esp, 268				; 0000010cH
	cmp	ebp, esp
	call	__RTC_CheckEsp
	mov	esp, ebp
	pop	ebp
	ret	0
?Alloc@?$MemPoolT@$0CM@@tinyxml2@@UAEPAXXZ ENDP		; tinyxml2::MemPoolT<44>::Alloc
_TEXT	ENDS
; Function compile flags: /Odtp /RTCsu /ZI
; File c:\users\simon\documents\github\uclan-sparta\dissertation project\tinyxml\tinyxml2.h
;	COMDAT ?CurrentAllocs@?$MemPoolT@$0CM@@tinyxml2@@QBEHXZ
_TEXT	SEGMENT
_this$ = -8						; size = 4
?CurrentAllocs@?$MemPoolT@$0CM@@tinyxml2@@QBEHXZ PROC	; tinyxml2::MemPoolT<44>::CurrentAllocs, COMDAT
; _this$ = ecx

; 351  :     int CurrentAllocs() const		{

	push	ebp
	mov	ebp, esp
	sub	esp, 204				; 000000ccH
	push	ebx
	push	esi
	push	edi
	push	ecx
	lea	edi, DWORD PTR [ebp-204]
	mov	ecx, 51					; 00000033H
	mov	eax, -858993460				; ccccccccH
	rep stosd
	pop	ecx
	mov	DWORD PTR _this$[ebp], ecx

; 352  :         return _currentAllocs;

	mov	eax, DWORD PTR _this$[ebp]
	mov	eax, DWORD PTR [eax+60]

; 353  :     }

	pop	edi
	pop	esi
	pop	ebx
	mov	esp, ebp
	pop	ebp
	ret	0
?CurrentAllocs@?$MemPoolT@$0CM@@tinyxml2@@QBEHXZ ENDP	; tinyxml2::MemPoolT<44>::CurrentAllocs
_TEXT	ENDS
; Function compile flags: /Odtp /RTCsu /ZI
; File c:\users\simon\documents\github\uclan-sparta\dissertation project\tinyxml\tinyxml2.h
;	COMDAT ?ItemSize@?$MemPoolT@$0CM@@tinyxml2@@UBEHXZ
_TEXT	SEGMENT
_this$ = -8						; size = 4
?ItemSize@?$MemPoolT@$0CM@@tinyxml2@@UBEHXZ PROC	; tinyxml2::MemPoolT<44>::ItemSize, COMDAT
; _this$ = ecx

; 348  :     virtual int ItemSize() const	{

	push	ebp
	mov	ebp, esp
	sub	esp, 204				; 000000ccH
	push	ebx
	push	esi
	push	edi
	push	ecx
	lea	edi, DWORD PTR [ebp-204]
	mov	ecx, 51					; 00000033H
	mov	eax, -858993460				; ccccccccH
	rep stosd
	pop	ecx
	mov	DWORD PTR _this$[ebp], ecx

; 349  :         return SIZE;

	mov	eax, 44					; 0000002cH

; 350  :     }

	pop	edi
	pop	esi
	pop	ebx
	mov	esp, ebp
	pop	ebp
	ret	0
?ItemSize@?$MemPoolT@$0CM@@tinyxml2@@UBEHXZ ENDP	; tinyxml2::MemPoolT<44>::ItemSize
_TEXT	ENDS
; Function compile flags: /Odtp /RTCsu /ZI
; File c:\users\simon\documents\github\uclan-sparta\dissertation project\tinyxml\tinyxml2.h
;	COMDAT ?Clear@?$MemPoolT@$0CM@@tinyxml2@@UAEXXZ
_TEXT	SEGMENT
tv74 = -232						; size = 4
$T1 = -224						; size = 4
_b$2 = -20						; size = 4
_this$ = -8						; size = 4
?Clear@?$MemPoolT@$0CM@@tinyxml2@@UAEXXZ PROC		; tinyxml2::MemPoolT<44>::Clear, COMDAT
; _this$ = ecx

; 335  :     void Clear() {

	push	ebp
	mov	ebp, esp
	sub	esp, 232				; 000000e8H
	push	ebx
	push	esi
	push	edi
	push	ecx
	lea	edi, DWORD PTR [ebp-232]
	mov	ecx, 58					; 0000003aH
	mov	eax, -858993460				; ccccccccH
	rep stosd
	pop	ecx
	mov	DWORD PTR _this$[ebp], ecx
$LN2@Clear:

; 336  :         // Delete the blocks.
; 337  :         while( !_blockPtrs.Empty()) {

	mov	ecx, DWORD PTR _this$[ebp]
	add	ecx, 4
	call	?Empty@?$DynArray@PAUBlock@?$MemPoolT@$0CM@@tinyxml2@@$09@tinyxml2@@QBE_NXZ ; tinyxml2::DynArray<tinyxml2::MemPoolT<44>::Block *,10>::Empty
	movzx	eax, al
	test	eax, eax
	jne	SHORT $LN1@Clear

; 338  :             Block* b  = _blockPtrs.Pop();

	mov	ecx, DWORD PTR _this$[ebp]
	add	ecx, 4
	call	?Pop@?$DynArray@PAUBlock@?$MemPoolT@$0CM@@tinyxml2@@$09@tinyxml2@@QAEPAUBlock@?$MemPoolT@$0CM@@2@XZ ; tinyxml2::DynArray<tinyxml2::MemPoolT<44>::Block *,10>::Pop
	mov	DWORD PTR _b$2[ebp], eax

; 339  :             delete b;

	mov	eax, DWORD PTR _b$2[ebp]
	mov	DWORD PTR $T1[ebp], eax
	mov	ecx, DWORD PTR $T1[ebp]
	push	ecx
	call	??3@YAXPAX@Z				; operator delete
	add	esp, 4
	cmp	DWORD PTR $T1[ebp], 0
	jne	SHORT $LN5@Clear
	mov	DWORD PTR tv74[ebp], 0
	jmp	SHORT $LN6@Clear
$LN5@Clear:
	mov	DWORD PTR _b$2[ebp], 33059		; 00008123H
	mov	edx, DWORD PTR _b$2[ebp]
	mov	DWORD PTR tv74[ebp], edx
$LN6@Clear:

; 340  :         }

	jmp	SHORT $LN2@Clear
$LN1@Clear:

; 341  :         _root = 0;

	mov	eax, DWORD PTR _this$[ebp]
	mov	DWORD PTR [eax+56], 0

; 342  :         _currentAllocs = 0;

	mov	eax, DWORD PTR _this$[ebp]
	mov	DWORD PTR [eax+60], 0

; 343  :         _nAllocs = 0;

	mov	eax, DWORD PTR _this$[ebp]
	mov	DWORD PTR [eax+64], 0

; 344  :         _maxAllocs = 0;

	mov	eax, DWORD PTR _this$[ebp]
	mov	DWORD PTR [eax+68], 0

; 345  :         _nUntracked = 0;

	mov	eax, DWORD PTR _this$[ebp]
	mov	DWORD PTR [eax+72], 0

; 346  :     }

	pop	edi
	pop	esi
	pop	ebx
	add	esp, 232				; 000000e8H
	cmp	ebp, esp
	call	__RTC_CheckEsp
	mov	esp, ebp
	pop	ebp
	ret	0
?Clear@?$MemPoolT@$0CM@@tinyxml2@@UAEXXZ ENDP		; tinyxml2::MemPoolT<44>::Clear
_TEXT	ENDS
; Function compile flags: /Odtp /RTCsu /ZI
; File c:\users\simon\documents\github\uclan-sparta\dissertation project\tinyxml\tinyxml2.h
;	COMDAT ??1?$MemPoolT@$0CM@@tinyxml2@@UAE@XZ
_TEXT	SEGMENT
_this$ = -20						; size = 4
__$EHRec$ = -12						; size = 12
??1?$MemPoolT@$0CM@@tinyxml2@@UAE@XZ PROC		; tinyxml2::MemPoolT<44>::~MemPoolT<44>, COMDAT
; _this$ = ecx

; 331  :     ~MemPoolT() {

	push	ebp
	mov	ebp, esp
	push	-1
	push	__ehhandler$??1?$MemPoolT@$0CM@@tinyxml2@@UAE@XZ
	mov	eax, DWORD PTR fs:0
	push	eax
	sub	esp, 204				; 000000ccH
	push	ebx
	push	esi
	push	edi
	push	ecx
	lea	edi, DWORD PTR [ebp-216]
	mov	ecx, 51					; 00000033H
	mov	eax, -858993460				; ccccccccH
	rep stosd
	pop	ecx
	mov	eax, DWORD PTR ___security_cookie
	xor	eax, ebp
	push	eax
	lea	eax, DWORD PTR __$EHRec$[ebp]
	mov	DWORD PTR fs:0, eax
	mov	DWORD PTR _this$[ebp], ecx
	mov	eax, DWORD PTR _this$[ebp]
	mov	DWORD PTR [eax], OFFSET ??_7?$MemPoolT@$0CM@@tinyxml2@@6B@
	mov	DWORD PTR __$EHRec$[ebp+8], 1

; 332  :         Clear();

	mov	ecx, DWORD PTR _this$[ebp]
	call	?Clear@?$MemPoolT@$0CM@@tinyxml2@@UAEXXZ ; tinyxml2::MemPoolT<44>::Clear

; 333  :     }

	mov	BYTE PTR __$EHRec$[ebp+8], 0
	mov	ecx, DWORD PTR _this$[ebp]
	add	ecx, 4
	call	??1?$DynArray@PAUBlock@?$MemPoolT@$0CM@@tinyxml2@@$09@tinyxml2@@QAE@XZ ; tinyxml2::DynArray<tinyxml2::MemPoolT<44>::Block *,10>::~DynArray<tinyxml2::MemPoolT<44>::Block *,10>
	mov	DWORD PTR __$EHRec$[ebp+8], -1
	mov	ecx, DWORD PTR _this$[ebp]
	call	??1MemPool@tinyxml2@@UAE@XZ		; tinyxml2::MemPool::~MemPool
	mov	ecx, DWORD PTR __$EHRec$[ebp]
	mov	DWORD PTR fs:0, ecx
	pop	ecx
	pop	edi
	pop	esi
	pop	ebx
	add	esp, 216				; 000000d8H
	cmp	ebp, esp
	call	__RTC_CheckEsp
	mov	esp, ebp
	pop	ebp
	ret	0
_TEXT	ENDS
;	COMDAT text$x
text$x	SEGMENT
__unwindfunclet$??1?$MemPoolT@$0CM@@tinyxml2@@UAE@XZ$0:
	mov	ecx, DWORD PTR _this$[ebp]
	jmp	??1MemPool@tinyxml2@@UAE@XZ		; tinyxml2::MemPool::~MemPool
__unwindfunclet$??1?$MemPoolT@$0CM@@tinyxml2@@UAE@XZ$1:
	mov	ecx, DWORD PTR _this$[ebp]
	add	ecx, 4
	jmp	??1?$DynArray@PAUBlock@?$MemPoolT@$0CM@@tinyxml2@@$09@tinyxml2@@QAE@XZ ; tinyxml2::DynArray<tinyxml2::MemPoolT<44>::Block *,10>::~DynArray<tinyxml2::MemPoolT<44>::Block *,10>
__ehhandler$??1?$MemPoolT@$0CM@@tinyxml2@@UAE@XZ:
	mov	edx, DWORD PTR [esp+8]
	lea	eax, DWORD PTR [edx+12]
	mov	ecx, DWORD PTR [edx-220]
	xor	ecx, eax
	call	@__security_check_cookie@4
	mov	eax, OFFSET __ehfuncinfo$??1?$MemPoolT@$0CM@@tinyxml2@@UAE@XZ
	jmp	___CxxFrameHandler3
text$x	ENDS
??1?$MemPoolT@$0CM@@tinyxml2@@UAE@XZ ENDP		; tinyxml2::MemPoolT<44>::~MemPoolT<44>
; Function compile flags: /Odtp /RTCsu /ZI
; File c:\users\simon\documents\github\uclan-sparta\dissertation project\tinyxml\tinyxml2.h
;	COMDAT ??0?$MemPoolT@$0CM@@tinyxml2@@QAE@XZ
_TEXT	SEGMENT
_this$ = -20						; size = 4
__$EHRec$ = -12						; size = 12
??0?$MemPoolT@$0CM@@tinyxml2@@QAE@XZ PROC		; tinyxml2::MemPoolT<44>::MemPoolT<44>, COMDAT
; _this$ = ecx

; 330  :     MemPoolT() : _root(0), _currentAllocs(0), _nAllocs(0), _maxAllocs(0), _nUntracked(0)	{}

	push	ebp
	mov	ebp, esp
	push	-1
	push	__ehhandler$??0?$MemPoolT@$0CM@@tinyxml2@@QAE@XZ
	mov	eax, DWORD PTR fs:0
	push	eax
	sub	esp, 204				; 000000ccH
	push	ebx
	push	esi
	push	edi
	push	ecx
	lea	edi, DWORD PTR [ebp-216]
	mov	ecx, 51					; 00000033H
	mov	eax, -858993460				; ccccccccH
	rep stosd
	pop	ecx
	mov	eax, DWORD PTR ___security_cookie
	xor	eax, ebp
	push	eax
	lea	eax, DWORD PTR __$EHRec$[ebp]
	mov	DWORD PTR fs:0, eax
	mov	DWORD PTR _this$[ebp], ecx
	mov	ecx, DWORD PTR _this$[ebp]
	call	??0MemPool@tinyxml2@@QAE@XZ		; tinyxml2::MemPool::MemPool
	mov	DWORD PTR __$EHRec$[ebp+8], 0
	mov	eax, DWORD PTR _this$[ebp]
	mov	DWORD PTR [eax], OFFSET ??_7?$MemPoolT@$0CM@@tinyxml2@@6B@
	mov	ecx, DWORD PTR _this$[ebp]
	add	ecx, 4
	call	??0?$DynArray@PAUBlock@?$MemPoolT@$0CM@@tinyxml2@@$09@tinyxml2@@QAE@XZ ; tinyxml2::DynArray<tinyxml2::MemPoolT<44>::Block *,10>::DynArray<tinyxml2::MemPoolT<44>::Block *,10>
	mov	eax, DWORD PTR _this$[ebp]
	mov	DWORD PTR [eax+56], 0
	mov	eax, DWORD PTR _this$[ebp]
	mov	DWORD PTR [eax+60], 0
	mov	eax, DWORD PTR _this$[ebp]
	mov	DWORD PTR [eax+64], 0
	mov	eax, DWORD PTR _this$[ebp]
	mov	DWORD PTR [eax+68], 0
	mov	eax, DWORD PTR _this$[ebp]
	mov	DWORD PTR [eax+72], 0
	mov	DWORD PTR __$EHRec$[ebp+8], -1
	mov	eax, DWORD PTR _this$[ebp]
	mov	ecx, DWORD PTR __$EHRec$[ebp]
	mov	DWORD PTR fs:0, ecx
	pop	ecx
	pop	edi
	pop	esi
	pop	ebx
	add	esp, 216				; 000000d8H
	cmp	ebp, esp
	call	__RTC_CheckEsp
	mov	esp, ebp
	pop	ebp
	ret	0
_TEXT	ENDS
;	COMDAT text$x
text$x	SEGMENT
__unwindfunclet$??0?$MemPoolT@$0CM@@tinyxml2@@QAE@XZ$0:
	mov	ecx, DWORD PTR _this$[ebp]
	jmp	??1MemPool@tinyxml2@@UAE@XZ		; tinyxml2::MemPool::~MemPool
__ehhandler$??0?$MemPoolT@$0CM@@tinyxml2@@QAE@XZ:
	mov	edx, DWORD PTR [esp+8]
	lea	eax, DWORD PTR [edx+12]
	mov	ecx, DWORD PTR [edx-220]
	xor	ecx, eax
	call	@__security_check_cookie@4
	mov	eax, OFFSET __ehfuncinfo$??0?$MemPoolT@$0CM@@tinyxml2@@QAE@XZ
	jmp	___CxxFrameHandler3
text$x	ENDS
??0?$MemPoolT@$0CM@@tinyxml2@@QAE@XZ ENDP		; tinyxml2::MemPoolT<44>::MemPoolT<44>
; Function compile flags: /Odtp /RTCsu /ZI
;	COMDAT ??_G?$MemPoolT@$0DA@@tinyxml2@@UAEPAXI@Z
_TEXT	SEGMENT
_this$ = -8						; size = 4
___flags$ = 8						; size = 4
??_G?$MemPoolT@$0DA@@tinyxml2@@UAEPAXI@Z PROC		; tinyxml2::MemPoolT<48>::`scalar deleting destructor', COMDAT
; _this$ = ecx
	push	ebp
	mov	ebp, esp
	sub	esp, 204				; 000000ccH
	push	ebx
	push	esi
	push	edi
	push	ecx
	lea	edi, DWORD PTR [ebp-204]
	mov	ecx, 51					; 00000033H
	mov	eax, -858993460				; ccccccccH
	rep stosd
	pop	ecx
	mov	DWORD PTR _this$[ebp], ecx
	mov	ecx, DWORD PTR _this$[ebp]
	call	??1?$MemPoolT@$0DA@@tinyxml2@@UAE@XZ	; tinyxml2::MemPoolT<48>::~MemPoolT<48>
	mov	eax, DWORD PTR ___flags$[ebp]
	and	eax, 1
	je	SHORT $LN1@scalar
	mov	eax, DWORD PTR _this$[ebp]
	push	eax
	call	??3@YAXPAX@Z				; operator delete
	add	esp, 4
$LN1@scalar:
	mov	eax, DWORD PTR _this$[ebp]
	pop	edi
	pop	esi
	pop	ebx
	add	esp, 204				; 000000ccH
	cmp	ebp, esp
	call	__RTC_CheckEsp
	mov	esp, ebp
	pop	ebp
	ret	4
??_G?$MemPoolT@$0DA@@tinyxml2@@UAEPAXI@Z ENDP		; tinyxml2::MemPoolT<48>::`scalar deleting destructor'
_TEXT	ENDS
; Function compile flags: /Odtp /RTCsu /ZI
; File c:\users\simon\documents\github\uclan-sparta\dissertation project\tinyxml\tinyxml2.h
;	COMDAT ?EnsureCapacity@?$DynArray@PAUBlock@?$MemPoolT@$0DA@@tinyxml2@@$09@tinyxml2@@AAEXH@Z
_TEXT	SEGMENT
$T1 = -248						; size = 4
$T2 = -236						; size = 4
_newMem$3 = -32						; size = 4
_newAllocated$4 = -20					; size = 4
_this$ = -8						; size = 4
_cap$ = 8						; size = 4
?EnsureCapacity@?$DynArray@PAUBlock@?$MemPoolT@$0DA@@tinyxml2@@$09@tinyxml2@@AAEXH@Z PROC ; tinyxml2::DynArray<tinyxml2::MemPoolT<48>::Block *,10>::EnsureCapacity, COMDAT
; _this$ = ecx

; 285  :     void EnsureCapacity( int cap ) {

	push	ebp
	mov	ebp, esp
	sub	esp, 252				; 000000fcH
	push	ebx
	push	esi
	push	edi
	push	ecx
	lea	edi, DWORD PTR [ebp-252]
	mov	ecx, 63					; 0000003fH
	mov	eax, -858993460				; ccccccccH
	rep stosd
	pop	ecx
	mov	DWORD PTR _this$[ebp], ecx

; 286  :         if ( cap > _allocated ) {

	mov	eax, DWORD PTR _this$[ebp]
	mov	ecx, DWORD PTR _cap$[ebp]
	cmp	ecx, DWORD PTR [eax+44]
	jle	$LN3@EnsureCapa

; 287  :             int newAllocated = cap * 2;

	mov	eax, DWORD PTR _cap$[ebp]
	shl	eax, 1
	mov	DWORD PTR _newAllocated$4[ebp], eax

; 288  :             T* newMem = new T[newAllocated];

	xor	ecx, ecx
	mov	eax, DWORD PTR _newAllocated$4[ebp]
	mov	edx, 4
	mul	edx
	seto	cl
	neg	ecx
	or	ecx, eax
	push	ecx
	call	??_U@YAPAXI@Z				; operator new[]
	add	esp, 4
	mov	DWORD PTR $T1[ebp], eax
	mov	eax, DWORD PTR $T1[ebp]
	mov	DWORD PTR _newMem$3[ebp], eax

; 289  :             memcpy( newMem, _mem, sizeof(T)*_size );	// warning: not using constructors, only works for PODs

	mov	eax, DWORD PTR _this$[ebp]
	mov	ecx, DWORD PTR [eax+48]
	shl	ecx, 2
	push	ecx
	mov	edx, DWORD PTR _this$[ebp]
	mov	eax, DWORD PTR [edx]
	push	eax
	mov	ecx, DWORD PTR _newMem$3[ebp]
	push	ecx
	call	_memcpy
	add	esp, 12					; 0000000cH

; 290  :             if ( _mem != _pool ) {

	mov	eax, DWORD PTR _this$[ebp]
	add	eax, 4
	mov	ecx, DWORD PTR _this$[ebp]
	cmp	DWORD PTR [ecx], eax
	je	SHORT $LN1@EnsureCapa

; 291  :                 delete [] _mem;

	mov	eax, DWORD PTR _this$[ebp]
	mov	ecx, DWORD PTR [eax]
	mov	DWORD PTR $T2[ebp], ecx
	mov	edx, DWORD PTR $T2[ebp]
	push	edx
	call	??_V@YAXPAX@Z				; operator delete[]
	add	esp, 4
$LN1@EnsureCapa:

; 292  :             }
; 293  :             _mem = newMem;

	mov	eax, DWORD PTR _this$[ebp]
	mov	ecx, DWORD PTR _newMem$3[ebp]
	mov	DWORD PTR [eax], ecx

; 294  :             _allocated = newAllocated;

	mov	eax, DWORD PTR _this$[ebp]
	mov	ecx, DWORD PTR _newAllocated$4[ebp]
	mov	DWORD PTR [eax+44], ecx
$LN3@EnsureCapa:

; 295  :         }
; 296  :     }

	pop	edi
	pop	esi
	pop	ebx
	add	esp, 252				; 000000fcH
	cmp	ebp, esp
	call	__RTC_CheckEsp
	mov	esp, ebp
	pop	ebp
	ret	4
?EnsureCapacity@?$DynArray@PAUBlock@?$MemPoolT@$0DA@@tinyxml2@@$09@tinyxml2@@AAEXH@Z ENDP ; tinyxml2::DynArray<tinyxml2::MemPoolT<48>::Block *,10>::EnsureCapacity
_TEXT	ENDS
; Function compile flags: /Odtp /RTCsu /ZI
; File c:\users\simon\documents\github\uclan-sparta\dissertation project\tinyxml\tinyxml2.h
;	COMDAT ?Empty@?$DynArray@PAUBlock@?$MemPoolT@$0DA@@tinyxml2@@$09@tinyxml2@@QBE_NXZ
_TEXT	SEGMENT
tv66 = -208						; size = 4
_this$ = -8						; size = 4
?Empty@?$DynArray@PAUBlock@?$MemPoolT@$0DA@@tinyxml2@@$09@tinyxml2@@QBE_NXZ PROC ; tinyxml2::DynArray<tinyxml2::MemPoolT<48>::Block *,10>::Empty, COMDAT
; _this$ = ecx

; 249  :     bool Empty() const					{

	push	ebp
	mov	ebp, esp
	sub	esp, 208				; 000000d0H
	push	ebx
	push	esi
	push	edi
	push	ecx
	lea	edi, DWORD PTR [ebp-208]
	mov	ecx, 52					; 00000034H
	mov	eax, -858993460				; ccccccccH
	rep stosd
	pop	ecx
	mov	DWORD PTR _this$[ebp], ecx

; 250  :         return _size == 0;

	mov	eax, DWORD PTR _this$[ebp]
	cmp	DWORD PTR [eax+48], 0
	jne	SHORT $LN3@Empty
	mov	DWORD PTR tv66[ebp], 1
	jmp	SHORT $LN4@Empty
$LN3@Empty:
	mov	DWORD PTR tv66[ebp], 0
$LN4@Empty:
	mov	al, BYTE PTR tv66[ebp]

; 251  :     }

	pop	edi
	pop	esi
	pop	ebx
	mov	esp, ebp
	pop	ebp
	ret	0
?Empty@?$DynArray@PAUBlock@?$MemPoolT@$0DA@@tinyxml2@@$09@tinyxml2@@QBE_NXZ ENDP ; tinyxml2::DynArray<tinyxml2::MemPoolT<48>::Block *,10>::Empty
_TEXT	ENDS
; Function compile flags: /Odtp /RTCsu /ZI
; File c:\users\simon\documents\github\uclan-sparta\dissertation project\tinyxml\tinyxml2.h
;	COMDAT ?Pop@?$DynArray@PAUBlock@?$MemPoolT@$0DA@@tinyxml2@@$09@tinyxml2@@QAEPAUBlock@?$MemPoolT@$0DA@@2@XZ
_TEXT	SEGMENT
tv69 = -208						; size = 4
_this$ = -8						; size = 4
?Pop@?$DynArray@PAUBlock@?$MemPoolT@$0DA@@tinyxml2@@$09@tinyxml2@@QAEPAUBlock@?$MemPoolT@$0DA@@2@XZ PROC ; tinyxml2::DynArray<tinyxml2::MemPoolT<48>::Block *,10>::Pop, COMDAT
; _this$ = ecx

; 240  :     T Pop() {

	push	ebp
	mov	ebp, esp
	sub	esp, 208				; 000000d0H
	push	ebx
	push	esi
	push	edi
	push	ecx
	lea	edi, DWORD PTR [ebp-208]
	mov	ecx, 52					; 00000034H
	mov	eax, -858993460				; ccccccccH
	rep stosd
	pop	ecx
	mov	DWORD PTR _this$[ebp], ecx

; 241  :         return _mem[--_size];

	mov	eax, DWORD PTR _this$[ebp]
	mov	ecx, DWORD PTR [eax+48]
	sub	ecx, 1
	mov	DWORD PTR tv69[ebp], ecx
	mov	edx, DWORD PTR _this$[ebp]
	mov	eax, DWORD PTR tv69[ebp]
	mov	DWORD PTR [edx+48], eax
	mov	ecx, DWORD PTR _this$[ebp]
	mov	edx, DWORD PTR [ecx]
	mov	eax, DWORD PTR tv69[ebp]
	mov	eax, DWORD PTR [edx+eax*4]

; 242  :     }

	pop	edi
	pop	esi
	pop	ebx
	mov	esp, ebp
	pop	ebp
	ret	0
?Pop@?$DynArray@PAUBlock@?$MemPoolT@$0DA@@tinyxml2@@$09@tinyxml2@@QAEPAUBlock@?$MemPoolT@$0DA@@2@XZ ENDP ; tinyxml2::DynArray<tinyxml2::MemPoolT<48>::Block *,10>::Pop
_TEXT	ENDS
; Function compile flags: /Odtp /RTCsu /ZI
; File c:\users\simon\documents\github\uclan-sparta\dissertation project\tinyxml\tinyxml2.h
;	COMDAT ?Push@?$DynArray@PAUBlock@?$MemPoolT@$0DA@@tinyxml2@@$09@tinyxml2@@QAEXPAUBlock@?$MemPoolT@$0DA@@2@@Z
_TEXT	SEGMENT
_this$ = -8						; size = 4
_t$ = 8							; size = 4
?Push@?$DynArray@PAUBlock@?$MemPoolT@$0DA@@tinyxml2@@$09@tinyxml2@@QAEXPAUBlock@?$MemPoolT@$0DA@@2@@Z PROC ; tinyxml2::DynArray<tinyxml2::MemPoolT<48>::Block *,10>::Push, COMDAT
; _this$ = ecx

; 228  :     void Push( T t ) {

	push	ebp
	mov	ebp, esp
	sub	esp, 204				; 000000ccH
	push	ebx
	push	esi
	push	edi
	push	ecx
	lea	edi, DWORD PTR [ebp-204]
	mov	ecx, 51					; 00000033H
	mov	eax, -858993460				; ccccccccH
	rep stosd
	pop	ecx
	mov	DWORD PTR _this$[ebp], ecx

; 229  :         EnsureCapacity( _size+1 );

	mov	eax, DWORD PTR _this$[ebp]
	mov	ecx, DWORD PTR [eax+48]
	add	ecx, 1
	push	ecx
	mov	ecx, DWORD PTR _this$[ebp]
	call	?EnsureCapacity@?$DynArray@PAUBlock@?$MemPoolT@$0DA@@tinyxml2@@$09@tinyxml2@@AAEXH@Z ; tinyxml2::DynArray<tinyxml2::MemPoolT<48>::Block *,10>::EnsureCapacity

; 230  :         _mem[_size++] = t;

	mov	eax, DWORD PTR _this$[ebp]
	mov	ecx, DWORD PTR [eax+48]
	mov	edx, DWORD PTR _this$[ebp]
	mov	eax, DWORD PTR [edx]
	mov	edx, DWORD PTR _t$[ebp]
	mov	DWORD PTR [eax+ecx*4], edx
	mov	eax, DWORD PTR _this$[ebp]
	mov	ecx, DWORD PTR [eax+48]
	add	ecx, 1
	mov	edx, DWORD PTR _this$[ebp]
	mov	DWORD PTR [edx+48], ecx

; 231  :     }

	pop	edi
	pop	esi
	pop	ebx
	add	esp, 204				; 000000ccH
	cmp	ebp, esp
	call	__RTC_CheckEsp
	mov	esp, ebp
	pop	ebp
	ret	4
?Push@?$DynArray@PAUBlock@?$MemPoolT@$0DA@@tinyxml2@@$09@tinyxml2@@QAEXPAUBlock@?$MemPoolT@$0DA@@2@@Z ENDP ; tinyxml2::DynArray<tinyxml2::MemPoolT<48>::Block *,10>::Push
_TEXT	ENDS
; Function compile flags: /Odtp /RTCsu /ZI
; File c:\users\simon\documents\github\uclan-sparta\dissertation project\tinyxml\tinyxml2.h
;	COMDAT ??1?$DynArray@PAUBlock@?$MemPoolT@$0DA@@tinyxml2@@$09@tinyxml2@@QAE@XZ
_TEXT	SEGMENT
$T1 = -212						; size = 4
_this$ = -8						; size = 4
??1?$DynArray@PAUBlock@?$MemPoolT@$0DA@@tinyxml2@@$09@tinyxml2@@QAE@XZ PROC ; tinyxml2::DynArray<tinyxml2::MemPoolT<48>::Block *,10>::~DynArray<tinyxml2::MemPoolT<48>::Block *,10>, COMDAT
; _this$ = ecx

; 218  :     ~DynArray() {

	push	ebp
	mov	ebp, esp
	sub	esp, 216				; 000000d8H
	push	ebx
	push	esi
	push	edi
	push	ecx
	lea	edi, DWORD PTR [ebp-216]
	mov	ecx, 54					; 00000036H
	mov	eax, -858993460				; ccccccccH
	rep stosd
	pop	ecx
	mov	DWORD PTR _this$[ebp], ecx

; 219  :         if ( _mem != _pool ) {

	mov	eax, DWORD PTR _this$[ebp]
	add	eax, 4
	mov	ecx, DWORD PTR _this$[ebp]
	cmp	DWORD PTR [ecx], eax
	je	SHORT $LN2@DynArray

; 220  :             delete [] _mem;

	mov	eax, DWORD PTR _this$[ebp]
	mov	ecx, DWORD PTR [eax]
	mov	DWORD PTR $T1[ebp], ecx
	mov	edx, DWORD PTR $T1[ebp]
	push	edx
	call	??_V@YAXPAX@Z				; operator delete[]
	add	esp, 4
$LN2@DynArray:

; 221  :         }
; 222  :     }

	pop	edi
	pop	esi
	pop	ebx
	add	esp, 216				; 000000d8H
	cmp	ebp, esp
	call	__RTC_CheckEsp
	mov	esp, ebp
	pop	ebp
	ret	0
??1?$DynArray@PAUBlock@?$MemPoolT@$0DA@@tinyxml2@@$09@tinyxml2@@QAE@XZ ENDP ; tinyxml2::DynArray<tinyxml2::MemPoolT<48>::Block *,10>::~DynArray<tinyxml2::MemPoolT<48>::Block *,10>
_TEXT	ENDS
; Function compile flags: /Odtp /RTCsu /ZI
; File c:\users\simon\documents\github\uclan-sparta\dissertation project\tinyxml\tinyxml2.h
;	COMDAT ??0?$DynArray@PAUBlock@?$MemPoolT@$0DA@@tinyxml2@@$09@tinyxml2@@QAE@XZ
_TEXT	SEGMENT
_this$ = -8						; size = 4
??0?$DynArray@PAUBlock@?$MemPoolT@$0DA@@tinyxml2@@$09@tinyxml2@@QAE@XZ PROC ; tinyxml2::DynArray<tinyxml2::MemPoolT<48>::Block *,10>::DynArray<tinyxml2::MemPoolT<48>::Block *,10>, COMDAT
; _this$ = ecx

; 212  :     DynArray< T, INIT >() {

	push	ebp
	mov	ebp, esp
	sub	esp, 204				; 000000ccH
	push	ebx
	push	esi
	push	edi
	push	ecx
	lea	edi, DWORD PTR [ebp-204]
	mov	ecx, 51					; 00000033H
	mov	eax, -858993460				; ccccccccH
	rep stosd
	pop	ecx
	mov	DWORD PTR _this$[ebp], ecx

; 213  :         _mem = _pool;

	mov	eax, DWORD PTR _this$[ebp]
	add	eax, 4
	mov	ecx, DWORD PTR _this$[ebp]
	mov	DWORD PTR [ecx], eax

; 214  :         _allocated = INIT;

	mov	eax, DWORD PTR _this$[ebp]
	mov	DWORD PTR [eax+44], 10			; 0000000aH

; 215  :         _size = 0;

	mov	eax, DWORD PTR _this$[ebp]
	mov	DWORD PTR [eax+48], 0

; 216  :     }

	mov	eax, DWORD PTR _this$[ebp]
	pop	edi
	pop	esi
	pop	ebx
	mov	esp, ebp
	pop	ebp
	ret	0
??0?$DynArray@PAUBlock@?$MemPoolT@$0DA@@tinyxml2@@$09@tinyxml2@@QAE@XZ ENDP ; tinyxml2::DynArray<tinyxml2::MemPoolT<48>::Block *,10>::DynArray<tinyxml2::MemPoolT<48>::Block *,10>
_TEXT	ENDS
; Function compile flags: /Odtp /RTCsu /ZI
; File c:\users\simon\documents\github\uclan-sparta\dissertation project\tinyxml\tinyxml2.h
;	COMDAT ?Untracked@?$MemPoolT@$0DA@@tinyxml2@@QBEHXZ
_TEXT	SEGMENT
_this$ = -8						; size = 4
?Untracked@?$MemPoolT@$0DA@@tinyxml2@@QBEHXZ PROC	; tinyxml2::MemPoolT<48>::Untracked, COMDAT
; _this$ = ecx

; 400  :     int Untracked() const {

	push	ebp
	mov	ebp, esp
	sub	esp, 204				; 000000ccH
	push	ebx
	push	esi
	push	edi
	push	ecx
	lea	edi, DWORD PTR [ebp-204]
	mov	ecx, 51					; 00000033H
	mov	eax, -858993460				; ccccccccH
	rep stosd
	pop	ecx
	mov	DWORD PTR _this$[ebp], ecx

; 401  :         return _nUntracked;

	mov	eax, DWORD PTR _this$[ebp]
	mov	eax, DWORD PTR [eax+72]

; 402  :     }

	pop	edi
	pop	esi
	pop	ebx
	mov	esp, ebp
	pop	ebp
	ret	0
?Untracked@?$MemPoolT@$0DA@@tinyxml2@@QBEHXZ ENDP	; tinyxml2::MemPoolT<48>::Untracked
_TEXT	ENDS
; Function compile flags: /Odtp /RTCsu /ZI
; File c:\users\simon\documents\github\uclan-sparta\dissertation project\tinyxml\tinyxml2.h
;	COMDAT ?SetTracked@?$MemPoolT@$0DA@@tinyxml2@@UAEXXZ
_TEXT	SEGMENT
_this$ = -8						; size = 4
?SetTracked@?$MemPoolT@$0DA@@tinyxml2@@UAEXXZ PROC	; tinyxml2::MemPoolT<48>::SetTracked, COMDAT
; _this$ = ecx

; 396  :     void SetTracked() {

	push	ebp
	mov	ebp, esp
	sub	esp, 204				; 000000ccH
	push	ebx
	push	esi
	push	edi
	push	ecx
	lea	edi, DWORD PTR [ebp-204]
	mov	ecx, 51					; 00000033H
	mov	eax, -858993460				; ccccccccH
	rep stosd
	pop	ecx
	mov	DWORD PTR _this$[ebp], ecx

; 397  :         _nUntracked--;

	mov	eax, DWORD PTR _this$[ebp]
	mov	ecx, DWORD PTR [eax+72]
	sub	ecx, 1
	mov	edx, DWORD PTR _this$[ebp]
	mov	DWORD PTR [edx+72], ecx

; 398  :     }

	pop	edi
	pop	esi
	pop	ebx
	mov	esp, ebp
	pop	ebp
	ret	0
?SetTracked@?$MemPoolT@$0DA@@tinyxml2@@UAEXXZ ENDP	; tinyxml2::MemPoolT<48>::SetTracked
_TEXT	ENDS
; Function compile flags: /Odtp /RTCsu /ZI
; File c:\users\simon\documents\github\uclan-sparta\dissertation project\tinyxml\tinyxml2.h
;	COMDAT ?Free@?$MemPoolT@$0DA@@tinyxml2@@UAEXPAX@Z
_TEXT	SEGMENT
_chunk$ = -20						; size = 4
_this$ = -8						; size = 4
_mem$ = 8						; size = 4
?Free@?$MemPoolT@$0DA@@tinyxml2@@UAEXPAX@Z PROC		; tinyxml2::MemPoolT<48>::Free, COMDAT
; _this$ = ecx

; 379  :     virtual void Free( void* mem ) {

	push	ebp
	mov	ebp, esp
	sub	esp, 216				; 000000d8H
	push	ebx
	push	esi
	push	edi
	push	ecx
	lea	edi, DWORD PTR [ebp-216]
	mov	ecx, 54					; 00000036H
	mov	eax, -858993460				; ccccccccH
	rep stosd
	pop	ecx
	mov	DWORD PTR _this$[ebp], ecx

; 380  :         if ( !mem ) {

	cmp	DWORD PTR _mem$[ebp], 0
	jne	SHORT $LN1@Free

; 381  :             return;

	jmp	SHORT $LN2@Free
$LN1@Free:

; 382  :         }
; 383  :         --_currentAllocs;

	mov	eax, DWORD PTR _this$[ebp]
	mov	ecx, DWORD PTR [eax+60]
	sub	ecx, 1
	mov	edx, DWORD PTR _this$[ebp]
	mov	DWORD PTR [edx+60], ecx

; 384  :         Chunk* chunk = static_cast<Chunk*>( mem );

	mov	eax, DWORD PTR _mem$[ebp]
	mov	DWORD PTR _chunk$[ebp], eax

; 385  : #ifdef DEBUG
; 386  :         memset( chunk, 0xfe, sizeof(Chunk) );

	push	48					; 00000030H
	push	254					; 000000feH
	mov	eax, DWORD PTR _chunk$[ebp]
	push	eax
	call	_memset
	add	esp, 12					; 0000000cH

; 387  : #endif
; 388  :         chunk->next = _root;

	mov	eax, DWORD PTR _chunk$[ebp]
	mov	ecx, DWORD PTR _this$[ebp]
	mov	edx, DWORD PTR [ecx+56]
	mov	DWORD PTR [eax], edx

; 389  :         _root = chunk;

	mov	eax, DWORD PTR _this$[ebp]
	mov	ecx, DWORD PTR _chunk$[ebp]
	mov	DWORD PTR [eax+56], ecx
$LN2@Free:

; 390  :     }

	pop	edi
	pop	esi
	pop	ebx
	add	esp, 216				; 000000d8H
	cmp	ebp, esp
	call	__RTC_CheckEsp
	mov	esp, ebp
	pop	ebp
	ret	4
?Free@?$MemPoolT@$0DA@@tinyxml2@@UAEXPAX@Z ENDP		; tinyxml2::MemPoolT<48>::Free
_TEXT	ENDS
; Function compile flags: /Odtp /RTCsu /ZI
; File c:\users\simon\documents\github\uclan-sparta\dissertation project\tinyxml\tinyxml2.h
;	COMDAT ?Alloc@?$MemPoolT@$0DA@@tinyxml2@@UAEPAXXZ
_TEXT	SEGMENT
tv69 = -268						; size = 4
$T1 = -260						; size = 4
$T2 = -248						; size = 4
_result$ = -44						; size = 4
_i$3 = -32						; size = 4
_block$4 = -20						; size = 4
_this$ = -8						; size = 4
?Alloc@?$MemPoolT@$0DA@@tinyxml2@@UAEPAXXZ PROC		; tinyxml2::MemPoolT<48>::Alloc, COMDAT
; _this$ = ecx

; 355  :     virtual void* Alloc() {

	push	ebp
	mov	ebp, esp
	sub	esp, 268				; 0000010cH
	push	ebx
	push	esi
	push	edi
	push	ecx
	lea	edi, DWORD PTR [ebp-268]
	mov	ecx, 67					; 00000043H
	mov	eax, -858993460				; ccccccccH
	rep stosd
	pop	ecx
	mov	DWORD PTR _this$[ebp], ecx

; 356  :         if ( !_root ) {

	mov	eax, DWORD PTR _this$[ebp]
	cmp	DWORD PTR [eax+56], 0
	jne	$LN5@Alloc

; 357  :             // Need a new block.
; 358  :             Block* block = new Block();

	mov	DWORD PTR $T1[ebp], 4080		; 00000ff0H
	mov	eax, DWORD PTR $T1[ebp]
	push	eax
	call	??2@YAPAXI@Z				; operator new
	add	esp, 4
	mov	DWORD PTR $T2[ebp], eax
	cmp	DWORD PTR $T2[ebp], 0
	je	SHORT $LN8@Alloc
	mov	ecx, DWORD PTR $T1[ebp]
	push	ecx
	push	0
	mov	edx, DWORD PTR $T2[ebp]
	push	edx
	call	_memset
	add	esp, 12					; 0000000cH
	mov	eax, DWORD PTR $T2[ebp]
	mov	DWORD PTR tv69[ebp], eax
	jmp	SHORT $LN9@Alloc
$LN8@Alloc:
	mov	DWORD PTR tv69[ebp], 0
$LN9@Alloc:
	mov	ecx, DWORD PTR tv69[ebp]
	mov	DWORD PTR _block$4[ebp], ecx

; 359  :             _blockPtrs.Push( block );

	mov	eax, DWORD PTR _block$4[ebp]
	push	eax
	mov	ecx, DWORD PTR _this$[ebp]
	add	ecx, 4
	call	?Push@?$DynArray@PAUBlock@?$MemPoolT@$0DA@@tinyxml2@@$09@tinyxml2@@QAEXPAUBlock@?$MemPoolT@$0DA@@2@@Z ; tinyxml2::DynArray<tinyxml2::MemPoolT<48>::Block *,10>::Push

; 360  : 
; 361  :             for( int i=0; i<COUNT-1; ++i ) {

	mov	DWORD PTR _i$3[ebp], 0
	jmp	SHORT $LN4@Alloc
$LN3@Alloc:
	mov	eax, DWORD PTR _i$3[ebp]
	add	eax, 1
	mov	DWORD PTR _i$3[ebp], eax
$LN4@Alloc:
	cmp	DWORD PTR _i$3[ebp], 84			; 00000054H
	jge	SHORT $LN2@Alloc

; 362  :                 block->chunk[i].next = &block->chunk[i+1];

	mov	eax, DWORD PTR _i$3[ebp]
	add	eax, 1
	imul	eax, 48					; 00000030H
	add	eax, DWORD PTR _block$4[ebp]
	mov	ecx, DWORD PTR _i$3[ebp]
	imul	ecx, 48					; 00000030H
	mov	edx, DWORD PTR _block$4[ebp]
	mov	DWORD PTR [edx+ecx], eax

; 363  :             }

	jmp	SHORT $LN3@Alloc
$LN2@Alloc:

; 364  :             block->chunk[COUNT-1].next = 0;

	mov	eax, 48					; 00000030H
	imul	eax, 84					; 00000054H
	mov	ecx, DWORD PTR _block$4[ebp]
	mov	DWORD PTR [ecx+eax], 0

; 365  :             _root = block->chunk;

	mov	eax, DWORD PTR _block$4[ebp]
	mov	ecx, DWORD PTR _this$[ebp]
	mov	DWORD PTR [ecx+56], eax
$LN5@Alloc:

; 366  :         }
; 367  :         void* result = _root;

	mov	eax, DWORD PTR _this$[ebp]
	mov	ecx, DWORD PTR [eax+56]
	mov	DWORD PTR _result$[ebp], ecx

; 368  :         _root = _root->next;

	mov	eax, DWORD PTR _this$[ebp]
	mov	ecx, DWORD PTR [eax+56]
	mov	edx, DWORD PTR _this$[ebp]
	mov	eax, DWORD PTR [ecx]
	mov	DWORD PTR [edx+56], eax

; 369  : 
; 370  :         ++_currentAllocs;

	mov	eax, DWORD PTR _this$[ebp]
	mov	ecx, DWORD PTR [eax+60]
	add	ecx, 1
	mov	edx, DWORD PTR _this$[ebp]
	mov	DWORD PTR [edx+60], ecx

; 371  :         if ( _currentAllocs > _maxAllocs ) {

	mov	eax, DWORD PTR _this$[ebp]
	mov	ecx, DWORD PTR _this$[ebp]
	mov	edx, DWORD PTR [eax+60]
	cmp	edx, DWORD PTR [ecx+68]
	jle	SHORT $LN1@Alloc

; 372  :             _maxAllocs = _currentAllocs;

	mov	eax, DWORD PTR _this$[ebp]
	mov	ecx, DWORD PTR _this$[ebp]
	mov	edx, DWORD PTR [ecx+60]
	mov	DWORD PTR [eax+68], edx
$LN1@Alloc:

; 373  :         }
; 374  :         _nAllocs++;

	mov	eax, DWORD PTR _this$[ebp]
	mov	ecx, DWORD PTR [eax+64]
	add	ecx, 1
	mov	edx, DWORD PTR _this$[ebp]
	mov	DWORD PTR [edx+64], ecx

; 375  :         _nUntracked++;

	mov	eax, DWORD PTR _this$[ebp]
	mov	ecx, DWORD PTR [eax+72]
	add	ecx, 1
	mov	edx, DWORD PTR _this$[ebp]
	mov	DWORD PTR [edx+72], ecx

; 376  :         return result;

	mov	eax, DWORD PTR _result$[ebp]

; 377  :     }

	pop	edi
	pop	esi
	pop	ebx
	add	esp, 268				; 0000010cH
	cmp	ebp, esp
	call	__RTC_CheckEsp
	mov	esp, ebp
	pop	ebp
	ret	0
?Alloc@?$MemPoolT@$0DA@@tinyxml2@@UAEPAXXZ ENDP		; tinyxml2::MemPoolT<48>::Alloc
_TEXT	ENDS
; Function compile flags: /Odtp /RTCsu /ZI
; File c:\users\simon\documents\github\uclan-sparta\dissertation project\tinyxml\tinyxml2.h
;	COMDAT ?CurrentAllocs@?$MemPoolT@$0DA@@tinyxml2@@QBEHXZ
_TEXT	SEGMENT
_this$ = -8						; size = 4
?CurrentAllocs@?$MemPoolT@$0DA@@tinyxml2@@QBEHXZ PROC	; tinyxml2::MemPoolT<48>::CurrentAllocs, COMDAT
; _this$ = ecx

; 351  :     int CurrentAllocs() const		{

	push	ebp
	mov	ebp, esp
	sub	esp, 204				; 000000ccH
	push	ebx
	push	esi
	push	edi
	push	ecx
	lea	edi, DWORD PTR [ebp-204]
	mov	ecx, 51					; 00000033H
	mov	eax, -858993460				; ccccccccH
	rep stosd
	pop	ecx
	mov	DWORD PTR _this$[ebp], ecx

; 352  :         return _currentAllocs;

	mov	eax, DWORD PTR _this$[ebp]
	mov	eax, DWORD PTR [eax+60]

; 353  :     }

	pop	edi
	pop	esi
	pop	ebx
	mov	esp, ebp
	pop	ebp
	ret	0
?CurrentAllocs@?$MemPoolT@$0DA@@tinyxml2@@QBEHXZ ENDP	; tinyxml2::MemPoolT<48>::CurrentAllocs
_TEXT	ENDS
; Function compile flags: /Odtp /RTCsu /ZI
; File c:\users\simon\documents\github\uclan-sparta\dissertation project\tinyxml\tinyxml2.h
;	COMDAT ?ItemSize@?$MemPoolT@$0DA@@tinyxml2@@UBEHXZ
_TEXT	SEGMENT
_this$ = -8						; size = 4
?ItemSize@?$MemPoolT@$0DA@@tinyxml2@@UBEHXZ PROC	; tinyxml2::MemPoolT<48>::ItemSize, COMDAT
; _this$ = ecx

; 348  :     virtual int ItemSize() const	{

	push	ebp
	mov	ebp, esp
	sub	esp, 204				; 000000ccH
	push	ebx
	push	esi
	push	edi
	push	ecx
	lea	edi, DWORD PTR [ebp-204]
	mov	ecx, 51					; 00000033H
	mov	eax, -858993460				; ccccccccH
	rep stosd
	pop	ecx
	mov	DWORD PTR _this$[ebp], ecx

; 349  :         return SIZE;

	mov	eax, 48					; 00000030H

; 350  :     }

	pop	edi
	pop	esi
	pop	ebx
	mov	esp, ebp
	pop	ebp
	ret	0
?ItemSize@?$MemPoolT@$0DA@@tinyxml2@@UBEHXZ ENDP	; tinyxml2::MemPoolT<48>::ItemSize
_TEXT	ENDS
; Function compile flags: /Odtp /RTCsu /ZI
; File c:\users\simon\documents\github\uclan-sparta\dissertation project\tinyxml\tinyxml2.h
;	COMDAT ?Clear@?$MemPoolT@$0DA@@tinyxml2@@UAEXXZ
_TEXT	SEGMENT
tv74 = -232						; size = 4
$T1 = -224						; size = 4
_b$2 = -20						; size = 4
_this$ = -8						; size = 4
?Clear@?$MemPoolT@$0DA@@tinyxml2@@UAEXXZ PROC		; tinyxml2::MemPoolT<48>::Clear, COMDAT
; _this$ = ecx

; 335  :     void Clear() {

	push	ebp
	mov	ebp, esp
	sub	esp, 232				; 000000e8H
	push	ebx
	push	esi
	push	edi
	push	ecx
	lea	edi, DWORD PTR [ebp-232]
	mov	ecx, 58					; 0000003aH
	mov	eax, -858993460				; ccccccccH
	rep stosd
	pop	ecx
	mov	DWORD PTR _this$[ebp], ecx
$LN2@Clear:

; 336  :         // Delete the blocks.
; 337  :         while( !_blockPtrs.Empty()) {

	mov	ecx, DWORD PTR _this$[ebp]
	add	ecx, 4
	call	?Empty@?$DynArray@PAUBlock@?$MemPoolT@$0DA@@tinyxml2@@$09@tinyxml2@@QBE_NXZ ; tinyxml2::DynArray<tinyxml2::MemPoolT<48>::Block *,10>::Empty
	movzx	eax, al
	test	eax, eax
	jne	SHORT $LN1@Clear

; 338  :             Block* b  = _blockPtrs.Pop();

	mov	ecx, DWORD PTR _this$[ebp]
	add	ecx, 4
	call	?Pop@?$DynArray@PAUBlock@?$MemPoolT@$0DA@@tinyxml2@@$09@tinyxml2@@QAEPAUBlock@?$MemPoolT@$0DA@@2@XZ ; tinyxml2::DynArray<tinyxml2::MemPoolT<48>::Block *,10>::Pop
	mov	DWORD PTR _b$2[ebp], eax

; 339  :             delete b;

	mov	eax, DWORD PTR _b$2[ebp]
	mov	DWORD PTR $T1[ebp], eax
	mov	ecx, DWORD PTR $T1[ebp]
	push	ecx
	call	??3@YAXPAX@Z				; operator delete
	add	esp, 4
	cmp	DWORD PTR $T1[ebp], 0
	jne	SHORT $LN5@Clear
	mov	DWORD PTR tv74[ebp], 0
	jmp	SHORT $LN6@Clear
$LN5@Clear:
	mov	DWORD PTR _b$2[ebp], 33059		; 00008123H
	mov	edx, DWORD PTR _b$2[ebp]
	mov	DWORD PTR tv74[ebp], edx
$LN6@Clear:

; 340  :         }

	jmp	SHORT $LN2@Clear
$LN1@Clear:

; 341  :         _root = 0;

	mov	eax, DWORD PTR _this$[ebp]
	mov	DWORD PTR [eax+56], 0

; 342  :         _currentAllocs = 0;

	mov	eax, DWORD PTR _this$[ebp]
	mov	DWORD PTR [eax+60], 0

; 343  :         _nAllocs = 0;

	mov	eax, DWORD PTR _this$[ebp]
	mov	DWORD PTR [eax+64], 0

; 344  :         _maxAllocs = 0;

	mov	eax, DWORD PTR _this$[ebp]
	mov	DWORD PTR [eax+68], 0

; 345  :         _nUntracked = 0;

	mov	eax, DWORD PTR _this$[ebp]
	mov	DWORD PTR [eax+72], 0

; 346  :     }

	pop	edi
	pop	esi
	pop	ebx
	add	esp, 232				; 000000e8H
	cmp	ebp, esp
	call	__RTC_CheckEsp
	mov	esp, ebp
	pop	ebp
	ret	0
?Clear@?$MemPoolT@$0DA@@tinyxml2@@UAEXXZ ENDP		; tinyxml2::MemPoolT<48>::Clear
_TEXT	ENDS
; Function compile flags: /Odtp /RTCsu /ZI
; File c:\users\simon\documents\github\uclan-sparta\dissertation project\tinyxml\tinyxml2.h
;	COMDAT ??1?$MemPoolT@$0DA@@tinyxml2@@UAE@XZ
_TEXT	SEGMENT
_this$ = -20						; size = 4
__$EHRec$ = -12						; size = 12
??1?$MemPoolT@$0DA@@tinyxml2@@UAE@XZ PROC		; tinyxml2::MemPoolT<48>::~MemPoolT<48>, COMDAT
; _this$ = ecx

; 331  :     ~MemPoolT() {

	push	ebp
	mov	ebp, esp
	push	-1
	push	__ehhandler$??1?$MemPoolT@$0DA@@tinyxml2@@UAE@XZ
	mov	eax, DWORD PTR fs:0
	push	eax
	sub	esp, 204				; 000000ccH
	push	ebx
	push	esi
	push	edi
	push	ecx
	lea	edi, DWORD PTR [ebp-216]
	mov	ecx, 51					; 00000033H
	mov	eax, -858993460				; ccccccccH
	rep stosd
	pop	ecx
	mov	eax, DWORD PTR ___security_cookie
	xor	eax, ebp
	push	eax
	lea	eax, DWORD PTR __$EHRec$[ebp]
	mov	DWORD PTR fs:0, eax
	mov	DWORD PTR _this$[ebp], ecx
	mov	eax, DWORD PTR _this$[ebp]
	mov	DWORD PTR [eax], OFFSET ??_7?$MemPoolT@$0DA@@tinyxml2@@6B@
	mov	DWORD PTR __$EHRec$[ebp+8], 1

; 332  :         Clear();

	mov	ecx, DWORD PTR _this$[ebp]
	call	?Clear@?$MemPoolT@$0DA@@tinyxml2@@UAEXXZ ; tinyxml2::MemPoolT<48>::Clear

; 333  :     }

	mov	BYTE PTR __$EHRec$[ebp+8], 0
	mov	ecx, DWORD PTR _this$[ebp]
	add	ecx, 4
	call	??1?$DynArray@PAUBlock@?$MemPoolT@$0DA@@tinyxml2@@$09@tinyxml2@@QAE@XZ ; tinyxml2::DynArray<tinyxml2::MemPoolT<48>::Block *,10>::~DynArray<tinyxml2::MemPoolT<48>::Block *,10>
	mov	DWORD PTR __$EHRec$[ebp+8], -1
	mov	ecx, DWORD PTR _this$[ebp]
	call	??1MemPool@tinyxml2@@UAE@XZ		; tinyxml2::MemPool::~MemPool
	mov	ecx, DWORD PTR __$EHRec$[ebp]
	mov	DWORD PTR fs:0, ecx
	pop	ecx
	pop	edi
	pop	esi
	pop	ebx
	add	esp, 216				; 000000d8H
	cmp	ebp, esp
	call	__RTC_CheckEsp
	mov	esp, ebp
	pop	ebp
	ret	0
_TEXT	ENDS
;	COMDAT text$x
text$x	SEGMENT
