; Listing generated by Microsoft (R) Optimizing Compiler Version 18.00.30501.0 

	TITLE	C:\Users\Simon\Documents\GitHub\Sparta2.0\UCLAN-sparta\Effects11\EffectLoad.cpp
	.686P
	.XMM
	include listing.inc
	.model	flat

INCLUDELIB LIBCMTD
INCLUDELIB OLDNAMES

PUBLIC	??_C@_0BJ@PCDFIDK@MIN_LINEAR_MAG_MIP_POINT?$AA@	; `string'
PUBLIC	??_C@_0CA@PLHBLOON@MIN_LINEAR_MAG_POINT_MIP_LINEAR?$AA@ ; `string'
PUBLIC	??_C@_0BJ@BLHOHPBA@MIN_MAG_LINEAR_MIP_POINT?$AA@ ; `string'
PUBLIC	??_C@_0BD@LLNOFHHP@MIN_MAG_MIP_LINEAR?$AA@	; `string'
PUBLIC	??_C@_0M@FBHCHPJF@ANISOTROPIC?$AA@		; `string'
PUBLIC	??_C@_0BN@EJHCGLM@COMPARISON_MIN_MAG_MIP_POINT?$AA@ ; `string'
PUBLIC	??_C@_0CE@BDNJCEEB@COMPARISON_MIN_MAG_POINT_MIP_LIN@ ; `string'
PUBLIC	_IID_ID3DX11EffectBlendVariable
PUBLIC	??_C@_0CK@OGELINIF@COMPARISON_MIN_POINT_MAG_LINEAR_@ ; `string'
PUBLIC	??_C@_0CE@PMJCANCG@COMPARISON_MIN_POINT_MAG_MIP_LIN@ ; `string'
PUBLIC	??_C@_0CE@ELIPCDDG@COMPARISON_MIN_LINEAR_MAG_MIP_PO@ ; `string'
PUBLIC	??_C@_0CL@PMJFJEGG@COMPARISON_MIN_LINEAR_MAG_POINT_@ ; `string'
PUBLIC	??_C@_0CE@FPNCAEBM@COMPARISON_MIN_MAG_LINEAR_MIP_PO@ ; `string'
PUBLIC	??_C@_0BO@EDLFHIHK@COMPARISON_MIN_MAG_MIP_LINEAR?$AA@ ; `string'
PUBLIC	??_C@_0BH@FICIAAEE@COMPARISON_ANISOTROPIC?$AA@	; `string'
PUBLIC	??_C@_09JIMOEHJJ@TEXT_1BIT?$AA@			; `string'
PUBLIC	??_C@_03OKMGHDAC@ONE?$AA@			; `string'
PUBLIC	??_C@_09BBJLDKJG@SRC_COLOR?$AA@			; `string'
PUBLIC	??_C@_0O@LDCOGIID@INV_SRC_COLOR?$AA@		; `string'
PUBLIC	??_C@_09GFJMFOHN@SRC_ALPHA?$AA@			; `string'
PUBLIC	??_C@_0O@MHCJAMGI@INV_SRC_ALPHA?$AA@		; `string'
PUBLIC	??_C@_0L@MALFDAFE@DEST_ALPHA?$AA@		; `string'
PUBLIC	??_C@_0P@KNMKGBON@INV_DEST_ALPHA?$AA@		; `string'
PUBLIC	??_C@_0L@LELCFELP@DEST_COLOR?$AA@		; `string'
PUBLIC	??_C@_0P@NJMNAFAG@INV_DEST_COLOR?$AA@		; `string'
PUBLIC	??_C@_0O@NDCPKMML@SRC_ALPHA_SAT?$AA@		; `string'
PUBLIC	??_C@_0N@HLIPIAPO@BLEND_FACTOR?$AA@		; `string'
PUBLIC	??_C@_0BB@FCOEJJBC@INV_BLEND_FACTOR?$AA@	; `string'
PUBLIC	??_C@_0L@MCMGPDMI@SRC1_COLOR?$AA@		; `string'
PUBLIC	??_C@_0P@KPLJKCHB@INV_SRC1_COLOR?$AA@		; `string'
PUBLIC	??_C@_0L@LGMBJHCD@SRC1_ALPHA?$AA@		; `string'
PUBLIC	??_C@_0P@NLLOMGJK@INV_SRC1_ALPHA?$AA@		; `string'
PUBLIC	??_C@_05LLKDOPEJ@CLAMP?$AA@			; `string'
PUBLIC	??_C@_04BJAJGGLD@WRAP?$AA@			; `string'
PUBLIC	??_C@_06LPIEMBDF@MIRROR?$AA@			; `string'
PUBLIC	??_C@_06OHHANPFE@BORDER?$AA@			; `string'
PUBLIC	??_C@_0M@IBDDGNND@MIRROR_ONCE?$AA@		; `string'
PUBLIC	??_C@_04OKGDLNCL@NONE?$AA@			; `string'
PUBLIC	??_C@_05LCELFLHH@FRONT?$AA@			; `string'
PUBLIC	??_C@_04FJBHJJME@BACK?$AA@			; `string'
PUBLIC	??_C@_05PLMGMCPK@NEVER?$AA@			; `string'
PUBLIC	??_C@_04PHHIILNL@LESS?$AA@			; `string'
PUBLIC	??_C@_05MFJMDLJG@EQUAL?$AA@			; `string'
PUBLIC	??_C@_0L@POPDHMNN@LESS_EQUAL?$AA@		; `string'
PUBLIC	??_C@_07INHKBBNC@GREATER?$AA@			; `string'
PUBLIC	??_C@_09BCHNGNOE@NOT_EQUAL?$AA@			; `string'
PUBLIC	??_C@_0O@LBCFDHKJ@GREATER_EQUAL?$AA@		; `string'
PUBLIC	??_C@_06KDBFKDHA@ALWAYS?$AA@			; `string'
PUBLIC	??_C@_04HGNONLMK@KEEP?$AA@			; `string'
PUBLIC	??_C@_07NGBKIEMN@REPLACE?$AA@			; `string'
PUBLIC	??_C@_08KPABMPDL@INCR_SAT?$AA@			; `string'
PUBLIC	??_C@_08DCEDEDK@DECR_SAT?$AA@			; `string'
PUBLIC	??_C@_06CMCEILNN@INVERT?$AA@			; `string'
PUBLIC	??_C@_04ONKEBBJL@INCR?$AA@			; `string'
PUBLIC	??_C@_04MCDFFCCL@DECR?$AA@			; `string'
PUBLIC	??_C@_03BOJFLAKG@ADD?$AA@			; `string'
PUBLIC	??_C@_08MGBEENML@SUBTRACT?$AA@			; `string'
PUBLIC	??_C@_0N@DGGLJHJP@REV_SUBTRACT?$AA@		; `string'
PUBLIC	??_C@_03KGHEHEMH@MIN?$AA@			; `string'
PUBLIC	??_C@_03LEPPJAKI@MAX?$AA@			; `string'
PUBLIC	_IID_ID3DX11EffectDepthStencilVariable
PUBLIC	_IID_ID3DX11EffectVectorVariable
PUBLIC	_IID_ID3DX11EffectRasterizerVariable
PUBLIC	_IID_ID3DX11EffectMatrixVariable
PUBLIC	?c_InvalidIndex@SType@D3DX11Effects@@2IB	; D3DX11Effects::SType::c_InvalidIndex
PUBLIC	?c_ScalarSize@SType@D3DX11Effects@@2IB		; D3DX11Effects::SType::c_ScalarSize
PUBLIC	?c_ScalarsPerRegister@SType@D3DX11Effects@@2IB	; D3DX11Effects::SType::c_ScalarsPerRegister
PUBLIC	?c_RegisterSize@SType@D3DX11Effects@@2IB	; D3DX11Effects::SType::c_RegisterSize
PUBLIC	_IID_ID3DX11EffectSamplerVariable
PUBLIC	_IID_ID3DX11EffectStringVariable
PUBLIC	_IID_ID3DX11EffectPass
PUBLIC	??_C@_0BA@LIKHENHC@RasterizerState?$AA@		; `string'
PUBLIC	??_C@_0BC@JHBFINCM@DepthStencilState?$AA@	; `string'
PUBLIC	?D3D11_DEFAULT@@3UCD3D11_DEFAULT@@B		; D3D11_DEFAULT
PUBLIC	_IID_ID3DX11EffectClassInstanceVariable
PUBLIC	??_C@_0L@DDELOHAJ@BlendState?$AA@		; `string'
PUBLIC	??_C@_0BB@GOKJNCIL@RenderTargetView?$AA@	; `string'
PUBLIC	??_C@_0BB@LMDLMKPB@DepthStencilView?$AA@	; `string'
PUBLIC	??_C@_0N@IBEMAACP@GenerateMips?$AA@		; `string'
PUBLIC	??_C@_0N@GMCBJINM@VertexShader?$AA@		; `string'
PUBLIC	??_C@_0M@FCHPCNFJ@PixelShader?$AA@		; `string'
PUBLIC	??_C@_0P@OICECHMN@GeometryShader?$AA@		; `string'
PUBLIC	??_C@_0O@JEENBINA@DS_StencilRef?$AA@		; `string'
PUBLIC	??_C@_0P@CEGHKKMF@AB_BlendFactor?$AA@		; `string'
PUBLIC	??_C@_0O@FIKBICKJ@AB_SampleMask?$AA@		; `string'
PUBLIC	??_C@_08NMIIEEEP@FillMode?$AA@			; `string'
PUBLIC	??_C@_08LNALCFGE@CullMode?$AA@			; `string'
PUBLIC	??_C@_0BG@LHEPJHBL@FrontCounterClockwise?$AA@	; `string'
PUBLIC	??_C@_09OEBKCEKF@DepthBias?$AA@			; `string'
PUBLIC	??_C@_0P@IFJAGLKM@DepthBiasClamp?$AA@		; `string'
PUBLIC	??_C@_0BF@HPDIBKDM@SlopeScaledDepthBias?$AA@	; `string'
PUBLIC	??_C@_0BA@LGNIIPEG@DepthClipEnable?$AA@		; `string'
PUBLIC	??_C@_0O@CMAKKCKB@ScissorEnable?$AA@		; `string'
PUBLIC	??_C@_0BC@MCHLHGON@MultisampleEnable?$AA@	; `string'
PUBLIC	??_C@_0BG@OEFGIGEF@AntialiasedLineEnable?$AA@	; `string'
PUBLIC	??_C@_0M@IGDDNLAN@DepthEnable?$AA@		; `string'
PUBLIC	??_C@_0P@OOBKHNOI@DepthWriteMask?$AA@		; `string'
PUBLIC	??_C@_09EKMLDPCO@DepthFunc?$AA@			; `string'
PUBLIC	??_C@_0O@LIJDBNBF@StencilEnable?$AA@		; `string'
PUBLIC	??_C@_0BA@LEFMBHCL@StencilReadMask?$AA@		; `string'
PUBLIC	??_C@_0BB@LHFJFMDO@StencilWriteMask?$AA@	; `string'
PUBLIC	??_C@_0BF@FOECBGIB@FrontFaceStencilFail?$AA@	; `string'
PUBLIC	??_C@_0BK@POMOKFDB@FrontFaceStencilDepthFail?$AA@ ; `string'
PUBLIC	??_C@_0BF@GNAJFMJL@FrontFaceStencilPass?$AA@	; `string'
PUBLIC	??_C@_0BF@DOONMAD@FrontFaceStencilFunc?$AA@	; `string'
PUBLIC	??_C@_0BE@FOHAIIEL@BackFaceStencilFail?$AA@	; `string'
PUBLIC	??_C@_0BJ@CHBLPCCC@BackFaceStencilDepthFail?$AA@ ; `string'
PUBLIC	??_C@_0BE@GNDLMCFB@BackFaceStencilPass?$AA@	; `string'
PUBLIC	??_C@_0BE@DNMECMJ@BackFaceStencilFunc?$AA@	; `string'
PUBLIC	_IID_ID3DX11EffectTechnique
PUBLIC	??_C@_0BG@COOKFDEE@AlphaToCoverageEnable?$AA@	; `string'
PUBLIC	??_C@_0M@LNIFNHGE@BlendEnable?$AA@		; `string'
PUBLIC	?g_lvGeneralCount@D3DX11Effects@@3IB		; D3DX11Effects::g_lvGeneralCount
PUBLIC	_IID_ID3DX11EffectInterfaceVariable
PUBLIC	_IID_ID3DX11EffectGroup
PUBLIC	_IID_ID3D11ShaderReflectionType
PUBLIC	?g_szEffectLoadArea@D3DX11Effects@@3PBDB	; D3DX11Effects::g_szEffectLoadArea
PUBLIC	??_C@_0BC@GGPPNGNB@D3D11EffectLoader?$AA@	; `string'
PUBLIC	_IID_ID3DX11Effect
PUBLIC	_IID_ID3D11ShaderReflectionVariable
PUBLIC	?g_vtPS@D3DX11Effects@@3USD3DShaderVTable@1@A	; D3DX11Effects::g_vtPS
PUBLIC	??_9ID3D11DeviceContext@@$BCE@AG		; ID3D11DeviceContext::`vcall'{36}'
PUBLIC	??_9ID3D11DeviceContext@@$BEA@AG		; ID3D11DeviceContext::`vcall'{64}'
PUBLIC	??_9ID3D11DeviceContext@@$BCI@AG		; ID3D11DeviceContext::`vcall'{40}'
PUBLIC	??_9ID3D11DeviceContext@@$BCA@AG		; ID3D11DeviceContext::`vcall'{32}'
PUBLIC	??_9ID3D11Device@@$BDM@AG			; ID3D11Device::`vcall'{60}'
PUBLIC	?g_vtVS@D3DX11Effects@@3USD3DShaderVTable@1@A	; D3DX11Effects::g_vtVS
PUBLIC	_IID_ID3D11ShaderReflectionConstantBuffer
PUBLIC	??_9ID3D11DeviceContext@@$BCM@AG		; ID3D11DeviceContext::`vcall'{44}'
PUBLIC	??_9ID3D11DeviceContext@@$BBM@AG		; ID3D11DeviceContext::`vcall'{28}'
PUBLIC	??_9ID3D11DeviceContext@@$BGI@AG		; ID3D11DeviceContext::`vcall'{104}'
PUBLIC	_IID_ID3DX11EffectShaderResourceVariable
PUBLIC	??_9ID3D11DeviceContext@@$BGE@AG		; ID3D11DeviceContext::`vcall'{100}'
PUBLIC	??_9ID3D11Device@@$BDA@AG			; ID3D11Device::`vcall'{48}'
PUBLIC	?g_vtGS@D3DX11Effects@@3USD3DShaderVTable@1@A	; D3DX11Effects::g_vtGS
PUBLIC	_IID_ID3D11ShaderReflection
PUBLIC	??_9ID3D11DeviceContext@@$BFM@AG		; ID3D11DeviceContext::`vcall'{92}'
PUBLIC	??_9ID3D11DeviceContext@@$BFI@AG		; ID3D11DeviceContext::`vcall'{88}'
PUBLIC	??_9ID3D11DeviceContext@@$BIA@AG		; ID3D11DeviceContext::`vcall'{128}'
PUBLIC	??_9ID3D11DeviceContext@@$BHM@AG		; ID3D11DeviceContext::`vcall'{124}'
PUBLIC	??_9ID3D11Device@@$BDE@AG			; ID3D11Device::`vcall'{52}'
PUBLIC	?g_vtHS@D3DX11Effects@@3USD3DShaderVTable@1@A	; D3DX11Effects::g_vtHS
PUBLIC	??_9ID3D11DeviceContext@@$BPA@AG		; ID3D11DeviceContext::`vcall'{240}'
PUBLIC	??_9ID3D11DeviceContext@@$BPI@AG		; ID3D11DeviceContext::`vcall'{248}'
PUBLIC	??_9ID3D11DeviceContext@@$BPE@AG		; ID3D11DeviceContext::`vcall'{244}'
PUBLIC	??_9ID3D11DeviceContext@@$BOM@AG		; ID3D11DeviceContext::`vcall'{236}'
PUBLIC	?g_vtDS@D3DX11Effects@@3USD3DShaderVTable@1@A	; D3DX11Effects::g_vtDS
PUBLIC	??_9ID3D11DeviceContext@@$BBAA@AG		; ID3D11DeviceContext::`vcall'{256}'
PUBLIC	??_9ID3D11DeviceContext@@$BBAI@AG		; ID3D11DeviceContext::`vcall'{264}'
PUBLIC	??_9ID3D11DeviceContext@@$BBAE@AG		; ID3D11DeviceContext::`vcall'{260}'
PUBLIC	??_9ID3D11DeviceContext@@$BPM@AG		; ID3D11DeviceContext::`vcall'{252}'
PUBLIC	??_9ID3D11Device@@$BEE@AG			; ID3D11Device::`vcall'{68}'
PUBLIC	?g_vtCS@D3DX11Effects@@3USD3DShaderVTable@1@A	; D3DX11Effects::g_vtCS
PUBLIC	??_9ID3D11DeviceContext@@$BBBE@AG		; ID3D11DeviceContext::`vcall'{276}'
PUBLIC	??_9ID3D11DeviceContext@@$BBBM@AG		; ID3D11DeviceContext::`vcall'{284}'
PUBLIC	??_9ID3D11DeviceContext@@$BBBI@AG		; ID3D11DeviceContext::`vcall'{280}'
PUBLIC	??_9ID3D11DeviceContext@@$BBAM@AG		; ID3D11DeviceContext::`vcall'{268}'
PUBLIC	??_9ID3D11Device@@$BEI@AG			; ID3D11Device::`vcall'{72}'
PUBLIC	_IID_ID3D11LibraryReflection
PUBLIC	_IID_ID3DX11EffectUnorderedAccessViewVariable
PUBLIC	_IID_ID3D11FunctionReflection
PUBLIC	_IID_ID3D11FunctionParameterReflection
PUBLIC	_IID_ID3D11Module
PUBLIC	??_C@_06BACILOGA@fx_4_0?$AA@			; `string'
PUBLIC	??_C@_06JDDIPCB@fx_4_1?$AA@			; `string'
PUBLIC	??_C@_06KIJENJAF@fx_5_0?$AA@			; `string'
PUBLIC	_IID_ID3D11ModuleInstance
PUBLIC	_IID_ID3DX11EffectRenderTargetViewVariable
PUBLIC	_IID_ID3D11Linker
PUBLIC	_IID_ID3D11LinkingNode
PUBLIC	_IID_ID3DX11EffectDepthStencilViewVariable
PUBLIC	_IID_ID3D11FunctionLinkingGraph
PUBLIC	_IID_ID3DX11EffectConstantBuffer
PUBLIC	_IID_ID3DX11EffectType
PUBLIC	?c_IsTBuffer@SBinaryConstantBuffer@D3DX11Effects@@2IB ; D3DX11Effects::SBinaryConstantBuffer::c_IsTBuffer
PUBLIC	?c_IsSingle@SBinaryConstantBuffer@D3DX11Effects@@2IB ; D3DX11Effects::SBinaryConstantBuffer::c_IsSingle
PUBLIC	?value@?$integral_constant@_N$0A@@std@@2_NB	; std::integral_constant<bool,0>::value
PUBLIC	?value@?$integral_constant@_N$00@std@@2_NB	; std::integral_constant<bool,1>::value
PUBLIC	_IID_ID3DX11EffectVariable
PUBLIC	_IID_ID3DX11EffectShaderVariable
PUBLIC	??_C@_04HIBGFPH@NULL?$AA@			; `string'
PUBLIC	??_C@_05MAJJAKPI@FALSE?$AA@			; `string'
PUBLIC	??_C@_04HCDDPBNL@TRUE?$AA@			; `string'
PUBLIC	??_C@_04PPGNNOJD@ZERO?$AA@			; `string'
PUBLIC	??_C@_03NIFPGLBG@ALL?$AA@			; `string'
PUBLIC	??_C@_09HJIKPONA@WIREFRAME?$AA@			; `string'
PUBLIC	??_C@_05CEBIDAFG@SOLID?$AA@			; `string'
PUBLIC	_IID_ID3DX11EffectScalarVariable
PUBLIC	??_C@_0BC@NBGEKGB@MIN_MAG_MIP_POINT?$AA@	; `string'
PUBLIC	??_C@_0BJ@FHHFFPEN@MIN_MAG_POINT_MIP_LINEAR?$AA@ ; `string'
PUBLIC	??_C@_0BP@GPKFBPIB@MIN_POINT_MAG_LINEAR_MIP_POINT?$AA@ ; `string'
PUBLIC	??_C@_0BJ@LIDOHGCK@MIN_POINT_MAG_MIP_LINEAR?$AA@ ; `string'
;	COMDAT ??_C@_0BJ@LIDOHGCK@MIN_POINT_MAG_MIP_LINEAR?$AA@
CONST	SEGMENT
??_C@_0BJ@LIDOHGCK@MIN_POINT_MAG_MIP_LINEAR?$AA@ DB 'MIN_POINT_MAG_MIP_LI'
	DB	'NEAR', 00H					; `string'
CONST	ENDS
;	COMDAT ??_C@_0BP@GPKFBPIB@MIN_POINT_MAG_LINEAR_MIP_POINT?$AA@
CONST	SEGMENT
??_C@_0BP@GPKFBPIB@MIN_POINT_MAG_LINEAR_MIP_POINT?$AA@ DB 'MIN_POINT_MAG_'
	DB	'LINEAR_MIP_POINT', 00H			; `string'
CONST	ENDS
;	COMDAT ??_C@_0BJ@FHHFFPEN@MIN_MAG_POINT_MIP_LINEAR?$AA@
CONST	SEGMENT
??_C@_0BJ@FHHFFPEN@MIN_MAG_POINT_MIP_LINEAR?$AA@ DB 'MIN_MAG_POINT_MIP_LI'
	DB	'NEAR', 00H					; `string'
CONST	ENDS
;	COMDAT ??_C@_0BC@NBGEKGB@MIN_MAG_MIP_POINT?$AA@
CONST	SEGMENT
??_C@_0BC@NBGEKGB@MIN_MAG_MIP_POINT?$AA@ DB 'MIN_MAG_MIP_POINT', 00H ; `string'
CONST	ENDS
;	COMDAT _IID_ID3DX11EffectScalarVariable
CONST	SEGMENT
_IID_ID3DX11EffectScalarVariable DD 0921ef2e5H
	DW	0a65dH
	DW	04e92H
	DB	09fH
	DB	0c6H
	DB	04eH
	DB	09cH
	DB	0c0H
	DB	09aH
	DB	04aH
	DB	0deH
CONST	ENDS
;	COMDAT ??_C@_05CEBIDAFG@SOLID?$AA@
CONST	SEGMENT
??_C@_05CEBIDAFG@SOLID?$AA@ DB 'SOLID', 00H		; `string'
CONST	ENDS
;	COMDAT ??_C@_09HJIKPONA@WIREFRAME?$AA@
CONST	SEGMENT
??_C@_09HJIKPONA@WIREFRAME?$AA@ DB 'WIREFRAME', 00H	; `string'
CONST	ENDS
;	COMDAT ??_C@_03NIFPGLBG@ALL?$AA@
CONST	SEGMENT
??_C@_03NIFPGLBG@ALL?$AA@ DB 'ALL', 00H			; `string'
CONST	ENDS
;	COMDAT ??_C@_04PPGNNOJD@ZERO?$AA@
CONST	SEGMENT
??_C@_04PPGNNOJD@ZERO?$AA@ DB 'ZERO', 00H		; `string'
CONST	ENDS
;	COMDAT ??_C@_04HCDDPBNL@TRUE?$AA@
CONST	SEGMENT
??_C@_04HCDDPBNL@TRUE?$AA@ DB 'TRUE', 00H		; `string'
CONST	ENDS
;	COMDAT ??_C@_05MAJJAKPI@FALSE?$AA@
CONST	SEGMENT
??_C@_05MAJJAKPI@FALSE?$AA@ DB 'FALSE', 00H		; `string'
CONST	ENDS
;	COMDAT ??_C@_04HIBGFPH@NULL?$AA@
CONST	SEGMENT
??_C@_04HIBGFPH@NULL?$AA@ DB 'NULL', 00H		; `string'
CONST	ENDS
;	COMDAT _IID_ID3DX11EffectShaderVariable
CONST	SEGMENT
_IID_ID3DX11EffectShaderVariable DD 07508b344H
	DW	020aH
	DW	04ec7H
	DB	091H
	DB	018H
	DB	062H
	DB	0cdH
	DB	0d3H
	DB	06cH
	DB	088H
	DB	0d7H
CONST	ENDS
;	COMDAT _IID_ID3DX11EffectVariable
CONST	SEGMENT
_IID_ID3DX11EffectVariable DD 036a777dH
	DW	0b56eH
	DW	04b25H
	DB	0b3H
	DB	013H
	DB	0ccH
	DB	03dH
	DB	0daH
	DB	0b7H
	DB	018H
	DB	073H
CONST	ENDS
;	COMDAT ?value@?$integral_constant@_N$00@std@@2_NB
CONST	SEGMENT
?value@?$integral_constant@_N$00@std@@2_NB DB 01H	; std::integral_constant<bool,1>::value
CONST	ENDS
;	COMDAT ?value@?$integral_constant@_N$0A@@std@@2_NB
CONST	SEGMENT
?value@?$integral_constant@_N$0A@@std@@2_NB DB 00H	; std::integral_constant<bool,0>::value
CONST	ENDS
;	COMDAT ?c_IsSingle@SBinaryConstantBuffer@D3DX11Effects@@2IB
CONST	SEGMENT
?c_IsSingle@SBinaryConstantBuffer@D3DX11Effects@@2IB DD 02H ; D3DX11Effects::SBinaryConstantBuffer::c_IsSingle
CONST	ENDS
;	COMDAT ?c_IsTBuffer@SBinaryConstantBuffer@D3DX11Effects@@2IB
CONST	SEGMENT
?c_IsTBuffer@SBinaryConstantBuffer@D3DX11Effects@@2IB DD 01H ; D3DX11Effects::SBinaryConstantBuffer::c_IsTBuffer
CONST	ENDS
;	COMDAT _IID_ID3DX11EffectType
CONST	SEGMENT
_IID_ID3DX11EffectType DD 04250d721H
	DW	0d5e5H
	DW	0491fH
	DB	0b6H
	DB	02bH
	DB	058H
	DB	07cH
	DB	043H
	DB	018H
	DB	062H
	DB	085H
CONST	ENDS
;	COMDAT _IID_ID3DX11EffectConstantBuffer
CONST	SEGMENT
_IID_ID3DX11EffectConstantBuffer DD 02cb6c733H
	DW	082d2H
	DW	04000H
	DB	0b3H
	DB	0daH
	DB	062H
	DB	019H
	DB	0d9H
	DB	0a9H
	DB	09bH
	DB	0f2H
CONST	ENDS
;	COMDAT _IID_ID3D11FunctionLinkingGraph
CONST	SEGMENT
_IID_ID3D11FunctionLinkingGraph DD 054133220H
	DW	01ce8H
	DW	043d3H
	DB	082H
	DB	036H
	DB	098H
	DB	055H
	DB	0c5H
	DB	0ceH
	DB	0ecH
	DB	0ffH
CONST	ENDS
;	COMDAT _IID_ID3DX11EffectDepthStencilViewVariable
CONST	SEGMENT
_IID_ID3DX11EffectDepthStencilViewVariable DD 033c648acH
	DW	02e9eH
	DW	04a2eH
	DB	09cH
	DB	0d6H
	DB	0deH
	DB	031H
	DB	0acH
	DB	0c5H
	DB	0b3H
	DB	047H
CONST	ENDS
;	COMDAT _IID_ID3D11LinkingNode
CONST	SEGMENT
_IID_ID3D11LinkingNode DD 0d80dd70cH
	DW	08d2fH
	DW	04751H
	DB	094H
	DB	0a1H
	DB	03H
	DB	0c7H
	DB	09bH
	DB	035H
	DB	056H
	DB	0dbH
CONST	ENDS
;	COMDAT _IID_ID3D11Linker
CONST	SEGMENT
_IID_ID3D11Linker DD 059a6cd0eH
	DW	0e10dH
	DW	04c1fH
	DB	088H
	DB	0c0H
	DB	063H
	DB	0abH
	DB	0a1H
	DB	0daH
	DB	0f3H
	DB	0eH
CONST	ENDS
;	COMDAT _IID_ID3DX11EffectRenderTargetViewVariable
CONST	SEGMENT
_IID_ID3DX11EffectRenderTargetViewVariable DD 0d5066909H
	DW	0f40cH
	DW	043f8H
	DB	09dH
	DB	0b5H
	DB	05H
	DB	07cH
	DB	02aH
	DB	020H
	DB	085H
	DB	052H
CONST	ENDS
;	COMDAT _IID_ID3D11ModuleInstance
CONST	SEGMENT
_IID_ID3D11ModuleInstance DD 0469e07f7H
	DW	045aH
	DW	048d5H
	DB	0aaH
	DB	012H
	DB	068H
	DB	0a4H
	DB	078H
	DB	0cdH
	DB	0f7H
	DB	05dH
CONST	ENDS
;	COMDAT ??_C@_06KIJENJAF@fx_5_0?$AA@
CONST	SEGMENT
??_C@_06KIJENJAF@fx_5_0?$AA@ DB 'fx_5_0', 00H		; `string'
CONST	ENDS
;	COMDAT ??_C@_06JDDIPCB@fx_4_1?$AA@
CONST	SEGMENT
??_C@_06JDDIPCB@fx_4_1?$AA@ DB 'fx_4_1', 00H		; `string'
CONST	ENDS
;	COMDAT ??_C@_06BACILOGA@fx_4_0?$AA@
CONST	SEGMENT
??_C@_06BACILOGA@fx_4_0?$AA@ DB 'fx_4_0', 00H		; `string'
CONST	ENDS
;	COMDAT _IID_ID3D11Module
CONST	SEGMENT
_IID_ID3D11Module DD 0cac701eeH
	DW	080fcH
	DW	04122H
	DB	082H
	DB	042H
	DB	010H
	DB	0b3H
	DB	09cH
	DB	08cH
	DB	0ecH
	DB	034H
CONST	ENDS
;	COMDAT _IID_ID3D11FunctionParameterReflection
CONST	SEGMENT
_IID_ID3D11FunctionParameterReflection DD 042757488H
	DW	0334fH
	DW	047feH
	DB	098H
	DB	02eH
	DB	01aH
	DB	065H
	DB	0d0H
	DB	08cH
	DB	0c4H
	DB	062H
CONST	ENDS
;	COMDAT _IID_ID3D11FunctionReflection
CONST	SEGMENT
_IID_ID3D11FunctionReflection DD 0207bcecbH
	DW	0d683H
	DW	04a06H
	DB	0a8H
	DB	0a3H
	DB	09bH
	DB	014H
	DB	09bH
	DB	09fH
	DB	073H
	DB	0a4H
CONST	ENDS
;	COMDAT _IID_ID3DX11EffectUnorderedAccessViewVariable
CONST	SEGMENT
_IID_ID3DX11EffectUnorderedAccessViewVariable DD 079b4ac8cH
	DW	0870aH
	DW	047d2H
	DB	0b0H
	DB	05aH
	DB	08bH
	DB	0d5H
	DB	0ccH
	DB	03eH
	DB	0e6H
	DB	0c9H
CONST	ENDS
;	COMDAT _IID_ID3D11LibraryReflection
CONST	SEGMENT
_IID_ID3D11LibraryReflection DD 054384f1bH
	DW	05b3eH
	DW	04bb7H
	DB	0aeH
	DB	01H
	DB	060H
	DB	0baH
	DB	030H
	DB	097H
	DB	0cbH
	DB	0b6H
CONST	ENDS
;	COMDAT _IID_ID3D11ShaderReflection
CONST	SEGMENT
_IID_ID3D11ShaderReflection DD 08d536ca1H
	DW	0ccaH
	DW	04956H
	DB	0a8H
	DB	037H
	DB	078H
	DB	069H
	DB	063H
	DB	075H
	DB	055H
	DB	084H
CONST	ENDS
;	COMDAT _IID_ID3DX11EffectShaderResourceVariable
CONST	SEGMENT
_IID_ID3DX11EffectShaderResourceVariable DD 0350db233H
	DW	0bbe0H
	DW	0485cH
	DB	09bH
	DB	0feH
	DB	0c0H
	DB	02H
	DB	06bH
	DB	084H
	DB	04fH
	DB	089H
CONST	ENDS
;	COMDAT _IID_ID3D11ShaderReflectionConstantBuffer
CONST	SEGMENT
_IID_ID3D11ShaderReflectionConstantBuffer DD 0eb62d63dH
	DW	093ddH
	DW	04318H
	DB	08aH
	DB	0e8H
	DB	0c6H
	DB	0f8H
	DB	03aH
	DB	0d3H
	DB	071H
	DB	0b8H
CONST	ENDS
;	COMDAT _IID_ID3D11ShaderReflectionVariable
CONST	SEGMENT
_IID_ID3D11ShaderReflectionVariable DD 051f23923H
	DW	0f3e5H
	DW	04bd1H
	DB	091H
	DB	0cbH
	DB	060H
	DB	061H
	DB	077H
	DB	0d8H
	DB	0dbH
	DB	04cH
CONST	ENDS
;	COMDAT _IID_ID3DX11Effect
CONST	SEGMENT
_IID_ID3DX11Effect DD 0fa61ca24H
	DW	0e4baH
	DW	04262H
	DB	09dH
	DB	0b8H
	DB	0b1H
	DB	032H
	DB	0e8H
	DB	0caH
	DB	0e3H
	DB	019H
CONST	ENDS
;	COMDAT ??_C@_0BC@GGPPNGNB@D3D11EffectLoader?$AA@
CONST	SEGMENT
??_C@_0BC@GGPPNGNB@D3D11EffectLoader?$AA@ DB 'D3D11EffectLoader', 00H ; `string'
CONST	ENDS
_DATA	SEGMENT
?g_szEffectLoadArea@D3DX11Effects@@3PBDB DD FLAT:??_C@_0BC@GGPPNGNB@D3D11EffectLoader?$AA@ ; D3DX11Effects::g_szEffectLoadArea
?g_vtPS@D3DX11Effects@@3USD3DShaderVTable@1@A DD FLAT:??_9ID3D11DeviceContext@@$BCE@AG ; D3DX11Effects::g_vtPS
	DD	FLAT:??_9ID3D11DeviceContext@@$BEA@AG
	DD	FLAT:??_9ID3D11DeviceContext@@$BCI@AG
	DD	FLAT:??_9ID3D11DeviceContext@@$BCA@AG
	DD	FLAT:??_9ID3D11Device@@$BDM@AG
?g_vtVS@D3DX11Effects@@3USD3DShaderVTable@1@A DD FLAT:??_9ID3D11DeviceContext@@$BCM@AG ; D3DX11Effects::g_vtVS
	DD	FLAT:??_9ID3D11DeviceContext@@$BBM@AG
	DD	FLAT:??_9ID3D11DeviceContext@@$BGI@AG
	DD	FLAT:??_9ID3D11DeviceContext@@$BGE@AG
	DD	FLAT:??_9ID3D11Device@@$BDA@AG
?g_vtGS@D3DX11Effects@@3USD3DShaderVTable@1@A DD FLAT:??_9ID3D11DeviceContext@@$BFM@AG ; D3DX11Effects::g_vtGS
	DD	FLAT:??_9ID3D11DeviceContext@@$BFI@AG
	DD	FLAT:??_9ID3D11DeviceContext@@$BIA@AG
	DD	FLAT:??_9ID3D11DeviceContext@@$BHM@AG
	DD	FLAT:??_9ID3D11Device@@$BDE@AG
?g_vtHS@D3DX11Effects@@3USD3DShaderVTable@1@A DD FLAT:??_9ID3D11DeviceContext@@$BPA@AG ; D3DX11Effects::g_vtHS
	DD	FLAT:??_9ID3D11DeviceContext@@$BPI@AG
	DD	FLAT:??_9ID3D11DeviceContext@@$BPE@AG
	DD	FLAT:??_9ID3D11DeviceContext@@$BOM@AG
	DD	FLAT:??_9ID3D11DeviceContext@@$BEA@AG
?g_vtDS@D3DX11Effects@@3USD3DShaderVTable@1@A DD FLAT:??_9ID3D11DeviceContext@@$BBAA@AG ; D3DX11Effects::g_vtDS
	DD	FLAT:??_9ID3D11DeviceContext@@$BBAI@AG
	DD	FLAT:??_9ID3D11DeviceContext@@$BBAE@AG
	DD	FLAT:??_9ID3D11DeviceContext@@$BPM@AG
	DD	FLAT:??_9ID3D11Device@@$BEE@AG
?g_vtCS@D3DX11Effects@@3USD3DShaderVTable@1@A DD FLAT:??_9ID3D11DeviceContext@@$BBBE@AG ; D3DX11Effects::g_vtCS
	DD	FLAT:??_9ID3D11DeviceContext@@$BBBM@AG
	DD	FLAT:??_9ID3D11DeviceContext@@$BBBI@AG
	DD	FLAT:??_9ID3D11DeviceContext@@$BBAM@AG
	DD	FLAT:??_9ID3D11Device@@$BEI@AG
_DATA	ENDS
;	COMDAT _IID_ID3D11ShaderReflectionType
CONST	SEGMENT
_IID_ID3D11ShaderReflectionType DD 06e6ffa6aH
	DW	09baeH
	DW	04613H
	DB	0a5H
	DB	01eH
	DB	091H
	DB	065H
	DB	02dH
	DB	050H
	DB	08cH
	DB	021H
CONST	ENDS
;	COMDAT _IID_ID3DX11EffectGroup
CONST	SEGMENT
_IID_ID3DX11EffectGroup DD 03074acfH
	DW	097deH
	DW	0485fH
	DB	0b2H
	DB	01H
	DB	0cbH
	DB	077H
	DB	052H
	DB	064H
	DB	0afH
	DB	0d6H
CONST	ENDS
;	COMDAT _IID_ID3DX11EffectInterfaceVariable
CONST	SEGMENT
_IID_ID3DX11EffectInterfaceVariable DD 0516c8cd8H
	DW	01c80H
	DW	040a4H
	DB	0b1H
	DB	09bH
	DB	06H
	DB	088H
	DB	079H
	DB	02fH
	DB	011H
	DB	0a5H
CONST	ENDS
;	COMDAT ??_C@_0M@LNIFNHGE@BlendEnable?$AA@
CONST	SEGMENT
??_C@_0M@LNIFNHGE@BlendEnable?$AA@ DB 'BlendEnable', 00H ; `string'
CONST	ENDS
;	COMDAT ??_C@_0BG@COOKFDEE@AlphaToCoverageEnable?$AA@
CONST	SEGMENT
??_C@_0BG@COOKFDEE@AlphaToCoverageEnable?$AA@ DB 'AlphaToCoverageEnable', 00H ; `string'
CONST	ENDS
;	COMDAT _IID_ID3DX11EffectTechnique
CONST	SEGMENT
_IID_ID3DX11EffectTechnique DD 051198831H
	DW	01f1dH
	DW	04f47H
	DB	0bdH
	DB	076H
	DB	041H
	DB	0cbH
	DB	08H
	DB	035H
	DB	0b1H
	DB	0deH
CONST	ENDS
;	COMDAT ??_C@_0BE@DNMECMJ@BackFaceStencilFunc?$AA@
CONST	SEGMENT
??_C@_0BE@DNMECMJ@BackFaceStencilFunc?$AA@ DB 'BackFaceStencilFunc', 00H ; `string'
CONST	ENDS
;	COMDAT ??_C@_0BE@GNDLMCFB@BackFaceStencilPass?$AA@
CONST	SEGMENT
??_C@_0BE@GNDLMCFB@BackFaceStencilPass?$AA@ DB 'BackFaceStencilPass', 00H ; `string'
CONST	ENDS
;	COMDAT ??_C@_0BJ@CHBLPCCC@BackFaceStencilDepthFail?$AA@
CONST	SEGMENT
??_C@_0BJ@CHBLPCCC@BackFaceStencilDepthFail?$AA@ DB 'BackFaceStencilDepth'
	DB	'Fail', 00H					; `string'
CONST	ENDS
;	COMDAT ??_C@_0BE@FOHAIIEL@BackFaceStencilFail?$AA@
CONST	SEGMENT
??_C@_0BE@FOHAIIEL@BackFaceStencilFail?$AA@ DB 'BackFaceStencilFail', 00H ; `string'
CONST	ENDS
;	COMDAT ??_C@_0BF@DOONMAD@FrontFaceStencilFunc?$AA@
CONST	SEGMENT
??_C@_0BF@DOONMAD@FrontFaceStencilFunc?$AA@ DB 'FrontFaceStencilFunc', 00H ; `string'
CONST	ENDS
;	COMDAT ??_C@_0BF@GNAJFMJL@FrontFaceStencilPass?$AA@
CONST	SEGMENT
??_C@_0BF@GNAJFMJL@FrontFaceStencilPass?$AA@ DB 'FrontFaceStencilPass', 00H ; `string'
CONST	ENDS
;	COMDAT ??_C@_0BK@POMOKFDB@FrontFaceStencilDepthFail?$AA@
CONST	SEGMENT
??_C@_0BK@POMOKFDB@FrontFaceStencilDepthFail?$AA@ DB 'FrontFaceStencilDep'
	DB	'thFail', 00H				; `string'
CONST	ENDS
;	COMDAT ??_C@_0BF@FOECBGIB@FrontFaceStencilFail?$AA@
CONST	SEGMENT
??_C@_0BF@FOECBGIB@FrontFaceStencilFail?$AA@ DB 'FrontFaceStencilFail', 00H ; `string'
CONST	ENDS
;	COMDAT ??_C@_0BB@LHFJFMDO@StencilWriteMask?$AA@
CONST	SEGMENT
??_C@_0BB@LHFJFMDO@StencilWriteMask?$AA@ DB 'StencilWriteMask', 00H ; `string'
CONST	ENDS
;	COMDAT ??_C@_0BA@LEFMBHCL@StencilReadMask?$AA@
CONST	SEGMENT
??_C@_0BA@LEFMBHCL@StencilReadMask?$AA@ DB 'StencilReadMask', 00H ; `string'
CONST	ENDS
;	COMDAT ??_C@_0O@LIJDBNBF@StencilEnable?$AA@
CONST	SEGMENT
??_C@_0O@LIJDBNBF@StencilEnable?$AA@ DB 'StencilEnable', 00H ; `string'
CONST	ENDS
;	COMDAT ??_C@_09EKMLDPCO@DepthFunc?$AA@
CONST	SEGMENT
??_C@_09EKMLDPCO@DepthFunc?$AA@ DB 'DepthFunc', 00H	; `string'
CONST	ENDS
;	COMDAT ??_C@_0P@OOBKHNOI@DepthWriteMask?$AA@
CONST	SEGMENT
??_C@_0P@OOBKHNOI@DepthWriteMask?$AA@ DB 'DepthWriteMask', 00H ; `string'
CONST	ENDS
;	COMDAT ??_C@_0M@IGDDNLAN@DepthEnable?$AA@
CONST	SEGMENT
??_C@_0M@IGDDNLAN@DepthEnable?$AA@ DB 'DepthEnable', 00H ; `string'
CONST	ENDS
;	COMDAT ??_C@_0BG@OEFGIGEF@AntialiasedLineEnable?$AA@
CONST	SEGMENT
??_C@_0BG@OEFGIGEF@AntialiasedLineEnable?$AA@ DB 'AntialiasedLineEnable', 00H ; `string'
CONST	ENDS
;	COMDAT ??_C@_0BC@MCHLHGON@MultisampleEnable?$AA@
CONST	SEGMENT
??_C@_0BC@MCHLHGON@MultisampleEnable?$AA@ DB 'MultisampleEnable', 00H ; `string'
CONST	ENDS
;	COMDAT ??_C@_0O@CMAKKCKB@ScissorEnable?$AA@
CONST	SEGMENT
??_C@_0O@CMAKKCKB@ScissorEnable?$AA@ DB 'ScissorEnable', 00H ; `string'
CONST	ENDS
;	COMDAT ??_C@_0BA@LGNIIPEG@DepthClipEnable?$AA@
CONST	SEGMENT
??_C@_0BA@LGNIIPEG@DepthClipEnable?$AA@ DB 'DepthClipEnable', 00H ; `string'
CONST	ENDS
;	COMDAT ??_C@_0BF@HPDIBKDM@SlopeScaledDepthBias?$AA@
CONST	SEGMENT
??_C@_0BF@HPDIBKDM@SlopeScaledDepthBias?$AA@ DB 'SlopeScaledDepthBias', 00H ; `string'
CONST	ENDS
;	COMDAT ??_C@_0P@IFJAGLKM@DepthBiasClamp?$AA@
CONST	SEGMENT
??_C@_0P@IFJAGLKM@DepthBiasClamp?$AA@ DB 'DepthBiasClamp', 00H ; `string'
CONST	ENDS
;	COMDAT ??_C@_09OEBKCEKF@DepthBias?$AA@
CONST	SEGMENT
??_C@_09OEBKCEKF@DepthBias?$AA@ DB 'DepthBias', 00H	; `string'
CONST	ENDS
;	COMDAT ??_C@_0BG@LHEPJHBL@FrontCounterClockwise?$AA@
CONST	SEGMENT
??_C@_0BG@LHEPJHBL@FrontCounterClockwise?$AA@ DB 'FrontCounterClockwise', 00H ; `string'
CONST	ENDS
;	COMDAT ??_C@_08LNALCFGE@CullMode?$AA@
CONST	SEGMENT
??_C@_08LNALCFGE@CullMode?$AA@ DB 'CullMode', 00H	; `string'
CONST	ENDS
;	COMDAT ??_C@_08NMIIEEEP@FillMode?$AA@
CONST	SEGMENT
??_C@_08NMIIEEEP@FillMode?$AA@ DB 'FillMode', 00H	; `string'
CONST	ENDS
;	COMDAT ??_C@_0O@FIKBICKJ@AB_SampleMask?$AA@
CONST	SEGMENT
??_C@_0O@FIKBICKJ@AB_SampleMask?$AA@ DB 'AB_SampleMask', 00H ; `string'
CONST	ENDS
;	COMDAT ??_C@_0P@CEGHKKMF@AB_BlendFactor?$AA@
CONST	SEGMENT
??_C@_0P@CEGHKKMF@AB_BlendFactor?$AA@ DB 'AB_BlendFactor', 00H ; `string'
CONST	ENDS
;	COMDAT ??_C@_0O@JEENBINA@DS_StencilRef?$AA@
CONST	SEGMENT
??_C@_0O@JEENBINA@DS_StencilRef?$AA@ DB 'DS_StencilRef', 00H ; `string'
CONST	ENDS
;	COMDAT ??_C@_0P@OICECHMN@GeometryShader?$AA@
CONST	SEGMENT
??_C@_0P@OICECHMN@GeometryShader?$AA@ DB 'GeometryShader', 00H ; `string'
CONST	ENDS
;	COMDAT ??_C@_0M@FCHPCNFJ@PixelShader?$AA@
CONST	SEGMENT
??_C@_0M@FCHPCNFJ@PixelShader?$AA@ DB 'PixelShader', 00H ; `string'
CONST	ENDS
;	COMDAT ??_C@_0N@GMCBJINM@VertexShader?$AA@
CONST	SEGMENT
??_C@_0N@GMCBJINM@VertexShader?$AA@ DB 'VertexShader', 00H ; `string'
CONST	ENDS
;	COMDAT ??_C@_0N@IBEMAACP@GenerateMips?$AA@
CONST	SEGMENT
??_C@_0N@IBEMAACP@GenerateMips?$AA@ DB 'GenerateMips', 00H ; `string'
CONST	ENDS
;	COMDAT ??_C@_0BB@LMDLMKPB@DepthStencilView?$AA@
CONST	SEGMENT
??_C@_0BB@LMDLMKPB@DepthStencilView?$AA@ DB 'DepthStencilView', 00H ; `string'
CONST	ENDS
;	COMDAT ??_C@_0BB@GOKJNCIL@RenderTargetView?$AA@
CONST	SEGMENT
??_C@_0BB@GOKJNCIL@RenderTargetView?$AA@ DB 'RenderTargetView', 00H ; `string'
CONST	ENDS
;	COMDAT ??_C@_0L@DDELOHAJ@BlendState?$AA@
CONST	SEGMENT
??_C@_0L@DDELOHAJ@BlendState?$AA@ DB 'BlendState', 00H	; `string'
CONST	ENDS
;	COMDAT _IID_ID3DX11EffectClassInstanceVariable
CONST	SEGMENT
_IID_ID3DX11EffectClassInstanceVariable DD 0926a8053H
	DW	02a39H
	DW	04db4H
	DB	09bH
	DB	0deH
	DB	0cfH
	DB	064H
	DB	09aH
	DB	0deH
	DB	0bdH
	DB	0c1H
CONST	ENDS
;	COMDAT ??_C@_0BC@JHBFINCM@DepthStencilState?$AA@
CONST	SEGMENT
??_C@_0BC@JHBFINCM@DepthStencilState?$AA@ DB 'DepthStencilState', 00H ; `string'
CONST	ENDS
;	COMDAT ??_C@_0BA@LIKHENHC@RasterizerState?$AA@
CONST	SEGMENT
??_C@_0BA@LIKHENHC@RasterizerState?$AA@ DB 'RasterizerState', 00H ; `string'
CONST	ENDS
;	COMDAT _IID_ID3DX11EffectPass
CONST	SEGMENT
_IID_ID3DX11EffectPass DD 03437cec4H
	DW	04ac1H
	DW	04d87H
	DB	089H
	DB	016H
	DB	0f4H
	DB	0bdH
	DB	05aH
	DB	041H
	DB	038H
	DB	0cH
CONST	ENDS
;	COMDAT _IID_ID3DX11EffectStringVariable
CONST	SEGMENT
_IID_ID3DX11EffectStringVariable DD 0f355c818H
	DW	01beH
	DW	04653H
	DB	0a7H
	DB	0ccH
	DB	060H
	DB	0ffH
	DB	0feH
	DB	0ddH
	DB	0c7H
	DB	06dH
CONST	ENDS
;	COMDAT _IID_ID3DX11EffectSamplerVariable
CONST	SEGMENT
_IID_ID3DX11EffectSamplerVariable DD 0c6402e55H
	DW	01095H
	DW	04d95H
	DB	089H
	DB	031H
	DB	0f9H
	DB	026H
	DB	060H
	DB	051H
	DB	03dH
	DB	0d9H
CONST	ENDS
;	COMDAT ?c_RegisterSize@SType@D3DX11Effects@@2IB
CONST	SEGMENT
?c_RegisterSize@SType@D3DX11Effects@@2IB DD 010H	; D3DX11Effects::SType::c_RegisterSize
CONST	ENDS
;	COMDAT ?c_ScalarsPerRegister@SType@D3DX11Effects@@2IB
CONST	SEGMENT
?c_ScalarsPerRegister@SType@D3DX11Effects@@2IB DD 04H	; D3DX11Effects::SType::c_ScalarsPerRegister
CONST	ENDS
;	COMDAT ?c_ScalarSize@SType@D3DX11Effects@@2IB
CONST	SEGMENT
?c_ScalarSize@SType@D3DX11Effects@@2IB DD 04H		; D3DX11Effects::SType::c_ScalarSize
CONST	ENDS
;	COMDAT ?c_InvalidIndex@SType@D3DX11Effects@@2IB
CONST	SEGMENT
?c_InvalidIndex@SType@D3DX11Effects@@2IB DD 0ffffffffH	; D3DX11Effects::SType::c_InvalidIndex
CONST	ENDS
;	COMDAT _IID_ID3DX11EffectMatrixVariable
CONST	SEGMENT
_IID_ID3DX11EffectMatrixVariable DD 0e1096cf4H
	DW	0c027H
	DW	0419aH
	DB	08dH
	DB	086H
	DB	0d2H
	DB	091H
	DB	073H
	DB	0dcH
	DB	080H
	DB	03eH
CONST	ENDS
;	COMDAT _IID_ID3DX11EffectRasterizerVariable
CONST	SEGMENT
_IID_ID3DX11EffectRasterizerVariable DD 053a262f6H
	DW	05f74H
	DW	04151H
	DB	0a1H
	DB	032H
	DB	0e3H
	DB	0ddH
	DB	019H
	DB	0a6H
	DB	02cH
	DB	09dH
CONST	ENDS
;	COMDAT _IID_ID3DX11EffectVectorVariable
CONST	SEGMENT
_IID_ID3DX11EffectVectorVariable DD 05e785d4aH
	DW	0d87bH
	DW	048d8H
	DB	0b6H
	DB	0e6H
	DB	0fH
	DB	08cH
	DB	0a7H
	DB	0e7H
	DB	046H
	DB	07aH
CONST	ENDS
;	COMDAT _IID_ID3DX11EffectDepthStencilVariable
CONST	SEGMENT
_IID_ID3DX11EffectDepthStencilVariable DD 069b5751bH
	DW	061a5H
	DW	048e5H
	DB	0bdH
	DB	041H
	DB	0d9H
	DB	039H
	DB	088H
	DB	011H
	DB	015H
	DB	063H
CONST	ENDS
;	COMDAT ??_C@_03LEPPJAKI@MAX?$AA@
CONST	SEGMENT
??_C@_03LEPPJAKI@MAX?$AA@ DB 'MAX', 00H			; `string'
CONST	ENDS
;	COMDAT ??_C@_03KGHEHEMH@MIN?$AA@
CONST	SEGMENT
??_C@_03KGHEHEMH@MIN?$AA@ DB 'MIN', 00H			; `string'
CONST	ENDS
;	COMDAT ??_C@_0N@DGGLJHJP@REV_SUBTRACT?$AA@
CONST	SEGMENT
??_C@_0N@DGGLJHJP@REV_SUBTRACT?$AA@ DB 'REV_SUBTRACT', 00H ; `string'
CONST	ENDS
;	COMDAT ??_C@_08MGBEENML@SUBTRACT?$AA@
CONST	SEGMENT
??_C@_08MGBEENML@SUBTRACT?$AA@ DB 'SUBTRACT', 00H	; `string'
CONST	ENDS
;	COMDAT ??_C@_03BOJFLAKG@ADD?$AA@
CONST	SEGMENT
??_C@_03BOJFLAKG@ADD?$AA@ DB 'ADD', 00H			; `string'
CONST	ENDS
;	COMDAT ??_C@_04MCDFFCCL@DECR?$AA@
CONST	SEGMENT
??_C@_04MCDFFCCL@DECR?$AA@ DB 'DECR', 00H		; `string'
CONST	ENDS
;	COMDAT ??_C@_04ONKEBBJL@INCR?$AA@
CONST	SEGMENT
??_C@_04ONKEBBJL@INCR?$AA@ DB 'INCR', 00H		; `string'
CONST	ENDS
;	COMDAT ??_C@_06CMCEILNN@INVERT?$AA@
CONST	SEGMENT
??_C@_06CMCEILNN@INVERT?$AA@ DB 'INVERT', 00H		; `string'
CONST	ENDS
;	COMDAT ??_C@_08DCEDEDK@DECR_SAT?$AA@
CONST	SEGMENT
??_C@_08DCEDEDK@DECR_SAT?$AA@ DB 'DECR_SAT', 00H	; `string'
CONST	ENDS
;	COMDAT ??_C@_08KPABMPDL@INCR_SAT?$AA@
CONST	SEGMENT
??_C@_08KPABMPDL@INCR_SAT?$AA@ DB 'INCR_SAT', 00H	; `string'
CONST	ENDS
;	COMDAT ??_C@_07NGBKIEMN@REPLACE?$AA@
CONST	SEGMENT
??_C@_07NGBKIEMN@REPLACE?$AA@ DB 'REPLACE', 00H		; `string'
CONST	ENDS
;	COMDAT ??_C@_04HGNONLMK@KEEP?$AA@
CONST	SEGMENT
??_C@_04HGNONLMK@KEEP?$AA@ DB 'KEEP', 00H		; `string'
CONST	ENDS
;	COMDAT ??_C@_06KDBFKDHA@ALWAYS?$AA@
CONST	SEGMENT
??_C@_06KDBFKDHA@ALWAYS?$AA@ DB 'ALWAYS', 00H		; `string'
CONST	ENDS
;	COMDAT ??_C@_0O@LBCFDHKJ@GREATER_EQUAL?$AA@
CONST	SEGMENT
??_C@_0O@LBCFDHKJ@GREATER_EQUAL?$AA@ DB 'GREATER_EQUAL', 00H ; `string'
CONST	ENDS
;	COMDAT ??_C@_09BCHNGNOE@NOT_EQUAL?$AA@
CONST	SEGMENT
??_C@_09BCHNGNOE@NOT_EQUAL?$AA@ DB 'NOT_EQUAL', 00H	; `string'
CONST	ENDS
;	COMDAT ??_C@_07INHKBBNC@GREATER?$AA@
CONST	SEGMENT
??_C@_07INHKBBNC@GREATER?$AA@ DB 'GREATER', 00H		; `string'
CONST	ENDS
;	COMDAT ??_C@_0L@POPDHMNN@LESS_EQUAL?$AA@
CONST	SEGMENT
??_C@_0L@POPDHMNN@LESS_EQUAL?$AA@ DB 'LESS_EQUAL', 00H	; `string'
CONST	ENDS
;	COMDAT ??_C@_05MFJMDLJG@EQUAL?$AA@
CONST	SEGMENT
??_C@_05MFJMDLJG@EQUAL?$AA@ DB 'EQUAL', 00H		; `string'
CONST	ENDS
;	COMDAT ??_C@_04PHHIILNL@LESS?$AA@
CONST	SEGMENT
??_C@_04PHHIILNL@LESS?$AA@ DB 'LESS', 00H		; `string'
CONST	ENDS
;	COMDAT ??_C@_05PLMGMCPK@NEVER?$AA@
CONST	SEGMENT
??_C@_05PLMGMCPK@NEVER?$AA@ DB 'NEVER', 00H		; `string'
CONST	ENDS
;	COMDAT ??_C@_04FJBHJJME@BACK?$AA@
CONST	SEGMENT
??_C@_04FJBHJJME@BACK?$AA@ DB 'BACK', 00H		; `string'
CONST	ENDS
;	COMDAT ??_C@_05LCELFLHH@FRONT?$AA@
CONST	SEGMENT
??_C@_05LCELFLHH@FRONT?$AA@ DB 'FRONT', 00H		; `string'
CONST	ENDS
;	COMDAT ??_C@_04OKGDLNCL@NONE?$AA@
CONST	SEGMENT
??_C@_04OKGDLNCL@NONE?$AA@ DB 'NONE', 00H		; `string'
CONST	ENDS
;	COMDAT ??_C@_0M@IBDDGNND@MIRROR_ONCE?$AA@
CONST	SEGMENT
??_C@_0M@IBDDGNND@MIRROR_ONCE?$AA@ DB 'MIRROR_ONCE', 00H ; `string'
CONST	ENDS
;	COMDAT ??_C@_06OHHANPFE@BORDER?$AA@
CONST	SEGMENT
??_C@_06OHHANPFE@BORDER?$AA@ DB 'BORDER', 00H		; `string'
CONST	ENDS
;	COMDAT ??_C@_06LPIEMBDF@MIRROR?$AA@
CONST	SEGMENT
??_C@_06LPIEMBDF@MIRROR?$AA@ DB 'MIRROR', 00H		; `string'
CONST	ENDS
;	COMDAT ??_C@_04BJAJGGLD@WRAP?$AA@
CONST	SEGMENT
??_C@_04BJAJGGLD@WRAP?$AA@ DB 'WRAP', 00H		; `string'
CONST	ENDS
;	COMDAT ??_C@_05LLKDOPEJ@CLAMP?$AA@
CONST	SEGMENT
??_C@_05LLKDOPEJ@CLAMP?$AA@ DB 'CLAMP', 00H		; `string'
CONST	ENDS
;	COMDAT ??_C@_0P@NLLOMGJK@INV_SRC1_ALPHA?$AA@
CONST	SEGMENT
??_C@_0P@NLLOMGJK@INV_SRC1_ALPHA?$AA@ DB 'INV_SRC1_ALPHA', 00H ; `string'
CONST	ENDS
;	COMDAT ??_C@_0L@LGMBJHCD@SRC1_ALPHA?$AA@
CONST	SEGMENT
??_C@_0L@LGMBJHCD@SRC1_ALPHA?$AA@ DB 'SRC1_ALPHA', 00H	; `string'
CONST	ENDS
;	COMDAT ??_C@_0P@KPLJKCHB@INV_SRC1_COLOR?$AA@
CONST	SEGMENT
??_C@_0P@KPLJKCHB@INV_SRC1_COLOR?$AA@ DB 'INV_SRC1_COLOR', 00H ; `string'
CONST	ENDS
;	COMDAT ??_C@_0L@MCMGPDMI@SRC1_COLOR?$AA@
CONST	SEGMENT
??_C@_0L@MCMGPDMI@SRC1_COLOR?$AA@ DB 'SRC1_COLOR', 00H	; `string'
CONST	ENDS
;	COMDAT ??_C@_0BB@FCOEJJBC@INV_BLEND_FACTOR?$AA@
CONST	SEGMENT
??_C@_0BB@FCOEJJBC@INV_BLEND_FACTOR?$AA@ DB 'INV_BLEND_FACTOR', 00H ; `string'
CONST	ENDS
;	COMDAT ??_C@_0N@HLIPIAPO@BLEND_FACTOR?$AA@
CONST	SEGMENT
??_C@_0N@HLIPIAPO@BLEND_FACTOR?$AA@ DB 'BLEND_FACTOR', 00H ; `string'
CONST	ENDS
;	COMDAT ??_C@_0O@NDCPKMML@SRC_ALPHA_SAT?$AA@
CONST	SEGMENT
??_C@_0O@NDCPKMML@SRC_ALPHA_SAT?$AA@ DB 'SRC_ALPHA_SAT', 00H ; `string'
CONST	ENDS
;	COMDAT ??_C@_0P@NJMNAFAG@INV_DEST_COLOR?$AA@
CONST	SEGMENT
??_C@_0P@NJMNAFAG@INV_DEST_COLOR?$AA@ DB 'INV_DEST_COLOR', 00H ; `string'
CONST	ENDS
;	COMDAT ??_C@_0L@LELCFELP@DEST_COLOR?$AA@
CONST	SEGMENT
??_C@_0L@LELCFELP@DEST_COLOR?$AA@ DB 'DEST_COLOR', 00H	; `string'
CONST	ENDS
;	COMDAT ??_C@_0P@KNMKGBON@INV_DEST_ALPHA?$AA@
CONST	SEGMENT
??_C@_0P@KNMKGBON@INV_DEST_ALPHA?$AA@ DB 'INV_DEST_ALPHA', 00H ; `string'
CONST	ENDS
;	COMDAT ??_C@_0L@MALFDAFE@DEST_ALPHA?$AA@
CONST	SEGMENT
??_C@_0L@MALFDAFE@DEST_ALPHA?$AA@ DB 'DEST_ALPHA', 00H	; `string'
CONST	ENDS
;	COMDAT ??_C@_0O@MHCJAMGI@INV_SRC_ALPHA?$AA@
CONST	SEGMENT
??_C@_0O@MHCJAMGI@INV_SRC_ALPHA?$AA@ DB 'INV_SRC_ALPHA', 00H ; `string'
CONST	ENDS
;	COMDAT ??_C@_09GFJMFOHN@SRC_ALPHA?$AA@
CONST	SEGMENT
??_C@_09GFJMFOHN@SRC_ALPHA?$AA@ DB 'SRC_ALPHA', 00H	; `string'
CONST	ENDS
;	COMDAT ??_C@_0O@LDCOGIID@INV_SRC_COLOR?$AA@
CONST	SEGMENT
??_C@_0O@LDCOGIID@INV_SRC_COLOR?$AA@ DB 'INV_SRC_COLOR', 00H ; `string'
CONST	ENDS
;	COMDAT ??_C@_09BBJLDKJG@SRC_COLOR?$AA@
CONST	SEGMENT
??_C@_09BBJLDKJG@SRC_COLOR?$AA@ DB 'SRC_COLOR', 00H	; `string'
CONST	ENDS
;	COMDAT ??_C@_03OKMGHDAC@ONE?$AA@
CONST	SEGMENT
??_C@_03OKMGHDAC@ONE?$AA@ DB 'ONE', 00H			; `string'
CONST	ENDS
CONST	SEGMENT
_g_rvBLEND DD	FLAT:??_C@_04PPGNNOJD@ZERO?$AA@
	DD	01H
	DD	FLAT:??_C@_03OKMGHDAC@ONE?$AA@
	DD	02H
	DD	FLAT:??_C@_09BBJLDKJG@SRC_COLOR?$AA@
	DD	03H
	DD	FLAT:??_C@_0O@LDCOGIID@INV_SRC_COLOR?$AA@
	DD	04H
	DD	FLAT:??_C@_09GFJMFOHN@SRC_ALPHA?$AA@
	DD	05H
	DD	FLAT:??_C@_0O@MHCJAMGI@INV_SRC_ALPHA?$AA@
	DD	06H
	DD	FLAT:??_C@_0L@MALFDAFE@DEST_ALPHA?$AA@
	DD	07H
	DD	FLAT:??_C@_0P@KNMKGBON@INV_DEST_ALPHA?$AA@
	DD	08H
	DD	FLAT:??_C@_0L@LELCFELP@DEST_COLOR?$AA@
	DD	09H
	DD	FLAT:??_C@_0P@NJMNAFAG@INV_DEST_COLOR?$AA@
	DD	0aH
	DD	FLAT:??_C@_0O@NDCPKMML@SRC_ALPHA_SAT?$AA@
	DD	0bH
	DD	FLAT:??_C@_0N@HLIPIAPO@BLEND_FACTOR?$AA@
	DD	0eH
	DD	FLAT:??_C@_0BB@FCOEJJBC@INV_BLEND_FACTOR?$AA@
	DD	0fH
	DD	FLAT:??_C@_0L@MCMGPDMI@SRC1_COLOR?$AA@
	DD	010H
	DD	FLAT:??_C@_0P@KPLJKCHB@INV_SRC1_COLOR?$AA@
	DD	011H
	DD	FLAT:??_C@_0L@LGMBJHCD@SRC1_ALPHA?$AA@
	DD	012H
	DD	FLAT:??_C@_0P@NLLOMGJK@INV_SRC1_ALPHA?$AA@
	DD	013H
	DD	00H
	DD	00H
_g_rvTADDRESS DD FLAT:??_C@_05LLKDOPEJ@CLAMP?$AA@
	DD	03H
	DD	FLAT:??_C@_04BJAJGGLD@WRAP?$AA@
	DD	01H
	DD	FLAT:??_C@_06LPIEMBDF@MIRROR?$AA@
	DD	02H
	DD	FLAT:??_C@_06OHHANPFE@BORDER?$AA@
	DD	04H
	DD	FLAT:??_C@_0M@IBDDGNND@MIRROR_ONCE?$AA@
	DD	05H
	DD	00H
	DD	00H
_g_rvCULL DD	FLAT:??_C@_04OKGDLNCL@NONE?$AA@
	DD	01H
	DD	FLAT:??_C@_05LCELFLHH@FRONT?$AA@
	DD	02H
	DD	FLAT:??_C@_04FJBHJJME@BACK?$AA@
	DD	03H
	DD	00H
	DD	00H
_g_rvCMP DD	FLAT:??_C@_05PLMGMCPK@NEVER?$AA@
	DD	01H
	DD	FLAT:??_C@_04PHHIILNL@LESS?$AA@
	DD	02H
	DD	FLAT:??_C@_05MFJMDLJG@EQUAL?$AA@
	DD	03H
	DD	FLAT:??_C@_0L@POPDHMNN@LESS_EQUAL?$AA@
	DD	04H
	DD	FLAT:??_C@_07INHKBBNC@GREATER?$AA@
	DD	05H
	DD	FLAT:??_C@_09BCHNGNOE@NOT_EQUAL?$AA@
	DD	06H
	DD	FLAT:??_C@_0O@LBCFDHKJ@GREATER_EQUAL?$AA@
	DD	07H
	DD	FLAT:??_C@_06KDBFKDHA@ALWAYS?$AA@
	DD	08H
	DD	00H
	DD	00H
_g_rvSTENCILOP DD FLAT:??_C@_04HGNONLMK@KEEP?$AA@
	DD	01H
	DD	FLAT:??_C@_04PPGNNOJD@ZERO?$AA@
	DD	02H
	DD	FLAT:??_C@_07NGBKIEMN@REPLACE?$AA@
	DD	03H
	DD	FLAT:??_C@_08KPABMPDL@INCR_SAT?$AA@
	DD	04H
	DD	FLAT:??_C@_08DCEDEDK@DECR_SAT?$AA@
	DD	05H
	DD	FLAT:??_C@_06CMCEILNN@INVERT?$AA@
	DD	06H
	DD	FLAT:??_C@_04ONKEBBJL@INCR?$AA@
	DD	07H
	DD	FLAT:??_C@_04MCDFFCCL@DECR?$AA@
	DD	08H
	DD	00H
	DD	00H
_g_rvBLENDOP DD	FLAT:??_C@_03BOJFLAKG@ADD?$AA@
	DD	01H
	DD	FLAT:??_C@_08MGBEENML@SUBTRACT?$AA@
	DD	02H
	DD	FLAT:??_C@_0N@DGGLJHJP@REV_SUBTRACT?$AA@
	DD	03H
	DD	FLAT:??_C@_03KGHEHEMH@MIN?$AA@
	DD	04H
	DD	FLAT:??_C@_03LEPPJAKI@MAX?$AA@
	DD	05H
	DD	00H
	DD	00H
?g_lvGeneralCount@D3DX11Effects@@3IB DD 03bH		; D3DX11Effects::g_lvGeneralCount
_g_EffectVersions DD FLAT:??_C@_06BACILOGA@fx_4_0?$AA@
	DD	046580400H
	DD	0feff1001H
	DD	FLAT:??_C@_06JDDIPCB@fx_4_1?$AA@
	DD	046580401H
	DD	0feff1011H
	DD	FLAT:??_C@_06KIJENJAF@fx_5_0?$AA@
	DD	046580500H
	DD	0feff2001H
_c_PrimeSizes DD 0bH
	DD	017H
	DD	035H
	DD	061H
	DD	0c1H
	DD	0185H
	DD	0301H
	DD	0607H
	DD	0c07H
	DD	01807H
	DD	03001H
	DD	06011H
	DD	0c005H
	DD	01800dH
	DD	030005H
	DD	060019H
	DD	0c0001H
	DD	0180005H
	DD	030000bH
	DD	060000dH
	DD	0c00005H
	DD	01800013H
	DD	03000005H
	DD	06000017H
	DD	0c000013H
	DD	018000005H
	DD	030000059H
	DD	060000005H
_g_rvNULL DD	FLAT:??_C@_04HIBGFPH@NULL?$AA@
	DD	00H
	DD	00H
	DD	00H
_g_rvBOOL DD	FLAT:??_C@_05MAJJAKPI@FALSE?$AA@
	DD	00H
	DD	FLAT:??_C@_04HCDDPBNL@TRUE?$AA@
	DD	01H
	DD	00H
	DD	00H
_g_rvDEPTH_WRITE_MASK DD FLAT:??_C@_04PPGNNOJD@ZERO?$AA@
	DD	00H
	DD	FLAT:??_C@_03NIFPGLBG@ALL?$AA@
	DD	01H
	DD	00H
	DD	00H
_g_rvFILL DD	FLAT:??_C@_09HJIKPONA@WIREFRAME?$AA@
	DD	02H
	DD	FLAT:??_C@_05CEBIDAFG@SOLID?$AA@
	DD	03H
	DD	00H
	DD	00H
_g_rvFILTER DD	FLAT:??_C@_0BC@NBGEKGB@MIN_MAG_MIP_POINT?$AA@
	DD	00H
	DD	FLAT:??_C@_0BJ@FHHFFPEN@MIN_MAG_POINT_MIP_LINEAR?$AA@
	DD	01H
	DD	FLAT:??_C@_0BP@GPKFBPIB@MIN_POINT_MAG_LINEAR_MIP_POINT?$AA@
	DD	04H
	DD	FLAT:??_C@_0BJ@LIDOHGCK@MIN_POINT_MAG_MIP_LINEAR?$AA@
	DD	05H
	DD	FLAT:??_C@_0BJ@PCDFIDK@MIN_LINEAR_MAG_MIP_POINT?$AA@
	DD	010H
	DD	FLAT:??_C@_0CA@PLHBLOON@MIN_LINEAR_MAG_POINT_MIP_LINEAR?$AA@
	DD	011H
	DD	FLAT:??_C@_0BJ@BLHOHPBA@MIN_MAG_LINEAR_MIP_POINT?$AA@
	DD	014H
	DD	FLAT:??_C@_0BD@LLNOFHHP@MIN_MAG_MIP_LINEAR?$AA@
	DD	015H
	DD	FLAT:??_C@_0M@FBHCHPJF@ANISOTROPIC?$AA@
	DD	055H
	DD	FLAT:??_C@_0BN@EJHCGLM@COMPARISON_MIN_MAG_MIP_POINT?$AA@
	DD	080H
	DD	FLAT:??_C@_0CE@BDNJCEEB@COMPARISON_MIN_MAG_POINT_MIP_LIN@
	DD	081H
	DD	FLAT:??_C@_0CK@OGELINIF@COMPARISON_MIN_POINT_MAG_LINEAR_@
	DD	084H
	DD	FLAT:??_C@_0CE@PMJCANCG@COMPARISON_MIN_POINT_MAG_MIP_LIN@
	DD	085H
	DD	FLAT:??_C@_0CE@ELIPCDDG@COMPARISON_MIN_LINEAR_MAG_MIP_PO@
	DD	090H
	DD	FLAT:??_C@_0CL@PMJFJEGG@COMPARISON_MIN_LINEAR_MAG_POINT_@
	DD	091H
	DD	FLAT:??_C@_0CE@FPNCAEBM@COMPARISON_MIN_MAG_LINEAR_MIP_PO@
	DD	094H
	DD	FLAT:??_C@_0BO@EDLFHIHK@COMPARISON_MIN_MAG_MIP_LINEAR?$AA@
	DD	095H
	DD	FLAT:??_C@_0BH@FICIAAEE@COMPARISON_ANISOTROPIC?$AA@
	DD	0d5H
	DD	FLAT:??_C@_09JIMOEHJJ@TEXT_1BIT?$AA@
	DD	080000000H
	DD	00H
	DD	00H
CONST	ENDS
;	COMDAT ??_C@_09JIMOEHJJ@TEXT_1BIT?$AA@
CONST	SEGMENT
??_C@_09JIMOEHJJ@TEXT_1BIT?$AA@ DB 'TEXT_1BIT', 00H	; `string'
CONST	ENDS
;	COMDAT ??_C@_0BH@FICIAAEE@COMPARISON_ANISOTROPIC?$AA@
CONST	SEGMENT
??_C@_0BH@FICIAAEE@COMPARISON_ANISOTROPIC?$AA@ DB 'COMPARISON_ANISOTROPIC'
	DB	00H						; `string'
CONST	ENDS
;	COMDAT ??_C@_0BO@EDLFHIHK@COMPARISON_MIN_MAG_MIP_LINEAR?$AA@
CONST	SEGMENT
??_C@_0BO@EDLFHIHK@COMPARISON_MIN_MAG_MIP_LINEAR?$AA@ DB 'COMPARISON_MIN_'
	DB	'MAG_MIP_LINEAR', 00H			; `string'
CONST	ENDS
;	COMDAT ??_C@_0CE@FPNCAEBM@COMPARISON_MIN_MAG_LINEAR_MIP_PO@
CONST	SEGMENT
??_C@_0CE@FPNCAEBM@COMPARISON_MIN_MAG_LINEAR_MIP_PO@ DB 'COMPARISON_MIN_M'
	DB	'AG_LINEAR_MIP_POINT', 00H			; `string'
CONST	ENDS
;	COMDAT ??_C@_0CL@PMJFJEGG@COMPARISON_MIN_LINEAR_MAG_POINT_@
CONST	SEGMENT
??_C@_0CL@PMJFJEGG@COMPARISON_MIN_LINEAR_MAG_POINT_@ DB 'COMPARISON_MIN_L'
	DB	'INEAR_MAG_POINT_MIP_LINEAR', 00H		; `string'
CONST	ENDS
;	COMDAT ??_C@_0CE@ELIPCDDG@COMPARISON_MIN_LINEAR_MAG_MIP_PO@
CONST	SEGMENT
??_C@_0CE@ELIPCDDG@COMPARISON_MIN_LINEAR_MAG_MIP_PO@ DB 'COMPARISON_MIN_L'
	DB	'INEAR_MAG_MIP_POINT', 00H			; `string'
CONST	ENDS
;	COMDAT ??_C@_0CE@PMJCANCG@COMPARISON_MIN_POINT_MAG_MIP_LIN@
CONST	SEGMENT
??_C@_0CE@PMJCANCG@COMPARISON_MIN_POINT_MAG_MIP_LIN@ DB 'COMPARISON_MIN_P'
	DB	'OINT_MAG_MIP_LINEAR', 00H			; `string'
CONST	ENDS
;	COMDAT ??_C@_0CK@OGELINIF@COMPARISON_MIN_POINT_MAG_LINEAR_@
CONST	SEGMENT
??_C@_0CK@OGELINIF@COMPARISON_MIN_POINT_MAG_LINEAR_@ DB 'COMPARISON_MIN_P'
	DB	'OINT_MAG_LINEAR_MIP_POINT', 00H		; `string'
CONST	ENDS
;	COMDAT _IID_ID3DX11EffectBlendVariable
CONST	SEGMENT
_IID_ID3DX11EffectBlendVariable DD 0d664f4d7H
	DW	03b81H
	DW	04805H
	DB	0b2H
	DB	077H
	DB	0c1H
	DB	0dfH
	DB	058H
	DB	0c3H
	DB	09fH
	DB	053H
CONST	ENDS
;	COMDAT ??_C@_0CE@BDNJCEEB@COMPARISON_MIN_MAG_POINT_MIP_LIN@
CONST	SEGMENT
??_C@_0CE@BDNJCEEB@COMPARISON_MIN_MAG_POINT_MIP_LIN@ DB 'COMPARISON_MIN_M'
	DB	'AG_POINT_MIP_LINEAR', 00H			; `string'
CONST	ENDS
;	COMDAT ??_C@_0BN@EJHCGLM@COMPARISON_MIN_MAG_MIP_POINT?$AA@
CONST	SEGMENT
??_C@_0BN@EJHCGLM@COMPARISON_MIN_MAG_MIP_POINT?$AA@ DB 'COMPARISON_MIN_MA'
	DB	'G_MIP_POINT', 00H				; `string'
CONST	ENDS
;	COMDAT ??_C@_0M@FBHCHPJF@ANISOTROPIC?$AA@
CONST	SEGMENT
??_C@_0M@FBHCHPJF@ANISOTROPIC?$AA@ DB 'ANISOTROPIC', 00H ; `string'
CONST	ENDS
;	COMDAT ??_C@_0BD@LLNOFHHP@MIN_MAG_MIP_LINEAR?$AA@
CONST	SEGMENT
??_C@_0BD@LLNOFHHP@MIN_MAG_MIP_LINEAR?$AA@ DB 'MIN_MAG_MIP_LINEAR', 00H ; `string'
CONST	ENDS
;	COMDAT ??_C@_0BJ@BLHOHPBA@MIN_MAG_LINEAR_MIP_POINT?$AA@
CONST	SEGMENT
??_C@_0BJ@BLHOHPBA@MIN_MAG_LINEAR_MIP_POINT?$AA@ DB 'MIN_MAG_LINEAR_MIP_P'
	DB	'OINT', 00H					; `string'
CONST	ENDS
;	COMDAT ??_C@_0CA@PLHBLOON@MIN_LINEAR_MAG_POINT_MIP_LINEAR?$AA@
CONST	SEGMENT
??_C@_0CA@PLHBLOON@MIN_LINEAR_MAG_POINT_MIP_LINEAR?$AA@ DB 'MIN_LINEAR_MA'
	DB	'G_POINT_MIP_LINEAR', 00H			; `string'
CONST	ENDS
;	COMDAT ??_C@_0BJ@PCDFIDK@MIN_LINEAR_MAG_MIP_POINT?$AA@
CONST	SEGMENT
??_C@_0BJ@PCDFIDK@MIN_LINEAR_MAG_MIP_POINT?$AA@ DB 'MIN_LINEAR_MAG_MIP_PO'
	DB	'INT', 00H					; `string'
CONST	ENDS
PUBLIC	??_H@YGXPAXIHP6EPAX0@Z@Z			; `vector constructor iterator'
PUBLIC	??0ID3DX11EffectType@@QAE@XZ			; ID3DX11EffectType::ID3DX11EffectType
PUBLIC	??0ID3DX11EffectVariable@@QAE@XZ		; ID3DX11EffectVariable::ID3DX11EffectVariable
PUBLIC	??0ID3DX11EffectConstantBuffer@@QAE@XZ		; ID3DX11EffectConstantBuffer::ID3DX11EffectConstantBuffer
PUBLIC	??2@YAPAXIPAX@Z					; operator new
PUBLIC	??3@YAXPAX0@Z					; operator delete
PUBLIC	?AlignToPowerOf2@@YAIII@Z			; AlignToPowerOf2
PUBLIC	?AlignToPowerOf2@@YAPAXPAXI@Z			; AlignToPowerOf2
PUBLIC	?IsObjectTypeHelper@D3DX11Effects@@YAHW4EVarType@1@W4EObjectType@1@1@Z ; D3DX11Effects::IsObjectTypeHelper
PUBLIC	?IsSamplerHelper@D3DX11Effects@@YAHW4EVarType@1@W4EObjectType@1@@Z ; D3DX11Effects::IsSamplerHelper
PUBLIC	?IsStateBlockObjectHelper@D3DX11Effects@@YAHW4EVarType@1@W4EObjectType@1@@Z ; D3DX11Effects::IsStateBlockObjectHelper
PUBLIC	?IsShaderHelper@D3DX11Effects@@YAHW4EVarType@1@W4EObjectType@1@@Z ; D3DX11Effects::IsShaderHelper
PUBLIC	?IsInterfaceHelper@D3DX11Effects@@YAHW4EVarType@1@W4EObjectType@1@@Z ; D3DX11Effects::IsInterfaceHelper
PUBLIC	?IsShaderResourceHelper@D3DX11Effects@@YAHW4EVarType@1@W4EObjectType@1@@Z ; D3DX11Effects::IsShaderResourceHelper
PUBLIC	?IsUnorderedAccessViewHelper@D3DX11Effects@@YAHW4EVarType@1@W4EObjectType@1@@Z ; D3DX11Effects::IsUnorderedAccessViewHelper
PUBLIC	?IsRenderTargetViewHelper@D3DX11Effects@@YAHW4EVarType@1@W4EObjectType@1@@Z ; D3DX11Effects::IsRenderTargetViewHelper
PUBLIC	?IsDepthStencilViewHelper@D3DX11Effects@@YAHW4EVarType@1@W4EObjectType@1@@Z ; D3DX11Effects::IsDepthStencilViewHelper
PUBLIC	?IsObjectAssignmentHelper@D3DX11Effects@@YAHW4ELhsType@1@@Z ; D3DX11Effects::IsObjectAssignmentHelper
PUBLIC	?RequiresPool@SBinaryHeader@D3DX11Effects@@QBE_NXZ ; D3DX11Effects::SBinaryHeader::RequiresPool
PUBLIC	??0SType@D3DX11Effects@@QAE@XZ			; D3DX11Effects::SType::SType
PUBLIC	?IsObjectType@SType@D3DX11Effects@@QBEHW4EObjectType@2@@Z ; D3DX11Effects::SType::IsObjectType
PUBLIC	?IsShader@SType@D3DX11Effects@@QBEHXZ		; D3DX11Effects::SType::IsShader
PUBLIC	?BelongsInConstantBuffer@SType@D3DX11Effects@@QBEHXZ ; D3DX11Effects::SType::BelongsInConstantBuffer
PUBLIC	?IsStateBlockObject@SType@D3DX11Effects@@QBEHXZ	; D3DX11Effects::SType::IsStateBlockObject
PUBLIC	?IsClassInstance@SType@D3DX11Effects@@QBEHXZ	; D3DX11Effects::SType::IsClassInstance
PUBLIC	?IsInterface@SType@D3DX11Effects@@QBEHXZ	; D3DX11Effects::SType::IsInterface
PUBLIC	?IsShaderResource@SType@D3DX11Effects@@QBEHXZ	; D3DX11Effects::SType::IsShaderResource
PUBLIC	?IsUnorderedAccessView@SType@D3DX11Effects@@QBEHXZ ; D3DX11Effects::SType::IsUnorderedAccessView
PUBLIC	?IsSampler@SType@D3DX11Effects@@QBEHXZ		; D3DX11Effects::SType::IsSampler
PUBLIC	?IsRenderTargetView@SType@D3DX11Effects@@QBEHXZ	; D3DX11Effects::SType::IsRenderTargetView
PUBLIC	?IsDepthStencilView@SType@D3DX11Effects@@QBEHXZ	; D3DX11Effects::SType::IsDepthStencilView
PUBLIC	?IsValid@SType@D3DX11Effects@@UAGHXZ		; D3DX11Effects::SType::IsValid
PUBLIC	?GetDesc@SType@D3DX11Effects@@UAGJPAU_D3DX11_EFFECT_TYPE_DESC@@@Z ; D3DX11Effects::SType::GetDesc
PUBLIC	??0SInterface@D3DX11Effects@@QAE@XZ		; D3DX11Effects::SInterface::SInterface
PUBLIC	??0SShaderResource@D3DX11Effects@@QAE@XZ	; D3DX11Effects::SShaderResource::SShaderResource
PUBLIC	??0SUnorderedAccessView@D3DX11Effects@@QAE@XZ	; D3DX11Effects::SUnorderedAccessView::SUnorderedAccessView
PUBLIC	??_FSShaderBlock@D3DX11Effects@@QAEXXZ		; D3DX11Effects::SShaderBlock::`default constructor closure'
PUBLIC	??0SVariable@D3DX11Effects@@QAE@XZ		; D3DX11Effects::SVariable::SVariable
PUBLIC	??_FSAnonymousShader@D3DX11Effects@@QAEXXZ	; D3DX11Effects::SAnonymousShader::`default constructor closure'
PUBLIC	?AsScalar@?$TUncastableVariable@UID3DX11EffectConstantBuffer@@@D3DX11Effects@@UAGPAUID3DX11EffectScalarVariable@@XZ ; D3DX11Effects::TUncastableVariable<ID3DX11EffectConstantBuffer>::AsScalar
PUBLIC	?AsVector@?$TUncastableVariable@UID3DX11EffectConstantBuffer@@@D3DX11Effects@@UAGPAUID3DX11EffectVectorVariable@@XZ ; D3DX11Effects::TUncastableVariable<ID3DX11EffectConstantBuffer>::AsVector
PUBLIC	?AsMatrix@?$TUncastableVariable@UID3DX11EffectConstantBuffer@@@D3DX11Effects@@UAGPAUID3DX11EffectMatrixVariable@@XZ ; D3DX11Effects::TUncastableVariable<ID3DX11EffectConstantBuffer>::AsMatrix
PUBLIC	?AsString@?$TUncastableVariable@UID3DX11EffectConstantBuffer@@@D3DX11Effects@@UAGPAUID3DX11EffectStringVariable@@XZ ; D3DX11Effects::TUncastableVariable<ID3DX11EffectConstantBuffer>::AsString
PUBLIC	?AsClassInstance@?$TUncastableVariable@UID3DX11EffectConstantBuffer@@@D3DX11Effects@@UAGPAUID3DX11EffectClassInstanceVariable@@XZ ; D3DX11Effects::TUncastableVariable<ID3DX11EffectConstantBuffer>::AsClassInstance
PUBLIC	?AsInterface@?$TUncastableVariable@UID3DX11EffectConstantBuffer@@@D3DX11Effects@@UAGPAUID3DX11EffectInterfaceVariable@@XZ ; D3DX11Effects::TUncastableVariable<ID3DX11EffectConstantBuffer>::AsInterface
PUBLIC	?AsShaderResource@?$TUncastableVariable@UID3DX11EffectConstantBuffer@@@D3DX11Effects@@UAGPAUID3DX11EffectShaderResourceVariable@@XZ ; D3DX11Effects::TUncastableVariable<ID3DX11EffectConstantBuffer>::AsShaderResource
PUBLIC	?AsUnorderedAccessView@?$TUncastableVariable@UID3DX11EffectConstantBuffer@@@D3DX11Effects@@UAGPAUID3DX11EffectUnorderedAccessViewVariable@@XZ ; D3DX11Effects::TUncastableVariable<ID3DX11EffectConstantBuffer>::AsUnorderedAccessView
PUBLIC	?AsRenderTargetView@?$TUncastableVariable@UID3DX11EffectConstantBuffer@@@D3DX11Effects@@UAGPAUID3DX11EffectRenderTargetViewVariable@@XZ ; D3DX11Effects::TUncastableVariable<ID3DX11EffectConstantBuffer>::AsRenderTargetView
PUBLIC	?AsDepthStencilView@?$TUncastableVariable@UID3DX11EffectConstantBuffer@@@D3DX11Effects@@UAGPAUID3DX11EffectDepthStencilViewVariable@@XZ ; D3DX11Effects::TUncastableVariable<ID3DX11EffectConstantBuffer>::AsDepthStencilView
PUBLIC	?AsConstantBuffer@?$TUncastableVariable@UID3DX11EffectConstantBuffer@@@D3DX11Effects@@UAGPAUID3DX11EffectConstantBuffer@@XZ ; D3DX11Effects::TUncastableVariable<ID3DX11EffectConstantBuffer>::AsConstantBuffer
PUBLIC	?AsShader@?$TUncastableVariable@UID3DX11EffectConstantBuffer@@@D3DX11Effects@@UAGPAUID3DX11EffectShaderVariable@@XZ ; D3DX11Effects::TUncastableVariable<ID3DX11EffectConstantBuffer>::AsShader
PUBLIC	?AsBlend@?$TUncastableVariable@UID3DX11EffectConstantBuffer@@@D3DX11Effects@@UAGPAUID3DX11EffectBlendVariable@@XZ ; D3DX11Effects::TUncastableVariable<ID3DX11EffectConstantBuffer>::AsBlend
PUBLIC	?AsDepthStencil@?$TUncastableVariable@UID3DX11EffectConstantBuffer@@@D3DX11Effects@@UAGPAUID3DX11EffectDepthStencilVariable@@XZ ; D3DX11Effects::TUncastableVariable<ID3DX11EffectConstantBuffer>::AsDepthStencil
PUBLIC	?AsRasterizer@?$TUncastableVariable@UID3DX11EffectConstantBuffer@@@D3DX11Effects@@UAGPAUID3DX11EffectRasterizerVariable@@XZ ; D3DX11Effects::TUncastableVariable<ID3DX11EffectConstantBuffer>::AsRasterizer
PUBLIC	?AsSampler@?$TUncastableVariable@UID3DX11EffectConstantBuffer@@@D3DX11Effects@@UAGPAUID3DX11EffectSamplerVariable@@XZ ; D3DX11Effects::TUncastableVariable<ID3DX11EffectConstantBuffer>::AsSampler
PUBLIC	??0?$TUncastableVariable@UID3DX11EffectConstantBuffer@@@D3DX11Effects@@QAE@XZ ; D3DX11Effects::TUncastableVariable<ID3DX11EffectConstantBuffer>::TUncastableVariable<ID3DX11EffectConstantBuffer>
PUBLIC	??0SConstantBuffer@D3DX11Effects@@QAE@XZ	; D3DX11Effects::SConstantBuffer::SConstantBuffer
PUBLIC	??0SDependency@SAssignment@D3DX11Effects@@QAE@XZ ; D3DX11Effects::SAssignment::SDependency::SDependency
PUBLIC	?IsObjectAssignment@SAssignment@D3DX11Effects@@QAEHXZ ; D3DX11Effects::SAssignment::IsObjectAssignment
PUBLIC	??0SAssignment@D3DX11Effects@@QAE@XZ		; D3DX11Effects::SAssignment::SAssignment
PUBLIC	?ReserveMemory@CEffectHeap@D3DX11Effects@@QAEJI@Z ; D3DX11Effects::CEffectHeap::ReserveMemory
PUBLIC	?GetSize@CEffectHeap@D3DX11Effects@@QAEIXZ	; D3DX11Effects::CEffectHeap::GetSize
PUBLIC	?AddString@CEffectHeap@D3DX11Effects@@QAEJPBDPAPAD@Z ; D3DX11Effects::CEffectHeap::AddString
PUBLIC	?AddData@CEffectHeap@D3DX11Effects@@QAEJPBXIPAPAX@Z ; D3DX11Effects::CEffectHeap::AddData
PUBLIC	?MoveData@CEffectHeap@D3DX11Effects@@QAEJPAPAXI@Z ; D3DX11Effects::CEffectHeap::MoveData
PUBLIC	?MoveString@CEffectHeap@D3DX11Effects@@QAEJPAPAD@Z ; D3DX11Effects::CEffectHeap::MoveString
PUBLIC	?MoveInterfaceParameters@CEffectHeap@D3DX11Effects@@QAEJIPAPAUSInterfaceParameter@SShaderBlock@2@@Z ; D3DX11Effects::CEffectHeap::MoveInterfaceParameters
PUBLIC	?MoveEmptyDataBlock@CEffectHeap@D3DX11Effects@@QAEJPAPAXI@Z ; D3DX11Effects::CEffectHeap::MoveEmptyDataBlock
PUBLIC	?IsInHeap@CEffectHeap@D3DX11Effects@@QBEHPAX@Z	; D3DX11Effects::CEffectHeap::IsInHeap
PUBLIC	??0CEffectHeap@D3DX11Effects@@QAE@XZ		; D3DX11Effects::CEffectHeap::CEffectHeap
PUBLIC	??1CEffectHeap@D3DX11Effects@@QAE@XZ		; D3DX11Effects::CEffectHeap::~CEffectHeap
PUBLIC	??0CEffectReflection@D3DX11Effects@@QAE@XZ	; D3DX11Effects::CEffectReflection::CEffectReflection
PUBLIC	??A?$CEffectVector@PAUSMember@D3DX11Effects@@@@QAEAAPAUSMember@D3DX11Effects@@I@Z ; CEffectVector<D3DX11Effects::SMember *>::operator[]
PUBLIC	?GetSize@?$CEffectVector@PAUSMember@D3DX11Effects@@@@QBEIXZ ; CEffectVector<D3DX11Effects::SMember *>::GetSize
PUBLIC	?AreTypesEqual@CEffect@D3DX11Effects@@KAHABQAUSType@2@0@Z ; D3DX11Effects::CEffect::AreTypesEqual
PUBLIC	?AreStringsEqual@CEffect@D3DX11Effects@@KAHABQBD0@Z ; D3DX11Effects::CEffect::AreStringsEqual
PUBLIC	?LoadEffect@CEffect@D3DX11Effects@@QAEJPBXI@Z	; D3DX11Effects::CEffect::LoadEffect
PUBLIC	?Grow@?$CEffectVector@PAX@@IAEJXZ		; CEffectVector<void *>::Grow
PUBLIC	?Reserve@?$CEffectVector@PAX@@IAEJI@Z		; CEffectVector<void *>::Reserve
PUBLIC	??0?$CEffectVector@PAX@@QAE@XZ			; CEffectVector<void *>::CEffectVector<void *>
PUBLIC	??1?$CEffectVector@PAX@@QAE@XZ			; CEffectVector<void *>::~CEffectVector<void *>
PUBLIC	?Clear@?$CEffectVector@PAX@@QAEXXZ		; CEffectVector<void *>::Clear
PUBLIC	?Empty@?$CEffectVector@PAX@@QAEXXZ		; CEffectVector<void *>::Empty
PUBLIC	?Add@?$CEffectVector@PAX@@QAEJABQAX@Z		; CEffectVector<void *>::Add
PUBLIC	??A?$CEffectVector@PAX@@QAEAAPAXI@Z		; CEffectVector<void *>::operator[]
PUBLIC	?GetSize@?$CEffectVector@PAX@@QBEIXZ		; CEffectVector<void *>::GetSize
PUBLIC	??0SRange@D3DX11Effects@@QAE@XZ			; D3DX11Effects::SRange::SRange
PUBLIC	??1SRange@D3DX11Effects@@QAE@XZ			; D3DX11Effects::SRange::~SRange
PUBLIC	??_GSRange@D3DX11Effects@@QAEPAXI@Z		; D3DX11Effects::SRange::`scalar deleting destructor'
PUBLIC	?GetSimpleParameterTypeFromObjectType@D3DX11Effects@@YA?AW4_D3D_SHADER_VARIABLE_TYPE@@W4EObjectType@1@@Z ; D3DX11Effects::GetSimpleParameterTypeFromObjectType
PUBLIC	?Reserve@?$CEffectVector@E@@IAEJI@Z		; CEffectVector<unsigned char>::Reserve
PUBLIC	??0?$CEffectVector@E@@QAE@XZ			; CEffectVector<unsigned char>::CEffectVector<unsigned char>
PUBLIC	??1?$CEffectVector@E@@QAE@XZ			; CEffectVector<unsigned char>::~CEffectVector<unsigned char>
PUBLIC	?Clear@?$CEffectVector@E@@QAEXXZ		; CEffectVector<unsigned char>::Clear
PUBLIC	?Empty@?$CEffectVector@E@@QAEXXZ		; CEffectVector<unsigned char>::Empty
PUBLIC	?AddRange@?$CEffectVector@E@@QAEPAEI@Z		; CEffectVector<unsigned char>::AddRange
PUBLIC	??A?$CEffectVector@E@@QAEAAEI@Z			; CEffectVector<unsigned char>::operator[]
PUBLIC	?GetSize@?$CEffectVector@E@@QBEIXZ		; CEffectVector<unsigned char>::GetSize
PUBLIC	?Grow@?$CEffectVector@PAUSInterface@D3DX11Effects@@@@IAEJXZ ; CEffectVector<D3DX11Effects::SInterface *>::Grow
PUBLIC	?Reserve@?$CEffectVector@PAUSInterface@D3DX11Effects@@@@IAEJI@Z ; CEffectVector<D3DX11Effects::SInterface *>::Reserve
PUBLIC	??0?$CEffectVector@PAUSInterface@D3DX11Effects@@@@QAE@XZ ; CEffectVector<D3DX11Effects::SInterface *>::CEffectVector<D3DX11Effects::SInterface *>
PUBLIC	??1?$CEffectVector@PAUSInterface@D3DX11Effects@@@@QAE@XZ ; CEffectVector<D3DX11Effects::SInterface *>::~CEffectVector<D3DX11Effects::SInterface *>
PUBLIC	?Clear@?$CEffectVector@PAUSInterface@D3DX11Effects@@@@QAEXXZ ; CEffectVector<D3DX11Effects::SInterface *>::Clear
PUBLIC	?Empty@?$CEffectVector@PAUSInterface@D3DX11Effects@@@@QAEXXZ ; CEffectVector<D3DX11Effects::SInterface *>::Empty
PUBLIC	?Add@?$CEffectVector@PAUSInterface@D3DX11Effects@@@@QAEJABQAUSInterface@D3DX11Effects@@@Z ; CEffectVector<D3DX11Effects::SInterface *>::Add
PUBLIC	??A?$CEffectVector@PAUSInterface@D3DX11Effects@@@@QAEAAPAUSInterface@D3DX11Effects@@I@Z ; CEffectVector<D3DX11Effects::SInterface *>::operator[]
PUBLIC	?GetSize@?$CEffectVector@PAUSInterface@D3DX11Effects@@@@QBEIXZ ; CEffectVector<D3DX11Effects::SInterface *>::GetSize
PUBLIC	?LoadCBs@CEffectLoader@D3DX11Effects@@IAEJXZ	; D3DX11Effects::CEffectLoader::LoadCBs
PUBLIC	?LoadNumericVariable@CEffectLoader@D3DX11Effects@@IAEJPAUSConstantBuffer@2@@Z ; D3DX11Effects::CEffectLoader::LoadNumericVariable
PUBLIC	?LoadObjectVariables@CEffectLoader@D3DX11Effects@@IAEJXZ ; D3DX11Effects::CEffectLoader::LoadObjectVariables
PUBLIC	?LoadInterfaceVariables@CEffectLoader@D3DX11Effects@@IAEJXZ ; D3DX11Effects::CEffectLoader::LoadInterfaceVariables
PUBLIC	?LoadTypeAndAddToPool@CEffectLoader@D3DX11Effects@@IAEJPAPAUSType@2@I@Z ; D3DX11Effects::CEffectLoader::LoadTypeAndAddToPool
PUBLIC	?LoadStringAndAddToPool@CEffectLoader@D3DX11Effects@@IAEJPAPADI@Z ; D3DX11Effects::CEffectLoader::LoadStringAndAddToPool
PUBLIC	?LoadAssignments@CEffectLoader@D3DX11Effects@@IAEJIPAPAUSAssignment@2@PAEPAI2@Z ; D3DX11Effects::CEffectLoader::LoadAssignments
PUBLIC	?LoadGroups@CEffectLoader@D3DX11Effects@@IAEJXZ	; D3DX11Effects::CEffectLoader::LoadGroups
PUBLIC	?LoadTechnique@CEffectLoader@D3DX11Effects@@IAEJPAUSTechnique@2@@Z ; D3DX11Effects::CEffectLoader::LoadTechnique
PUBLIC	?LoadAnnotations@CEffectLoader@D3DX11Effects@@IAEJPAIPAPAUSAnnotation@2@@Z ; D3DX11Effects::CEffectLoader::LoadAnnotations
PUBLIC	?ExecuteConstantAssignment@CEffectLoader@D3DX11Effects@@IAEJPAUSBinaryConstant@2@PAXW4_D3D_SHADER_VARIABLE_TYPE@@@Z ; D3DX11Effects::CEffectLoader::ExecuteConstantAssignment
PUBLIC	?UnpackData@CEffectLoader@D3DX11Effects@@IAEIPAE0IPAUSType@2@PAI@Z ; D3DX11Effects::CEffectLoader::UnpackData
PUBLIC	?GrabShaderData@CEffectLoader@D3DX11Effects@@IAEJPAUSShaderBlock@2@@Z ; D3DX11Effects::CEffectLoader::GrabShaderData
PUBLIC	?BuildShaderBlock@CEffectLoader@D3DX11Effects@@IAEJPAUSShaderBlock@2@@Z ; D3DX11Effects::CEffectLoader::BuildShaderBlock
PUBLIC	?InitializeReflectionDataAndMoveStrings@CEffectLoader@D3DX11Effects@@IAEJI@Z ; D3DX11Effects::CEffectLoader::InitializeReflectionDataAndMoveStrings
PUBLIC	?ReallocateReflectionData@CEffectLoader@D3DX11Effects@@IAEJ_N@Z ; D3DX11Effects::CEffectLoader::ReallocateReflectionData
PUBLIC	?ReallocateEffectData@CEffectLoader@D3DX11Effects@@IAEJ_N@Z ; D3DX11Effects::CEffectLoader::ReallocateEffectData
PUBLIC	?ReallocateShaderBlocks@CEffectLoader@D3DX11Effects@@IAEJXZ ; D3DX11Effects::CEffectLoader::ReallocateShaderBlocks
PUBLIC	?ReallocateAnnotationData@CEffectLoader@D3DX11Effects@@IAEJIPAPAUSAnnotation@2@@Z ; D3DX11Effects::CEffectLoader::ReallocateAnnotationData
PUBLIC	?CalculateAnnotationSize@CEffectLoader@D3DX11Effects@@IAEJIPAUSAnnotation@2@@Z ; D3DX11Effects::CEffectLoader::CalculateAnnotationSize
PUBLIC	?CalculateShaderBlockSize@CEffectLoader@D3DX11Effects@@IAEIXZ ; D3DX11Effects::CEffectLoader::CalculateShaderBlockSize
PUBLIC	?FixupCBPointer@CEffectLoader@D3DX11Effects@@IAEJPAPAUSConstantBuffer@2@@Z ; D3DX11Effects::CEffectLoader::FixupCBPointer
PUBLIC	?FixupShaderPointer@CEffectLoader@D3DX11Effects@@IAEJPAPAUSShaderBlock@2@@Z ; D3DX11Effects::CEffectLoader::FixupShaderPointer
PUBLIC	?FixupDSPointer@CEffectLoader@D3DX11Effects@@IAEJPAPAUSDepthStencilBlock@2@@Z ; D3DX11Effects::CEffectLoader::FixupDSPointer
PUBLIC	?FixupABPointer@CEffectLoader@D3DX11Effects@@IAEJPAPAUSBlendBlock@2@@Z ; D3DX11Effects::CEffectLoader::FixupABPointer
PUBLIC	?FixupRSPointer@CEffectLoader@D3DX11Effects@@IAEJPAPAUSRasterizerBlock@2@@Z ; D3DX11Effects::CEffectLoader::FixupRSPointer
PUBLIC	?FixupInterfacePointer@CEffectLoader@D3DX11Effects@@IAEJPAPAUSInterface@2@_N@Z ; D3DX11Effects::CEffectLoader::FixupInterfacePointer
PUBLIC	?FixupShaderResourcePointer@CEffectLoader@D3DX11Effects@@IAEJPAPAUSShaderResource@2@@Z ; D3DX11Effects::CEffectLoader::FixupShaderResourcePointer
PUBLIC	?FixupUnorderedAccessViewPointer@CEffectLoader@D3DX11Effects@@IAEJPAPAUSUnorderedAccessView@2@@Z ; D3DX11Effects::CEffectLoader::FixupUnorderedAccessViewPointer
PUBLIC	?FixupRenderTargetViewPointer@CEffectLoader@D3DX11Effects@@IAEJPAPAUSRenderTargetView@2@@Z ; D3DX11Effects::CEffectLoader::FixupRenderTargetViewPointer
PUBLIC	?FixupDepthStencilViewPointer@CEffectLoader@D3DX11Effects@@IAEJPAPAUSDepthStencilView@2@@Z ; D3DX11Effects::CEffectLoader::FixupDepthStencilViewPointer
PUBLIC	?FixupSamplerPointer@CEffectLoader@D3DX11Effects@@IAEJPAPAUSSamplerBlock@2@@Z ; D3DX11Effects::CEffectLoader::FixupSamplerPointer
PUBLIC	?FixupVariablePointer@CEffectLoader@D3DX11Effects@@IAEJPAPAUSGlobalVariable@2@@Z ; D3DX11Effects::CEffectLoader::FixupVariablePointer
PUBLIC	?FixupStringPointer@CEffectLoader@D3DX11Effects@@IAEJPAPAUSString@2@@Z ; D3DX11Effects::CEffectLoader::FixupStringPointer
PUBLIC	?FixupMemberDataPointer@CEffectLoader@D3DX11Effects@@IAEJPAPAUSMemberDataPointer@2@@Z ; D3DX11Effects::CEffectLoader::FixupMemberDataPointer
PUBLIC	?FixupGroupPointer@CEffectLoader@D3DX11Effects@@IAEJPAPAUSGroup@2@@Z ; D3DX11Effects::CEffectLoader::FixupGroupPointer
PUBLIC	?GetStringAndAddToReflection@CEffectLoader@D3DX11Effects@@IAEJIPAPAD@Z ; D3DX11Effects::CEffectLoader::GetStringAndAddToReflection
PUBLIC	?GetUnstructuredDataBlock@CEffectLoader@D3DX11Effects@@IAEJIPAIPAPAX@Z ; D3DX11Effects::CEffectLoader::GetUnstructuredDataBlock
PUBLIC	?GetInterfaceParametersAndAddToReflection@CEffectLoader@D3DX11Effects@@IAEJIIPAPAUSInterfaceParameter@SShaderBlock@2@@Z ; D3DX11Effects::CEffectLoader::GetInterfaceParametersAndAddToReflection
PUBLIC	?LoadEffect@CEffectLoader@D3DX11Effects@@QAEJPAVCEffect@2@PBXI@Z ; D3DX11Effects::CEffectLoader::LoadEffect
PUBLIC	??0CEffectLoader@D3DX11Effects@@QAE@XZ		; D3DX11Effects::CEffectLoader::CEffectLoader
PUBLIC	??1CEffectLoader@D3DX11Effects@@QAE@XZ		; D3DX11Effects::CEffectLoader::~CEffectLoader
PUBLIC	??$AddDataInternal@$00@CEffectHeap@D3DX11Effects@@IAEJPBXIPAPAX@Z ; D3DX11Effects::CEffectHeap::AddDataInternal<1>
PUBLIC	??$AddDataInternal@$0A@@CEffectHeap@D3DX11Effects@@IAEJPBXIPAPAX@Z ; D3DX11Effects::CEffectHeap::AddDataInternal<0>
PUBLIC	?GetEffectVersion@D3DX11Effects@@YAJIPAK@Z	; D3DX11Effects::GetEffectVersion
PUBLIC	??0?$CheckedNumber@I$0PPPPPPPP@@@QAE@XZ		; CheckedNumber<unsigned int,4294967295>::CheckedNumber<unsigned int,4294967295>
PUBLIC	??0?$CheckedNumber@I$0PPPPPPPP@@@QAE@ABI@Z	; CheckedNumber<unsigned int,4294967295>::CheckedNumber<unsigned int,4294967295>
PUBLIC	??Y?$CheckedNumber@I$0PPPPPPPP@@@QAEAAV0@ABV0@@Z ; CheckedNumber<unsigned int,4294967295>::operator+=
PUBLIC	??X?$CheckedNumber@I$0PPPPPPPP@@@QAEAAV0@ABV0@@Z ; CheckedNumber<unsigned int,4294967295>::operator*=
PUBLIC	?GetValue@?$CheckedNumber@I$0PPPPPPPP@@@QAEJPAI@Z ; CheckedNumber<unsigned int,4294967295>::GetValue
PUBLIC	??0?$CEffectHashTable@PAUSType@D3DX11Effects@@$1?AreTypesEqual@CEffect@2@KAHABQAU12@0@Z@@QAE@XZ ; CEffectHashTable<D3DX11Effects::SType *,&D3DX11Effects::CEffect::AreTypesEqual>::CEffectHashTable<D3DX11Effects::SType *,&D3DX11Effects::CEffect::AreTypesEqual>
PUBLIC	?CleanArray@?$CEffectHashTable@PAUSType@D3DX11Effects@@$1?AreTypesEqual@CEffect@2@KAHABQAU12@0@Z@@IAEXXZ ; CEffectHashTable<D3DX11Effects::SType *,&D3DX11Effects::CEffect::AreTypesEqual>::CleanArray
PUBLIC	?GetNextHashTableSize@?$CEffectHashTable@PAUSType@D3DX11Effects@@$1?AreTypesEqual@CEffect@2@KAHABQAU12@0@Z@@SAII@Z ; CEffectHashTable<D3DX11Effects::SType *,&D3DX11Effects::CEffect::AreTypesEqual>::GetNextHashTableSize
PUBLIC	?Grow@?$CEffectHashTable@PAUSType@D3DX11Effects@@$1?AreTypesEqual@CEffect@2@KAHABQAU12@0@Z@@QAEJIIPAPAX_N@Z ; CEffectHashTable<D3DX11Effects::SType *,&D3DX11Effects::CEffect::AreTypesEqual>::Grow
PUBLIC	?AutoGrow@?$CEffectHashTable@PAUSType@D3DX11Effects@@$1?AreTypesEqual@CEffect@2@KAHABQAU12@0@Z@@QAEJXZ ; CEffectHashTable<D3DX11Effects::SType *,&D3DX11Effects::CEffect::AreTypesEqual>::AutoGrow
PUBLIC	?FindValueWithHash@?$CEffectHashTable@PAUSType@D3DX11Effects@@$1?AreTypesEqual@CEffect@2@KAHABQAU12@0@Z@@QAEJPAUSType@D3DX11Effects@@IPAVCIterator@1@@Z ; CEffectHashTable<D3DX11Effects::SType *,&D3DX11Effects::CEffect::AreTypesEqual>::FindValueWithHash
PUBLIC	?GetFirstEntry@?$CEffectHashTable@PAUSType@D3DX11Effects@@$1?AreTypesEqual@CEffect@2@KAHABQAU12@0@Z@@QAEXPAVCIterator@1@@Z ; CEffectHashTable<D3DX11Effects::SType *,&D3DX11Effects::CEffect::AreTypesEqual>::GetFirstEntry
PUBLIC	?PastEnd@?$CEffectHashTable@PAUSType@D3DX11Effects@@$1?AreTypesEqual@CEffect@2@KAHABQAU12@0@Z@@QAEHPAVCIterator@1@@Z ; CEffectHashTable<D3DX11Effects::SType *,&D3DX11Effects::CEffect::AreTypesEqual>::PastEnd
PUBLIC	?GetNextEntry@?$CEffectHashTable@PAUSType@D3DX11Effects@@$1?AreTypesEqual@CEffect@2@KAHABQAU12@0@Z@@QAEXPAVCIterator@1@@Z ; CEffectHashTable<D3DX11Effects::SType *,&D3DX11Effects::CEffect::AreTypesEqual>::GetNextEntry
PUBLIC	??0?$CEffectHashTableWithPrivateHeap@PAUSType@D3DX11Effects@@$1?AreTypesEqual@CEffect@2@KAHABQAU12@0@Z@@QAE@XZ ; CEffectHashTableWithPrivateHeap<D3DX11Effects::SType *,&D3DX11Effects::CEffect::AreTypesEqual>::CEffectHashTableWithPrivateHeap<D3DX11Effects::SType *,&D3DX11Effects::CEffect::AreTypesEqual>
PUBLIC	?SetPrivateHeap@?$CEffectHashTableWithPrivateHeap@PAUSType@D3DX11Effects@@$1?AreTypesEqual@CEffect@2@KAHABQAU12@0@Z@@QAEXPAVCDataBlockStore@@@Z ; CEffectHashTableWithPrivateHeap<D3DX11Effects::SType *,&D3DX11Effects::CEffect::AreTypesEqual>::SetPrivateHeap
PUBLIC	?AddValueWithHash@?$CEffectHashTableWithPrivateHeap@PAUSType@D3DX11Effects@@$1?AreTypesEqual@CEffect@2@KAHABQAU12@0@Z@@QAEJPAUSType@D3DX11Effects@@I@Z ; CEffectHashTableWithPrivateHeap<D3DX11Effects::SType *,&D3DX11Effects::CEffect::AreTypesEqual>::AddValueWithHash
PUBLIC	??0?$CEffectHashTable@PBD$1?AreStringsEqual@CEffect@D3DX11Effects@@KAHABQBD0@Z@@QAE@XZ ; CEffectHashTable<char const *,&D3DX11Effects::CEffect::AreStringsEqual>::CEffectHashTable<char const *,&D3DX11Effects::CEffect::AreStringsEqual>
PUBLIC	?CleanArray@?$CEffectHashTable@PBD$1?AreStringsEqual@CEffect@D3DX11Effects@@KAHABQBD0@Z@@IAEXXZ ; CEffectHashTable<char const *,&D3DX11Effects::CEffect::AreStringsEqual>::CleanArray
PUBLIC	?GetNextHashTableSize@?$CEffectHashTable@PBD$1?AreStringsEqual@CEffect@D3DX11Effects@@KAHABQBD0@Z@@SAII@Z ; CEffectHashTable<char const *,&D3DX11Effects::CEffect::AreStringsEqual>::GetNextHashTableSize
PUBLIC	?Grow@?$CEffectHashTable@PBD$1?AreStringsEqual@CEffect@D3DX11Effects@@KAHABQBD0@Z@@QAEJIIPAPAX_N@Z ; CEffectHashTable<char const *,&D3DX11Effects::CEffect::AreStringsEqual>::Grow
PUBLIC	?AutoGrow@?$CEffectHashTable@PBD$1?AreStringsEqual@CEffect@D3DX11Effects@@KAHABQBD0@Z@@QAEJXZ ; CEffectHashTable<char const *,&D3DX11Effects::CEffect::AreStringsEqual>::AutoGrow
PUBLIC	?FindValueWithHash@?$CEffectHashTable@PBD$1?AreStringsEqual@CEffect@D3DX11Effects@@KAHABQBD0@Z@@QAEJPBDIPAVCIterator@1@@Z ; CEffectHashTable<char const *,&D3DX11Effects::CEffect::AreStringsEqual>::FindValueWithHash
PUBLIC	?GetFirstEntry@?$CEffectHashTable@PBD$1?AreStringsEqual@CEffect@D3DX11Effects@@KAHABQBD0@Z@@QAEXPAVCIterator@1@@Z ; CEffectHashTable<char const *,&D3DX11Effects::CEffect::AreStringsEqual>::GetFirstEntry
PUBLIC	?PastEnd@?$CEffectHashTable@PBD$1?AreStringsEqual@CEffect@D3DX11Effects@@KAHABQBD0@Z@@QAEHPAVCIterator@1@@Z ; CEffectHashTable<char const *,&D3DX11Effects::CEffect::AreStringsEqual>::PastEnd
PUBLIC	?GetNextEntry@?$CEffectHashTable@PBD$1?AreStringsEqual@CEffect@D3DX11Effects@@KAHABQBD0@Z@@QAEXPAVCIterator@1@@Z ; CEffectHashTable<char const *,&D3DX11Effects::CEffect::AreStringsEqual>::GetNextEntry
PUBLIC	??0?$CEffectHashTableWithPrivateHeap@PBD$1?AreStringsEqual@CEffect@D3DX11Effects@@KAHABQBD0@Z@@QAE@XZ ; CEffectHashTableWithPrivateHeap<char const *,&D3DX11Effects::CEffect::AreStringsEqual>::CEffectHashTableWithPrivateHeap<char const *,&D3DX11Effects::CEffect::AreStringsEqual>
PUBLIC	?SetPrivateHeap@?$CEffectHashTableWithPrivateHeap@PBD$1?AreStringsEqual@CEffect@D3DX11Effects@@KAHABQBD0@Z@@QAEXPAVCDataBlockStore@@@Z ; CEffectHashTableWithPrivateHeap<char const *,&D3DX11Effects::CEffect::AreStringsEqual>::SetPrivateHeap
PUBLIC	?AddValueWithHash@?$CEffectHashTableWithPrivateHeap@PBD$1?AreStringsEqual@CEffect@D3DX11Effects@@KAHABQBD0@Z@@QAEJPBDI@Z ; CEffectHashTableWithPrivateHeap<char const *,&D3DX11Effects::CEffect::AreStringsEqual>::AddValueWithHash
PUBLIC	?GetData@CIterator@?$CEffectHashTable@PBD$1?AreStringsEqual@CEffect@D3DX11Effects@@KAHABQBD0@Z@@QAEPBDXZ ; CEffectHashTable<char const *,&D3DX11Effects::CEffect::AreStringsEqual>::CIterator::GetData
PUBLIC	?GetHash@CIterator@?$CEffectHashTable@PBD$1?AreStringsEqual@CEffect@D3DX11Effects@@KAHABQBD0@Z@@QAEIXZ ; CEffectHashTable<char const *,&D3DX11Effects::CEffect::AreStringsEqual>::CIterator::GetHash
PUBLIC	?GetData@CIterator@?$CEffectHashTable@PAUSType@D3DX11Effects@@$1?AreTypesEqual@CEffect@2@KAHABQAU12@0@Z@@QAEPAUSType@D3DX11Effects@@XZ ; CEffectHashTable<D3DX11Effects::SType *,&D3DX11Effects::CEffect::AreTypesEqual>::CIterator::GetData
PUBLIC	?GetHash@CIterator@?$CEffectHashTable@PAUSType@D3DX11Effects@@$1?AreTypesEqual@CEffect@2@KAHABQAU12@0@Z@@QAEIXZ ; CEffectHashTable<D3DX11Effects::SType *,&D3DX11Effects::CEffect::AreTypesEqual>::CIterator::GetHash
PUBLIC	?Grow@?$CEffectVector@USRange@D3DX11Effects@@@@IAEJXZ ; CEffectVector<D3DX11Effects::SRange>::Grow
PUBLIC	?Reserve@?$CEffectVector@USRange@D3DX11Effects@@@@IAEJI@Z ; CEffectVector<D3DX11Effects::SRange>::Reserve
PUBLIC	??0?$CEffectVector@USRange@D3DX11Effects@@@@QAE@XZ ; CEffectVector<D3DX11Effects::SRange>::CEffectVector<D3DX11Effects::SRange>
PUBLIC	??1?$CEffectVector@USRange@D3DX11Effects@@@@QAE@XZ ; CEffectVector<D3DX11Effects::SRange>::~CEffectVector<D3DX11Effects::SRange>
PUBLIC	?Clear@?$CEffectVector@USRange@D3DX11Effects@@@@QAEXXZ ; CEffectVector<D3DX11Effects::SRange>::Clear
PUBLIC	?Empty@?$CEffectVector@USRange@D3DX11Effects@@@@QAEXXZ ; CEffectVector<D3DX11Effects::SRange>::Empty
PUBLIC	?Add@?$CEffectVector@USRange@D3DX11Effects@@@@QAEPAUSRange@D3DX11Effects@@XZ ; CEffectVector<D3DX11Effects::SRange>::Add
PUBLIC	??A?$CEffectVector@USRange@D3DX11Effects@@@@QAEAAUSRange@D3DX11Effects@@I@Z ; CEffectVector<D3DX11Effects::SRange>::operator[]
PUBLIC	?GetSize@?$CEffectVector@USRange@D3DX11Effects@@@@QBEIXZ ; CEffectVector<D3DX11Effects::SRange>::GetSize
PUBLIC	?Grow@?$CEffectVector@PAUSConstantBuffer@D3DX11Effects@@@@IAEJXZ ; CEffectVector<D3DX11Effects::SConstantBuffer *>::Grow
PUBLIC	?Reserve@?$CEffectVector@PAUSConstantBuffer@D3DX11Effects@@@@IAEJI@Z ; CEffectVector<D3DX11Effects::SConstantBuffer *>::Reserve
PUBLIC	??0?$CEffectVector@PAUSConstantBuffer@D3DX11Effects@@@@QAE@XZ ; CEffectVector<D3DX11Effects::SConstantBuffer *>::CEffectVector<D3DX11Effects::SConstantBuffer *>
PUBLIC	??1?$CEffectVector@PAUSConstantBuffer@D3DX11Effects@@@@QAE@XZ ; CEffectVector<D3DX11Effects::SConstantBuffer *>::~CEffectVector<D3DX11Effects::SConstantBuffer *>
PUBLIC	?Clear@?$CEffectVector@PAUSConstantBuffer@D3DX11Effects@@@@QAEXXZ ; CEffectVector<D3DX11Effects::SConstantBuffer *>::Clear
PUBLIC	?Empty@?$CEffectVector@PAUSConstantBuffer@D3DX11Effects@@@@QAEXXZ ; CEffectVector<D3DX11Effects::SConstantBuffer *>::Empty
PUBLIC	?Add@?$CEffectVector@PAUSConstantBuffer@D3DX11Effects@@@@QAEJABQAUSConstantBuffer@D3DX11Effects@@@Z ; CEffectVector<D3DX11Effects::SConstantBuffer *>::Add
PUBLIC	??A?$CEffectVector@PAUSConstantBuffer@D3DX11Effects@@@@QAEAAPAUSConstantBuffer@D3DX11Effects@@I@Z ; CEffectVector<D3DX11Effects::SConstantBuffer *>::operator[]
PUBLIC	?GetSize@?$CEffectVector@PAUSConstantBuffer@D3DX11Effects@@@@QBEIXZ ; CEffectVector<D3DX11Effects::SConstantBuffer *>::GetSize
PUBLIC	??0?$SShaderDependency@PAUSSamplerBlock@D3DX11Effects@@PAUID3D11SamplerState@@@D3DX11Effects@@QAE@XZ ; D3DX11Effects::SShaderDependency<D3DX11Effects::SSamplerBlock *,ID3D11SamplerState *>::SShaderDependency<D3DX11Effects::SSamplerBlock *,ID3D11SamplerState *>
PUBLIC	??0?$SShaderDependency@PAUSConstantBuffer@D3DX11Effects@@PAUID3D11Buffer@@@D3DX11Effects@@QAE@XZ ; D3DX11Effects::SShaderDependency<D3DX11Effects::SConstantBuffer *,ID3D11Buffer *>::SShaderDependency<D3DX11Effects::SConstantBuffer *,ID3D11Buffer *>
PUBLIC	??0?$SShaderDependency@PAUSInterface@D3DX11Effects@@PAUID3D11ClassInstance@@@D3DX11Effects@@QAE@XZ ; D3DX11Effects::SShaderDependency<D3DX11Effects::SInterface *,ID3D11ClassInstance *>::SShaderDependency<D3DX11Effects::SInterface *,ID3D11ClassInstance *>
PUBLIC	??0?$SShaderDependency@PAUSShaderResource@D3DX11Effects@@PAUID3D11ShaderResourceView@@@D3DX11Effects@@QAE@XZ ; D3DX11Effects::SShaderDependency<D3DX11Effects::SShaderResource *,ID3D11ShaderResourceView *>::SShaderDependency<D3DX11Effects::SShaderResource *,ID3D11ShaderResourceView *>
PUBLIC	??0?$SShaderDependency@PAUSUnorderedAccessView@D3DX11Effects@@PAUID3D11UnorderedAccessView@@@D3DX11Effects@@QAE@XZ ; D3DX11Effects::SShaderDependency<D3DX11Effects::SUnorderedAccessView *,ID3D11UnorderedAccessView *>::SShaderDependency<D3DX11Effects::SUnorderedAccessView *,ID3D11UnorderedAccessView *>
PUBLIC	??$CalculateBlockAssignmentSize@USPassBlock@D3DX11Effects@@@CEffectLoader@D3DX11Effects@@IAEIAAPAUSPassBlock@1@I@Z ; D3DX11Effects::CEffectLoader::CalculateBlockAssignmentSize<D3DX11Effects::SPassBlock>
PUBLIC	??$CalculateBlockAssignmentSize@USBlendBlock@D3DX11Effects@@@CEffectLoader@D3DX11Effects@@IAEIAAPAUSBlendBlock@1@I@Z ; D3DX11Effects::CEffectLoader::CalculateBlockAssignmentSize<D3DX11Effects::SBlendBlock>
PUBLIC	??$CalculateBlockAssignmentSize@USDepthStencilBlock@D3DX11Effects@@@CEffectLoader@D3DX11Effects@@IAEIAAPAUSDepthStencilBlock@1@I@Z ; D3DX11Effects::CEffectLoader::CalculateBlockAssignmentSize<D3DX11Effects::SDepthStencilBlock>
PUBLIC	??$CalculateBlockAssignmentSize@USRasterizerBlock@D3DX11Effects@@@CEffectLoader@D3DX11Effects@@IAEIAAPAUSRasterizerBlock@1@I@Z ; D3DX11Effects::CEffectLoader::CalculateBlockAssignmentSize<D3DX11Effects::SRasterizerBlock>
PUBLIC	??$CalculateBlockAssignmentSize@USSamplerBlock@D3DX11Effects@@@CEffectLoader@D3DX11Effects@@IAEIAAPAUSSamplerBlock@1@I@Z ; D3DX11Effects::CEffectLoader::CalculateBlockAssignmentSize<D3DX11Effects::SSamplerBlock>
PUBLIC	??$ReallocateBlockAssignments@USDepthStencilBlock@D3DX11Effects@@@CEffectLoader@D3DX11Effects@@IAEJAAPAUSDepthStencilBlock@1@IPAU21@@Z ; D3DX11Effects::CEffectLoader::ReallocateBlockAssignments<D3DX11Effects::SDepthStencilBlock>
PUBLIC	??$ReallocateBlockAssignments@USBlendBlock@D3DX11Effects@@@CEffectLoader@D3DX11Effects@@IAEJAAPAUSBlendBlock@1@IPAU21@@Z ; D3DX11Effects::CEffectLoader::ReallocateBlockAssignments<D3DX11Effects::SBlendBlock>
PUBLIC	??$ReallocateBlockAssignments@USRasterizerBlock@D3DX11Effects@@@CEffectLoader@D3DX11Effects@@IAEJAAPAUSRasterizerBlock@1@IPAU21@@Z ; D3DX11Effects::CEffectLoader::ReallocateBlockAssignments<D3DX11Effects::SRasterizerBlock>
PUBLIC	??$ReallocateBlockAssignments@USSamplerBlock@D3DX11Effects@@@CEffectLoader@D3DX11Effects@@IAEJAAPAUSSamplerBlock@1@IPAU21@@Z ; D3DX11Effects::CEffectLoader::ReallocateBlockAssignments<D3DX11Effects::SSamplerBlock>
PUBLIC	??$ReallocateBlockAssignments@USPassBlock@D3DX11Effects@@@CEffectLoader@D3DX11Effects@@IAEJAAPAUSPassBlock@1@IPAU21@@Z ; D3DX11Effects::CEffectLoader::ReallocateBlockAssignments<D3DX11Effects::SPassBlock>
PUBLIC	?IsValid@SConstantBuffer@D3DX11Effects@@W3AGHXZ	; [thunk]:D3DX11Effects::SConstantBuffer::IsValid`adjustor{4}'
PUBLIC	?__LINE__Var@?1??AlignToPowerOf2@@YAIII@Z@4JA	; `AlignToPowerOf2'::`2'::__LINE__Var
PUBLIC	??_C@_0CD@GECBLADO@?$CIAlignment?5?$CG?5?$CIAlignment?5?9?51?$CJ?$CJ?5?$DN?$DN@ ; `string'
PUBLIC	??_C@_0FC@PAPMLGFN@c?3?2users?2simon?2documents?2github?2@ ; `string'
PUBLIC	??_C@_0DA@FKFDAOLL@Alignment?5?$DO?50?5?$CG?$CG?5Value?5?$DM?50xfffff@ ; `string'
PUBLIC	?__LINE__Var@?1??AlignToPowerOf2@@YAPAXPAXI@Z@4JA ; `AlignToPowerOf2'::`2'::__LINE__Var
PUBLIC	?__LINE__Var@?1???2@YAPAXIAAVCDataBlockStore@@@Z@4JA@7084dd8d ; `operator new'::`2'::__LINE__Var
PUBLIC	??_C@_0BA@BGIBFJE@s?5?$DM?$DN?50xffffffff?$AA@	; `string'
PUBLIC	??_7SType@D3DX11Effects@@6B@			; D3DX11Effects::SType::`vftable'
PUBLIC	??_C@_01GBGANLPD@0?$AA@				; `string'
PUBLIC	??_7?$TUncastableVariable@UID3DX11EffectConstantBuffer@@@D3DX11Effects@@6B@ ; D3DX11Effects::TUncastableVariable<ID3DX11EffectConstantBuffer>::`vftable'
PUBLIC	??_7SConstantBuffer@D3DX11Effects@@6B?$TUncastableVariable@UID3DX11EffectConstantBuffer@@@1@@ ; D3DX11Effects::SConstantBuffer::`vftable'
PUBLIC	??_7SConstantBuffer@D3DX11Effects@@6BID3DX11EffectType@@@ ; D3DX11Effects::SConstantBuffer::`vftable'
PUBLIC	?g_lvGeneral@D3DX11Effects@@3QBULValue@1@B	; D3DX11Effects::g_lvGeneral
PUBLIC	??_C@_08FHHACIOE@SrcBlend?$AA@			; `string'
PUBLIC	??_C@_09PGFKOIGA@DestBlend?$AA@			; `string'
PUBLIC	??_C@_07CDPFEHAN@BlendOp?$AA@			; `string'
PUBLIC	??_C@_0O@NAACGGGK@SrcBlendAlpha?$AA@		; `string'
PUBLIC	??_C@_0P@GAOPNAKA@DestBlendAlpha?$AA@		; `string'
PUBLIC	??_C@_0N@DKCOEBAI@BlendOpAlpha?$AA@		; `string'
PUBLIC	??_C@_0BG@GLNCJOAF@RenderTargetWriteMask?$AA@	; `string'
PUBLIC	??_C@_06IBDJIBGI@Filter?$AA@			; `string'
PUBLIC	??_C@_08EIOBODP@AddressU?$AA@			; `string'
PUBLIC	??_C@_08CPKDENPM@AddressV?$AA@			; `string'
PUBLIC	??_C@_08DGLIHMLN@AddressW?$AA@			; `string'
PUBLIC	??_C@_0L@CFFHFEFO@MipLODBias?$AA@		; `string'
PUBLIC	??_C@_0O@IEMFCLON@MaxAnisotropy?$AA@		; `string'
PUBLIC	??_C@_0P@DNEECBOJ@ComparisonFunc?$AA@		; `string'
PUBLIC	??_C@_0M@DGENNPFN@BorderColor?$AA@		; `string'
PUBLIC	??_C@_06HAKHAEPP@MinLOD?$AA@			; `string'
PUBLIC	??_C@_06HDFEOELA@MaxLOD?$AA@			; `string'
PUBLIC	??_C@_07GKACAEDJ@Texture?$AA@			; `string'
PUBLIC	??_C@_0L@GABJGNCK@HullShader?$AA@		; `string'
PUBLIC	??_C@_0N@PCCENCDF@DomainShader?$AA@		; `string'
PUBLIC	??_C@_0O@OCHNEELN@ComputeShader?$AA@		; `string'
PUBLIC	?g_NullRasterizer@D3DX11Effects@@3USRasterizerBlock@1@A ; D3DX11Effects::g_NullRasterizer
PUBLIC	?g_NullDepthStencil@D3DX11Effects@@3USDepthStencilBlock@1@A ; D3DX11Effects::g_NullDepthStencil
PUBLIC	?g_NullBlend@D3DX11Effects@@3USBlendBlock@1@A	; D3DX11Effects::g_NullBlend
PUBLIC	?g_NullTexture@D3DX11Effects@@3USShaderResource@1@A ; D3DX11Effects::g_NullTexture
PUBLIC	?g_NullInterface@D3DX11Effects@@3USInterface@1@A ; D3DX11Effects::g_NullInterface
PUBLIC	?g_NullUnorderedAccessView@D3DX11Effects@@3USUnorderedAccessView@1@A ; D3DX11Effects::g_NullUnorderedAccessView
PUBLIC	?g_NullRenderTargetView@D3DX11Effects@@3USRenderTargetView@1@A ; D3DX11Effects::g_NullRenderTargetView
PUBLIC	?g_NullDepthStencilView@D3DX11Effects@@3USDepthStencilView@1@A ; D3DX11Effects::g_NullDepthStencilView
PUBLIC	?g_NullVS@D3DX11Effects@@3USShaderBlock@1@A	; D3DX11Effects::g_NullVS
PUBLIC	?g_NullGS@D3DX11Effects@@3USShaderBlock@1@A	; D3DX11Effects::g_NullGS
PUBLIC	?g_NullPS@D3DX11Effects@@3USShaderBlock@1@A	; D3DX11Effects::g_NullPS
PUBLIC	?g_NullHS@D3DX11Effects@@3USShaderBlock@1@A	; D3DX11Effects::g_NullHS
PUBLIC	?g_NullDS@D3DX11Effects@@3USShaderBlock@1@A	; D3DX11Effects::g_NullDS
PUBLIC	?g_NullCS@D3DX11Effects@@3USShaderBlock@1@A	; D3DX11Effects::g_NullCS
PUBLIC	?__LINE__Var@?1??GetSimpleParameterTypeFromObjectType@D3DX11Effects@@YA?AW4_D3D_SHADER_VARIABLE_TYPE@@W4EObjectType@2@@Z@4JA ; `D3DX11Effects::GetSimpleParameterTypeFromObjectType'::`2'::__LINE__Var
PUBLIC	??_C@_0FA@JDHJHLEA@c?3?2users?2simon?2documents?2github?2@ ; `string'
PUBLIC	?__LINE__Var@?1??ReserveMemory@CEffectHeap@D3DX11Effects@@QAEJI@Z@4JA ; `D3DX11Effects::CEffectHeap::ReserveMemory'::`2'::__LINE__Var
PUBLIC	??_C@_08BINKKIMB@?$CBm_pData?$AA@		; `string'
PUBLIC	??_C@_0DD@BFMHPEDF@dwSize?5?$DN?$DN?5AlignToPowerOf2?$CIdwSize@ ; `string'
PUBLIC	??_C@_0DF@IDKFFGGG@m_pData?5?$DN?$DN?5AlignToPowerOf2?$CIm_pDa@ ; `string'
PUBLIC	?__LINE__Var@?1??AddString@CEffectHeap@D3DX11Effects@@QAEJPBDPAPAD@Z@4JA ; `D3DX11Effects::CEffectHeap::AddString'::`2'::__LINE__Var
PUBLIC	??_C@_0BD@BAKFCGNM@size?5?$DM?$DN?50xffffffff?$AA@ ; `string'
PUBLIC	?__LINE__Var@?1??GetInterfaceParametersAndAddToReflection@CEffectLoader@D3DX11Effects@@IAEJIIPAPAUSInterfaceParameter@SShaderBlock@3@@Z@4JA ; `D3DX11Effects::CEffectLoader::GetInterfaceParametersAndAddToReflection'::`2'::__LINE__Var
PUBLIC	??_C@_0N@FLMPGDAJ@ppInterfaces?$AA@		; `string'
PUBLIC	?__LINE__Var@?1??FixupCBPointer@CEffectLoader@D3DX11Effects@@IAEJPAPAUSConstantBuffer@3@@Z@4JA ; `D3DX11Effects::CEffectLoader::FixupCBPointer'::`2'::__LINE__Var
PUBLIC	??_C@_0FJ@INHMCKEN@index?5?$CK?5sizeof?$CISConstantBuffer?$CJ?5@ ; `string'
PUBLIC	?__LINE__Var@?1??FixupShaderPointer@CEffectLoader@D3DX11Effects@@IAEJPAPAUSShaderBlock@3@@Z@4JA ; `D3DX11Effects::CEffectLoader::FixupShaderPointer'::`2'::__LINE__Var
PUBLIC	??_C@_0FB@MDPFEFHI@index?5?$CK?5sizeof?$CISShaderBlock?$CJ?5?$DN?$DN?5@ ; `string'
PUBLIC	?__LINE__Var@?1??FixupDSPointer@CEffectLoader@D3DX11Effects@@IAEJPAPAUSDepthStencilBlock@3@@Z@4JA ; `D3DX11Effects::CEffectLoader::FixupDSPointer'::`2'::__LINE__Var
PUBLIC	??_C@_0EO@EMFBLMHI@index?5?$CK?5sizeof?$CISDepthStencilBloc@ ; `string'
PUBLIC	?__LINE__Var@?1??FixupABPointer@CEffectLoader@D3DX11Effects@@IAEJPAPAUSBlendBlock@3@@Z@4JA ; `D3DX11Effects::CEffectLoader::FixupABPointer'::`2'::__LINE__Var
PUBLIC	??_C@_0EH@EEOKIBCN@index?5?$CK?5sizeof?$CISBlendBlock?$CJ?5?$DN?$DN?5?$CI@ ; `string'
PUBLIC	?__LINE__Var@?1??FixupRSPointer@CEffectLoader@D3DX11Effects@@IAEJPAPAUSRasterizerBlock@3@@Z@4JA ; `D3DX11Effects::CEffectLoader::FixupRSPointer'::`2'::__LINE__Var
PUBLIC	??_C@_0EM@COJALNDC@index?5?$CK?5sizeof?$CISRasterizerBlock?$CJ@ ; `string'
PUBLIC	?__LINE__Var@?1??FixupSamplerPointer@CEffectLoader@D3DX11Effects@@IAEJPAPAUSSamplerBlock@3@@Z@4JA ; `D3DX11Effects::CEffectLoader::FixupSamplerPointer'::`2'::__LINE__Var
PUBLIC	??_C@_0EP@DBMIHIDO@index?5?$CK?5sizeof?$CISSamplerBlock?$CJ?5?$DN?$DN@ ; `string'
PUBLIC	?__LINE__Var@?1??FixupInterfacePointer@CEffectLoader@D3DX11Effects@@IAEJPAPAUSInterface@3@_N@Z@4JA ; `D3DX11Effects::CEffectLoader::FixupInterfacePointer'::`2'::__LINE__Var
PUBLIC	??_C@_0FA@JGMDEBIG@index?5?$CK?5sizeof?$CISInterface?$CJ?5?$DN?$DN?5?$CI?$CI@ ; `string'
PUBLIC	?__LINE__Var@?1??FixupShaderResourcePointer@CEffectLoader@D3DX11Effects@@IAEJPAPAUSShaderResource@3@@Z@4JA ; `D3DX11Effects::CEffectLoader::FixupShaderResourcePointer'::`2'::__LINE__Var
PUBLIC	??_C@_0FJ@HNIAAANN@index?5?$CK?5sizeof?$CISShaderResource?$CJ?5@ ; `string'
PUBLIC	??_C@_0HL@CPLEJCIJ@index?5?$CK?5sizeof?$CISConstantBuffer?$CJ?5@ ; `string'
PUBLIC	?__LINE__Var@?1??FixupUnorderedAccessViewPointer@CEffectLoader@D3DX11Effects@@IAEJPAPAUSUnorderedAccessView@3@@Z@4JA ; `D3DX11Effects::CEffectLoader::FixupUnorderedAccessViewPointer'::`2'::__LINE__Var
PUBLIC	??_C@_0GO@DKPEPIML@index?5?$CK?5sizeof?$CISUnorderedAccessV@ ; `string'
PUBLIC	?__LINE__Var@?1??FixupRenderTargetViewPointer@CEffectLoader@D3DX11Effects@@IAEJPAPAUSRenderTargetView@3@@Z@4JA ; `D3DX11Effects::CEffectLoader::FixupRenderTargetViewPointer'::`2'::__LINE__Var
PUBLIC	??_C@_0GF@BPLAAPBL@index?5?$CK?5sizeof?$CISRenderTargetView@ ; `string'
PUBLIC	?__LINE__Var@?1??FixupDepthStencilViewPointer@CEffectLoader@D3DX11Effects@@IAEJPAPAUSDepthStencilView@3@@Z@4JA ; `D3DX11Effects::CEffectLoader::FixupDepthStencilViewPointer'::`2'::__LINE__Var
PUBLIC	??_C@_0GF@JFEJOMCF@index?5?$CK?5sizeof?$CISDepthStencilView@ ; `string'
PUBLIC	?__LINE__Var@?1??FixupStringPointer@CEffectLoader@D3DX11Effects@@IAEJPAPAUSString@3@@Z@4JA ; `D3DX11Effects::CEffectLoader::FixupStringPointer'::`2'::__LINE__Var
PUBLIC	??_C@_0EH@BOFKCOKB@index?5?$CK?5sizeof?$CISString?$CJ?5?$DN?$DN?5?$CI?$CIsiz@ ; `string'
PUBLIC	?__LINE__Var@?1??FixupMemberDataPointer@CEffectLoader@D3DX11Effects@@IAEJPAPAUSMemberDataPointer@3@@Z@4JA ; `D3DX11Effects::CEffectLoader::FixupMemberDataPointer'::`2'::__LINE__Var
PUBLIC	??_C@_0FP@HCBEHMGA@index?5?$CK?5sizeof?$CISMemberDataPointe@ ; `string'
PUBLIC	?__LINE__Var@?1??FixupVariablePointer@CEffectLoader@D3DX11Effects@@IAEJPAPAUSGlobalVariable@3@@Z@4JA ; `D3DX11Effects::CEffectLoader::FixupVariablePointer'::`2'::__LINE__Var
PUBLIC	??_C@_0EJ@ODBKDCBD@index?5?$CK?5sizeof?$CISGlobalVariable?$CJ?5@ ; `string'
PUBLIC	?__LINE__Var@?1??FixupGroupPointer@CEffectLoader@D3DX11Effects@@IAEJPAPAUSGroup@3@@Z@4JA ; `D3DX11Effects::CEffectLoader::FixupGroupPointer'::`2'::__LINE__Var
PUBLIC	??_C@_0EE@IAMBMFNL@index?5?$CK?5sizeof?$CISGroup?$CJ?5?$DN?$DN?5?$CI?$CIsize@ ; `string'
PUBLIC	?__LINE__Var@?1??GetEffectVersion@D3DX11Effects@@YAJIPAK@Z@4JA ; `D3DX11Effects::GetEffectVersion'::`2'::__LINE__Var
PUBLIC	??_C@_0BB@EKHKLBAF@pVersion?5?$CB?$DN?5NULL?$AA@ ; `string'
PUBLIC	?__LINE__Var@?1??LoadEffect@CEffectLoader@D3DX11Effects@@QAEJPAVCEffect@3@PBXI@Z@4JA ; `D3DX11Effects::CEffectLoader::LoadEffect'::`2'::__LINE__Var
PUBLIC	??_C@_0BJ@CKANEIJE@pEffect?5?$CG?$CG?5pEffectBuffer?$AA@ ; `string'
PUBLIC	?__LINE__Var@?1??LoadStringAndAddToPool@CEffectLoader@D3DX11Effects@@IAEJPAPADI@Z@4JA ; `D3DX11Effects::CEffectLoader::LoadStringAndAddToPool'::`2'::__LINE__Var
PUBLIC	??_C@_0CB@IDNKIKCE@m_pEffect?9?$DOm_pPooledHeap?5?$CB?$DN?5NULL@ ; `string'
PUBLIC	?__LINE__Var@?1??LoadTypeAndAddToPool@CEffectLoader@D3DX11Effects@@IAEJPAPAUSType@3@I@Z@4JA ; `D3DX11Effects::CEffectLoader::LoadTypeAndAddToPool'::`2'::__LINE__Var
PUBLIC	?__LINE__Var@?1??UnpackData@CEffectLoader@D3DX11Effects@@IAEIPAE0IPAUSType@3@PAI@Z@4JA ; `D3DX11Effects::CEffectLoader::UnpackData'::`2'::__LINE__Var
PUBLIC	??_C@_0GF@KAFJAGGJ@?$CIUINT_PTR?$CJpType?9?$DOStructType?4pMem@ ; `string'
PUBLIC	??_C@_0BL@MBHMPHIB@PackedDataSize?5?$DO?5bytesRead?$AA@ ; `string'
PUBLIC	?__LINE__Var@?1??LoadAssignments@CEffectLoader@D3DX11Effects@@IAEJIPAPAUSAssignment@3@PAEPAI2@Z@4JA ; `D3DX11Effects::CEffectLoader::LoadAssignments'::`2'::__LINE__Var
PUBLIC	??_C@_0DB@DHBABGJO@g_lvGeneral?$FLpsAssignments?$FLi?$FN?4iSt@ ; `string'
PUBLIC	??_C@_0CC@HBGMAMIM@pAssignment?9?$DOIsObjectAssignment?$CI@ ; `string'
PUBLIC	?__LINE__Var@?1??GrabShaderData@CEffectLoader@D3DX11Effects@@IAEJPAUSShaderBlock@3@@Z@4JA ; `D3DX11Effects::CEffectLoader::GrabShaderData'::`2'::__LINE__Var
PUBLIC	??_C@_0BK@FLKFENGC@pRange?9?$DOlast?5?$DM?$DN?5bindPoint?$AA@ ; `string'
PUBLIC	??_C@_0BP@KPGDMHCO@ShaderDesc?4ConstantBuffers?5?$DO?50?$AA@ ; `string'
PUBLIC	??_C@_0DD@KDJDPJGM@InterfaceDesc?4uFlags?5?$CG?5D3D11_SVF@ ; `string'
PUBLIC	??_C@_09LHJJGINI@size?5?$DN?$DN?51?$AA@		; `string'
PUBLIC	??_C@_0BK@HKMDMOLB@bindPoint?5?$DN?$DN?5pRange?9?$DOlast?$AA@ ; `string'
PUBLIC	??_C@_0CM@MAFMDAKC@pDep?9?$DOCount?5?$DN?$DN?5pRange?9?$DOvResource@ ; `string'
PUBLIC	?__LINE__Var@?1??BuildShaderBlock@CEffectLoader@D3DX11Effects@@IAEJPAUSShaderBlock@3@@Z@4JA ; `D3DX11Effects::CEffectLoader::BuildShaderBlock'::`2'::__LINE__Var
PUBLIC	??_C@_0CB@OFFCFNOA@pShaderBlock?9?$DOpD3DObject?5?$DN?$DN?5NULL@ ; `string'
PUBLIC	??_C@_0CK@DHOBBOIG@pShaderBlock?9?$DOpInputSignatureBlo@ ; `string'
PUBLIC	??_C@_0DB@CCEAMAH@Internal?5loading?5error?3?5cannot?5m@ ; `string'
PUBLIC	?__LINE__Var@?1??ReallocateEffectData@CEffectLoader@D3DX11Effects@@IAEJ_N@Z@4JA ; `D3DX11Effects::CEffectLoader::ReallocateEffectData'::`2'::__LINE__Var
PUBLIC	??_C@_0CC@JJDOBLOA@m_BackgroundInterfaces?$FLi?$FN?5?$CB?$DN?5NUL@ ; `string'
PUBLIC	??_C@_0GI@CBPKGJFM@pMember?9?$DOData?4pGeneric?5?$DN?$DN?5NULL?5?$HM@ ; `string'
PUBLIC	??_C@_0CA@ONKMEPNK@ID3DX11EffectVariable?3?3AsScalar?$AA@ ; `string'
PUBLIC	??_C@_0CA@IMDOICHK@ID3DX11EffectVariable?3?3AsVector?$AA@ ; `string'
PUBLIC	??_C@_0CA@HLLPIICO@ID3DX11EffectVariable?3?3AsMatrix?$AA@ ; `string'
PUBLIC	??_C@_0CA@NPAIMBLA@ID3DX11EffectVariable?3?3AsString?$AA@ ; `string'
PUBLIC	??_C@_0CH@DGGONKPA@ID3DX11EffectVariable?3?3AsClassIn@ ; `string'
PUBLIC	??_C@_0CD@IJDMLLGC@ID3DX11EffectVariable?3?3AsInterfa@ ; `string'
PUBLIC	??_C@_0CI@CAHLNOAL@ID3DX11EffectVariable?3?3AsShaderR@ ; `string'
PUBLIC	??_C@_0CN@NNAKDDLF@ID3DX11EffectVariable?3?3AsUnorder@ ; `string'
PUBLIC	??_C@_0CK@MBMJDIEM@ID3DX11EffectVariable?3?3AsRenderT@ ; `string'
PUBLIC	??_C@_0CK@BDFLCADG@ID3DX11EffectVariable?3?3AsDepthSt@ ; `string'
PUBLIC	??_C@_0CI@NALNEDPE@ID3DX11EffectVariable?3?3AsConstan@ ; `string'
PUBLIC	??_C@_0CA@EFNGDPCK@ID3DX11EffectVariable?3?3AsShader?$AA@ ; `string'
PUBLIC	??_C@_0BP@BBIMBLAD@ID3DX11EffectVariable?3?3AsBlend?$AA@ ; `string'
PUBLIC	??_C@_0CG@OKHHDBGN@ID3DX11EffectVariable?3?3AsDepthSt@ ; `string'
PUBLIC	??_C@_0CE@DBMPNCNM@ID3DX11EffectVariable?3?3AsRasteri@ ; `string'
PUBLIC	??_C@_0CB@NFKMEKAI@ID3DX11EffectVariable?3?3AsSampler@ ; `string'
PUBLIC	??_C@_0BC@HKPIIPPC@index?5?$DM?5m_CurSize?$AA@	; `string'
PUBLIC	??_C@_0BH@ONGAIIBI@NULL?5?$DN?$DN?5m_pPrivateHeap?$AA@ ; `string'
PUBLIC	??_C@_0BH@NPDKKNAK@NULL?5?$CB?$DN?5m_pPrivateHeap?$AA@ ; `string'
PUBLIC	??_C@_0BD@EGDKBIFK@m_NumHashSlots?5?$DO?50?$AA@	; `string'
PUBLIC	??_C@_0BD@NLANFHLH@NULL?5?$CB?$DN?5pHashEntry?$AA@ ; `string'
PUBLIC	??_C@_0BP@NMGLEII@valuesMigrated?5?$DN?$DN?5m_NumEntries?$AA@ ; `string'
PUBLIC	??_C@_0EM@CAMAPMFM@pIterator?9?$DOppHashSlot?5?$DO?$DN?5m_rgpHa@ ; `string'
PUBLIC	??_C@_0BO@BGHPDFMF@NULL?5?$CB?$DN?5pIterator?9?$DOpHashEntry?$AA@ ; `string'
PUBLIC	??_C@_0DL@GPKFPIPI@?$CKppPointer?5?$DN?$DN?5AlignToPowerOf2?$CI?$CKp@ ; `string'
PUBLIC	??_C@_0EH@BPELLKNA@?$CBpAssignment?9?$DOIsObjectAssignment@ ; `string'
PUBLIC	??_C@_0EG@GMMJAJM@pVariable?9?$DOpType?9?$DOBelongsInConst@ ; `string'
PUBLIC	??_C@_0BM@CFJFHGND@m_pEffect?9?$DOm_LocalTimer?5?$DO?50?$AA@ ; `string'
PUBLIC	??_R0?AUID3DX11EffectType@@@8			; ID3DX11EffectType `RTTI Type Descriptor'
PUBLIC	??_R3ID3DX11EffectType@@8			; ID3DX11EffectType::`RTTI Class Hierarchy Descriptor'
PUBLIC	??_R2ID3DX11EffectType@@8			; ID3DX11EffectType::`RTTI Base Class Array'
PUBLIC	??_R1A@?0A@EA@ID3DX11EffectType@@8		; ID3DX11EffectType::`RTTI Base Class Descriptor at (0,-1,0,64)'
PUBLIC	??_R0?AUID3DX11EffectVariable@@@8		; ID3DX11EffectVariable `RTTI Type Descriptor'
PUBLIC	??_R3ID3DX11EffectVariable@@8			; ID3DX11EffectVariable::`RTTI Class Hierarchy Descriptor'
PUBLIC	??_R2ID3DX11EffectVariable@@8			; ID3DX11EffectVariable::`RTTI Base Class Array'
PUBLIC	??_R1A@?0A@EA@ID3DX11EffectVariable@@8		; ID3DX11EffectVariable::`RTTI Base Class Descriptor at (0,-1,0,64)'
PUBLIC	??_R0?AUID3DX11EffectConstantBuffer@@@8		; ID3DX11EffectConstantBuffer `RTTI Type Descriptor'
PUBLIC	??_R3ID3DX11EffectConstantBuffer@@8		; ID3DX11EffectConstantBuffer::`RTTI Class Hierarchy Descriptor'
PUBLIC	??_R2ID3DX11EffectConstantBuffer@@8		; ID3DX11EffectConstantBuffer::`RTTI Base Class Array'
PUBLIC	??_R1A@?0A@EA@ID3DX11EffectConstantBuffer@@8	; ID3DX11EffectConstantBuffer::`RTTI Base Class Descriptor at (0,-1,0,64)'
PUBLIC	??_R4SConstantBuffer@D3DX11Effects@@6B?$TUncastableVariable@UID3DX11EffectConstantBuffer@@@1@@ ; D3DX11Effects::SConstantBuffer::`RTTI Complete Object Locator'
PUBLIC	??_R0?AUSConstantBuffer@D3DX11Effects@@@8	; D3DX11Effects::SConstantBuffer `RTTI Type Descriptor'
PUBLIC	??_R3SConstantBuffer@D3DX11Effects@@8		; D3DX11Effects::SConstantBuffer::`RTTI Class Hierarchy Descriptor'
PUBLIC	??_R2SConstantBuffer@D3DX11Effects@@8		; D3DX11Effects::SConstantBuffer::`RTTI Base Class Array'
PUBLIC	??_R1A@?0A@EA@SConstantBuffer@D3DX11Effects@@8	; D3DX11Effects::SConstantBuffer::`RTTI Base Class Descriptor at (0,-1,0,64)'
PUBLIC	??_R1A@?0A@EA@?$TUncastableVariable@UID3DX11EffectConstantBuffer@@@D3DX11Effects@@8 ; D3DX11Effects::TUncastableVariable<ID3DX11EffectConstantBuffer>::`RTTI Base Class Descriptor at (0,-1,0,64)'
PUBLIC	??_R0?AU?$TUncastableVariable@UID3DX11EffectConstantBuffer@@@D3DX11Effects@@@8 ; D3DX11Effects::TUncastableVariable<ID3DX11EffectConstantBuffer> `RTTI Type Descriptor'
PUBLIC	??_R3?$TUncastableVariable@UID3DX11EffectConstantBuffer@@@D3DX11Effects@@8 ; D3DX11Effects::TUncastableVariable<ID3DX11EffectConstantBuffer>::`RTTI Class Hierarchy Descriptor'
PUBLIC	??_R2?$TUncastableVariable@UID3DX11EffectConstantBuffer@@@D3DX11Effects@@8 ; D3DX11Effects::TUncastableVariable<ID3DX11EffectConstantBuffer>::`RTTI Base Class Array'
PUBLIC	??_R13?0A@EA@ID3DX11EffectType@@8		; ID3DX11EffectType::`RTTI Base Class Descriptor at (4,-1,0,64)'
PUBLIC	??_R4SConstantBuffer@D3DX11Effects@@6BID3DX11EffectType@@@ ; D3DX11Effects::SConstantBuffer::`RTTI Complete Object Locator'
PUBLIC	??_R4SType@D3DX11Effects@@6B@			; D3DX11Effects::SType::`RTTI Complete Object Locator'
PUBLIC	??_R0?AUSType@D3DX11Effects@@@8			; D3DX11Effects::SType `RTTI Type Descriptor'
PUBLIC	??_R3SType@D3DX11Effects@@8			; D3DX11Effects::SType::`RTTI Class Hierarchy Descriptor'
PUBLIC	??_R2SType@D3DX11Effects@@8			; D3DX11Effects::SType::`RTTI Base Class Array'
PUBLIC	??_R1A@?0A@EA@SType@D3DX11Effects@@8		; D3DX11Effects::SType::`RTTI Base Class Descriptor at (0,-1,0,64)'
PUBLIC	??_R4?$TUncastableVariable@UID3DX11EffectConstantBuffer@@@D3DX11Effects@@6B@ ; D3DX11Effects::TUncastableVariable<ID3DX11EffectConstantBuffer>::`RTTI Complete Object Locator'
EXTRN	??_L@YGXPAXIHP6EX0@Z1@Z:PROC			; `eh vector constructor iterator'
EXTRN	??_M@YGXPAXIHP6EX0@Z@Z:PROC			; `eh vector destructor iterator'
EXTRN	__purecall:PROC
EXTRN	??3@YAXPAX@Z:PROC				; operator delete
EXTRN	??_V@YAXPAX@Z:PROC				; operator delete[]
EXTRN	??2@YAPAXIABUnothrow_t@std@@@Z:PROC		; operator new
EXTRN	??_U@YAPAXIABUnothrow_t@std@@@Z:PROC		; operator new[]
EXTRN	??3@YAXPAXABUnothrow_t@std@@@Z:PROC		; operator delete
EXTRN	??_V@YAXPAXABUnothrow_t@std@@@Z:PROC		; operator delete[]
EXTRN	?D3DXDebugAssert@@YGHPBDH0@Z:PROC		; D3DXDebugAssert
EXTRN	?SetData@CMemoryStream@D3DX11Core@@QAEJPBXK@Z:PROC ; D3DX11Core::CMemoryStream::SetData
EXTRN	?Read@CMemoryStream@D3DX11Core@@QAEJPAI@Z:PROC	; D3DX11Core::CMemoryStream::Read
EXTRN	?Read@CMemoryStream@D3DX11Core@@QAEJPAPAXK@Z:PROC ; D3DX11Core::CMemoryStream::Read
EXTRN	?ReadAtOffset@CMemoryStream@D3DX11Core@@QAEJKKPAPAX@Z:PROC ; D3DX11Core::CMemoryStream::ReadAtOffset
EXTRN	?ReadAtOffset@CMemoryStream@D3DX11Core@@QAEJKPAPBD@Z:PROC ; D3DX11Core::CMemoryStream::ReadAtOffset
EXTRN	?GetPosition@CMemoryStream@D3DX11Core@@QAEKXZ:PROC ; D3DX11Core::CMemoryStream::GetPosition
EXTRN	?Seek@CMemoryStream@D3DX11Core@@QAEJK@Z:PROC	; D3DX11Core::CMemoryStream::Seek
EXTRN	??0CMemoryStream@D3DX11Core@@QAE@XZ:PROC	; D3DX11Core::CMemoryStream::CMemoryStream
EXTRN	??1CMemoryStream@D3DX11Core@@QAE@XZ:PROC	; D3DX11Core::CMemoryStream::~CMemoryStream
EXTRN	?Allocate@CDataBlockStore@@QAEPAXI@Z:PROC	; CDataBlockStore::Allocate
EXTRN	?EnableAlignment@CDataBlockStore@@QAEXXZ:PROC	; CDataBlockStore::EnableAlignment
EXTRN	??0CDataBlockStore@@QAE@XZ:PROC			; CDataBlockStore::CDataBlockStore
EXTRN	??1CDataBlockStore@@QAE@XZ:PROC			; CDataBlockStore::~CDataBlockStore
EXTRN	?IsEqual@SType@D3DX11Effects@@QBEHPAU12@@Z:PROC	; D3DX11Effects::SType::IsEqual
EXTRN	?GetDescHelper@SType@D3DX11Effects@@QBEJPAU_D3DX11_EFFECT_TYPE_DESC@@H@Z:PROC ; D3DX11Effects::SType::GetDescHelper
EXTRN	?GetMemberTypeByIndex@SType@D3DX11Effects@@UAGPAUID3DX11EffectType@@I@Z:PROC ; D3DX11Effects::SType::GetMemberTypeByIndex
EXTRN	?GetMemberTypeByName@SType@D3DX11Effects@@UAGPAUID3DX11EffectType@@PBD@Z:PROC ; D3DX11Effects::SType::GetMemberTypeByName
EXTRN	?GetMemberTypeBySemantic@SType@D3DX11Effects@@UAGPAUID3DX11EffectType@@PBD@Z:PROC ; D3DX11Effects::SType::GetMemberTypeBySemantic
EXTRN	?GetMemberName@SType@D3DX11Effects@@UAGPBDI@Z:PROC ; D3DX11Effects::SType::GetMemberName
EXTRN	?GetMemberSemantic@SType@D3DX11Effects@@UAGPBDI@Z:PROC ; D3DX11Effects::SType::GetMemberSemantic
EXTRN	?GetBlockByIndex@D3DX11Effects@@YAPAXW4EVarType@1@W4EObjectType@1@PAXI@Z:PROC ; D3DX11Effects::GetBlockByIndex
EXTRN	??0STechnique@D3DX11Effects@@QAE@XZ:PROC	; D3DX11Effects::STechnique::STechnique
EXTRN	??0SGroup@D3DX11Effects@@QAE@XZ:PROC		; D3DX11Effects::SGroup::SGroup
EXTRN	??0SPassBlock@D3DX11Effects@@QAE@XZ:PROC	; D3DX11Effects::SPassBlock::SPassBlock
EXTRN	?CheckDependencies@SPassBlock@D3DX11Effects@@QAEHXZ:PROC ; D3DX11Effects::SPassBlock::CheckDependencies
EXTRN	??0SDepthStencilBlock@D3DX11Effects@@QAE@XZ:PROC ; D3DX11Effects::SDepthStencilBlock::SDepthStencilBlock
EXTRN	??0SBlendBlock@D3DX11Effects@@QAE@XZ:PROC	; D3DX11Effects::SBlendBlock::SBlendBlock
EXTRN	??0SRasterizerBlock@D3DX11Effects@@QAE@XZ:PROC	; D3DX11Effects::SRasterizerBlock::SRasterizerBlock
EXTRN	??0SSamplerBlock@D3DX11Effects@@QAE@XZ:PROC	; D3DX11Effects::SSamplerBlock::SSamplerBlock
EXTRN	??0SRenderTargetView@D3DX11Effects@@QAE@XZ:PROC	; D3DX11Effects::SRenderTargetView::SRenderTargetView
EXTRN	??0SDepthStencilView@D3DX11Effects@@QAE@XZ:PROC	; D3DX11Effects::SDepthStencilView::SDepthStencilView
EXTRN	??0SShaderBlock@D3DX11Effects@@QAE@PAUSD3DShaderVTable@1@@Z:PROC ; D3DX11Effects::SShaderBlock::SShaderBlock
EXTRN	?GetShaderType@SShaderBlock@D3DX11Effects@@QAE?AW4EObjectType@2@XZ:PROC ; D3DX11Effects::SShaderBlock::GetShaderType
EXTRN	??0SString@D3DX11Effects@@QAE@XZ:PROC		; D3DX11Effects::SString::SString
EXTRN	?PlacementNewVariable@D3DX11Effects@@YAJPAXPAUSType@1@H@Z:PROC ; D3DX11Effects::PlacementNewVariable
EXTRN	??0SAnonymousShader@D3DX11Effects@@QAE@PAUSShaderBlock@1@@Z:PROC ; D3DX11Effects::SAnonymousShader::SAnonymousShader
EXTRN	?IsValid@SConstantBuffer@D3DX11Effects@@UAGHXZ:PROC ; D3DX11Effects::SConstantBuffer::IsValid
EXTRN	?GetType@SConstantBuffer@D3DX11Effects@@UAGPAUID3DX11EffectType@@XZ:PROC ; D3DX11Effects::SConstantBuffer::GetType
EXTRN	?GetDesc@SConstantBuffer@D3DX11Effects@@UAGJPAU_D3DX11_EFFECT_VARIABLE_DESC@@@Z:PROC ; D3DX11Effects::SConstantBuffer::GetDesc
EXTRN	?GetAnnotationByIndex@SConstantBuffer@D3DX11Effects@@UAGPAUID3DX11EffectVariable@@I@Z:PROC ; D3DX11Effects::SConstantBuffer::GetAnnotationByIndex
EXTRN	?GetAnnotationByName@SConstantBuffer@D3DX11Effects@@UAGPAUID3DX11EffectVariable@@PBD@Z:PROC ; D3DX11Effects::SConstantBuffer::GetAnnotationByName
EXTRN	?GetMemberByIndex@SConstantBuffer@D3DX11Effects@@UAGPAUID3DX11EffectVariable@@I@Z:PROC ; D3DX11Effects::SConstantBuffer::GetMemberByIndex
EXTRN	?GetMemberByName@SConstantBuffer@D3DX11Effects@@UAGPAUID3DX11EffectVariable@@PBD@Z:PROC ; D3DX11Effects::SConstantBuffer::GetMemberByName
EXTRN	?GetMemberBySemantic@SConstantBuffer@D3DX11Effects@@UAGPAUID3DX11EffectVariable@@PBD@Z:PROC ; D3DX11Effects::SConstantBuffer::GetMemberBySemantic
EXTRN	?GetElement@SConstantBuffer@D3DX11Effects@@UAGPAUID3DX11EffectVariable@@I@Z:PROC ; D3DX11Effects::SConstantBuffer::GetElement
EXTRN	?GetParentConstantBuffer@SConstantBuffer@D3DX11Effects@@UAGPAUID3DX11EffectConstantBuffer@@XZ:PROC ; D3DX11Effects::SConstantBuffer::GetParentConstantBuffer
EXTRN	?AsConstantBuffer@SConstantBuffer@D3DX11Effects@@UAGPAUID3DX11EffectConstantBuffer@@XZ:PROC ; D3DX11Effects::SConstantBuffer::AsConstantBuffer
EXTRN	?SetRawValue@SConstantBuffer@D3DX11Effects@@UAGJPBXII@Z:PROC ; D3DX11Effects::SConstantBuffer::SetRawValue
EXTRN	?GetRawValue@SConstantBuffer@D3DX11Effects@@UAGJPAXII@Z:PROC ; D3DX11Effects::SConstantBuffer::GetRawValue
EXTRN	?SetConstantBuffer@SConstantBuffer@D3DX11Effects@@UAGJPAUID3D11Buffer@@@Z:PROC ; D3DX11Effects::SConstantBuffer::SetConstantBuffer
EXTRN	?GetConstantBuffer@SConstantBuffer@D3DX11Effects@@UAGJPAPAUID3D11Buffer@@@Z:PROC ; D3DX11Effects::SConstantBuffer::GetConstantBuffer
EXTRN	?UndoSetConstantBuffer@SConstantBuffer@D3DX11Effects@@UAGJXZ:PROC ; D3DX11Effects::SConstantBuffer::UndoSetConstantBuffer
EXTRN	?SetTextureBuffer@SConstantBuffer@D3DX11Effects@@UAGJPAUID3D11ShaderResourceView@@@Z:PROC ; D3DX11Effects::SConstantBuffer::SetTextureBuffer
EXTRN	?GetTextureBuffer@SConstantBuffer@D3DX11Effects@@UAGJPAPAUID3D11ShaderResourceView@@@Z:PROC ; D3DX11Effects::SConstantBuffer::GetTextureBuffer
EXTRN	?UndoSetTextureBuffer@SConstantBuffer@D3DX11Effects@@UAGJXZ:PROC ; D3DX11Effects::SConstantBuffer::UndoSetTextureBuffer
EXTRN	?GetDesc@SConstantBuffer@D3DX11Effects@@UAGJPAU_D3DX11_EFFECT_TYPE_DESC@@@Z:PROC ; D3DX11Effects::SConstantBuffer::GetDesc
EXTRN	?GetMemberTypeByIndex@SConstantBuffer@D3DX11Effects@@UAGPAUID3DX11EffectType@@I@Z:PROC ; D3DX11Effects::SConstantBuffer::GetMemberTypeByIndex
EXTRN	?GetMemberTypeByName@SConstantBuffer@D3DX11Effects@@UAGPAUID3DX11EffectType@@PBD@Z:PROC ; D3DX11Effects::SConstantBuffer::GetMemberTypeByName
EXTRN	?GetMemberTypeBySemantic@SConstantBuffer@D3DX11Effects@@UAGPAUID3DX11EffectType@@PBD@Z:PROC ; D3DX11Effects::SConstantBuffer::GetMemberTypeBySemantic
EXTRN	?GetMemberName@SConstantBuffer@D3DX11Effects@@UAGPBDI@Z:PROC ; D3DX11Effects::SConstantBuffer::GetMemberName
EXTRN	?GetMemberSemantic@SConstantBuffer@D3DX11Effects@@UAGPBDI@Z:PROC ; D3DX11Effects::SConstantBuffer::GetMemberSemantic
EXTRN	?EvaluateAssignment@CEffect@D3DX11Effects@@IAEHPAUSAssignment@2@@Z:PROC ; D3DX11Effects::CEffect::EvaluateAssignment
EXTRN	?FindVariableByName@CEffect@D3DX11Effects@@IAEPAUSGlobalVariable@2@PBD@Z:PROC ; D3DX11Effects::CEffect::FindVariableByName
EXTRN	?FindVariableByNameWithParsing@CEffect@D3DX11Effects@@IAEPAUSVariable@2@PBD@Z:PROC ; D3DX11Effects::CEffect::FindVariableByNameWithParsing
EXTRN	?FindCB@CEffect@D3DX11Effects@@IAEPAUSConstantBuffer@2@PBD@Z:PROC ; D3DX11Effects::CEffect::FindCB
EXTRN	?ReleaseShaderRefection@CEffect@D3DX11Effects@@QAEXXZ:PROC ; D3DX11Effects::CEffect::ReleaseShaderRefection
EXTRN	_D3DReflect@16:PROC
EXTRN	_D3DGetInputSignatureBlob@12:PROC
EXTRN	@_RTC_CheckStackVars@8:PROC
EXTRN	@__security_check_cookie@4:PROC
EXTRN	__RTC_CheckEsp:PROC
EXTRN	__RTC_InitBase:PROC
EXTRN	__RTC_Shutdown:PROC
EXTRN	___CxxFrameHandler3:PROC
EXTRN	__ftoui3:PROC
EXTRN	_memcpy:PROC
EXTRN	_memset:PROC
EXTRN	?nothrow@std@@3Unothrow_t@1@B:BYTE		; std::nothrow
EXTRN	?g_InvalidScalarVariable@D3DX11Effects@@3USEffectInvalidScalarVariable@1@A:DWORD ; D3DX11Effects::g_InvalidScalarVariable
EXTRN	?g_InvalidVectorVariable@D3DX11Effects@@3USEffectInvalidVectorVariable@1@A:DWORD ; D3DX11Effects::g_InvalidVectorVariable
EXTRN	?g_InvalidMatrixVariable@D3DX11Effects@@3USEffectInvalidMatrixVariable@1@A:DWORD ; D3DX11Effects::g_InvalidMatrixVariable
EXTRN	?g_InvalidStringVariable@D3DX11Effects@@3USEffectInvalidStringVariable@1@A:DWORD ; D3DX11Effects::g_InvalidStringVariable
EXTRN	?g_InvalidClassInstanceVariable@D3DX11Effects@@3USEffectInvalidClassInstanceVariable@1@A:DWORD ; D3DX11Effects::g_InvalidClassInstanceVariable
EXTRN	?g_InvalidInterfaceVariable@D3DX11Effects@@3USEffectInvalidInterfaceVariable@1@A:DWORD ; D3DX11Effects::g_InvalidInterfaceVariable
EXTRN	?g_InvalidShaderResourceVariable@D3DX11Effects@@3USEffectInvalidShaderResourceVariable@1@A:DWORD ; D3DX11Effects::g_InvalidShaderResourceVariable
EXTRN	?g_InvalidUnorderedAccessViewVariable@D3DX11Effects@@3USEffectInvalidUnorderedAccessViewVariable@1@A:DWORD ; D3DX11Effects::g_InvalidUnorderedAccessViewVariable
EXTRN	?g_InvalidRenderTargetViewVariable@D3DX11Effects@@3USEffectInvalidRenderTargetViewVariable@1@A:DWORD ; D3DX11Effects::g_InvalidRenderTargetViewVariable
EXTRN	?g_InvalidDepthStencilViewVariable@D3DX11Effects@@3USEffectInvalidDepthStencilViewVariable@1@A:DWORD ; D3DX11Effects::g_InvalidDepthStencilViewVariable
EXTRN	?g_InvalidConstantBuffer@D3DX11Effects@@3USEffectInvalidConstantBuffer@1@A:DWORD ; D3DX11Effects::g_InvalidConstantBuffer
EXTRN	?g_InvalidShaderVariable@D3DX11Effects@@3USEffectInvalidShaderVariable@1@A:DWORD ; D3DX11Effects::g_InvalidShaderVariable
EXTRN	?g_InvalidBlendVariable@D3DX11Effects@@3USEffectInvalidBlendVariable@1@A:DWORD ; D3DX11Effects::g_InvalidBlendVariable
EXTRN	?g_InvalidDepthStencilVariable@D3DX11Effects@@3USEffectInvalidDepthStencilVariable@1@A:DWORD ; D3DX11Effects::g_InvalidDepthStencilVariable
EXTRN	?g_InvalidRasterizerVariable@D3DX11Effects@@3USEffectInvalidRasterizerVariable@1@A:DWORD ; D3DX11Effects::g_InvalidRasterizerVariable
EXTRN	?g_InvalidSamplerVariable@D3DX11Effects@@3USEffectInvalidSamplerVariable@1@A:DWORD ; D3DX11Effects::g_InvalidSamplerVariable
EXTRN	??_7type_info@@6B@:QWORD			; type_info::`vftable'
EXTRN	___security_cookie:DWORD
EXTRN	__fltused:DWORD
_BSS	SEGMENT
?g_NullRasterizer@D3DX11Effects@@3USRasterizerBlock@1@A DB 040H DUP (?) ; D3DX11Effects::g_NullRasterizer
?g_NullDepthStencil@D3DX11Effects@@3USDepthStencilBlock@1@A DB 04cH DUP (?) ; D3DX11Effects::g_NullDepthStencil
?g_NullBlend@D3DX11Effects@@3USBlendBlock@1@A DB 0120H DUP (?) ; D3DX11Effects::g_NullBlend
?g_NullTexture@D3DX11Effects@@3USShaderResource@1@A DD 01H DUP (?) ; D3DX11Effects::g_NullTexture
?g_NullInterface@D3DX11Effects@@3USInterface@1@A DD 01H DUP (?) ; D3DX11Effects::g_NullInterface
?g_NullUnorderedAccessView@D3DX11Effects@@3USUnorderedAccessView@1@A DD 01H DUP (?) ; D3DX11Effects::g_NullUnorderedAccessView
?g_NullRenderTargetView@D3DX11Effects@@3USRenderTargetView@1@A DD 01H DUP (?) ; D3DX11Effects::g_NullRenderTargetView
?g_NullDepthStencilView@D3DX11Effects@@3USDepthStencilView@1@A DD 01H DUP (?) ; D3DX11Effects::g_NullDepthStencilView
?g_NullVS@D3DX11Effects@@3USShaderBlock@1@A DB 044H DUP (?) ; D3DX11Effects::g_NullVS
?g_NullGS@D3DX11Effects@@3USShaderBlock@1@A DB 044H DUP (?) ; D3DX11Effects::g_NullGS
?g_NullPS@D3DX11Effects@@3USShaderBlock@1@A DB 044H DUP (?) ; D3DX11Effects::g_NullPS
?g_NullHS@D3DX11Effects@@3USShaderBlock@1@A DB 044H DUP (?) ; D3DX11Effects::g_NullHS
?g_NullDS@D3DX11Effects@@3USShaderBlock@1@A DB 044H DUP (?) ; D3DX11Effects::g_NullDS
?g_NullCS@D3DX11Effects@@3USShaderBlock@1@A DB 044H DUP (?) ; D3DX11Effects::g_NullCS
_BSS	ENDS
CRT$XCU	SEGMENT
_g_lvGeneral$initializer$ DD FLAT:??__Eg_lvGeneral@D3DX11Effects@@YAXXZ
CRT$XCU	ENDS
;	COMDAT rtc$TMZ
rtc$TMZ	SEGMENT
__RTC_Shutdown.rtc$TMZ DD FLAT:__RTC_Shutdown
rtc$TMZ	ENDS
;	COMDAT rtc$IMZ
rtc$IMZ	SEGMENT
__RTC_InitBase.rtc$IMZ DD FLAT:__RTC_InitBase
rtc$IMZ	ENDS
;	COMDAT ??_R4?$TUncastableVariable@UID3DX11EffectConstantBuffer@@@D3DX11Effects@@6B@
rdata$r	SEGMENT
??_R4?$TUncastableVariable@UID3DX11EffectConstantBuffer@@@D3DX11Effects@@6B@ DD 00H ; D3DX11Effects::TUncastableVariable<ID3DX11EffectConstantBuffer>::`RTTI Complete Object Locator'
	DD	00H
	DD	00H
	DD	FLAT:??_R0?AU?$TUncastableVariable@UID3DX11EffectConstantBuffer@@@D3DX11Effects@@@8
	DD	FLAT:??_R3?$TUncastableVariable@UID3DX11EffectConstantBuffer@@@D3DX11Effects@@8
rdata$r	ENDS
;	COMDAT ??_R1A@?0A@EA@SType@D3DX11Effects@@8
rdata$r	SEGMENT
??_R1A@?0A@EA@SType@D3DX11Effects@@8 DD FLAT:??_R0?AUSType@D3DX11Effects@@@8 ; D3DX11Effects::SType::`RTTI Base Class Descriptor at (0,-1,0,64)'
	DD	01H
	DD	00H
	DD	0ffffffffH
	DD	00H
	DD	040H
	DD	FLAT:??_R3SType@D3DX11Effects@@8
rdata$r	ENDS
;	COMDAT ??_R2SType@D3DX11Effects@@8
rdata$r	SEGMENT
??_R2SType@D3DX11Effects@@8 DD FLAT:??_R1A@?0A@EA@SType@D3DX11Effects@@8 ; D3DX11Effects::SType::`RTTI Base Class Array'
	DD	FLAT:??_R1A@?0A@EA@ID3DX11EffectType@@8
rdata$r	ENDS
;	COMDAT ??_R3SType@D3DX11Effects@@8
rdata$r	SEGMENT
??_R3SType@D3DX11Effects@@8 DD 00H			; D3DX11Effects::SType::`RTTI Class Hierarchy Descriptor'
	DD	00H
	DD	02H
	DD	FLAT:??_R2SType@D3DX11Effects@@8
rdata$r	ENDS
;	COMDAT ??_R0?AUSType@D3DX11Effects@@@8
data$r	SEGMENT
??_R0?AUSType@D3DX11Effects@@@8 DD FLAT:??_7type_info@@6B@ ; D3DX11Effects::SType `RTTI Type Descriptor'
	DD	00H
	DB	'.?AUSType@D3DX11Effects@@', 00H
data$r	ENDS
;	COMDAT ??_R4SType@D3DX11Effects@@6B@
rdata$r	SEGMENT
??_R4SType@D3DX11Effects@@6B@ DD 00H			; D3DX11Effects::SType::`RTTI Complete Object Locator'
	DD	00H
	DD	00H
	DD	FLAT:??_R0?AUSType@D3DX11Effects@@@8
	DD	FLAT:??_R3SType@D3DX11Effects@@8
rdata$r	ENDS
;	COMDAT ??_R4SConstantBuffer@D3DX11Effects@@6BID3DX11EffectType@@@
rdata$r	SEGMENT
??_R4SConstantBuffer@D3DX11Effects@@6BID3DX11EffectType@@@ DD 00H ; D3DX11Effects::SConstantBuffer::`RTTI Complete Object Locator'
	DD	04H
	DD	00H
	DD	FLAT:??_R0?AUSConstantBuffer@D3DX11Effects@@@8
	DD	FLAT:??_R3SConstantBuffer@D3DX11Effects@@8
rdata$r	ENDS
;	COMDAT ??_R13?0A@EA@ID3DX11EffectType@@8
rdata$r	SEGMENT
??_R13?0A@EA@ID3DX11EffectType@@8 DD FLAT:??_R0?AUID3DX11EffectType@@@8 ; ID3DX11EffectType::`RTTI Base Class Descriptor at (4,-1,0,64)'
	DD	00H
	DD	04H
	DD	0ffffffffH
	DD	00H
	DD	040H
	DD	FLAT:??_R3ID3DX11EffectType@@8
rdata$r	ENDS
;	COMDAT ??_R2?$TUncastableVariable@UID3DX11EffectConstantBuffer@@@D3DX11Effects@@8
rdata$r	SEGMENT
??_R2?$TUncastableVariable@UID3DX11EffectConstantBuffer@@@D3DX11Effects@@8 DD FLAT:??_R1A@?0A@EA@?$TUncastableVariable@UID3DX11EffectConstantBuffer@@@D3DX11Effects@@8 ; D3DX11Effects::TUncastableVariable<ID3DX11EffectConstantBuffer>::`RTTI Base Class Array'
	DD	FLAT:??_R1A@?0A@EA@ID3DX11EffectConstantBuffer@@8
	DD	FLAT:??_R1A@?0A@EA@ID3DX11EffectVariable@@8
rdata$r	ENDS
;	COMDAT ??_R3?$TUncastableVariable@UID3DX11EffectConstantBuffer@@@D3DX11Effects@@8
rdata$r	SEGMENT
??_R3?$TUncastableVariable@UID3DX11EffectConstantBuffer@@@D3DX11Effects@@8 DD 00H ; D3DX11Effects::TUncastableVariable<ID3DX11EffectConstantBuffer>::`RTTI Class Hierarchy Descriptor'
	DD	00H
	DD	03H
	DD	FLAT:??_R2?$TUncastableVariable@UID3DX11EffectConstantBuffer@@@D3DX11Effects@@8
rdata$r	ENDS
;	COMDAT ??_R0?AU?$TUncastableVariable@UID3DX11EffectConstantBuffer@@@D3DX11Effects@@@8
data$r	SEGMENT
??_R0?AU?$TUncastableVariable@UID3DX11EffectConstantBuffer@@@D3DX11Effects@@@8 DD FLAT:??_7type_info@@6B@ ; D3DX11Effects::TUncastableVariable<ID3DX11EffectConstantBuffer> `RTTI Type Descriptor'
	DD	00H
	DB	'.?AU?$TUncastableVariable@UID3DX11EffectConstantBuffer@@'
	DB	'@D3DX11Effects@@', 00H
data$r	ENDS
;	COMDAT ??_R1A@?0A@EA@?$TUncastableVariable@UID3DX11EffectConstantBuffer@@@D3DX11Effects@@8
rdata$r	SEGMENT
??_R1A@?0A@EA@?$TUncastableVariable@UID3DX11EffectConstantBuffer@@@D3DX11Effects@@8 DD FLAT:??_R0?AU?$TUncastableVariable@UID3DX11EffectConstantBuffer@@@D3DX11Effects@@@8 ; D3DX11Effects::TUncastableVariable<ID3DX11EffectConstantBuffer>::`RTTI Base Class Descriptor at (0,-1,0,64)'
	DD	02H
	DD	00H
	DD	0ffffffffH
	DD	00H
	DD	040H
	DD	FLAT:??_R3?$TUncastableVariable@UID3DX11EffectConstantBuffer@@@D3DX11Effects@@8
rdata$r	ENDS
;	COMDAT ??_R1A@?0A@EA@SConstantBuffer@D3DX11Effects@@8
rdata$r	SEGMENT
??_R1A@?0A@EA@SConstantBuffer@D3DX11Effects@@8 DD FLAT:??_R0?AUSConstantBuffer@D3DX11Effects@@@8 ; D3DX11Effects::SConstantBuffer::`RTTI Base Class Descriptor at (0,-1,0,64)'
	DD	04H
	DD	00H
	DD	0ffffffffH
	DD	00H
	DD	040H
	DD	FLAT:??_R3SConstantBuffer@D3DX11Effects@@8
rdata$r	ENDS
;	COMDAT ??_R2SConstantBuffer@D3DX11Effects@@8
rdata$r	SEGMENT
??_R2SConstantBuffer@D3DX11Effects@@8 DD FLAT:??_R1A@?0A@EA@SConstantBuffer@D3DX11Effects@@8 ; D3DX11Effects::SConstantBuffer::`RTTI Base Class Array'
	DD	FLAT:??_R1A@?0A@EA@?$TUncastableVariable@UID3DX11EffectConstantBuffer@@@D3DX11Effects@@8
	DD	FLAT:??_R1A@?0A@EA@ID3DX11EffectConstantBuffer@@8
	DD	FLAT:??_R1A@?0A@EA@ID3DX11EffectVariable@@8
	DD	FLAT:??_R13?0A@EA@ID3DX11EffectType@@8
rdata$r	ENDS
;	COMDAT ??_R3SConstantBuffer@D3DX11Effects@@8
rdata$r	SEGMENT
??_R3SConstantBuffer@D3DX11Effects@@8 DD 00H		; D3DX11Effects::SConstantBuffer::`RTTI Class Hierarchy Descriptor'
	DD	01H
	DD	05H
	DD	FLAT:??_R2SConstantBuffer@D3DX11Effects@@8
rdata$r	ENDS
;	COMDAT ??_R0?AUSConstantBuffer@D3DX11Effects@@@8
data$r	SEGMENT
??_R0?AUSConstantBuffer@D3DX11Effects@@@8 DD FLAT:??_7type_info@@6B@ ; D3DX11Effects::SConstantBuffer `RTTI Type Descriptor'
	DD	00H
	DB	'.?AUSConstantBuffer@D3DX11Effects@@', 00H
data$r	ENDS
;	COMDAT ??_R4SConstantBuffer@D3DX11Effects@@6B?$TUncastableVariable@UID3DX11EffectConstantBuffer@@@1@@
rdata$r	SEGMENT
??_R4SConstantBuffer@D3DX11Effects@@6B?$TUncastableVariable@UID3DX11EffectConstantBuffer@@@1@@ DD 00H ; D3DX11Effects::SConstantBuffer::`RTTI Complete Object Locator'
	DD	00H
	DD	00H
	DD	FLAT:??_R0?AUSConstantBuffer@D3DX11Effects@@@8
	DD	FLAT:??_R3SConstantBuffer@D3DX11Effects@@8
rdata$r	ENDS
;	COMDAT ??_R1A@?0A@EA@ID3DX11EffectConstantBuffer@@8
rdata$r	SEGMENT
??_R1A@?0A@EA@ID3DX11EffectConstantBuffer@@8 DD FLAT:??_R0?AUID3DX11EffectConstantBuffer@@@8 ; ID3DX11EffectConstantBuffer::`RTTI Base Class Descriptor at (0,-1,0,64)'
	DD	01H
	DD	00H
	DD	0ffffffffH
	DD	00H
	DD	040H
	DD	FLAT:??_R3ID3DX11EffectConstantBuffer@@8
rdata$r	ENDS
;	COMDAT ??_R2ID3DX11EffectConstantBuffer@@8
rdata$r	SEGMENT
??_R2ID3DX11EffectConstantBuffer@@8 DD FLAT:??_R1A@?0A@EA@ID3DX11EffectConstantBuffer@@8 ; ID3DX11EffectConstantBuffer::`RTTI Base Class Array'
	DD	FLAT:??_R1A@?0A@EA@ID3DX11EffectVariable@@8
rdata$r	ENDS
;	COMDAT ??_R3ID3DX11EffectConstantBuffer@@8
rdata$r	SEGMENT
??_R3ID3DX11EffectConstantBuffer@@8 DD 00H		; ID3DX11EffectConstantBuffer::`RTTI Class Hierarchy Descriptor'
	DD	00H
	DD	02H
	DD	FLAT:??_R2ID3DX11EffectConstantBuffer@@8
rdata$r	ENDS
;	COMDAT ??_R0?AUID3DX11EffectConstantBuffer@@@8
data$r	SEGMENT
??_R0?AUID3DX11EffectConstantBuffer@@@8 DD FLAT:??_7type_info@@6B@ ; ID3DX11EffectConstantBuffer `RTTI Type Descriptor'
	DD	00H
	DB	'.?AUID3DX11EffectConstantBuffer@@', 00H
data$r	ENDS
;	COMDAT ??_R1A@?0A@EA@ID3DX11EffectVariable@@8
rdata$r	SEGMENT
??_R1A@?0A@EA@ID3DX11EffectVariable@@8 DD FLAT:??_R0?AUID3DX11EffectVariable@@@8 ; ID3DX11EffectVariable::`RTTI Base Class Descriptor at (0,-1,0,64)'
	DD	00H
	DD	00H
	DD	0ffffffffH
	DD	00H
	DD	040H
	DD	FLAT:??_R3ID3DX11EffectVariable@@8
rdata$r	ENDS
;	COMDAT ??_R2ID3DX11EffectVariable@@8
rdata$r	SEGMENT
??_R2ID3DX11EffectVariable@@8 DD FLAT:??_R1A@?0A@EA@ID3DX11EffectVariable@@8 ; ID3DX11EffectVariable::`RTTI Base Class Array'
rdata$r	ENDS
;	COMDAT ??_R3ID3DX11EffectVariable@@8
rdata$r	SEGMENT
??_R3ID3DX11EffectVariable@@8 DD 00H			; ID3DX11EffectVariable::`RTTI Class Hierarchy Descriptor'
	DD	00H
	DD	01H
	DD	FLAT:??_R2ID3DX11EffectVariable@@8
rdata$r	ENDS
;	COMDAT ??_R0?AUID3DX11EffectVariable@@@8
data$r	SEGMENT
??_R0?AUID3DX11EffectVariable@@@8 DD FLAT:??_7type_info@@6B@ ; ID3DX11EffectVariable `RTTI Type Descriptor'
	DD	00H
	DB	'.?AUID3DX11EffectVariable@@', 00H
data$r	ENDS
;	COMDAT ??_R1A@?0A@EA@ID3DX11EffectType@@8
rdata$r	SEGMENT
??_R1A@?0A@EA@ID3DX11EffectType@@8 DD FLAT:??_R0?AUID3DX11EffectType@@@8 ; ID3DX11EffectType::`RTTI Base Class Descriptor at (0,-1,0,64)'
	DD	00H
	DD	00H
	DD	0ffffffffH
	DD	00H
	DD	040H
	DD	FLAT:??_R3ID3DX11EffectType@@8
rdata$r	ENDS
;	COMDAT ??_R2ID3DX11EffectType@@8
rdata$r	SEGMENT
??_R2ID3DX11EffectType@@8 DD FLAT:??_R1A@?0A@EA@ID3DX11EffectType@@8 ; ID3DX11EffectType::`RTTI Base Class Array'
rdata$r	ENDS
;	COMDAT ??_R3ID3DX11EffectType@@8
rdata$r	SEGMENT
??_R3ID3DX11EffectType@@8 DD 00H			; ID3DX11EffectType::`RTTI Class Hierarchy Descriptor'
	DD	00H
	DD	01H
	DD	FLAT:??_R2ID3DX11EffectType@@8
rdata$r	ENDS
;	COMDAT ??_R0?AUID3DX11EffectType@@@8
data$r	SEGMENT
??_R0?AUID3DX11EffectType@@@8 DD FLAT:??_7type_info@@6B@ ; ID3DX11EffectType `RTTI Type Descriptor'
	DD	00H
	DB	'.?AUID3DX11EffectType@@', 00H
data$r	ENDS
;	COMDAT ??_C@_0BM@CFJFHGND@m_pEffect?9?$DOm_LocalTimer?5?$DO?50?$AA@
CONST	SEGMENT
??_C@_0BM@CFJFHGND@m_pEffect?9?$DOm_LocalTimer?5?$DO?50?$AA@ DB 'm_pEffec'
	DB	't->m_LocalTimer > 0', 00H			; `string'
CONST	ENDS
;	COMDAT ??_C@_0EG@GMMJAJM@pVariable?9?$DOpType?9?$DOBelongsInConst@
CONST	SEGMENT
??_C@_0EG@GMMJAJM@pVariable?9?$DOpType?9?$DOBelongsInConst@ DB 'pVariable'
	DB	'->pType->BelongsInConstantBuffer() && NULL != pVariable->pCB', 00H ; `string'
CONST	ENDS
;	COMDAT ??_C@_0EH@BPELLKNA@?$CBpAssignment?9?$DOIsObjectAssignment@
CONST	SEGMENT
??_C@_0EH@BPELLKNA@?$CBpAssignment?9?$DOIsObjectAssignment@ DB '!pAssignm'
	DB	'ent->IsObjectAssignment() && pAssignment->DependencyCount > 0'
	DB	00H						; `string'
CONST	ENDS
;	COMDAT ??_C@_0DL@GPKFPIPI@?$CKppPointer?5?$DN?$DN?5AlignToPowerOf2?$CI?$CKp@
CONST	SEGMENT
??_C@_0DL@GPKFPIPI@?$CKppPointer?5?$DN?$DN?5AlignToPowerOf2?$CI?$CKp@ DB '*'
	DB	'ppPointer == AlignToPowerOf2(*ppPointer, c_DataAlignment)', 00H ; `string'
CONST	ENDS
;	COMDAT ??_C@_0BO@BGHPDFMF@NULL?5?$CB?$DN?5pIterator?9?$DOpHashEntry?$AA@
CONST	SEGMENT
??_C@_0BO@BGHPDFMF@NULL?5?$CB?$DN?5pIterator?9?$DOpHashEntry?$AA@ DB 'NUL'
	DB	'L != pIterator->pHashEntry', 00H		; `string'
CONST	ENDS
;	COMDAT ??_C@_0EM@CAMAPMFM@pIterator?9?$DOppHashSlot?5?$DO?$DN?5m_rgpHa@
CONST	SEGMENT
??_C@_0EM@CAMAPMFM@pIterator?9?$DOppHashSlot?5?$DO?$DN?5m_rgpHa@ DB 'pIte'
	DB	'rator->ppHashSlot >= m_rgpHashEntries && pIterator->ppHashSlo'
	DB	't <= ppEnd', 00H				; `string'
CONST	ENDS
;	COMDAT ??_C@_0BP@NMGLEII@valuesMigrated?5?$DN?$DN?5m_NumEntries?$AA@
CONST	SEGMENT
??_C@_0BP@NMGLEII@valuesMigrated?5?$DN?$DN?5m_NumEntries?$AA@ DB 'valuesM'
	DB	'igrated == m_NumEntries', 00H		; `string'
CONST	ENDS
;	COMDAT ??_C@_0BD@NLANFHLH@NULL?5?$CB?$DN?5pHashEntry?$AA@
CONST	SEGMENT
??_C@_0BD@NLANFHLH@NULL?5?$CB?$DN?5pHashEntry?$AA@ DB 'NULL != pHashEntry'
	DB	00H						; `string'
CONST	ENDS
;	COMDAT ??_C@_0BD@EGDKBIFK@m_NumHashSlots?5?$DO?50?$AA@
CONST	SEGMENT
??_C@_0BD@EGDKBIFK@m_NumHashSlots?5?$DO?50?$AA@ DB 'm_NumHashSlots > 0', 00H ; `string'
CONST	ENDS
;	COMDAT ??_C@_0BH@NPDKKNAK@NULL?5?$CB?$DN?5m_pPrivateHeap?$AA@
CONST	SEGMENT
??_C@_0BH@NPDKKNAK@NULL?5?$CB?$DN?5m_pPrivateHeap?$AA@ DB 'NULL != m_pPri'
	DB	'vateHeap', 00H				; `string'
CONST	ENDS
;	COMDAT ??_C@_0BH@ONGAIIBI@NULL?5?$DN?$DN?5m_pPrivateHeap?$AA@
CONST	SEGMENT
??_C@_0BH@ONGAIIBI@NULL?5?$DN?$DN?5m_pPrivateHeap?$AA@ DB 'NULL == m_pPri'
	DB	'vateHeap', 00H				; `string'
CONST	ENDS
;	COMDAT ??_C@_0BC@HKPIIPPC@index?5?$DM?5m_CurSize?$AA@
CONST	SEGMENT
??_C@_0BC@HKPIIPPC@index?5?$DM?5m_CurSize?$AA@ DB 'index < m_CurSize', 00H ; `string'
CONST	ENDS
;	COMDAT ??_C@_0CB@NFKMEKAI@ID3DX11EffectVariable?3?3AsSampler@
CONST	SEGMENT
??_C@_0CB@NFKMEKAI@ID3DX11EffectVariable?3?3AsSampler@ DB 'ID3DX11EffectV'
	DB	'ariable::AsSampler', 00H			; `string'
CONST	ENDS
;	COMDAT ??_C@_0CE@DBMPNCNM@ID3DX11EffectVariable?3?3AsRasteri@
CONST	SEGMENT
??_C@_0CE@DBMPNCNM@ID3DX11EffectVariable?3?3AsRasteri@ DB 'ID3DX11EffectV'
	DB	'ariable::AsRasterizer', 00H			; `string'
CONST	ENDS
;	COMDAT ??_C@_0CG@OKHHDBGN@ID3DX11EffectVariable?3?3AsDepthSt@
CONST	SEGMENT
??_C@_0CG@OKHHDBGN@ID3DX11EffectVariable?3?3AsDepthSt@ DB 'ID3DX11EffectV'
	DB	'ariable::AsDepthStencil', 00H		; `string'
CONST	ENDS
;	COMDAT ??_C@_0BP@BBIMBLAD@ID3DX11EffectVariable?3?3AsBlend?$AA@
CONST	SEGMENT
??_C@_0BP@BBIMBLAD@ID3DX11EffectVariable?3?3AsBlend?$AA@ DB 'ID3DX11Effec'
	DB	'tVariable::AsBlend', 00H			; `string'
CONST	ENDS
;	COMDAT ??_C@_0CA@EFNGDPCK@ID3DX11EffectVariable?3?3AsShader?$AA@
CONST	SEGMENT
??_C@_0CA@EFNGDPCK@ID3DX11EffectVariable?3?3AsShader?$AA@ DB 'ID3DX11Effe'
	DB	'ctVariable::AsShader', 00H			; `string'
CONST	ENDS
;	COMDAT ??_C@_0CI@NALNEDPE@ID3DX11EffectVariable?3?3AsConstan@
CONST	SEGMENT
??_C@_0CI@NALNEDPE@ID3DX11EffectVariable?3?3AsConstan@ DB 'ID3DX11EffectV'
	DB	'ariable::AsConstantBuffer', 00H		; `string'
CONST	ENDS
;	COMDAT ??_C@_0CK@BDFLCADG@ID3DX11EffectVariable?3?3AsDepthSt@
CONST	SEGMENT
??_C@_0CK@BDFLCADG@ID3DX11EffectVariable?3?3AsDepthSt@ DB 'ID3DX11EffectV'
	DB	'ariable::AsDepthStencilView', 00H		; `string'
CONST	ENDS
;	COMDAT ??_C@_0CK@MBMJDIEM@ID3DX11EffectVariable?3?3AsRenderT@
CONST	SEGMENT
??_C@_0CK@MBMJDIEM@ID3DX11EffectVariable?3?3AsRenderT@ DB 'ID3DX11EffectV'
	DB	'ariable::AsRenderTargetView', 00H		; `string'
CONST	ENDS
;	COMDAT ??_C@_0CN@NNAKDDLF@ID3DX11EffectVariable?3?3AsUnorder@
CONST	SEGMENT
??_C@_0CN@NNAKDDLF@ID3DX11EffectVariable?3?3AsUnorder@ DB 'ID3DX11EffectV'
	DB	'ariable::AsUnorderedAccessView', 00H	; `string'
CONST	ENDS
;	COMDAT ??_C@_0CI@CAHLNOAL@ID3DX11EffectVariable?3?3AsShaderR@
CONST	SEGMENT
??_C@_0CI@CAHLNOAL@ID3DX11EffectVariable?3?3AsShaderR@ DB 'ID3DX11EffectV'
	DB	'ariable::AsShaderResource', 00H		; `string'
CONST	ENDS
;	COMDAT ??_C@_0CD@IJDMLLGC@ID3DX11EffectVariable?3?3AsInterfa@
CONST	SEGMENT
??_C@_0CD@IJDMLLGC@ID3DX11EffectVariable?3?3AsInterfa@ DB 'ID3DX11EffectV'
	DB	'ariable::AsInterface', 00H			; `string'
CONST	ENDS
;	COMDAT ??_C@_0CH@DGGONKPA@ID3DX11EffectVariable?3?3AsClassIn@
CONST	SEGMENT
??_C@_0CH@DGGONKPA@ID3DX11EffectVariable?3?3AsClassIn@ DB 'ID3DX11EffectV'
	DB	'ariable::AsClassInstance', 00H		; `string'
CONST	ENDS
;	COMDAT ??_C@_0CA@NPAIMBLA@ID3DX11EffectVariable?3?3AsString?$AA@
CONST	SEGMENT
??_C@_0CA@NPAIMBLA@ID3DX11EffectVariable?3?3AsString?$AA@ DB 'ID3DX11Effe'
	DB	'ctVariable::AsString', 00H			; `string'
CONST	ENDS
;	COMDAT ??_C@_0CA@HLLPIICO@ID3DX11EffectVariable?3?3AsMatrix?$AA@
CONST	SEGMENT
??_C@_0CA@HLLPIICO@ID3DX11EffectVariable?3?3AsMatrix?$AA@ DB 'ID3DX11Effe'
	DB	'ctVariable::AsMatrix', 00H			; `string'
CONST	ENDS
;	COMDAT ??_C@_0CA@IMDOICHK@ID3DX11EffectVariable?3?3AsVector?$AA@
CONST	SEGMENT
??_C@_0CA@IMDOICHK@ID3DX11EffectVariable?3?3AsVector?$AA@ DB 'ID3DX11Effe'
	DB	'ctVariable::AsVector', 00H			; `string'
CONST	ENDS
;	COMDAT ??_C@_0CA@ONKMEPNK@ID3DX11EffectVariable?3?3AsScalar?$AA@
CONST	SEGMENT
??_C@_0CA@ONKMEPNK@ID3DX11EffectVariable?3?3AsScalar?$AA@ DB 'ID3DX11Effe'
	DB	'ctVariable::AsScalar', 00H			; `string'
CONST	ENDS
;	COMDAT ??_C@_0GI@CBPKGJFM@pMember?9?$DOData?4pGeneric?5?$DN?$DN?5NULL?5?$HM@
CONST	SEGMENT
??_C@_0GI@CBPKGJFM@pMember?9?$DOData?4pGeneric?5?$DN?$DN?5NULL?5?$HM@ DB 'p'
	DB	'Member->Data.pGeneric == NULL || (*ppTopLevelEntity)->pEffect'
	DB	'->m_Heap.IsInHeap(pMember->Data.pGeneric)', 00H ; `string'
CONST	ENDS
;	COMDAT ??_C@_0CC@JJDOBLOA@m_BackgroundInterfaces?$FLi?$FN?5?$CB?$DN?5NUL@
CONST	SEGMENT
??_C@_0CC@JJDOBLOA@m_BackgroundInterfaces?$FLi?$FN?5?$CB?$DN?5NUL@ DB 'm_'
	DB	'BackgroundInterfaces[i] != NULL', 00H	; `string'
CONST	ENDS
;	COMDAT ?__LINE__Var@?1??ReallocateEffectData@CEffectLoader@D3DX11Effects@@IAEJ_N@Z@4JA
_DATA	SEGMENT
?__LINE__Var@?1??ReallocateEffectData@CEffectLoader@D3DX11Effects@@IAEJ_N@Z@4JA DD 0e0bH ; `D3DX11Effects::CEffectLoader::ReallocateEffectData'::`2'::__LINE__Var
_DATA	ENDS
;	COMDAT ??_C@_0DB@CCEAMAH@Internal?5loading?5error?3?5cannot?5m@
CONST	SEGMENT
??_C@_0DB@CCEAMAH@Internal?5loading?5error?3?5cannot?5m@ DB 'Internal loa'
	DB	'ding error: cannot move shader data.', 00H	; `string'
CONST	ENDS
;	COMDAT ??_C@_0CK@DHOBBOIG@pShaderBlock?9?$DOpInputSignatureBlo@
CONST	SEGMENT
??_C@_0CK@DHOBBOIG@pShaderBlock?9?$DOpInputSignatureBlo@ DB 'pShaderBlock'
	DB	'->pInputSignatureBlob == NULL', 00H		; `string'
CONST	ENDS
;	COMDAT ??_C@_0CB@OFFCFNOA@pShaderBlock?9?$DOpD3DObject?5?$DN?$DN?5NULL@
CONST	SEGMENT
??_C@_0CB@OFFCFNOA@pShaderBlock?9?$DOpD3DObject?5?$DN?$DN?5NULL@ DB 'pSha'
	DB	'derBlock->pD3DObject == NULL', 00H		; `string'
CONST	ENDS
;	COMDAT ?__LINE__Var@?1??BuildShaderBlock@CEffectLoader@D3DX11Effects@@IAEJPAUSShaderBlock@3@@Z@4JA
_DATA	SEGMENT
?__LINE__Var@?1??BuildShaderBlock@CEffectLoader@D3DX11Effects@@IAEJPAUSShaderBlock@3@@Z@4JA DD 0bddH ; `D3DX11Effects::CEffectLoader::BuildShaderBlock'::`2'::__LINE__Var
_DATA	ENDS
;	COMDAT ??_C@_0CM@MAFMDAKC@pDep?9?$DOCount?5?$DN?$DN?5pRange?9?$DOvResource@
CONST	SEGMENT
??_C@_0CM@MAFMDAKC@pDep?9?$DOCount?5?$DN?$DN?5pRange?9?$DOvResource@ DB 'p'
	DB	'Dep->Count == pRange->vResources.GetSize()', 00H ; `string'
CONST	ENDS
;	COMDAT ??_C@_0BK@HKMDMOLB@bindPoint?5?$DN?$DN?5pRange?9?$DOlast?$AA@
CONST	SEGMENT
??_C@_0BK@HKMDMOLB@bindPoint?5?$DN?$DN?5pRange?9?$DOlast?$AA@ DB 'bindPoi'
	DB	'nt == pRange->last', 00H			; `string'
CONST	ENDS
;	COMDAT ??_C@_09LHJJGINI@size?5?$DN?$DN?51?$AA@
CONST	SEGMENT
??_C@_09LHJJGINI@size?5?$DN?$DN?51?$AA@ DB 'size == 1', 00H ; `string'
CONST	ENDS
;	COMDAT ??_C@_0DD@KDJDPJGM@InterfaceDesc?4uFlags?5?$CG?5D3D11_SVF@
CONST	SEGMENT
??_C@_0DD@KDJDPJGM@InterfaceDesc?4uFlags?5?$CG?5D3D11_SVF@ DB 'InterfaceD'
	DB	'esc.uFlags & D3D11_SVF_INTERFACE_POINTER', 00H ; `string'
CONST	ENDS
;	COMDAT ??_C@_0BP@KPGDMHCO@ShaderDesc?4ConstantBuffers?5?$DO?50?$AA@
CONST	SEGMENT
??_C@_0BP@KPGDMHCO@ShaderDesc?4ConstantBuffers?5?$DO?50?$AA@ DB 'ShaderDe'
	DB	'sc.ConstantBuffers > 0', 00H		; `string'
CONST	ENDS
;	COMDAT ??_C@_0BK@FLKFENGC@pRange?9?$DOlast?5?$DM?$DN?5bindPoint?$AA@
CONST	SEGMENT
??_C@_0BK@FLKFENGC@pRange?9?$DOlast?5?$DM?$DN?5bindPoint?$AA@ DB 'pRange-'
	DB	'>last <= bindPoint', 00H			; `string'
CONST	ENDS
;	COMDAT ?__LINE__Var@?1??GrabShaderData@CEffectLoader@D3DX11Effects@@IAEJPAUSShaderBlock@3@@Z@4JA
_DATA	SEGMENT
?__LINE__Var@?1??GrabShaderData@CEffectLoader@D3DX11Effects@@IAEJPAUSShaderBlock@3@@Z@4JA DD 09c5H ; `D3DX11Effects::CEffectLoader::GrabShaderData'::`2'::__LINE__Var
_DATA	ENDS
;	COMDAT ??_C@_0CC@HBGMAMIM@pAssignment?9?$DOIsObjectAssignment?$CI@
CONST	SEGMENT
??_C@_0CC@HBGMAMIM@pAssignment?9?$DOIsObjectAssignment?$CI@ DB 'pAssignme'
	DB	'nt->IsObjectAssignment()', 00H		; `string'
CONST	ENDS
;	COMDAT ??_C@_0DB@DHBABGJO@g_lvGeneral?$FLpsAssignments?$FLi?$FN?4iSt@
CONST	SEGMENT
??_C@_0DB@DHBABGJO@g_lvGeneral?$FLpsAssignments?$FLi?$FN?4iSt@ DB 'g_lvGe'
	DB	'neral[psAssignments[i].iState].m_Cols == 1', 00H ; `string'
CONST	ENDS
;	COMDAT ?__LINE__Var@?1??LoadAssignments@CEffectLoader@D3DX11Effects@@IAEJIPAPAUSAssignment@3@PAEPAI2@Z@4JA
_DATA	SEGMENT
?__LINE__Var@?1??LoadAssignments@CEffectLoader@D3DX11Effects@@IAEJIPAPAUSAssignment@3@PAEPAI2@Z@4JA DD 057bH ; `D3DX11Effects::CEffectLoader::LoadAssignments'::`2'::__LINE__Var
_DATA	ENDS
;	COMDAT ??_C@_0BL@MBHMPHIB@PackedDataSize?5?$DO?5bytesRead?$AA@
CONST	SEGMENT
??_C@_0BL@MBHMPHIB@PackedDataSize?5?$DO?5bytesRead?$AA@ DB 'PackedDataSiz'
	DB	'e > bytesRead', 00H				; `string'
CONST	ENDS
;	COMDAT ??_C@_0GF@KAFJAGGJ@?$CIUINT_PTR?$CJpType?9?$DOStructType?4pMem@
CONST	SEGMENT
??_C@_0GF@KAFJAGGJ@?$CIUINT_PTR?$CJpType?9?$DOStructType?4pMem@ DB '(UINT'
	DB	'_PTR)pType->StructType.pMembers[j].pType == (UINT)(UINT_PTR)p'
	DB	'Type->StructType.pMembers[j].pType', 00H	; `string'
CONST	ENDS
;	COMDAT ?__LINE__Var@?1??UnpackData@CEffectLoader@D3DX11Effects@@IAEIPAE0IPAUSType@3@PAI@Z@4JA
_DATA	SEGMENT
?__LINE__Var@?1??UnpackData@CEffectLoader@D3DX11Effects@@IAEIPAE0IPAUSType@3@PAI@Z@4JA DD 0462H ; `D3DX11Effects::CEffectLoader::UnpackData'::`2'::__LINE__Var
_DATA	ENDS
;	COMDAT ?__LINE__Var@?1??LoadTypeAndAddToPool@CEffectLoader@D3DX11Effects@@IAEJPAPAUSType@3@I@Z@4JA
_DATA	SEGMENT
?__LINE__Var@?1??LoadTypeAndAddToPool@CEffectLoader@D3DX11Effects@@IAEJPAPAUSType@3@I@Z@4JA DD 03a3H ; `D3DX11Effects::CEffectLoader::LoadTypeAndAddToPool'::`2'::__LINE__Var
_DATA	ENDS
;	COMDAT ??_C@_0CB@IDNKIKCE@m_pEffect?9?$DOm_pPooledHeap?5?$CB?$DN?5NULL@
CONST	SEGMENT
??_C@_0CB@IDNKIKCE@m_pEffect?9?$DOm_pPooledHeap?5?$CB?$DN?5NULL@ DB 'm_pE'
	DB	'ffect->m_pPooledHeap != NULL', 00H		; `string'
CONST	ENDS
;	COMDAT ?__LINE__Var@?1??LoadStringAndAddToPool@CEffectLoader@D3DX11Effects@@IAEJPAPADI@Z@4JA
_DATA	SEGMENT
?__LINE__Var@?1??LoadStringAndAddToPool@CEffectLoader@D3DX11Effects@@IAEJPAPADI@Z@4JA DD 037dH ; `D3DX11Effects::CEffectLoader::LoadStringAndAddToPool'::`2'::__LINE__Var
_DATA	ENDS
;	COMDAT ??_C@_0BJ@CKANEIJE@pEffect?5?$CG?$CG?5pEffectBuffer?$AA@
CONST	SEGMENT
??_C@_0BJ@CKANEIJE@pEffect?5?$CG?$CG?5pEffectBuffer?$AA@ DB 'pEffect && p'
	DB	'EffectBuffer', 00H				; `string'
CONST	ENDS
;	COMDAT ?__LINE__Var@?1??LoadEffect@CEffectLoader@D3DX11Effects@@QAEJPAVCEffect@3@PBXI@Z@4JA
_DATA	SEGMENT
?__LINE__Var@?1??LoadEffect@CEffectLoader@D3DX11Effects@@QAEJPAVCEffect@3@PBXI@Z@4JA DD 02e0H ; `D3DX11Effects::CEffectLoader::LoadEffect'::`2'::__LINE__Var
_DATA	ENDS
;	COMDAT ??_C@_0BB@EKHKLBAF@pVersion?5?$CB?$DN?5NULL?$AA@
CONST	SEGMENT
??_C@_0BB@EKHKLBAF@pVersion?5?$CB?$DN?5NULL?$AA@ DB 'pVersion != NULL', 00H ; `string'
CONST	ENDS
;	COMDAT ?__LINE__Var@?1??GetEffectVersion@D3DX11Effects@@YAJIPAK@Z@4JA
_DATA	SEGMENT
?__LINE__Var@?1??GetEffectVersion@D3DX11Effects@@YAJIPAK@Z@4JA DD 02ceH ; `D3DX11Effects::GetEffectVersion'::`2'::__LINE__Var
_DATA	ENDS
;	COMDAT ??_C@_0EE@IAMBMFNL@index?5?$CK?5sizeof?$CISGroup?$CJ?5?$DN?$DN?5?$CI?$CIsize@
CONST	SEGMENT
??_C@_0EE@IAMBMFNL@index?5?$CK?5sizeof?$CISGroup?$CJ?5?$DN?$DN?5?$CI?$CIsize@ DB 'i'
	DB	'ndex * sizeof(SGroup) == ((size_t)*ppGroup - (size_t)m_pOldGr'
	DB	'oups)', 00H					; `string'
CONST	ENDS
;	COMDAT ?__LINE__Var@?1??FixupGroupPointer@CEffectLoader@D3DX11Effects@@IAEJPAPAUSGroup@3@@Z@4JA
_DATA	SEGMENT
?__LINE__Var@?1??FixupGroupPointer@CEffectLoader@D3DX11Effects@@IAEJPAPAUSGroup@3@@Z@4JA DD 02c0H ; `D3DX11Effects::CEffectLoader::FixupGroupPointer'::`2'::__LINE__Var
_DATA	ENDS
;	COMDAT ??_C@_0EJ@ODBKDCBD@index?5?$CK?5sizeof?$CISGlobalVariable?$CJ?5@
CONST	SEGMENT
??_C@_0EJ@ODBKDCBD@index?5?$CK?5sizeof?$CISGlobalVariable?$CJ?5@ DB 'inde'
	DB	'x * sizeof(SGlobalVariable) == ((size_t)*ppVar - (size_t)m_pO'
	DB	'ldVars)', 00H				; `string'
CONST	ENDS
;	COMDAT ?__LINE__Var@?1??FixupVariablePointer@CEffectLoader@D3DX11Effects@@IAEJPAPAUSGlobalVariable@3@@Z@4JA
_DATA	SEGMENT
?__LINE__Var@?1??FixupVariablePointer@CEffectLoader@D3DX11Effects@@IAEJPAPAUSGlobalVariable@3@@Z@4JA DD 02a4H ; `D3DX11Effects::CEffectLoader::FixupVariablePointer'::`2'::__LINE__Var
_DATA	ENDS
;	COMDAT ??_C@_0FP@HCBEHMGA@index?5?$CK?5sizeof?$CISMemberDataPointe@
CONST	SEGMENT
??_C@_0FP@HCBEHMGA@index?5?$CK?5sizeof?$CISMemberDataPointe@ DB 'index * '
	DB	'sizeof(SMemberDataPointer) == ((size_t)*ppMemberData - (size_'
	DB	't)m_pOldMemberDataBlocks)', 00H		; `string'
CONST	ENDS
;	COMDAT ?__LINE__Var@?1??FixupMemberDataPointer@CEffectLoader@D3DX11Effects@@IAEJPAPAUSMemberDataPointer@3@@Z@4JA
_DATA	SEGMENT
?__LINE__Var@?1??FixupMemberDataPointer@CEffectLoader@D3DX11Effects@@IAEJPAPAUSMemberDataPointer@3@@Z@4JA DD 0299H ; `D3DX11Effects::CEffectLoader::FixupMemberDataPointer'::`2'::__LINE__Var
_DATA	ENDS
;	COMDAT ??_C@_0EH@BOFKCOKB@index?5?$CK?5sizeof?$CISString?$CJ?5?$DN?$DN?5?$CI?$CIsiz@
CONST	SEGMENT
??_C@_0EH@BOFKCOKB@index?5?$CK?5sizeof?$CISString?$CJ?5?$DN?$DN?5?$CI?$CIsiz@ DB 'i'
	DB	'ndex * sizeof(SString) == ((size_t)*ppString - (size_t)m_pOld'
	DB	'Strings)', 00H				; `string'
CONST	ENDS
;	COMDAT ?__LINE__Var@?1??FixupStringPointer@CEffectLoader@D3DX11Effects@@IAEJPAPAUSString@3@@Z@4JA
_DATA	SEGMENT
?__LINE__Var@?1??FixupStringPointer@CEffectLoader@D3DX11Effects@@IAEJPAPAUSString@3@@Z@4JA DD 028eH ; `D3DX11Effects::CEffectLoader::FixupStringPointer'::`2'::__LINE__Var
_DATA	ENDS
;	COMDAT ??_C@_0GF@JFEJOMCF@index?5?$CK?5sizeof?$CISDepthStencilView@
CONST	SEGMENT
??_C@_0GF@JFEJOMCF@index?5?$CK?5sizeof?$CISDepthStencilView@ DB 'index * '
	DB	'sizeof(SDepthStencilView) == ((size_t)*ppDepthStencilView - ('
	DB	'size_t)m_pOldDepthStencilViews)', 00H	; `string'
CONST	ENDS
;	COMDAT ?__LINE__Var@?1??FixupDepthStencilViewPointer@CEffectLoader@D3DX11Effects@@IAEJPAPAUSDepthStencilView@3@@Z@4JA
_DATA	SEGMENT
?__LINE__Var@?1??FixupDepthStencilViewPointer@CEffectLoader@D3DX11Effects@@IAEJPAPAUSDepthStencilView@3@@Z@4JA DD 027fH ; `D3DX11Effects::CEffectLoader::FixupDepthStencilViewPointer'::`2'::__LINE__Var
_DATA	ENDS
;	COMDAT ??_C@_0GF@BPLAAPBL@index?5?$CK?5sizeof?$CISRenderTargetView@
CONST	SEGMENT
??_C@_0GF@BPLAAPBL@index?5?$CK?5sizeof?$CISRenderTargetView@ DB 'index * '
	DB	'sizeof(SRenderTargetView) == ((size_t)*ppRenderTargetView - ('
	DB	'size_t)m_pOldRenderTargetViews)', 00H	; `string'
CONST	ENDS
;	COMDAT ?__LINE__Var@?1??FixupRenderTargetViewPointer@CEffectLoader@D3DX11Effects@@IAEJPAPAUSRenderTargetView@3@@Z@4JA
_DATA	SEGMENT
?__LINE__Var@?1??FixupRenderTargetViewPointer@CEffectLoader@D3DX11Effects@@IAEJPAPAUSRenderTargetView@3@@Z@4JA DD 0270H ; `D3DX11Effects::CEffectLoader::FixupRenderTargetViewPointer'::`2'::__LINE__Var
_DATA	ENDS
;	COMDAT ??_C@_0GO@DKPEPIML@index?5?$CK?5sizeof?$CISUnorderedAccessV@
CONST	SEGMENT
??_C@_0GO@DKPEPIML@index?5?$CK?5sizeof?$CISUnorderedAccessV@ DB 'index * '
	DB	'sizeof(SUnorderedAccessView) == ((size_t)*ppUnorderedAccessVi'
	DB	'ew - (size_t)m_pOldUnorderedAccessViews)', 00H ; `string'
CONST	ENDS
;	COMDAT ?__LINE__Var@?1??FixupUnorderedAccessViewPointer@CEffectLoader@D3DX11Effects@@IAEJPAPAUSUnorderedAccessView@3@@Z@4JA
_DATA	SEGMENT
?__LINE__Var@?1??FixupUnorderedAccessViewPointer@CEffectLoader@D3DX11Effects@@IAEJPAPAUSUnorderedAccessView@3@@Z@4JA DD 0260H ; `D3DX11Effects::CEffectLoader::FixupUnorderedAccessViewPointer'::`2'::__LINE__Var
_DATA	ENDS
;	COMDAT ??_C@_0HL@CPLEJCIJ@index?5?$CK?5sizeof?$CISConstantBuffer?$CJ?5@
CONST	SEGMENT
??_C@_0HL@CPLEJCIJ@index?5?$CK?5sizeof?$CISConstantBuffer?$CJ?5@ DB 'inde'
	DB	'x * sizeof(SConstantBuffer) == ((size_t)(SConstantBuffer*)*pp'
	DB	'Resource - (size_t)(SConstantBuffer*)&m_pOldCBs->TBuffer)', 00H ; `string'
CONST	ENDS
;	COMDAT ??_C@_0FJ@HNIAAANN@index?5?$CK?5sizeof?$CISShaderResource?$CJ?5@
CONST	SEGMENT
??_C@_0FJ@HNIAAANN@index?5?$CK?5sizeof?$CISShaderResource?$CJ?5@ DB 'inde'
	DB	'x * sizeof(SShaderResource) == ((size_t)*ppResource - (size_t'
	DB	')m_pOldShaderResources)', 00H		; `string'
CONST	ENDS
;	COMDAT ?__LINE__Var@?1??FixupShaderResourcePointer@CEffectLoader@D3DX11Effects@@IAEJPAPAUSShaderResource@3@@Z@4JA
_DATA	SEGMENT
?__LINE__Var@?1??FixupShaderResourcePointer@CEffectLoader@D3DX11Effects@@IAEJPAPAUSShaderResource@3@@Z@4JA DD 0244H ; `D3DX11Effects::CEffectLoader::FixupShaderResourcePointer'::`2'::__LINE__Var
_DATA	ENDS
;	COMDAT ??_C@_0FA@JGMDEBIG@index?5?$CK?5sizeof?$CISInterface?$CJ?5?$DN?$DN?5?$CI?$CI@
CONST	SEGMENT
??_C@_0FA@JGMDEBIG@index?5?$CK?5sizeof?$CISInterface?$CJ?5?$DN?$DN?5?$CI?$CI@ DB 'i'
	DB	'ndex * sizeof(SInterface) == ((size_t)*ppInterface - (size_t)'
	DB	'm_pOldInterfaces)', 00H			; `string'
CONST	ENDS
;	COMDAT ?__LINE__Var@?1??FixupInterfacePointer@CEffectLoader@D3DX11Effects@@IAEJPAPAUSInterface@3@_N@Z@4JA
_DATA	SEGMENT
?__LINE__Var@?1??FixupInterfacePointer@CEffectLoader@D3DX11Effects@@IAEJPAPAUSInterface@3@_N@Z@4JA DD 0225H ; `D3DX11Effects::CEffectLoader::FixupInterfacePointer'::`2'::__LINE__Var
_DATA	ENDS
;	COMDAT ??_C@_0EP@DBMIHIDO@index?5?$CK?5sizeof?$CISSamplerBlock?$CJ?5?$DN?$DN@
CONST	SEGMENT
??_C@_0EP@DBMIHIDO@index?5?$CK?5sizeof?$CISSamplerBlock?$CJ?5?$DN?$DN@ DB 'i'
	DB	'ndex * sizeof(SSamplerBlock) == ((size_t)*ppSampler - (size_t'
	DB	')m_pOldSamplers)', 00H			; `string'
CONST	ENDS
;	COMDAT ?__LINE__Var@?1??FixupSamplerPointer@CEffectLoader@D3DX11Effects@@IAEJPAPAUSSamplerBlock@3@@Z@4JA
_DATA	SEGMENT
?__LINE__Var@?1??FixupSamplerPointer@CEffectLoader@D3DX11Effects@@IAEJPAPAUSSamplerBlock@3@@Z@4JA DD 0219H ; `D3DX11Effects::CEffectLoader::FixupSamplerPointer'::`2'::__LINE__Var
_DATA	ENDS
;	COMDAT ??_C@_0EM@COJALNDC@index?5?$CK?5sizeof?$CISRasterizerBlock?$CJ@
CONST	SEGMENT
??_C@_0EM@COJALNDC@index?5?$CK?5sizeof?$CISRasterizerBlock?$CJ@ DB 'index'
	DB	' * sizeof(SRasterizerBlock) == ((size_t)*ppRSBlock - (size_t)'
	DB	'm_pOldRS)', 00H				; `string'
CONST	ENDS
;	COMDAT ?__LINE__Var@?1??FixupRSPointer@CEffectLoader@D3DX11Effects@@IAEJPAPAUSRasterizerBlock@3@@Z@4JA
_DATA	SEGMENT
?__LINE__Var@?1??FixupRSPointer@CEffectLoader@D3DX11Effects@@IAEJPAPAUSRasterizerBlock@3@@Z@4JA DD 020bH ; `D3DX11Effects::CEffectLoader::FixupRSPointer'::`2'::__LINE__Var
_DATA	ENDS
;	COMDAT ??_C@_0EH@EEOKIBCN@index?5?$CK?5sizeof?$CISBlendBlock?$CJ?5?$DN?$DN?5?$CI@
CONST	SEGMENT
??_C@_0EH@EEOKIBCN@index?5?$CK?5sizeof?$CISBlendBlock?$CJ?5?$DN?$DN?5?$CI@ DB 'i'
	DB	'ndex * sizeof(SBlendBlock) == ((size_t)*ppABBlock - (size_t)m'
	DB	'_pOldAB)', 00H				; `string'
CONST	ENDS
;	COMDAT ?__LINE__Var@?1??FixupABPointer@CEffectLoader@D3DX11Effects@@IAEJPAPAUSBlendBlock@3@@Z@4JA
_DATA	SEGMENT
?__LINE__Var@?1??FixupABPointer@CEffectLoader@D3DX11Effects@@IAEJPAPAUSBlendBlock@3@@Z@4JA DD 01fdH ; `D3DX11Effects::CEffectLoader::FixupABPointer'::`2'::__LINE__Var
_DATA	ENDS
;	COMDAT ??_C@_0EO@EMFBLMHI@index?5?$CK?5sizeof?$CISDepthStencilBloc@
CONST	SEGMENT
??_C@_0EO@EMFBLMHI@index?5?$CK?5sizeof?$CISDepthStencilBloc@ DB 'index * '
	DB	'sizeof(SDepthStencilBlock) == ((size_t)*ppDSBlock - (size_t)m'
	DB	'_pOldDS)', 00H				; `string'
CONST	ENDS
;	COMDAT ?__LINE__Var@?1??FixupDSPointer@CEffectLoader@D3DX11Effects@@IAEJPAPAUSDepthStencilBlock@3@@Z@4JA
_DATA	SEGMENT
?__LINE__Var@?1??FixupDSPointer@CEffectLoader@D3DX11Effects@@IAEJPAPAUSDepthStencilBlock@3@@Z@4JA DD 01efH ; `D3DX11Effects::CEffectLoader::FixupDSPointer'::`2'::__LINE__Var
_DATA	ENDS
;	COMDAT ??_C@_0FB@MDPFEFHI@index?5?$CK?5sizeof?$CISShaderBlock?$CJ?5?$DN?$DN?5@
CONST	SEGMENT
??_C@_0FB@MDPFEFHI@index?5?$CK?5sizeof?$CISShaderBlock?$CJ?5?$DN?$DN?5@ DB 'i'
	DB	'ndex * sizeof(SShaderBlock) == ((size_t)*ppShaderBlock - (siz'
	DB	'e_t)m_pOldShaders)', 00H			; `string'
CONST	ENDS
;	COMDAT ?__LINE__Var@?1??FixupShaderPointer@CEffectLoader@D3DX11Effects@@IAEJPAPAUSShaderBlock@3@@Z@4JA
_DATA	SEGMENT
?__LINE__Var@?1??FixupShaderPointer@CEffectLoader@D3DX11Effects@@IAEJPAPAUSShaderBlock@3@@Z@4JA DD 01dfH ; `D3DX11Effects::CEffectLoader::FixupShaderPointer'::`2'::__LINE__Var
_DATA	ENDS
;	COMDAT ??_C@_0FJ@INHMCKEN@index?5?$CK?5sizeof?$CISConstantBuffer?$CJ?5@
CONST	SEGMENT
??_C@_0FJ@INHMCKEN@index?5?$CK?5sizeof?$CISConstantBuffer?$CJ?5@ DB 'inde'
	DB	'x * sizeof(SConstantBuffer) == ((size_t)(SConstantBuffer*)*pp'
	DB	'CB - (size_t)m_pOldCBs)', 00H		; `string'
CONST	ENDS
;	COMDAT ?__LINE__Var@?1??FixupCBPointer@CEffectLoader@D3DX11Effects@@IAEJPAPAUSConstantBuffer@3@@Z@4JA
_DATA	SEGMENT
?__LINE__Var@?1??FixupCBPointer@CEffectLoader@D3DX11Effects@@IAEJPAPAUSConstantBuffer@3@@Z@4JA DD 01d2H ; `D3DX11Effects::CEffectLoader::FixupCBPointer'::`2'::__LINE__Var
_DATA	ENDS
;	COMDAT ??_C@_0N@FLMPGDAJ@ppInterfaces?$AA@
CONST	SEGMENT
??_C@_0N@FLMPGDAJ@ppInterfaces?$AA@ DB 'ppInterfaces', 00H ; `string'
CONST	ENDS
;	COMDAT ?__LINE__Var@?1??GetInterfaceParametersAndAddToReflection@CEffectLoader@D3DX11Effects@@IAEJIIPAPAUSInterfaceParameter@SShaderBlock@3@@Z@4JA
_DATA	SEGMENT
?__LINE__Var@?1??GetInterfaceParametersAndAddToReflection@CEffectLoader@D3DX11Effects@@IAEJIIPAPAUSInterfaceParameter@SShaderBlock@3@@Z@4JA DD 01adH ; `D3DX11Effects::CEffectLoader::GetInterfaceParametersAndAddToReflection'::`2'::__LINE__Var
_DATA	ENDS
;	COMDAT ??_C@_0BD@BAKFCGNM@size?5?$DM?$DN?50xffffffff?$AA@
CONST	SEGMENT
??_C@_0BD@BAKFCGNM@size?5?$DM?$DN?50xffffffff?$AA@ DB 'size <= 0xffffffff'
	DB	00H						; `string'
CONST	ENDS
;	COMDAT ?__LINE__Var@?1??AddString@CEffectHeap@D3DX11Effects@@QAEJPBDPAPAD@Z@4JA
_DATA	SEGMENT
?__LINE__Var@?1??AddString@CEffectHeap@D3DX11Effects@@QAEJPBDPAPAD@Z@4JA DD 0daH ; `D3DX11Effects::CEffectHeap::AddString'::`2'::__LINE__Var
_DATA	ENDS
;	COMDAT ??_C@_0DF@IDKFFGGG@m_pData?5?$DN?$DN?5AlignToPowerOf2?$CIm_pDa@
CONST	SEGMENT
??_C@_0DF@IDKFFGGG@m_pData?5?$DN?$DN?5AlignToPowerOf2?$CIm_pDa@ DB 'm_pDa'
	DB	'ta == AlignToPowerOf2(m_pData, c_DataAlignment)', 00H ; `string'
CONST	ENDS
;	COMDAT ??_C@_0DD@BFMHPEDF@dwSize?5?$DN?$DN?5AlignToPowerOf2?$CIdwSize@
CONST	SEGMENT
??_C@_0DD@BFMHPEDF@dwSize?5?$DN?$DN?5AlignToPowerOf2?$CIdwSize@ DB 'dwSiz'
	DB	'e == AlignToPowerOf2(dwSize, c_DataAlignment)', 00H ; `string'
CONST	ENDS
;	COMDAT ??_C@_08BINKKIMB@?$CBm_pData?$AA@
CONST	SEGMENT
??_C@_08BINKKIMB@?$CBm_pData?$AA@ DB '!m_pData', 00H	; `string'
CONST	ENDS
;	COMDAT ?__LINE__Var@?1??ReserveMemory@CEffectHeap@D3DX11Effects@@QAEJI@Z@4JA
_DATA	SEGMENT
?__LINE__Var@?1??ReserveMemory@CEffectHeap@D3DX11Effects@@QAEJI@Z@4JA DD 0c8H ; `D3DX11Effects::CEffectHeap::ReserveMemory'::`2'::__LINE__Var
_DATA	ENDS
;	COMDAT ??_C@_0FA@JDHJHLEA@c?3?2users?2simon?2documents?2github?2@
CONST	SEGMENT
??_C@_0FA@JDHJHLEA@c?3?2users?2simon?2documents?2github?2@ DB 'c:\users\s'
	DB	'imon\documents\github\sparta2.0\uclan-sparta\effects11\effect'
	DB	'load.cpp', 00H				; `string'
CONST	ENDS
;	COMDAT ?__LINE__Var@?1??GetSimpleParameterTypeFromObjectType@D3DX11Effects@@YA?AW4_D3D_SHADER_VARIABLE_TYPE@@W4EObjectType@2@@Z@4JA
_DATA	SEGMENT
?__LINE__Var@?1??GetSimpleParameterTypeFromObjectType@D3DX11Effects@@YA?AW4_D3D_SHADER_VARIABLE_TYPE@@W4EObjectType@2@@Z@4JA DD 05cH ; `D3DX11Effects::GetSimpleParameterTypeFromObjectType'::`2'::__LINE__Var
_DATA	ENDS
;	COMDAT ??_C@_0O@OCHNEELN@ComputeShader?$AA@
CONST	SEGMENT
??_C@_0O@OCHNEELN@ComputeShader?$AA@ DB 'ComputeShader', 00H ; `string'
CONST	ENDS
;	COMDAT ??_C@_0N@PCCENCDF@DomainShader?$AA@
CONST	SEGMENT
??_C@_0N@PCCENCDF@DomainShader?$AA@ DB 'DomainShader', 00H ; `string'
CONST	ENDS
;	COMDAT ??_C@_0L@GABJGNCK@HullShader?$AA@
CONST	SEGMENT
??_C@_0L@GABJGNCK@HullShader?$AA@ DB 'HullShader', 00H	; `string'
CONST	ENDS
;	COMDAT ??_C@_07GKACAEDJ@Texture?$AA@
CONST	SEGMENT
??_C@_07GKACAEDJ@Texture?$AA@ DB 'Texture', 00H		; `string'
CONST	ENDS
;	COMDAT ??_C@_06HDFEOELA@MaxLOD?$AA@
CONST	SEGMENT
??_C@_06HDFEOELA@MaxLOD?$AA@ DB 'MaxLOD', 00H		; `string'
CONST	ENDS
;	COMDAT ??_C@_06HAKHAEPP@MinLOD?$AA@
CONST	SEGMENT
??_C@_06HAKHAEPP@MinLOD?$AA@ DB 'MinLOD', 00H		; `string'
CONST	ENDS
;	COMDAT ??_C@_0M@DGENNPFN@BorderColor?$AA@
CONST	SEGMENT
??_C@_0M@DGENNPFN@BorderColor?$AA@ DB 'BorderColor', 00H ; `string'
CONST	ENDS
;	COMDAT ??_C@_0P@DNEECBOJ@ComparisonFunc?$AA@
CONST	SEGMENT
??_C@_0P@DNEECBOJ@ComparisonFunc?$AA@ DB 'ComparisonFunc', 00H ; `string'
CONST	ENDS
;	COMDAT ??_C@_0O@IEMFCLON@MaxAnisotropy?$AA@
CONST	SEGMENT
??_C@_0O@IEMFCLON@MaxAnisotropy?$AA@ DB 'MaxAnisotropy', 00H ; `string'
CONST	ENDS
;	COMDAT ??_C@_0L@CFFHFEFO@MipLODBias?$AA@
CONST	SEGMENT
??_C@_0L@CFFHFEFO@MipLODBias?$AA@ DB 'MipLODBias', 00H	; `string'
CONST	ENDS
;	COMDAT ??_C@_08DGLIHMLN@AddressW?$AA@
CONST	SEGMENT
??_C@_08DGLIHMLN@AddressW?$AA@ DB 'AddressW', 00H	; `string'
CONST	ENDS
;	COMDAT ??_C@_08CPKDENPM@AddressV?$AA@
CONST	SEGMENT
??_C@_08CPKDENPM@AddressV?$AA@ DB 'AddressV', 00H	; `string'
CONST	ENDS
;	COMDAT ??_C@_08EIOBODP@AddressU?$AA@
CONST	SEGMENT
??_C@_08EIOBODP@AddressU?$AA@ DB 'AddressU', 00H	; `string'
CONST	ENDS
;	COMDAT ??_C@_06IBDJIBGI@Filter?$AA@
CONST	SEGMENT
??_C@_06IBDJIBGI@Filter?$AA@ DB 'Filter', 00H		; `string'
CONST	ENDS
;	COMDAT ??_C@_0BG@GLNCJOAF@RenderTargetWriteMask?$AA@
CONST	SEGMENT
??_C@_0BG@GLNCJOAF@RenderTargetWriteMask?$AA@ DB 'RenderTargetWriteMask', 00H ; `string'
CONST	ENDS
;	COMDAT ??_C@_0N@DKCOEBAI@BlendOpAlpha?$AA@
CONST	SEGMENT
??_C@_0N@DKCOEBAI@BlendOpAlpha?$AA@ DB 'BlendOpAlpha', 00H ; `string'
CONST	ENDS
;	COMDAT ??_C@_0P@GAOPNAKA@DestBlendAlpha?$AA@
CONST	SEGMENT
??_C@_0P@GAOPNAKA@DestBlendAlpha?$AA@ DB 'DestBlendAlpha', 00H ; `string'
CONST	ENDS
;	COMDAT ??_C@_0O@NAACGGGK@SrcBlendAlpha?$AA@
CONST	SEGMENT
??_C@_0O@NAACGGGK@SrcBlendAlpha?$AA@ DB 'SrcBlendAlpha', 00H ; `string'
CONST	ENDS
;	COMDAT ??_C@_07CDPFEHAN@BlendOp?$AA@
CONST	SEGMENT
??_C@_07CDPFEHAN@BlendOp?$AA@ DB 'BlendOp', 00H		; `string'
CONST	ENDS
;	COMDAT ??_C@_09PGFKOIGA@DestBlend?$AA@
CONST	SEGMENT
??_C@_09PGFKOIGA@DestBlend?$AA@ DB 'DestBlend', 00H	; `string'
CONST	ENDS
;	COMDAT ??_C@_08FHHACIOE@SrcBlend?$AA@
CONST	SEGMENT
??_C@_08FHHACIOE@SrcBlend?$AA@ DB 'SrcBlend', 00H	; `string'
CONST	ENDS
_DATA	SEGMENT
	ORG $+4
?g_lvGeneral@D3DX11Effects@@3QBULValue@1@B DD FLAT:??_C@_0BA@LIKHENHC@RasterizerState?$AA@ ; D3DX11Effects::g_lvGeneral
	DD	05H
	DD	016H
	DD	01H
	DD	01H
	DD	00H
	DD	00H
	DD	06H
	DD	040H
	DD	00H
	DD	FLAT:??_C@_0BC@JHBFINCM@DepthStencilState?$AA@
	DD	05H
	DD	017H
	DD	01H
	DD	01H
	DD	00H
	DD	00H
	DD	07H
	DD	03cH
	DD	00H
	DD	FLAT:??_C@_0L@DDELOHAJ@BlendState?$AA@
	DD	05H
	DD	018H
	DD	01H
	DD	01H
	DD	00H
	DD	00H
	DD	08H
	DD	038H
	DD	00H
	DD	FLAT:??_C@_0BB@GOKJNCIL@RenderTargetView?$AA@
	DD	05H
	DD	01eH
	DD	01H
	DD	08H
	DD	00H
	DD	00H
	DD	04H
	DD	048H
	DD	00H
	DD	FLAT:??_C@_0BB@LMDLMKPB@DepthStencilView?$AA@
	DD	05H
	DD	01fH
	DD	01H
	DD	08H
	DD	00H
	DD	00H
	DD	05H
	DD	068H
	DD	00H
	DD	FLAT:??_C@_0N@IBEMAACP@GenerateMips?$AA@
	DD	05H
	DD	05H
	DD	01H
	DD	01H
	DD	00H
	DD	00H
	DD	09H
	DD	00H
	DD	00H
	DD	FLAT:??_C@_0N@GMCBJINM@VertexShader?$AA@
	DD	05H
	DD	010H
	DD	01H
	DD	01H
	DD	00H
	DD	FLAT:_g_rvNULL
	DD	02H
	DD	06cH
	DD	00H
	DD	FLAT:??_C@_0M@FCHPCNFJ@PixelShader?$AA@
	DD	05H
	DD	0fH
	DD	01H
	DD	01H
	DD	00H
	DD	FLAT:_g_rvNULL
	DD	01H
	DD	070H
	DD	00H
	DD	FLAT:??_C@_0P@OICECHMN@GeometryShader?$AA@
	DD	05H
	DD	015H
	DD	01H
	DD	01H
	DD	00H
	DD	FLAT:_g_rvNULL
	DD	03H
	DD	074H
	DD	00H
	DD	FLAT:??_C@_0O@JEENBINA@DS_StencilRef?$AA@
	DD	05H
	DD	013H
	DD	01H
	DD	01H
	DD	00H
	DD	00H
	DD	0aH
	DD	030H
	DD	00H
	DD	FLAT:??_C@_0P@CEGHKKMF@AB_BlendFactor?$AA@
	DD	05H
	DD	03H
	DD	04H
	DD	01H
	DD	00H
	DD	00H
	DD	0bH
	DD	018H
	DD	00H
	DD	FLAT:??_C@_0O@FIKBICKJ@AB_SampleMask?$AA@
	DD	05H
	DD	013H
	DD	01H
	DD	01H
	DD	00H
	DD	00H
	DD	0cH
	DD	028H
	DD	00H
	DD	FLAT:??_C@_08NMIIEEEP@FillMode?$AA@
	DD	03H
	DD	013H
	DD	01H
	DD	01H
	DD	00H
	DD	FLAT:_g_rvFILL
	DD	020000H
	DD	014H
	DD	00H
	DD	FLAT:??_C@_08LNALCFGE@CullMode?$AA@
	DD	03H
	DD	013H
	DD	01H
	DD	01H
	DD	00H
	DD	FLAT:_g_rvCULL
	DD	020001H
	DD	018H
	DD	00H
	DD	FLAT:??_C@_0BG@LHEPJHBL@FrontCounterClockwise?$AA@
	DD	03H
	DD	01H
	DD	01H
	DD	01H
	DD	00H
	DD	FLAT:_g_rvBOOL
	DD	020002H
	DD	01cH
	DD	00H
	DD	FLAT:??_C@_09OEBKCEKF@DepthBias?$AA@
	DD	03H
	DD	013H
	DD	01H
	DD	01H
	DD	00H
	DD	00H
	DD	020003H
	DD	020H
	DD	00H
	DD	FLAT:??_C@_0P@IFJAGLKM@DepthBiasClamp?$AA@
	DD	03H
	DD	03H
	DD	01H
	DD	01H
	DD	00H
	DD	00H
	DD	020004H
	DD	024H
	DD	00H
	DD	FLAT:??_C@_0BF@HPDIBKDM@SlopeScaledDepthBias?$AA@
	DD	03H
	DD	03H
	DD	01H
	DD	01H
	DD	00H
	DD	00H
	DD	020005H
	DD	028H
	DD	00H
	DD	FLAT:??_C@_0BA@LGNIIPEG@DepthClipEnable?$AA@
	DD	03H
	DD	01H
	DD	01H
	DD	01H
	DD	00H
	DD	FLAT:_g_rvBOOL
	DD	020006H
	DD	02cH
	DD	00H
	DD	FLAT:??_C@_0O@CMAKKCKB@ScissorEnable?$AA@
	DD	03H
	DD	01H
	DD	01H
	DD	01H
	DD	00H
	DD	FLAT:_g_rvBOOL
	DD	020007H
	DD	030H
	DD	00H
	DD	FLAT:??_C@_0BC@MCHLHGON@MultisampleEnable?$AA@
	DD	03H
	DD	01H
	DD	01H
	DD	01H
	DD	00H
	DD	FLAT:_g_rvBOOL
	DD	020008H
	DD	034H
	DD	00H
	DD	FLAT:??_C@_0BG@OEFGIGEF@AntialiasedLineEnable?$AA@
	DD	03H
	DD	01H
	DD	01H
	DD	01H
	DD	00H
	DD	FLAT:_g_rvBOOL
	DD	020009H
	DD	038H
	DD	00H
	DD	FLAT:??_C@_0M@IGDDNLAN@DepthEnable?$AA@
	DD	01H
	DD	01H
	DD	01H
	DD	01H
	DD	00H
	DD	FLAT:_g_rvBOOL
	DD	040000H
	DD	014H
	DD	00H
	DD	FLAT:??_C@_0P@OOBKHNOI@DepthWriteMask?$AA@
	DD	01H
	DD	013H
	DD	01H
	DD	01H
	DD	00H
	DD	FLAT:_g_rvDEPTH_WRITE_MASK
	DD	040001H
	DD	018H
	DD	00H
	DD	FLAT:??_C@_09EKMLDPCO@DepthFunc?$AA@
	DD	01H
	DD	013H
	DD	01H
	DD	01H
	DD	00H
	DD	FLAT:_g_rvCMP
	DD	040002H
	DD	01cH
	DD	00H
	DD	FLAT:??_C@_0O@LIJDBNBF@StencilEnable?$AA@
	DD	01H
	DD	01H
	DD	01H
	DD	01H
	DD	00H
	DD	FLAT:_g_rvBOOL
	DD	040003H
	DD	020H
	DD	00H
	DD	FLAT:??_C@_0BA@LEFMBHCL@StencilReadMask?$AA@
	DD	01H
	DD	014H
	DD	01H
	DD	01H
	DD	00H
	DD	00H
	DD	040004H
	DD	024H
	DD	00H
	DD	FLAT:??_C@_0BB@LHFJFMDO@StencilWriteMask?$AA@
	DD	01H
	DD	014H
	DD	01H
	DD	01H
	DD	00H
	DD	00H
	DD	040005H
	DD	025H
	DD	00H
	DD	FLAT:??_C@_0BF@FOECBGIB@FrontFaceStencilFail?$AA@
	DD	01H
	DD	013H
	DD	01H
	DD	01H
	DD	00H
	DD	FLAT:_g_rvSTENCILOP
	DD	040006H
	DD	028H
	DD	00H
	DD	FLAT:??_C@_0BK@POMOKFDB@FrontFaceStencilDepthFail?$AA@
	DD	01H
	DD	013H
	DD	01H
	DD	01H
	DD	00H
	DD	FLAT:_g_rvSTENCILOP
	DD	040007H
	DD	02cH
	DD	00H
	DD	FLAT:??_C@_0BF@GNAJFMJL@FrontFaceStencilPass?$AA@
	DD	01H
	DD	013H
	DD	01H
	DD	01H
	DD	00H
	DD	FLAT:_g_rvSTENCILOP
	DD	040008H
	DD	030H
	DD	00H
	DD	FLAT:??_C@_0BF@DOONMAD@FrontFaceStencilFunc?$AA@
	DD	01H
	DD	013H
	DD	01H
	DD	01H
	DD	00H
	DD	FLAT:_g_rvCMP
	DD	040009H
	DD	034H
	DD	00H
	DD	FLAT:??_C@_0BE@FOHAIIEL@BackFaceStencilFail?$AA@
	DD	01H
	DD	013H
	DD	01H
	DD	01H
	DD	00H
	DD	FLAT:_g_rvSTENCILOP
	DD	04000aH
	DD	038H
	DD	00H
	DD	FLAT:??_C@_0BJ@CHBLPCCC@BackFaceStencilDepthFail?$AA@
	DD	01H
	DD	013H
	DD	01H
	DD	01H
	DD	00H
	DD	FLAT:_g_rvSTENCILOP
	DD	04000bH
	DD	03cH
	DD	00H
	DD	FLAT:??_C@_0BE@GNDLMCFB@BackFaceStencilPass?$AA@
	DD	01H
	DD	013H
	DD	01H
	DD	01H
	DD	00H
	DD	FLAT:_g_rvSTENCILOP
	DD	04000cH
	DD	040H
	DD	00H
	DD	FLAT:??_C@_0BE@DNMECMJ@BackFaceStencilFunc?$AA@
	DD	01H
	DD	013H
	DD	01H
	DD	01H
	DD	00H
	DD	FLAT:_g_rvCMP
	DD	04000dH
	DD	044H
	DD	00H
	DD	FLAT:??_C@_0BG@COOKFDEE@AlphaToCoverageEnable?$AA@
	DD	02H
	DD	01H
	DD	01H
	DD	01H
	DD	00H
	DD	FLAT:_g_rvBOOL
	DD	050000H
	DD	014H
	DD	00H
	DD	FLAT:??_C@_0M@LNIFNHGE@BlendEnable?$AA@
	DD	02H
	DD	01H
	DD	01H
	DD	08H
	DD	00H
	DD	FLAT:_g_rvBOOL
	DD	050001H
	DD	01cH
	ORG $+844
_DATA	ENDS
;	COMDAT ??_7SConstantBuffer@D3DX11Effects@@6BID3DX11EffectType@@@
CONST	SEGMENT
??_7SConstantBuffer@D3DX11Effects@@6BID3DX11EffectType@@@ DD FLAT:??_R4SConstantBuffer@D3DX11Effects@@6BID3DX11EffectType@@@ ; D3DX11Effects::SConstantBuffer::`vftable'
	DD	FLAT:?IsValid@SConstantBuffer@D3DX11Effects@@W3AGHXZ
	DD	FLAT:?GetDesc@SConstantBuffer@D3DX11Effects@@UAGJPAU_D3DX11_EFFECT_TYPE_DESC@@@Z
	DD	FLAT:?GetMemberTypeByIndex@SConstantBuffer@D3DX11Effects@@UAGPAUID3DX11EffectType@@I@Z
	DD	FLAT:?GetMemberTypeByName@SConstantBuffer@D3DX11Effects@@UAGPAUID3DX11EffectType@@PBD@Z
	DD	FLAT:?GetMemberTypeBySemantic@SConstantBuffer@D3DX11Effects@@UAGPAUID3DX11EffectType@@PBD@Z
	DD	FLAT:?GetMemberName@SConstantBuffer@D3DX11Effects@@UAGPBDI@Z
	DD	FLAT:?GetMemberSemantic@SConstantBuffer@D3DX11Effects@@UAGPBDI@Z
CONST	ENDS
;	COMDAT ??_7SConstantBuffer@D3DX11Effects@@6B?$TUncastableVariable@UID3DX11EffectConstantBuffer@@@1@@
CONST	SEGMENT
??_7SConstantBuffer@D3DX11Effects@@6B?$TUncastableVariable@UID3DX11EffectConstantBuffer@@@1@@ DD FLAT:??_R4SConstantBuffer@D3DX11Effects@@6B?$TUncastableVariable@UID3DX11EffectConstantBuffer@@@1@@ ; D3DX11Effects::SConstantBuffer::`vftable'
	DD	FLAT:?IsValid@SConstantBuffer@D3DX11Effects@@UAGHXZ
	DD	FLAT:?GetType@SConstantBuffer@D3DX11Effects@@UAGPAUID3DX11EffectType@@XZ
	DD	FLAT:?GetDesc@SConstantBuffer@D3DX11Effects@@UAGJPAU_D3DX11_EFFECT_VARIABLE_DESC@@@Z
	DD	FLAT:?GetAnnotationByIndex@SConstantBuffer@D3DX11Effects@@UAGPAUID3DX11EffectVariable@@I@Z
	DD	FLAT:?GetAnnotationByName@SConstantBuffer@D3DX11Effects@@UAGPAUID3DX11EffectVariable@@PBD@Z
	DD	FLAT:?GetMemberByIndex@SConstantBuffer@D3DX11Effects@@UAGPAUID3DX11EffectVariable@@I@Z
	DD	FLAT:?GetMemberByName@SConstantBuffer@D3DX11Effects@@UAGPAUID3DX11EffectVariable@@PBD@Z
	DD	FLAT:?GetMemberBySemantic@SConstantBuffer@D3DX11Effects@@UAGPAUID3DX11EffectVariable@@PBD@Z
	DD	FLAT:?GetElement@SConstantBuffer@D3DX11Effects@@UAGPAUID3DX11EffectVariable@@I@Z
	DD	FLAT:?GetParentConstantBuffer@SConstantBuffer@D3DX11Effects@@UAGPAUID3DX11EffectConstantBuffer@@XZ
	DD	FLAT:?AsScalar@?$TUncastableVariable@UID3DX11EffectConstantBuffer@@@D3DX11Effects@@UAGPAUID3DX11EffectScalarVariable@@XZ
	DD	FLAT:?AsVector@?$TUncastableVariable@UID3DX11EffectConstantBuffer@@@D3DX11Effects@@UAGPAUID3DX11EffectVectorVariable@@XZ
	DD	FLAT:?AsMatrix@?$TUncastableVariable@UID3DX11EffectConstantBuffer@@@D3DX11Effects@@UAGPAUID3DX11EffectMatrixVariable@@XZ
	DD	FLAT:?AsString@?$TUncastableVariable@UID3DX11EffectConstantBuffer@@@D3DX11Effects@@UAGPAUID3DX11EffectStringVariable@@XZ
	DD	FLAT:?AsClassInstance@?$TUncastableVariable@UID3DX11EffectConstantBuffer@@@D3DX11Effects@@UAGPAUID3DX11EffectClassInstanceVariable@@XZ
	DD	FLAT:?AsInterface@?$TUncastableVariable@UID3DX11EffectConstantBuffer@@@D3DX11Effects@@UAGPAUID3DX11EffectInterfaceVariable@@XZ
	DD	FLAT:?AsShaderResource@?$TUncastableVariable@UID3DX11EffectConstantBuffer@@@D3DX11Effects@@UAGPAUID3DX11EffectShaderResourceVariable@@XZ
	DD	FLAT:?AsUnorderedAccessView@?$TUncastableVariable@UID3DX11EffectConstantBuffer@@@D3DX11Effects@@UAGPAUID3DX11EffectUnorderedAccessViewVariable@@XZ
	DD	FLAT:?AsRenderTargetView@?$TUncastableVariable@UID3DX11EffectConstantBuffer@@@D3DX11Effects@@UAGPAUID3DX11EffectRenderTargetViewVariable@@XZ
	DD	FLAT:?AsDepthStencilView@?$TUncastableVariable@UID3DX11EffectConstantBuffer@@@D3DX11Effects@@UAGPAUID3DX11EffectDepthStencilViewVariable@@XZ
	DD	FLAT:?AsConstantBuffer@SConstantBuffer@D3DX11Effects@@UAGPAUID3DX11EffectConstantBuffer@@XZ
	DD	FLAT:?AsShader@?$TUncastableVariable@UID3DX11EffectConstantBuffer@@@D3DX11Effects@@UAGPAUID3DX11EffectShaderVariable@@XZ
	DD	FLAT:?AsBlend@?$TUncastableVariable@UID3DX11EffectConstantBuffer@@@D3DX11Effects@@UAGPAUID3DX11EffectBlendVariable@@XZ
	DD	FLAT:?AsDepthStencil@?$TUncastableVariable@UID3DX11EffectConstantBuffer@@@D3DX11Effects@@UAGPAUID3DX11EffectDepthStencilVariable@@XZ
	DD	FLAT:?AsRasterizer@?$TUncastableVariable@UID3DX11EffectConstantBuffer@@@D3DX11Effects@@UAGPAUID3DX11EffectRasterizerVariable@@XZ
	DD	FLAT:?AsSampler@?$TUncastableVariable@UID3DX11EffectConstantBuffer@@@D3DX11Effects@@UAGPAUID3DX11EffectSamplerVariable@@XZ
	DD	FLAT:?SetRawValue@SConstantBuffer@D3DX11Effects@@UAGJPBXII@Z
	DD	FLAT:?GetRawValue@SConstantBuffer@D3DX11Effects@@UAGJPAXII@Z
	DD	FLAT:?SetConstantBuffer@SConstantBuffer@D3DX11Effects@@UAGJPAUID3D11Buffer@@@Z
	DD	FLAT:?UndoSetConstantBuffer@SConstantBuffer@D3DX11Effects@@UAGJXZ
	DD	FLAT:?GetConstantBuffer@SConstantBuffer@D3DX11Effects@@UAGJPAPAUID3D11Buffer@@@Z
	DD	FLAT:?SetTextureBuffer@SConstantBuffer@D3DX11Effects@@UAGJPAUID3D11ShaderResourceView@@@Z
	DD	FLAT:?UndoSetTextureBuffer@SConstantBuffer@D3DX11Effects@@UAGJXZ
	DD	FLAT:?GetTextureBuffer@SConstantBuffer@D3DX11Effects@@UAGJPAPAUID3D11ShaderResourceView@@@Z
CONST	ENDS
;	COMDAT ??_7?$TUncastableVariable@UID3DX11EffectConstantBuffer@@@D3DX11Effects@@6B@
CONST	SEGMENT
??_7?$TUncastableVariable@UID3DX11EffectConstantBuffer@@@D3DX11Effects@@6B@ DD FLAT:??_R4?$TUncastableVariable@UID3DX11EffectConstantBuffer@@@D3DX11Effects@@6B@ ; D3DX11Effects::TUncastableVariable<ID3DX11EffectConstantBuffer>::`vftable'
	DD	FLAT:__purecall
	DD	FLAT:__purecall
	DD	FLAT:__purecall
	DD	FLAT:__purecall
	DD	FLAT:__purecall
	DD	FLAT:__purecall
	DD	FLAT:__purecall
	DD	FLAT:__purecall
	DD	FLAT:__purecall
	DD	FLAT:__purecall
	DD	FLAT:?AsScalar@?$TUncastableVariable@UID3DX11EffectConstantBuffer@@@D3DX11Effects@@UAGPAUID3DX11EffectScalarVariable@@XZ
	DD	FLAT:?AsVector@?$TUncastableVariable@UID3DX11EffectConstantBuffer@@@D3DX11Effects@@UAGPAUID3DX11EffectVectorVariable@@XZ
	DD	FLAT:?AsMatrix@?$TUncastableVariable@UID3DX11EffectConstantBuffer@@@D3DX11Effects@@UAGPAUID3DX11EffectMatrixVariable@@XZ
	DD	FLAT:?AsString@?$TUncastableVariable@UID3DX11EffectConstantBuffer@@@D3DX11Effects@@UAGPAUID3DX11EffectStringVariable@@XZ
	DD	FLAT:?AsClassInstance@?$TUncastableVariable@UID3DX11EffectConstantBuffer@@@D3DX11Effects@@UAGPAUID3DX11EffectClassInstanceVariable@@XZ
	DD	FLAT:?AsInterface@?$TUncastableVariable@UID3DX11EffectConstantBuffer@@@D3DX11Effects@@UAGPAUID3DX11EffectInterfaceVariable@@XZ
	DD	FLAT:?AsShaderResource@?$TUncastableVariable@UID3DX11EffectConstantBuffer@@@D3DX11Effects@@UAGPAUID3DX11EffectShaderResourceVariable@@XZ
	DD	FLAT:?AsUnorderedAccessView@?$TUncastableVariable@UID3DX11EffectConstantBuffer@@@D3DX11Effects@@UAGPAUID3DX11EffectUnorderedAccessViewVariable@@XZ
	DD	FLAT:?AsRenderTargetView@?$TUncastableVariable@UID3DX11EffectConstantBuffer@@@D3DX11Effects@@UAGPAUID3DX11EffectRenderTargetViewVariable@@XZ
	DD	FLAT:?AsDepthStencilView@?$TUncastableVariable@UID3DX11EffectConstantBuffer@@@D3DX11Effects@@UAGPAUID3DX11EffectDepthStencilViewVariable@@XZ
	DD	FLAT:?AsConstantBuffer@?$TUncastableVariable@UID3DX11EffectConstantBuffer@@@D3DX11Effects@@UAGPAUID3DX11EffectConstantBuffer@@XZ
	DD	FLAT:?AsShader@?$TUncastableVariable@UID3DX11EffectConstantBuffer@@@D3DX11Effects@@UAGPAUID3DX11EffectShaderVariable@@XZ
	DD	FLAT:?AsBlend@?$TUncastableVariable@UID3DX11EffectConstantBuffer@@@D3DX11Effects@@UAGPAUID3DX11EffectBlendVariable@@XZ
	DD	FLAT:?AsDepthStencil@?$TUncastableVariable@UID3DX11EffectConstantBuffer@@@D3DX11Effects@@UAGPAUID3DX11EffectDepthStencilVariable@@XZ
	DD	FLAT:?AsRasterizer@?$TUncastableVariable@UID3DX11EffectConstantBuffer@@@D3DX11Effects@@UAGPAUID3DX11EffectRasterizerVariable@@XZ
	DD	FLAT:?AsSampler@?$TUncastableVariable@UID3DX11EffectConstantBuffer@@@D3DX11Effects@@UAGPAUID3DX11EffectSamplerVariable@@XZ
	DD	FLAT:__purecall
	DD	FLAT:__purecall
	DD	FLAT:__purecall
	DD	FLAT:__purecall
	DD	FLAT:__purecall
	DD	FLAT:__purecall
	DD	FLAT:__purecall
	DD	FLAT:__purecall
CONST	ENDS
;	COMDAT ??_C@_01GBGANLPD@0?$AA@
CONST	SEGMENT
??_C@_01GBGANLPD@0?$AA@ DB '0', 00H			; `string'
CONST	ENDS
;	COMDAT ??_7SType@D3DX11Effects@@6B@
CONST	SEGMENT
??_7SType@D3DX11Effects@@6B@ DD FLAT:??_R4SType@D3DX11Effects@@6B@ ; D3DX11Effects::SType::`vftable'
	DD	FLAT:?IsValid@SType@D3DX11Effects@@UAGHXZ
	DD	FLAT:?GetDesc@SType@D3DX11Effects@@UAGJPAU_D3DX11_EFFECT_TYPE_DESC@@@Z
	DD	FLAT:?GetMemberTypeByIndex@SType@D3DX11Effects@@UAGPAUID3DX11EffectType@@I@Z
	DD	FLAT:?GetMemberTypeByName@SType@D3DX11Effects@@UAGPAUID3DX11EffectType@@PBD@Z
	DD	FLAT:?GetMemberTypeBySemantic@SType@D3DX11Effects@@UAGPAUID3DX11EffectType@@PBD@Z
	DD	FLAT:?GetMemberName@SType@D3DX11Effects@@UAGPBDI@Z
	DD	FLAT:?GetMemberSemantic@SType@D3DX11Effects@@UAGPBDI@Z
CONST	ENDS
;	COMDAT ??_C@_0BA@BGIBFJE@s?5?$DM?$DN?50xffffffff?$AA@
CONST	SEGMENT
??_C@_0BA@BGIBFJE@s?5?$DM?$DN?50xffffffff?$AA@ DB 's <= 0xffffffff', 00H ; `string'
CONST	ENDS
;	COMDAT ?__LINE__Var@?1???2@YAPAXIAAVCDataBlockStore@@@Z@4JA@7084dd8d
_DATA	SEGMENT
?__LINE__Var@?1???2@YAPAXIAAVCDataBlockStore@@@Z@4JA@7084dd8d DD 029cH ; `operator new'::`2'::__LINE__Var
_DATA	ENDS
;	COMDAT ?__LINE__Var@?1??AlignToPowerOf2@@YAPAXPAXI@Z@4JA
_DATA	SEGMENT
?__LINE__Var@?1??AlignToPowerOf2@@YAPAXPAXI@Z@4JA DD 042H ; `AlignToPowerOf2'::`2'::__LINE__Var
_DATA	ENDS
;	COMDAT ??_C@_0DA@FKFDAOLL@Alignment?5?$DO?50?5?$CG?$CG?5Value?5?$DM?50xfffff@
CONST	SEGMENT
??_C@_0DA@FKFDAOLL@Alignment?5?$DO?50?5?$CG?$CG?5Value?5?$DM?50xfffff@ DB 'A'
	DB	'lignment > 0 && Value < 0xffffffff - Alignment', 00H ; `string'
CONST	ENDS
;	COMDAT ??_C@_0FC@PAPMLGFN@c?3?2users?2simon?2documents?2github?2@
CONST	SEGMENT
??_C@_0FC@PAPMLGFN@c?3?2users?2simon?2documents?2github?2@ DB 'c:\users\s'
	DB	'imon\documents\github\sparta2.0\uclan-sparta\effects11\inc\d3'
	DB	'dxglobal.h', 00H				; `string'
CONST	ENDS
;	COMDAT ??_C@_0CD@GECBLADO@?$CIAlignment?5?$CG?5?$CIAlignment?5?9?51?$CJ?$CJ?5?$DN?$DN@
CONST	SEGMENT
??_C@_0CD@GECBLADO@?$CIAlignment?5?$CG?5?$CIAlignment?5?9?51?$CJ?$CJ?5?$DN?$DN@ DB '('
	DB	'Alignment & (Alignment - 1)) == 0', 00H	; `string'
CONST	ENDS
;	COMDAT ?__LINE__Var@?1??AlignToPowerOf2@@YAIII@Z@4JA
_DATA	SEGMENT
?__LINE__Var@?1??AlignToPowerOf2@@YAIII@Z@4JA DD 03aH	; `AlignToPowerOf2'::`2'::__LINE__Var
_DATA	ENDS
;	COMDAT xdata$x
xdata$x	SEGMENT
__unwindtable$?Add@?$CEffectVector@USRange@D3DX11Effects@@@@QAEPAUSRange@D3DX11Effects@@XZ DD 0ffffffffH
	DD	FLAT:__unwindfunclet$?Add@?$CEffectVector@USRange@D3DX11Effects@@@@QAEPAUSRange@D3DX11Effects@@XZ$0
__ehfuncinfo$?Add@?$CEffectVector@USRange@D3DX11Effects@@@@QAEPAUSRange@D3DX11Effects@@XZ DD 019930522H
	DD	01H
	DD	FLAT:__unwindtable$?Add@?$CEffectVector@USRange@D3DX11Effects@@@@QAEPAUSRange@D3DX11Effects@@XZ
	DD	2 DUP(00H)
	DD	2 DUP(00H)
	DD	00H
	DD	01H
xdata$x	ENDS
;	COMDAT xdata$x
xdata$x	SEGMENT
__unwindtable$??1CEffectLoader@D3DX11Effects@@QAE@XZ DD 0ffffffffH
	DD	FLAT:__unwindfunclet$??1CEffectLoader@D3DX11Effects@@QAE@XZ$0
	DD	00H
	DD	FLAT:__unwindfunclet$??1CEffectLoader@D3DX11Effects@@QAE@XZ$1
	DD	01H
	DD	FLAT:__unwindfunclet$??1CEffectLoader@D3DX11Effects@@QAE@XZ$2
	DD	02H
	DD	FLAT:__unwindfunclet$??1CEffectLoader@D3DX11Effects@@QAE@XZ$3
__ehfuncinfo$??1CEffectLoader@D3DX11Effects@@QAE@XZ DD 019930522H
	DD	04H
	DD	FLAT:__unwindtable$??1CEffectLoader@D3DX11Effects@@QAE@XZ
	DD	2 DUP(00H)
	DD	2 DUP(00H)
	DD	00H
	DD	01H
xdata$x	ENDS
;	COMDAT xdata$x
xdata$x	SEGMENT
__unwindtable$??0CEffectLoader@D3DX11Effects@@QAE@XZ DD 0ffffffffH
	DD	FLAT:__unwindfunclet$??0CEffectLoader@D3DX11Effects@@QAE@XZ$0
	DD	00H
	DD	FLAT:__unwindfunclet$??0CEffectLoader@D3DX11Effects@@QAE@XZ$1
	DD	01H
	DD	FLAT:__unwindfunclet$??0CEffectLoader@D3DX11Effects@@QAE@XZ$2
	DD	02H
	DD	FLAT:__unwindfunclet$??0CEffectLoader@D3DX11Effects@@QAE@XZ$3
__ehfuncinfo$??0CEffectLoader@D3DX11Effects@@QAE@XZ DD 019930522H
	DD	04H
	DD	FLAT:__unwindtable$??0CEffectLoader@D3DX11Effects@@QAE@XZ
	DD	2 DUP(00H)
	DD	2 DUP(00H)
	DD	00H
	DD	01H
xdata$x	ENDS
;	COMDAT xdata$x
xdata$x	SEGMENT
__ehfuncinfo$?LoadEffect@CEffectLoader@D3DX11Effects@@QAEJPAVCEffect@2@PBXI@Z DD 019930522H
	DD	012H
	DD	FLAT:__unwindtable$?LoadEffect@CEffectLoader@D3DX11Effects@@QAEJPAVCEffect@2@PBXI@Z
	DD	2 DUP(00H)
	DD	2 DUP(00H)
	DD	00H
	DD	01H
__unwindtable$?LoadEffect@CEffectLoader@D3DX11Effects@@QAEJPAVCEffect@2@PBXI@Z DD 0ffffffffH
	DD	FLAT:__unwindfunclet$?LoadEffect@CEffectLoader@D3DX11Effects@@QAEJPAVCEffect@2@PBXI@Z$54
	DD	0ffffffffH
	DD	FLAT:__unwindfunclet$?LoadEffect@CEffectLoader@D3DX11Effects@@QAEJPAVCEffect@2@PBXI@Z$55
	DD	0ffffffffH
	DD	FLAT:__unwindfunclet$?LoadEffect@CEffectLoader@D3DX11Effects@@QAEJPAVCEffect@2@PBXI@Z$56
	DD	0ffffffffH
	DD	FLAT:__unwindfunclet$?LoadEffect@CEffectLoader@D3DX11Effects@@QAEJPAVCEffect@2@PBXI@Z$57
	DD	0ffffffffH
	DD	FLAT:__unwindfunclet$?LoadEffect@CEffectLoader@D3DX11Effects@@QAEJPAVCEffect@2@PBXI@Z$58
	DD	0ffffffffH
	DD	FLAT:__unwindfunclet$?LoadEffect@CEffectLoader@D3DX11Effects@@QAEJPAVCEffect@2@PBXI@Z$59
	DD	0ffffffffH
	DD	FLAT:__unwindfunclet$?LoadEffect@CEffectLoader@D3DX11Effects@@QAEJPAVCEffect@2@PBXI@Z$60
	DD	0ffffffffH
	DD	FLAT:__unwindfunclet$?LoadEffect@CEffectLoader@D3DX11Effects@@QAEJPAVCEffect@2@PBXI@Z$61
	DD	0ffffffffH
	DD	FLAT:__unwindfunclet$?LoadEffect@CEffectLoader@D3DX11Effects@@QAEJPAVCEffect@2@PBXI@Z$62
	DD	0ffffffffH
	DD	FLAT:__unwindfunclet$?LoadEffect@CEffectLoader@D3DX11Effects@@QAEJPAVCEffect@2@PBXI@Z$63
	DD	0ffffffffH
	DD	FLAT:__unwindfunclet$?LoadEffect@CEffectLoader@D3DX11Effects@@QAEJPAVCEffect@2@PBXI@Z$64
	DD	0ffffffffH
	DD	FLAT:__unwindfunclet$?LoadEffect@CEffectLoader@D3DX11Effects@@QAEJPAVCEffect@2@PBXI@Z$65
	DD	0ffffffffH
	DD	FLAT:__unwindfunclet$?LoadEffect@CEffectLoader@D3DX11Effects@@QAEJPAVCEffect@2@PBXI@Z$66
	DD	0ffffffffH
	DD	FLAT:__unwindfunclet$?LoadEffect@CEffectLoader@D3DX11Effects@@QAEJPAVCEffect@2@PBXI@Z$67
	DD	0ffffffffH
	DD	FLAT:__unwindfunclet$?LoadEffect@CEffectLoader@D3DX11Effects@@QAEJPAVCEffect@2@PBXI@Z$68
	DD	0ffffffffH
	DD	FLAT:__unwindfunclet$?LoadEffect@CEffectLoader@D3DX11Effects@@QAEJPAVCEffect@2@PBXI@Z$69
	DD	0ffffffffH
	DD	FLAT:__unwindfunclet$?LoadEffect@CEffectLoader@D3DX11Effects@@QAEJPAVCEffect@2@PBXI@Z$70
	DD	0ffffffffH
	DD	FLAT:__unwindfunclet$?LoadEffect@CEffectLoader@D3DX11Effects@@QAEJPAVCEffect@2@PBXI@Z$71
xdata$x	ENDS
;	COMDAT xdata$x
xdata$x	SEGMENT
__ehfuncinfo$?GrabShaderData@CEffectLoader@D3DX11Effects@@IAEJPAUSShaderBlock@2@@Z DD 019930522H
	DD	08H
	DD	FLAT:__unwindtable$?GrabShaderData@CEffectLoader@D3DX11Effects@@IAEJPAUSShaderBlock@2@@Z
	DD	2 DUP(00H)
	DD	2 DUP(00H)
	DD	00H
	DD	01H
__unwindtable$?GrabShaderData@CEffectLoader@D3DX11Effects@@IAEJPAUSShaderBlock@2@@Z DD 0ffffffffH
	DD	FLAT:__unwindfunclet$?GrabShaderData@CEffectLoader@D3DX11Effects@@IAEJPAUSShaderBlock@2@@Z$50
	DD	00H
	DD	FLAT:__unwindfunclet$?GrabShaderData@CEffectLoader@D3DX11Effects@@IAEJPAUSShaderBlock@2@@Z$51
	DD	01H
	DD	FLAT:__unwindfunclet$?GrabShaderData@CEffectLoader@D3DX11Effects@@IAEJPAUSShaderBlock@2@@Z$52
	DD	01H
	DD	FLAT:__unwindfunclet$?GrabShaderData@CEffectLoader@D3DX11Effects@@IAEJPAUSShaderBlock@2@@Z$53
	DD	01H
	DD	FLAT:__unwindfunclet$?GrabShaderData@CEffectLoader@D3DX11Effects@@IAEJPAUSShaderBlock@2@@Z$54
	DD	01H
	DD	FLAT:__unwindfunclet$?GrabShaderData@CEffectLoader@D3DX11Effects@@IAEJPAUSShaderBlock@2@@Z$55
	DD	01H
	DD	FLAT:__unwindfunclet$?GrabShaderData@CEffectLoader@D3DX11Effects@@IAEJPAUSShaderBlock@2@@Z$56
	DD	01H
	DD	FLAT:__unwindfunclet$?GrabShaderData@CEffectLoader@D3DX11Effects@@IAEJPAUSShaderBlock@2@@Z$57
xdata$x	ENDS
;	COMDAT xdata$x
xdata$x	SEGMENT
__unwindtable$?LoadAnnotations@CEffectLoader@D3DX11Effects@@IAEJPAIPAPAUSAnnotation@2@@Z DD 0ffffffffH
	DD	FLAT:__unwindfunclet$?LoadAnnotations@CEffectLoader@D3DX11Effects@@IAEJPAIPAPAUSAnnotation@2@@Z$17
__ehfuncinfo$?LoadAnnotations@CEffectLoader@D3DX11Effects@@IAEJPAIPAPAUSAnnotation@2@@Z DD 019930522H
	DD	01H
	DD	FLAT:__unwindtable$?LoadAnnotations@CEffectLoader@D3DX11Effects@@IAEJPAIPAPAUSAnnotation@2@@Z
	DD	2 DUP(00H)
	DD	2 DUP(00H)
	DD	00H
	DD	01H
xdata$x	ENDS
;	COMDAT xdata$x
xdata$x	SEGMENT
__unwindtable$?LoadTechnique@CEffectLoader@D3DX11Effects@@IAEJPAUSTechnique@2@@Z DD 0ffffffffH
	DD	FLAT:__unwindfunclet$?LoadTechnique@CEffectLoader@D3DX11Effects@@IAEJPAUSTechnique@2@@Z$9
__ehfuncinfo$?LoadTechnique@CEffectLoader@D3DX11Effects@@IAEJPAUSTechnique@2@@Z DD 019930522H
	DD	01H
	DD	FLAT:__unwindtable$?LoadTechnique@CEffectLoader@D3DX11Effects@@IAEJPAUSTechnique@2@@Z
	DD	2 DUP(00H)
	DD	2 DUP(00H)
	DD	00H
	DD	01H
xdata$x	ENDS
;	COMDAT xdata$x
xdata$x	SEGMENT
__unwindtable$?LoadGroups@CEffectLoader@D3DX11Effects@@IAEJXZ DD 0ffffffffH
	DD	FLAT:__unwindfunclet$?LoadGroups@CEffectLoader@D3DX11Effects@@IAEJXZ$7
__ehfuncinfo$?LoadGroups@CEffectLoader@D3DX11Effects@@IAEJXZ DD 019930522H
	DD	01H
	DD	FLAT:__unwindtable$?LoadGroups@CEffectLoader@D3DX11Effects@@IAEJXZ
	DD	2 DUP(00H)
	DD	2 DUP(00H)
	DD	00H
	DD	01H
xdata$x	ENDS
;	COMDAT xdata$x
xdata$x	SEGMENT
__ehfuncinfo$?LoadAssignments@CEffectLoader@D3DX11Effects@@IAEJIPAPAUSAssignment@2@PAEPAI2@Z DD 019930522H
	DD	05H
	DD	FLAT:__unwindtable$?LoadAssignments@CEffectLoader@D3DX11Effects@@IAEJIPAPAUSAssignment@2@PAEPAI2@Z
	DD	2 DUP(00H)
	DD	2 DUP(00H)
	DD	00H
	DD	01H
__unwindtable$?LoadAssignments@CEffectLoader@D3DX11Effects@@IAEJIPAPAUSAssignment@2@PAEPAI2@Z DD 0ffffffffH
	DD	FLAT:__unwindfunclet$?LoadAssignments@CEffectLoader@D3DX11Effects@@IAEJIPAPAUSAssignment@2@PAEPAI2@Z$53
	DD	0ffffffffH
	DD	FLAT:__unwindfunclet$?LoadAssignments@CEffectLoader@D3DX11Effects@@IAEJIPAPAUSAssignment@2@PAEPAI2@Z$54
	DD	0ffffffffH
	DD	FLAT:__unwindfunclet$?LoadAssignments@CEffectLoader@D3DX11Effects@@IAEJIPAPAUSAssignment@2@PAEPAI2@Z$55
	DD	0ffffffffH
	DD	FLAT:__unwindfunclet$?LoadAssignments@CEffectLoader@D3DX11Effects@@IAEJIPAPAUSAssignment@2@PAEPAI2@Z$56
	DD	0ffffffffH
	DD	FLAT:__unwindfunclet$?LoadAssignments@CEffectLoader@D3DX11Effects@@IAEJIPAPAUSAssignment@2@PAEPAI2@Z$57
xdata$x	ENDS
;	COMDAT xdata$x
xdata$x	SEGMENT
__unwindtable$?LoadTypeAndAddToPool@CEffectLoader@D3DX11Effects@@IAEJPAPAUSType@2@I@Z DD 0ffffffffH
	DD	FLAT:__unwindfunclet$?LoadTypeAndAddToPool@CEffectLoader@D3DX11Effects@@IAEJPAPAUSType@2@I@Z$30
	DD	0ffffffffH
	DD	FLAT:__unwindfunclet$?LoadTypeAndAddToPool@CEffectLoader@D3DX11Effects@@IAEJPAPAUSType@2@I@Z$31
	DD	0ffffffffH
	DD	FLAT:__unwindfunclet$?LoadTypeAndAddToPool@CEffectLoader@D3DX11Effects@@IAEJPAPAUSType@2@I@Z$32
__ehfuncinfo$?LoadTypeAndAddToPool@CEffectLoader@D3DX11Effects@@IAEJPAPAUSType@2@I@Z DD 019930522H
	DD	03H
	DD	FLAT:__unwindtable$?LoadTypeAndAddToPool@CEffectLoader@D3DX11Effects@@IAEJPAPAUSType@2@I@Z
	DD	2 DUP(00H)
	DD	2 DUP(00H)
	DD	00H
	DD	01H
xdata$x	ENDS
;	COMDAT xdata$x
xdata$x	SEGMENT
__unwindtable$?LoadEffect@CEffect@D3DX11Effects@@QAEJPBXI@Z DD 0ffffffffH
	DD	FLAT:__unwindfunclet$?LoadEffect@CEffect@D3DX11Effects@@QAEJPBXI@Z$2
__ehfuncinfo$?LoadEffect@CEffect@D3DX11Effects@@QAEJPBXI@Z DD 019930522H
	DD	01H
	DD	FLAT:__unwindtable$?LoadEffect@CEffect@D3DX11Effects@@QAEJPBXI@Z
	DD	2 DUP(00H)
	DD	2 DUP(00H)
	DD	00H
	DD	01H
xdata$x	ENDS
CRT$XCU	SEGMENT
_g_NullRasterizer$initializer$ DD FLAT:??__Eg_NullRasterizer@D3DX11Effects@@YAXXZ
CRT$XCU	ENDS
CRT$XCU	SEGMENT
_g_NullDepthStencil$initializer$ DD FLAT:??__Eg_NullDepthStencil@D3DX11Effects@@YAXXZ
CRT$XCU	ENDS
CRT$XCU	SEGMENT
_g_NullBlend$initializer$ DD FLAT:??__Eg_NullBlend@D3DX11Effects@@YAXXZ
CRT$XCU	ENDS
CRT$XCU	SEGMENT
_g_NullTexture$initializer$ DD FLAT:??__Eg_NullTexture@D3DX11Effects@@YAXXZ
CRT$XCU	ENDS
CRT$XCU	SEGMENT
_g_NullInterface$initializer$ DD FLAT:??__Eg_NullInterface@D3DX11Effects@@YAXXZ
CRT$XCU	ENDS
CRT$XCU	SEGMENT
_g_NullUnorderedAccessView$initializer$ DD FLAT:??__Eg_NullUnorderedAccessView@D3DX11Effects@@YAXXZ
CRT$XCU	ENDS
CRT$XCU	SEGMENT
_g_NullRenderTargetView$initializer$ DD FLAT:??__Eg_NullRenderTargetView@D3DX11Effects@@YAXXZ
CRT$XCU	ENDS
CRT$XCU	SEGMENT
_g_NullDepthStencilView$initializer$ DD FLAT:??__Eg_NullDepthStencilView@D3DX11Effects@@YAXXZ
CRT$XCU	ENDS
CRT$XCU	SEGMENT
_g_NullVS$initializer$ DD FLAT:??__Eg_NullVS@D3DX11Effects@@YAXXZ
CRT$XCU	ENDS
CRT$XCU	SEGMENT
_g_NullGS$initializer$ DD FLAT:??__Eg_NullGS@D3DX11Effects@@YAXXZ
CRT$XCU	ENDS
CRT$XCU	SEGMENT
_g_NullPS$initializer$ DD FLAT:??__Eg_NullPS@D3DX11Effects@@YAXXZ
CRT$XCU	ENDS
CRT$XCU	SEGMENT
_g_NullHS$initializer$ DD FLAT:??__Eg_NullHS@D3DX11Effects@@YAXXZ
CRT$XCU	ENDS
CRT$XCU	SEGMENT
_g_NullDS$initializer$ DD FLAT:??__Eg_NullDS@D3DX11Effects@@YAXXZ
CRT$XCU	ENDS
CRT$XCU	SEGMENT
_g_NullCS$initializer$ DD FLAT:??__Eg_NullCS@D3DX11Effects@@YAXXZ
CRT$XCU	ENDS
; Function compile flags: /Odsp /RTCsu /ZI
;	COMDAT ?IsValid@SConstantBuffer@D3DX11Effects@@W3AGHXZ
_TEXT	SEGMENT
?IsValid@SConstantBuffer@D3DX11Effects@@W3AGHXZ PROC	; [thunk]:D3DX11Effects::SConstantBuffer::IsValid`adjustor{4}', COMDAT
	sub	DWORD PTR [esp+4], 4
	jmp	?IsValid@SConstantBuffer@D3DX11Effects@@UAGHXZ ; D3DX11Effects::SConstantBuffer::IsValid
?IsValid@SConstantBuffer@D3DX11Effects@@W3AGHXZ ENDP	; [thunk]:D3DX11Effects::SConstantBuffer::IsValid`adjustor{4}'
_TEXT	ENDS
; Function compile flags: /Odtp /RTCsu /ZI
; File c:\users\simon\documents\github\sparta2.0\uclan-sparta\effects11\effectload.cpp
;	COMDAT ??$ReallocateBlockAssignments@USPassBlock@D3DX11Effects@@@CEffectLoader@D3DX11Effects@@IAEJAAPAUSPassBlock@1@IPAU21@@Z
_TEXT	SEGMENT
tv216 = -352						; size = 4
tv175 = -352						; size = 4
_pVariable$1 = -152					; size = 4
_pDep$2 = -140						; size = 4
_iDep$3 = -128						; size = 4
_pOldVariable$4 = -116					; size = 4
_pOldBlock$5 = -104					; size = 4
_cbDeps$6 = -92						; size = 4
_pAssignment$7 = -80					; size = 4
_pBlock$8 = -68						; size = 4
_j$ = -56						; size = 4
_i$ = -44						; size = 4
_pHeap$ = -32						; size = 4
_hr$ = -20						; size = 4
_this$ = -8						; size = 4
_pBlocks$ = 8						; size = 4
_cBlocks$ = 12						; size = 4
_pOldBlocks$ = 16					; size = 4
??$ReallocateBlockAssignments@USPassBlock@D3DX11Effects@@@CEffectLoader@D3DX11Effects@@IAEJAAPAUSPassBlock@1@IPAU21@@Z PROC ; D3DX11Effects::CEffectLoader::ReallocateBlockAssignments<D3DX11Effects::SPassBlock>, COMDAT
; _this$ = ecx

; 3312 : {

	push	ebp
	mov	ebp, esp
	sub	esp, 352				; 00000160H
	push	ebx
	push	esi
	push	edi
	push	ecx
	lea	edi, DWORD PTR [ebp-352]
	mov	ecx, 88					; 00000058H
	mov	eax, -858993460				; ccccccccH
	rep stosd
	pop	ecx
	mov	DWORD PTR _this$[ebp], ecx

; 3313 :     HRESULT hr = S_OK;

	mov	DWORD PTR _hr$[ebp], 0

; 3314 :     CEffectHeap *pHeap = &m_pEffect->m_Heap;

	mov	eax, DWORD PTR _this$[ebp]
	mov	ecx, DWORD PTR [eax+36]
	add	ecx, 12					; 0000000cH
	mov	DWORD PTR _pHeap$[ebp], ecx

; 3315 :     UINT  i, j;
; 3316 : 
; 3317 :     for(i=0; i<cBlocks; i++)

	mov	DWORD PTR _i$[ebp], 0
	jmp	SHORT $LN67@Reallocate
$LN66@Reallocate:
	mov	eax, DWORD PTR _i$[ebp]
	add	eax, 1
	mov	DWORD PTR _i$[ebp], eax
$LN67@Reallocate:
	mov	eax, DWORD PTR _i$[ebp]
	cmp	eax, DWORD PTR _cBlocks$[ebp]
	jae	$lExit$73

; 3318 :     {
; 3319 :         T *pBlock = &pBlocks[i];

	imul	eax, DWORD PTR _i$[ebp], 156
	mov	ecx, DWORD PTR _pBlocks$[ebp]
	add	eax, DWORD PTR [ecx]
	mov	DWORD PTR _pBlock$8[ebp], eax

; 3320 :         VHD( pHeap->MoveData((void**) &pBlock->pAssignments, sizeof(SAssignment)*pBlock->AssignmentCount), "Internal loading error: cannot move assignment count." );

	mov	eax, DWORD PTR _pBlock$8[ebp]
	mov	ecx, DWORD PTR [eax+12]
	shl	ecx, 5
	push	ecx
	mov	edx, DWORD PTR _pBlock$8[ebp]
	add	edx, 16					; 00000010H
	push	edx
	mov	ecx, DWORD PTR _pHeap$[ebp]
	call	?MoveData@CEffectHeap@D3DX11Effects@@QAEJPAPAXI@Z ; D3DX11Effects::CEffectHeap::MoveData
	mov	DWORD PTR _hr$[ebp], eax
	cmp	DWORD PTR _hr$[ebp], 0
	jge	SHORT $LN64@Reallocate
	jmp	$lExit$73
	jmp	$lExit$73
$LN64@Reallocate:

; 3321 : 
; 3322 :         for (j=0; j<pBlock->AssignmentCount; j++)

	mov	DWORD PTR _j$[ebp], 0
	jmp	SHORT $LN62@Reallocate
$LN61@Reallocate:
	mov	eax, DWORD PTR _j$[ebp]
	add	eax, 1
	mov	DWORD PTR _j$[ebp], eax
$LN62@Reallocate:
	mov	eax, DWORD PTR _pBlock$8[ebp]
	mov	ecx, DWORD PTR _j$[ebp]
	cmp	ecx, DWORD PTR [eax+12]
	jae	$LN60@Reallocate

; 3323 :         {
; 3324 :             SAssignment *pAssignment = &pBlock->pAssignments[j];

	mov	eax, DWORD PTR _j$[ebp]
	shl	eax, 5
	mov	ecx, DWORD PTR _pBlock$8[ebp]
	add	eax, DWORD PTR [ecx+16]
	mov	DWORD PTR _pAssignment$7[ebp], eax

; 3325 :             UINT  cbDeps;
; 3326 : 
; 3327 :             // When cloning, convert pointers back into offsets
; 3328 :             if( pOldBlocks )

	cmp	DWORD PTR _pOldBlocks$[ebp], 0
	je	SHORT $LN59@Reallocate

; 3329 :             {
; 3330 :                 T *pOldBlock = &pOldBlocks[i];

	imul	eax, DWORD PTR _i$[ebp], 156
	add	eax, DWORD PTR _pOldBlocks$[ebp]
	mov	DWORD PTR _pOldBlock$5[ebp], eax

; 3331 :                 pAssignment->Destination.Offset = (UINT)( (UINT_PTR)pAssignment->Destination.pGeneric - (UINT_PTR)pOldBlock ) ;

	mov	eax, DWORD PTR _pAssignment$7[ebp]
	mov	ecx, DWORD PTR [eax+20]
	sub	ecx, DWORD PTR _pOldBlock$5[ebp]
	mov	edx, DWORD PTR _pAssignment$7[ebp]
	mov	DWORD PTR [edx+20], ecx
$LN59@Reallocate:

; 3332 :             }
; 3333 : 
; 3334 :             // Convert destination pointers from offset to real pointer
; 3335 :             pAssignment->Destination.pGeneric = (BYTE*) pBlock + pAssignment->Destination.Offset;

	mov	eax, DWORD PTR _pAssignment$7[ebp]
	mov	ecx, DWORD PTR _pBlock$8[ebp]
	add	ecx, DWORD PTR [eax+20]
	mov	edx, DWORD PTR _pAssignment$7[ebp]
	mov	DWORD PTR [edx+20], ecx

; 3336 : 
; 3337 :             // Make sure the data pointer points into the backing store
; 3338 :             VBD( pAssignment->Destination.pGeneric >= &pBlock->BackingStore && 

	mov	eax, DWORD PTR _pBlock$8[ebp]
	add	eax, 20					; 00000014H
	mov	ecx, DWORD PTR _pAssignment$7[ebp]
	cmp	DWORD PTR [ecx+20], eax
	jb	SHORT $LN57@Reallocate
	mov	eax, DWORD PTR _pBlock$8[ebp]
	add	eax, 132				; 00000084H
	mov	ecx, DWORD PTR _pAssignment$7[ebp]
	cmp	DWORD PTR [ecx+20], eax
	jb	SHORT $LN58@Reallocate
$LN57@Reallocate:
	mov	DWORD PTR _hr$[ebp], -2147467259	; 80004005H
	jmp	$lExit$73
	jmp	$lExit$73
$LN58@Reallocate:

; 3339 :                  pAssignment->Destination.pGeneric < (BYTE*) &pBlock->BackingStore + sizeof(pBlock->BackingStore), 
; 3340 :                  "Internal loading error: assignment destination out of range." );
; 3341 : 
; 3342 :             // Fixup dependencies
; 3343 :             cbDeps = pAssignment->DependencyCount * sizeof(SAssignment::SDependency);

	mov	eax, DWORD PTR _pAssignment$7[ebp]
	mov	ecx, DWORD PTR [eax+12]
	shl	ecx, 2
	mov	DWORD PTR _cbDeps$6[ebp], ecx

; 3344 :             VHD( pHeap->MoveData((void**) &pAssignment->pDependencies, cbDeps), "Internal loading error: cannot move assignment dependencies." );

	mov	eax, DWORD PTR _cbDeps$6[ebp]
	push	eax
	mov	ecx, DWORD PTR _pAssignment$7[ebp]
	add	ecx, 16					; 00000010H
	push	ecx
	mov	ecx, DWORD PTR _pHeap$[ebp]
	call	?MoveData@CEffectHeap@D3DX11Effects@@QAEJPAPAXI@Z ; D3DX11Effects::CEffectHeap::MoveData
	mov	DWORD PTR _hr$[ebp], eax
	cmp	DWORD PTR _hr$[ebp], 0
	jge	SHORT $LN55@Reallocate
	jmp	$lExit$73
	jmp	$lExit$73
$LN55@Reallocate:

; 3345 : 
; 3346 :             SGlobalVariable *pOldVariable = NULL;

	mov	DWORD PTR _pOldVariable$4[ebp], 0

; 3347 :             for(UINT  iDep=0; iDep<pAssignment->DependencyCount; iDep++)

	mov	DWORD PTR _iDep$3[ebp], 0
	jmp	SHORT $LN53@Reallocate
$LN52@Reallocate:
	mov	eax, DWORD PTR _iDep$3[ebp]
	add	eax, 1
	mov	DWORD PTR _iDep$3[ebp], eax
$LN53@Reallocate:
	mov	eax, DWORD PTR _pAssignment$7[ebp]
	mov	ecx, DWORD PTR _iDep$3[ebp]
	cmp	ecx, DWORD PTR [eax+12]
	jae	SHORT $LN51@Reallocate

; 3348 :             {
; 3349 :                 SAssignment::SDependency *pDep = &pAssignment->pDependencies[iDep];

	mov	eax, DWORD PTR _pAssignment$7[ebp]
	mov	ecx, DWORD PTR [eax+16]
	mov	edx, DWORD PTR _iDep$3[ebp]
	lea	eax, DWORD PTR [ecx+edx*4]
	mov	DWORD PTR _pDep$2[ebp], eax

; 3350 :                 // We ignore all but the last variable because below, we only use the last dependency
; 3351 :                 pOldVariable = pDep->pVariable;

	mov	eax, DWORD PTR _pDep$2[ebp]
	mov	ecx, DWORD PTR [eax]
	mov	DWORD PTR _pOldVariable$4[ebp], ecx

; 3352 :                 VH( FixupVariablePointer(&pDep->pVariable) );

	mov	eax, DWORD PTR _pDep$2[ebp]
	push	eax
	mov	ecx, DWORD PTR _this$[ebp]
	call	?FixupVariablePointer@CEffectLoader@D3DX11Effects@@IAEJPAPAUSGlobalVariable@2@@Z ; D3DX11Effects::CEffectLoader::FixupVariablePointer
	mov	DWORD PTR _hr$[ebp], eax
	cmp	DWORD PTR _hr$[ebp], 0
	jge	SHORT $LN50@Reallocate
	jmp	$lExit$73
	jmp	$lExit$73
$LN50@Reallocate:

; 3353 :             }

	jmp	SHORT $LN52@Reallocate
$LN51@Reallocate:

; 3354 : 
; 3355 :             // Fixup source pointers
; 3356 :             switch(pAssignment->LhsType)

	mov	eax, DWORD PTR _pAssignment$7[ebp]
	mov	ecx, DWORD PTR [eax]
	mov	DWORD PTR tv175[ebp], ecx
	cmp	DWORD PTR tv175[ebp], 7
	jg	SHORT $LN70@Reallocate
	cmp	DWORD PTR tv175[ebp], 7
	je	SHORT $LN43@Reallocate
	cmp	DWORD PTR tv175[ebp], 6
	ja	$LN30@Reallocate
	mov	edx, DWORD PTR tv175[ebp]
	jmp	DWORD PTR $LN72@Reallocate[edx*4]
$LN70@Reallocate:
	cmp	DWORD PTR tv175[ebp], 16		; 00000010H
	jg	SHORT $LN71@Reallocate
	cmp	DWORD PTR tv175[ebp], 14		; 0000000eH
	jge	SHORT $LN46@Reallocate
	cmp	DWORD PTR tv175[ebp], 8
	je	SHORT $LN40@Reallocate
	jmp	$LN30@Reallocate
$LN71@Reallocate:
	cmp	DWORD PTR tv175[ebp], 196618		; 0003000aH
	je	$LN34@Reallocate
	jmp	$LN30@Reallocate
$LN46@Reallocate:

; 3357 :             {
; 3358 :             case ELHS_VertexShaderBlock:
; 3359 :             case ELHS_PixelShaderBlock:
; 3360 :             case ELHS_GeometryShaderBlock:
; 3361 :             case ELHS_HullShaderBlock:
; 3362 :             case ELHS_DomainShaderBlock:
; 3363 :             case ELHS_ComputeShaderBlock:
; 3364 :                 VH( FixupShaderPointer(&pAssignment->Source.pShader) );

	mov	eax, DWORD PTR _pAssignment$7[ebp]
	add	eax, 24					; 00000018H
	push	eax
	mov	ecx, DWORD PTR _this$[ebp]
	call	?FixupShaderPointer@CEffectLoader@D3DX11Effects@@IAEJPAPAUSShaderBlock@2@@Z ; D3DX11Effects::CEffectLoader::FixupShaderPointer
	mov	DWORD PTR _hr$[ebp], eax
	cmp	DWORD PTR _hr$[ebp], 0
	jge	SHORT $LN45@Reallocate
	jmp	$lExit$73
	jmp	$lExit$73
$LN45@Reallocate:

; 3365 :                 break;

	jmp	$LN4@Reallocate
$LN43@Reallocate:

; 3366 : 
; 3367 :             case ELHS_DepthStencilBlock:
; 3368 :                 VH( FixupDSPointer((SDepthStencilBlock**)&pAssignment->Source.pBlock) );

	mov	eax, DWORD PTR _pAssignment$7[ebp]
	add	eax, 24					; 00000018H
	push	eax
	mov	ecx, DWORD PTR _this$[ebp]
	call	?FixupDSPointer@CEffectLoader@D3DX11Effects@@IAEJPAPAUSDepthStencilBlock@2@@Z ; D3DX11Effects::CEffectLoader::FixupDSPointer
	mov	DWORD PTR _hr$[ebp], eax
	cmp	DWORD PTR _hr$[ebp], 0
	jge	SHORT $LN42@Reallocate
	jmp	$lExit$73
	jmp	$lExit$73
$LN42@Reallocate:

; 3369 :                 break;

	jmp	$LN4@Reallocate
$LN40@Reallocate:

; 3370 :             case ELHS_BlendBlock:
; 3371 :                 VH( FixupABPointer((SBlendBlock**) &pAssignment->Source.pBlock) );

	mov	eax, DWORD PTR _pAssignment$7[ebp]
	add	eax, 24					; 00000018H
	push	eax
	mov	ecx, DWORD PTR _this$[ebp]
	call	?FixupABPointer@CEffectLoader@D3DX11Effects@@IAEJPAPAUSBlendBlock@2@@Z ; D3DX11Effects::CEffectLoader::FixupABPointer
	mov	DWORD PTR _hr$[ebp], eax
	cmp	DWORD PTR _hr$[ebp], 0
	jge	SHORT $LN39@Reallocate
	jmp	$lExit$73
	jmp	$lExit$73
$LN39@Reallocate:

; 3372 :                 break;

	jmp	$LN4@Reallocate
$LN37@Reallocate:

; 3373 :             case ELHS_RasterizerBlock:
; 3374 :                 VH( FixupRSPointer((SRasterizerBlock**) &pAssignment->Source.pBlock) );

	mov	eax, DWORD PTR _pAssignment$7[ebp]
	add	eax, 24					; 00000018H
	push	eax
	mov	ecx, DWORD PTR _this$[ebp]
	call	?FixupRSPointer@CEffectLoader@D3DX11Effects@@IAEJPAPAUSRasterizerBlock@2@@Z ; D3DX11Effects::CEffectLoader::FixupRSPointer
	mov	DWORD PTR _hr$[ebp], eax
	cmp	DWORD PTR _hr$[ebp], 0
	jge	SHORT $LN36@Reallocate
	jmp	$lExit$73
	jmp	$lExit$73
$LN36@Reallocate:

; 3375 :                 break;

	jmp	$LN4@Reallocate
$LN34@Reallocate:

; 3376 : 
; 3377 :             case ELHS_Texture:
; 3378 :                 VH( FixupShaderResourcePointer((SShaderResource**) &pAssignment->Source.pShaderResource) );

	mov	eax, DWORD PTR _pAssignment$7[ebp]
	add	eax, 24					; 00000018H
	push	eax
	mov	ecx, DWORD PTR _this$[ebp]
	call	?FixupShaderResourcePointer@CEffectLoader@D3DX11Effects@@IAEJPAPAUSShaderResource@2@@Z ; D3DX11Effects::CEffectLoader::FixupShaderResourcePointer
	mov	DWORD PTR _hr$[ebp], eax
	cmp	DWORD PTR _hr$[ebp], 0
	jge	SHORT $LN33@Reallocate
	jmp	$lExit$73
	jmp	$lExit$73
$LN33@Reallocate:

; 3379 :                 break;

	jmp	$LN4@Reallocate
$LN30@Reallocate:

; 3380 : 
; 3381 :             default:
; 3382 :                 // Non-object assignment (must have at least one dependency or it would have been pruned by now)
; 3383 :                 D3DXASSERT( !pAssignment->IsObjectAssignment() && pAssignment->DependencyCount > 0 );

	mov	ecx, DWORD PTR _pAssignment$7[ebp]
	call	?IsObjectAssignment@SAssignment@D3DX11Effects@@QAEHXZ ; D3DX11Effects::SAssignment::IsObjectAssignment
	test	eax, eax
	jne	SHORT $LN26@Reallocate
	mov	eax, DWORD PTR _pAssignment$7[ebp]
	cmp	DWORD PTR [eax+12], 0
	ja	SHORT $LN29@Reallocate
$LN26@Reallocate:
	push	OFFSET ??_C@_0EH@BPELLKNA@?$CBpAssignment?9?$DOIsObjectAssignment@
	push	3383					; 00000d37H
	push	OFFSET ??_C@_0FA@JDHJHLEA@c?3?2users?2simon?2documents?2github?2@
	call	?D3DXDebugAssert@@YGHPBDH0@Z		; D3DXDebugAssert
$LN29@Reallocate:
	xor	eax, eax
	jne	SHORT $LN30@Reallocate

; 3384 : 
; 3385 :                 // Numeric variables must be relocated before this function is called
; 3386 :                 
; 3387 :                 switch (pAssignment->AssignmentType)

	mov	eax, DWORD PTR _pAssignment$7[ebp]
	mov	ecx, DWORD PTR [eax+4]
	mov	DWORD PTR tv216[ebp], ecx
	cmp	DWORD PTR tv216[ebp], 2
	je	SHORT $LN23@Reallocate
	cmp	DWORD PTR tv216[ebp], 4
	je	SHORT $LN23@Reallocate
	jmp	$LN13@Reallocate
$LN23@Reallocate:

; 3388 :                 {
; 3389 :                 case ERAT_NumericVariable:
; 3390 :                 case ERAT_NumericVariableIndex:
; 3391 :                     // the variable or variable array is always the last dependency in the chain
; 3392 :                     SGlobalVariable *pVariable;
; 3393 :                     pVariable = pAssignment->pDependencies[pAssignment->DependencyCount - 1].pVariable;

	mov	eax, DWORD PTR _pAssignment$7[ebp]
	mov	ecx, DWORD PTR [eax+12]
	mov	edx, DWORD PTR _pAssignment$7[ebp]
	mov	eax, DWORD PTR [edx+16]
	mov	ecx, DWORD PTR [eax+ecx*4-4]
	mov	DWORD PTR _pVariable$1[ebp], ecx
$LN22@Reallocate:

; 3394 :                     D3DXASSERT( pVariable->pType->BelongsInConstantBuffer() && NULL != pVariable->pCB );

	mov	eax, DWORD PTR _pVariable$1[ebp]
	mov	ecx, DWORD PTR [eax+12]
	call	?BelongsInConstantBuffer@SType@D3DX11Effects@@QBEHXZ ; D3DX11Effects::SType::BelongsInConstantBuffer
	test	eax, eax
	je	SHORT $LN18@Reallocate
	mov	eax, DWORD PTR _pVariable$1[ebp]
	cmp	DWORD PTR [eax+36], 0
	jne	SHORT $LN21@Reallocate
$LN18@Reallocate:
	push	OFFSET ??_C@_0EG@GMMJAJM@pVariable?9?$DOpType?9?$DOBelongsInConst@
	push	3394					; 00000d42H
	push	OFFSET ??_C@_0FA@JDHJHLEA@c?3?2users?2simon?2documents?2github?2@
	call	?D3DXDebugAssert@@YGHPBDH0@Z		; D3DXDebugAssert
$LN21@Reallocate:
	xor	eax, eax
	jne	SHORT $LN22@Reallocate

; 3395 : 
; 3396 :                     // When cloning, convert pointers back into offsets
; 3397 :                     if( pOldBlocks )

	cmp	DWORD PTR _pOldBlocks$[ebp], 0
	je	SHORT $LN17@Reallocate

; 3398 :                     {
; 3399 :                         VBD( pOldVariable != NULL, "Internal loading error: pOldVariable is NULL." );

	cmp	DWORD PTR _pOldVariable$4[ebp], 0
	jne	SHORT $LN16@Reallocate
	mov	DWORD PTR _hr$[ebp], -2147467259	; 80004005H
	jmp	$lExit$73
	jmp	$lExit$73
$LN16@Reallocate:

; 3400 :                         pAssignment->Source.Offset = pAssignment->Source.pNumeric - pOldVariable->pCB->pBackingStore;

	mov	eax, DWORD PTR _pOldVariable$4[ebp]
	mov	ecx, DWORD PTR [eax+36]
	mov	edx, DWORD PTR _pAssignment$7[ebp]
	mov	eax, DWORD PTR [edx+24]
	sub	eax, DWORD PTR [ecx+16]
	mov	ecx, DWORD PTR _pAssignment$7[ebp]
	mov	DWORD PTR [ecx+24], eax
$LN17@Reallocate:

; 3401 :                     }
; 3402 : 
; 3403 :                     // Convert from offset to pointer
; 3404 :                     pAssignment->Source.pNumeric = pVariable->pCB->pBackingStore + pAssignment->Source.Offset;

	mov	eax, DWORD PTR _pVariable$1[ebp]
	mov	ecx, DWORD PTR [eax+36]
	mov	edx, DWORD PTR [ecx+16]
	mov	eax, DWORD PTR _pAssignment$7[ebp]
	add	edx, DWORD PTR [eax+24]
	mov	ecx, DWORD PTR _pAssignment$7[ebp]
	mov	DWORD PTR [ecx+24], edx

; 3405 :                     break;

	jmp	SHORT $LN24@Reallocate
$LN13@Reallocate:

; 3406 : 
; 3407 :                 default:
; 3408 :                     // Shouldn't be able to get here
; 3409 :                     D3DXASSERT(0);

	mov	eax, 1
	test	eax, eax
	je	SHORT $LN12@Reallocate
	push	OFFSET ??_C@_01GBGANLPD@0?$AA@
	push	3409					; 00000d51H
	push	OFFSET ??_C@_0FA@JDHJHLEA@c?3?2users?2simon?2documents?2github?2@
	call	?D3DXDebugAssert@@YGHPBDH0@Z		; D3DXDebugAssert
$LN12@Reallocate:
	xor	eax, eax
	jne	SHORT $LN13@Reallocate

; 3410 :                     VHD( E_FAIL, "Loading error: invalid assignment type." );

	mov	DWORD PTR _hr$[ebp], -2147467259	; 80004005H
	cmp	DWORD PTR _hr$[ebp], 0
	jge	SHORT $LN24@Reallocate
	jmp	SHORT $lExit$73
	jmp	SHORT $lExit$73
$LN24@Reallocate:

; 3411 :                 }
; 3412 :                 break;

	jmp	SHORT $LN4@Reallocate
$LN7@Reallocate:

; 3413 : 
; 3414 :             case ELHS_Invalid:
; 3415 :                 VHD( E_FAIL, "Loading error: invalid assignment type." );

	mov	DWORD PTR _hr$[ebp], -2147467259	; 80004005H
	cmp	DWORD PTR _hr$[ebp], 0
	jge	SHORT $LN4@Reallocate
	jmp	SHORT $lExit$73
	jmp	SHORT $lExit$73
$LN4@Reallocate:

; 3416 :             }
; 3417 : 
; 3418 :             D3DXASSERT(m_pEffect->m_LocalTimer > 0);

	mov	eax, DWORD PTR _this$[ebp]
	mov	ecx, DWORD PTR [eax+36]
	cmp	DWORD PTR [ecx+164], 0
	ja	SHORT $LN3@Reallocate
	push	OFFSET ??_C@_0BM@CFJFHGND@m_pEffect?9?$DOm_LocalTimer?5?$DO?50?$AA@
	push	3418					; 00000d5aH
	push	OFFSET ??_C@_0FA@JDHJHLEA@c?3?2users?2simon?2documents?2github?2@
	call	?D3DXDebugAssert@@YGHPBDH0@Z		; D3DXDebugAssert
$LN3@Reallocate:
	xor	eax, eax
	jne	SHORT $LN4@Reallocate

; 3419 :             m_pEffect->EvaluateAssignment(pAssignment);

	mov	eax, DWORD PTR _pAssignment$7[ebp]
	push	eax
	mov	ecx, DWORD PTR _this$[ebp]
	mov	ecx, DWORD PTR [ecx+36]
	call	?EvaluateAssignment@CEffect@D3DX11Effects@@IAEHPAUSAssignment@2@@Z ; D3DX11Effects::CEffect::EvaluateAssignment

; 3420 :         }

	jmp	$LN61@Reallocate
$LN60@Reallocate:

; 3421 :     }

	jmp	$LN66@Reallocate
$lExit$73:

; 3422 : 
; 3423 : lExit:
; 3424 :     return hr;

	mov	eax, DWORD PTR _hr$[ebp]

; 3425 : }

	pop	edi
	pop	esi
	pop	ebx
	add	esp, 352				; 00000160H
	cmp	ebp, esp
	call	__RTC_CheckEsp
	mov	esp, ebp
	pop	ebp
	ret	12					; 0000000cH
	npad	1
$LN72@Reallocate:
	DD	$LN7@Reallocate
	DD	$LN46@Reallocate
	DD	$LN46@Reallocate
	DD	$LN46@Reallocate
	DD	$LN30@Reallocate
	DD	$LN30@Reallocate
	DD	$LN37@Reallocate
??$ReallocateBlockAssignments@USPassBlock@D3DX11Effects@@@CEffectLoader@D3DX11Effects@@IAEJAAPAUSPassBlock@1@IPAU21@@Z ENDP ; D3DX11Effects::CEffectLoader::ReallocateBlockAssignments<D3DX11Effects::SPassBlock>
_TEXT	ENDS
; Function compile flags: /Odtp /RTCsu /ZI
; File c:\users\simon\documents\github\sparta2.0\uclan-sparta\effects11\effectload.cpp
;	COMDAT ??$ReallocateBlockAssignments@USSamplerBlock@D3DX11Effects@@@CEffectLoader@D3DX11Effects@@IAEJAAPAUSSamplerBlock@1@IPAU21@@Z
_TEXT	SEGMENT
tv216 = -352						; size = 4
tv175 = -352						; size = 4
_pVariable$1 = -152					; size = 4
_pDep$2 = -140						; size = 4
_iDep$3 = -128						; size = 4
_pOldVariable$4 = -116					; size = 4
_pOldBlock$5 = -104					; size = 4
_cbDeps$6 = -92						; size = 4
_pAssignment$7 = -80					; size = 4
_pBlock$8 = -68						; size = 4
_j$ = -56						; size = 4
_i$ = -44						; size = 4
_pHeap$ = -32						; size = 4
_hr$ = -20						; size = 4
_this$ = -8						; size = 4
_pBlocks$ = 8						; size = 4
_cBlocks$ = 12						; size = 4
_pOldBlocks$ = 16					; size = 4
??$ReallocateBlockAssignments@USSamplerBlock@D3DX11Effects@@@CEffectLoader@D3DX11Effects@@IAEJAAPAUSSamplerBlock@1@IPAU21@@Z PROC ; D3DX11Effects::CEffectLoader::ReallocateBlockAssignments<D3DX11Effects::SSamplerBlock>, COMDAT
; _this$ = ecx

; 3312 : {

	push	ebp
	mov	ebp, esp
	sub	esp, 352				; 00000160H
	push	ebx
	push	esi
	push	edi
	push	ecx
	lea	edi, DWORD PTR [ebp-352]
	mov	ecx, 88					; 00000058H
	mov	eax, -858993460				; ccccccccH
	rep stosd
	pop	ecx
	mov	DWORD PTR _this$[ebp], ecx

; 3313 :     HRESULT hr = S_OK;

	mov	DWORD PTR _hr$[ebp], 0

; 3314 :     CEffectHeap *pHeap = &m_pEffect->m_Heap;

	mov	eax, DWORD PTR _this$[ebp]
	mov	ecx, DWORD PTR [eax+36]
	add	ecx, 12					; 0000000cH
	mov	DWORD PTR _pHeap$[ebp], ecx

; 3315 :     UINT  i, j;
; 3316 : 
; 3317 :     for(i=0; i<cBlocks; i++)

	mov	DWORD PTR _i$[ebp], 0
	jmp	SHORT $LN67@Reallocate
$LN66@Reallocate:
	mov	eax, DWORD PTR _i$[ebp]
	add	eax, 1
	mov	DWORD PTR _i$[ebp], eax
$LN67@Reallocate:
	mov	eax, DWORD PTR _i$[ebp]
	cmp	eax, DWORD PTR _cBlocks$[ebp]
	jae	$lExit$73

; 3318 :     {
; 3319 :         T *pBlock = &pBlocks[i];

	imul	eax, DWORD PTR _i$[ebp], 76
	mov	ecx, DWORD PTR _pBlocks$[ebp]
	add	eax, DWORD PTR [ecx]
	mov	DWORD PTR _pBlock$8[ebp], eax

; 3320 :         VHD( pHeap->MoveData((void**) &pBlock->pAssignments, sizeof(SAssignment)*pBlock->AssignmentCount), "Internal loading error: cannot move assignment count." );

	mov	eax, DWORD PTR _pBlock$8[ebp]
	mov	ecx, DWORD PTR [eax+8]
	shl	ecx, 5
	push	ecx
	mov	edx, DWORD PTR _pBlock$8[ebp]
	add	edx, 12					; 0000000cH
	push	edx
	mov	ecx, DWORD PTR _pHeap$[ebp]
	call	?MoveData@CEffectHeap@D3DX11Effects@@QAEJPAPAXI@Z ; D3DX11Effects::CEffectHeap::MoveData
	mov	DWORD PTR _hr$[ebp], eax
	cmp	DWORD PTR _hr$[ebp], 0
	jge	SHORT $LN64@Reallocate
	jmp	$lExit$73
	jmp	$lExit$73
$LN64@Reallocate:

; 3321 : 
; 3322 :         for (j=0; j<pBlock->AssignmentCount; j++)

	mov	DWORD PTR _j$[ebp], 0
	jmp	SHORT $LN62@Reallocate
$LN61@Reallocate:
	mov	eax, DWORD PTR _j$[ebp]
	add	eax, 1
	mov	DWORD PTR _j$[ebp], eax
$LN62@Reallocate:
	mov	eax, DWORD PTR _pBlock$8[ebp]
	mov	ecx, DWORD PTR _j$[ebp]
	cmp	ecx, DWORD PTR [eax+8]
	jae	$LN60@Reallocate

; 3323 :         {
; 3324 :             SAssignment *pAssignment = &pBlock->pAssignments[j];

	mov	eax, DWORD PTR _j$[ebp]
	shl	eax, 5
	mov	ecx, DWORD PTR _pBlock$8[ebp]
	add	eax, DWORD PTR [ecx+12]
	mov	DWORD PTR _pAssignment$7[ebp], eax

; 3325 :             UINT  cbDeps;
; 3326 : 
; 3327 :             // When cloning, convert pointers back into offsets
; 3328 :             if( pOldBlocks )

	cmp	DWORD PTR _pOldBlocks$[ebp], 0
	je	SHORT $LN59@Reallocate

; 3329 :             {
; 3330 :                 T *pOldBlock = &pOldBlocks[i];

	imul	eax, DWORD PTR _i$[ebp], 76
	add	eax, DWORD PTR _pOldBlocks$[ebp]
	mov	DWORD PTR _pOldBlock$5[ebp], eax

; 3331 :                 pAssignment->Destination.Offset = (UINT)( (UINT_PTR)pAssignment->Destination.pGeneric - (UINT_PTR)pOldBlock ) ;

	mov	eax, DWORD PTR _pAssignment$7[ebp]
	mov	ecx, DWORD PTR [eax+20]
	sub	ecx, DWORD PTR _pOldBlock$5[ebp]
	mov	edx, DWORD PTR _pAssignment$7[ebp]
	mov	DWORD PTR [edx+20], ecx
$LN59@Reallocate:

; 3332 :             }
; 3333 : 
; 3334 :             // Convert destination pointers from offset to real pointer
; 3335 :             pAssignment->Destination.pGeneric = (BYTE*) pBlock + pAssignment->Destination.Offset;

	mov	eax, DWORD PTR _pAssignment$7[ebp]
	mov	ecx, DWORD PTR _pBlock$8[ebp]
	add	ecx, DWORD PTR [eax+20]
	mov	edx, DWORD PTR _pAssignment$7[ebp]
	mov	DWORD PTR [edx+20], ecx

; 3336 : 
; 3337 :             // Make sure the data pointer points into the backing store
; 3338 :             VBD( pAssignment->Destination.pGeneric >= &pBlock->BackingStore && 

	mov	eax, DWORD PTR _pBlock$8[ebp]
	add	eax, 20					; 00000014H
	mov	ecx, DWORD PTR _pAssignment$7[ebp]
	cmp	DWORD PTR [ecx+20], eax
	jb	SHORT $LN57@Reallocate
	mov	eax, DWORD PTR _pBlock$8[ebp]
	add	eax, 76					; 0000004cH
	mov	ecx, DWORD PTR _pAssignment$7[ebp]
	cmp	DWORD PTR [ecx+20], eax
	jb	SHORT $LN58@Reallocate
$LN57@Reallocate:
	mov	DWORD PTR _hr$[ebp], -2147467259	; 80004005H
	jmp	$lExit$73
	jmp	$lExit$73
$LN58@Reallocate:

; 3339 :                  pAssignment->Destination.pGeneric < (BYTE*) &pBlock->BackingStore + sizeof(pBlock->BackingStore), 
; 3340 :                  "Internal loading error: assignment destination out of range." );
; 3341 : 
; 3342 :             // Fixup dependencies
; 3343 :             cbDeps = pAssignment->DependencyCount * sizeof(SAssignment::SDependency);

	mov	eax, DWORD PTR _pAssignment$7[ebp]
	mov	ecx, DWORD PTR [eax+12]
	shl	ecx, 2
	mov	DWORD PTR _cbDeps$6[ebp], ecx

; 3344 :             VHD( pHeap->MoveData((void**) &pAssignment->pDependencies, cbDeps), "Internal loading error: cannot move assignment dependencies." );

	mov	eax, DWORD PTR _cbDeps$6[ebp]
	push	eax
	mov	ecx, DWORD PTR _pAssignment$7[ebp]
	add	ecx, 16					; 00000010H
	push	ecx
	mov	ecx, DWORD PTR _pHeap$[ebp]
	call	?MoveData@CEffectHeap@D3DX11Effects@@QAEJPAPAXI@Z ; D3DX11Effects::CEffectHeap::MoveData
	mov	DWORD PTR _hr$[ebp], eax
	cmp	DWORD PTR _hr$[ebp], 0
	jge	SHORT $LN55@Reallocate
	jmp	$lExit$73
	jmp	$lExit$73
$LN55@Reallocate:

; 3345 : 
; 3346 :             SGlobalVariable *pOldVariable = NULL;

	mov	DWORD PTR _pOldVariable$4[ebp], 0

; 3347 :             for(UINT  iDep=0; iDep<pAssignment->DependencyCount; iDep++)

	mov	DWORD PTR _iDep$3[ebp], 0
	jmp	SHORT $LN53@Reallocate
$LN52@Reallocate:
	mov	eax, DWORD PTR _iDep$3[ebp]
	add	eax, 1
	mov	DWORD PTR _iDep$3[ebp], eax
$LN53@Reallocate:
	mov	eax, DWORD PTR _pAssignment$7[ebp]
	mov	ecx, DWORD PTR _iDep$3[ebp]
	cmp	ecx, DWORD PTR [eax+12]
	jae	SHORT $LN51@Reallocate

; 3348 :             {
; 3349 :                 SAssignment::SDependency *pDep = &pAssignment->pDependencies[iDep];

	mov	eax, DWORD PTR _pAssignment$7[ebp]
	mov	ecx, DWORD PTR [eax+16]
	mov	edx, DWORD PTR _iDep$3[ebp]
	lea	eax, DWORD PTR [ecx+edx*4]
	mov	DWORD PTR _pDep$2[ebp], eax

; 3350 :                 // We ignore all but the last variable because below, we only use the last dependency
; 3351 :                 pOldVariable = pDep->pVariable;

	mov	eax, DWORD PTR _pDep$2[ebp]
	mov	ecx, DWORD PTR [eax]
	mov	DWORD PTR _pOldVariable$4[ebp], ecx

; 3352 :                 VH( FixupVariablePointer(&pDep->pVariable) );

	mov	eax, DWORD PTR _pDep$2[ebp]
	push	eax
	mov	ecx, DWORD PTR _this$[ebp]
	call	?FixupVariablePointer@CEffectLoader@D3DX11Effects@@IAEJPAPAUSGlobalVariable@2@@Z ; D3DX11Effects::CEffectLoader::FixupVariablePointer
	mov	DWORD PTR _hr$[ebp], eax
	cmp	DWORD PTR _hr$[ebp], 0
	jge	SHORT $LN50@Reallocate
	jmp	$lExit$73
	jmp	$lExit$73
$LN50@Reallocate:

; 3353 :             }

	jmp	SHORT $LN52@Reallocate
$LN51@Reallocate:

; 3354 : 
; 3355 :             // Fixup source pointers
; 3356 :             switch(pAssignment->LhsType)

	mov	eax, DWORD PTR _pAssignment$7[ebp]
	mov	ecx, DWORD PTR [eax]
	mov	DWORD PTR tv175[ebp], ecx
	cmp	DWORD PTR tv175[ebp], 7
	jg	SHORT $LN70@Reallocate
	cmp	DWORD PTR tv175[ebp], 7
	je	SHORT $LN43@Reallocate
	cmp	DWORD PTR tv175[ebp], 6
	ja	$LN30@Reallocate
	mov	edx, DWORD PTR tv175[ebp]
	jmp	DWORD PTR $LN72@Reallocate[edx*4]
$LN70@Reallocate:
	cmp	DWORD PTR tv175[ebp], 16		; 00000010H
	jg	SHORT $LN71@Reallocate
	cmp	DWORD PTR tv175[ebp], 14		; 0000000eH
	jge	SHORT $LN46@Reallocate
	cmp	DWORD PTR tv175[ebp], 8
	je	SHORT $LN40@Reallocate
	jmp	$LN30@Reallocate
$LN71@Reallocate:
	cmp	DWORD PTR tv175[ebp], 196618		; 0003000aH
	je	$LN34@Reallocate
	jmp	$LN30@Reallocate
$LN46@Reallocate:

; 3357 :             {
; 3358 :             case ELHS_VertexShaderBlock:
; 3359 :             case ELHS_PixelShaderBlock:
; 3360 :             case ELHS_GeometryShaderBlock:
; 3361 :             case ELHS_HullShaderBlock:
; 3362 :             case ELHS_DomainShaderBlock:
; 3363 :             case ELHS_ComputeShaderBlock:
; 3364 :                 VH( FixupShaderPointer(&pAssignment->Source.pShader) );

	mov	eax, DWORD PTR _pAssignment$7[ebp]
	add	eax, 24					; 00000018H
	push	eax
	mov	ecx, DWORD PTR _this$[ebp]
	call	?FixupShaderPointer@CEffectLoader@D3DX11Effects@@IAEJPAPAUSShaderBlock@2@@Z ; D3DX11Effects::CEffectLoader::FixupShaderPointer
	mov	DWORD PTR _hr$[ebp], eax
	cmp	DWORD PTR _hr$[ebp], 0
	jge	SHORT $LN45@Reallocate
	jmp	$lExit$73
	jmp	$lExit$73
$LN45@Reallocate:

; 3365 :                 break;

	jmp	$LN4@Reallocate
$LN43@Reallocate:

; 3366 : 
; 3367 :             case ELHS_DepthStencilBlock:
; 3368 :                 VH( FixupDSPointer((SDepthStencilBlock**)&pAssignment->Source.pBlock) );

	mov	eax, DWORD PTR _pAssignment$7[ebp]
	add	eax, 24					; 00000018H
	push	eax
	mov	ecx, DWORD PTR _this$[ebp]
	call	?FixupDSPointer@CEffectLoader@D3DX11Effects@@IAEJPAPAUSDepthStencilBlock@2@@Z ; D3DX11Effects::CEffectLoader::FixupDSPointer
	mov	DWORD PTR _hr$[ebp], eax
	cmp	DWORD PTR _hr$[ebp], 0
	jge	SHORT $LN42@Reallocate
	jmp	$lExit$73
	jmp	$lExit$73
$LN42@Reallocate:

; 3369 :                 break;

	jmp	$LN4@Reallocate
$LN40@Reallocate:

; 3370 :             case ELHS_BlendBlock:
; 3371 :                 VH( FixupABPointer((SBlendBlock**) &pAssignment->Source.pBlock) );

	mov	eax, DWORD PTR _pAssignment$7[ebp]
	add	eax, 24					; 00000018H
	push	eax
	mov	ecx, DWORD PTR _this$[ebp]
	call	?FixupABPointer@CEffectLoader@D3DX11Effects@@IAEJPAPAUSBlendBlock@2@@Z ; D3DX11Effects::CEffectLoader::FixupABPointer
	mov	DWORD PTR _hr$[ebp], eax
	cmp	DWORD PTR _hr$[ebp], 0
	jge	SHORT $LN39@Reallocate
	jmp	$lExit$73
	jmp	$lExit$73
$LN39@Reallocate:

; 3372 :                 break;

	jmp	$LN4@Reallocate
$LN37@Reallocate:

; 3373 :             case ELHS_RasterizerBlock:
; 3374 :                 VH( FixupRSPointer((SRasterizerBlock**) &pAssignment->Source.pBlock) );

	mov	eax, DWORD PTR _pAssignment$7[ebp]
	add	eax, 24					; 00000018H
	push	eax
	mov	ecx, DWORD PTR _this$[ebp]
	call	?FixupRSPointer@CEffectLoader@D3DX11Effects@@IAEJPAPAUSRasterizerBlock@2@@Z ; D3DX11Effects::CEffectLoader::FixupRSPointer
	mov	DWORD PTR _hr$[ebp], eax
	cmp	DWORD PTR _hr$[ebp], 0
	jge	SHORT $LN36@Reallocate
	jmp	$lExit$73
	jmp	$lExit$73
$LN36@Reallocate:

; 3375 :                 break;

	jmp	$LN4@Reallocate
$LN34@Reallocate:

; 3376 : 
; 3377 :             case ELHS_Texture:
; 3378 :                 VH( FixupShaderResourcePointer((SShaderResource**) &pAssignment->Source.pShaderResource) );

	mov	eax, DWORD PTR _pAssignment$7[ebp]
	add	eax, 24					; 00000018H
	push	eax
	mov	ecx, DWORD PTR _this$[ebp]
	call	?FixupShaderResourcePointer@CEffectLoader@D3DX11Effects@@IAEJPAPAUSShaderResource@2@@Z ; D3DX11Effects::CEffectLoader::FixupShaderResourcePointer
	mov	DWORD PTR _hr$[ebp], eax
	cmp	DWORD PTR _hr$[ebp], 0
	jge	SHORT $LN33@Reallocate
	jmp	$lExit$73
	jmp	$lExit$73
$LN33@Reallocate:

; 3379 :                 break;

	jmp	$LN4@Reallocate
$LN30@Reallocate:

; 3380 : 
; 3381 :             default:
; 3382 :                 // Non-object assignment (must have at least one dependency or it would have been pruned by now)
; 3383 :                 D3DXASSERT( !pAssignment->IsObjectAssignment() && pAssignment->DependencyCount > 0 );

	mov	ecx, DWORD PTR _pAssignment$7[ebp]
	call	?IsObjectAssignment@SAssignment@D3DX11Effects@@QAEHXZ ; D3DX11Effects::SAssignment::IsObjectAssignment
	test	eax, eax
	jne	SHORT $LN26@Reallocate
	mov	eax, DWORD PTR _pAssignment$7[ebp]
	cmp	DWORD PTR [eax+12], 0
	ja	SHORT $LN29@Reallocate
$LN26@Reallocate:
	push	OFFSET ??_C@_0EH@BPELLKNA@?$CBpAssignment?9?$DOIsObjectAssignment@
	push	3383					; 00000d37H
	push	OFFSET ??_C@_0FA@JDHJHLEA@c?3?2users?2simon?2documents?2github?2@
	call	?D3DXDebugAssert@@YGHPBDH0@Z		; D3DXDebugAssert
$LN29@Reallocate:
	xor	eax, eax
	jne	SHORT $LN30@Reallocate

; 3384 : 
; 3385 :                 // Numeric variables must be relocated before this function is called
; 3386 :                 
; 3387 :                 switch (pAssignment->AssignmentType)

	mov	eax, DWORD PTR _pAssignment$7[ebp]
	mov	ecx, DWORD PTR [eax+4]
	mov	DWORD PTR tv216[ebp], ecx
	cmp	DWORD PTR tv216[ebp], 2
	je	SHORT $LN23@Reallocate
	cmp	DWORD PTR tv216[ebp], 4
	je	SHORT $LN23@Reallocate
	jmp	$LN13@Reallocate
$LN23@Reallocate:

; 3388 :                 {
; 3389 :                 case ERAT_NumericVariable:
; 3390 :                 case ERAT_NumericVariableIndex:
; 3391 :                     // the variable or variable array is always the last dependency in the chain
; 3392 :                     SGlobalVariable *pVariable;
; 3393 :                     pVariable = pAssignment->pDependencies[pAssignment->DependencyCount - 1].pVariable;

	mov	eax, DWORD PTR _pAssignment$7[ebp]
	mov	ecx, DWORD PTR [eax+12]
	mov	edx, DWORD PTR _pAssignment$7[ebp]
	mov	eax, DWORD PTR [edx+16]
	mov	ecx, DWORD PTR [eax+ecx*4-4]
	mov	DWORD PTR _pVariable$1[ebp], ecx
$LN22@Reallocate:

; 3394 :                     D3DXASSERT( pVariable->pType->BelongsInConstantBuffer() && NULL != pVariable->pCB );

	mov	eax, DWORD PTR _pVariable$1[ebp]
	mov	ecx, DWORD PTR [eax+12]
	call	?BelongsInConstantBuffer@SType@D3DX11Effects@@QBEHXZ ; D3DX11Effects::SType::BelongsInConstantBuffer
	test	eax, eax
	je	SHORT $LN18@Reallocate
	mov	eax, DWORD PTR _pVariable$1[ebp]
	cmp	DWORD PTR [eax+36], 0
	jne	SHORT $LN21@Reallocate
$LN18@Reallocate:
	push	OFFSET ??_C@_0EG@GMMJAJM@pVariable?9?$DOpType?9?$DOBelongsInConst@
	push	3394					; 00000d42H
	push	OFFSET ??_C@_0FA@JDHJHLEA@c?3?2users?2simon?2documents?2github?2@
	call	?D3DXDebugAssert@@YGHPBDH0@Z		; D3DXDebugAssert
$LN21@Reallocate:
	xor	eax, eax
	jne	SHORT $LN22@Reallocate

; 3395 : 
; 3396 :                     // When cloning, convert pointers back into offsets
; 3397 :                     if( pOldBlocks )

	cmp	DWORD PTR _pOldBlocks$[ebp], 0
	je	SHORT $LN17@Reallocate

; 3398 :                     {
; 3399 :                         VBD( pOldVariable != NULL, "Internal loading error: pOldVariable is NULL." );

	cmp	DWORD PTR _pOldVariable$4[ebp], 0
	jne	SHORT $LN16@Reallocate
	mov	DWORD PTR _hr$[ebp], -2147467259	; 80004005H
	jmp	$lExit$73
	jmp	$lExit$73
$LN16@Reallocate:

; 3400 :                         pAssignment->Source.Offset = pAssignment->Source.pNumeric - pOldVariable->pCB->pBackingStore;

	mov	eax, DWORD PTR _pOldVariable$4[ebp]
	mov	ecx, DWORD PTR [eax+36]
	mov	edx, DWORD PTR _pAssignment$7[ebp]
	mov	eax, DWORD PTR [edx+24]
	sub	eax, DWORD PTR [ecx+16]
	mov	ecx, DWORD PTR _pAssignment$7[ebp]
	mov	DWORD PTR [ecx+24], eax
$LN17@Reallocate:

; 3401 :                     }
; 3402 : 
; 3403 :                     // Convert from offset to pointer
; 3404 :                     pAssignment->Source.pNumeric = pVariable->pCB->pBackingStore + pAssignment->Source.Offset;

	mov	eax, DWORD PTR _pVariable$1[ebp]
	mov	ecx, DWORD PTR [eax+36]
	mov	edx, DWORD PTR [ecx+16]
	mov	eax, DWORD PTR _pAssignment$7[ebp]
	add	edx, DWORD PTR [eax+24]
	mov	ecx, DWORD PTR _pAssignment$7[ebp]
	mov	DWORD PTR [ecx+24], edx

; 3405 :                     break;

	jmp	SHORT $LN24@Reallocate
$LN13@Reallocate:

; 3406 : 
; 3407 :                 default:
; 3408 :                     // Shouldn't be able to get here
; 3409 :                     D3DXASSERT(0);

	mov	eax, 1
	test	eax, eax
	je	SHORT $LN12@Reallocate
	push	OFFSET ??_C@_01GBGANLPD@0?$AA@
	push	3409					; 00000d51H
	push	OFFSET ??_C@_0FA@JDHJHLEA@c?3?2users?2simon?2documents?2github?2@
	call	?D3DXDebugAssert@@YGHPBDH0@Z		; D3DXDebugAssert
$LN12@Reallocate:
	xor	eax, eax
	jne	SHORT $LN13@Reallocate

; 3410 :                     VHD( E_FAIL, "Loading error: invalid assignment type." );

	mov	DWORD PTR _hr$[ebp], -2147467259	; 80004005H
	cmp	DWORD PTR _hr$[ebp], 0
	jge	SHORT $LN24@Reallocate
	jmp	SHORT $lExit$73
	jmp	SHORT $lExit$73
$LN24@Reallocate:

; 3411 :                 }
; 3412 :                 break;

	jmp	SHORT $LN4@Reallocate
$LN7@Reallocate:

; 3413 : 
; 3414 :             case ELHS_Invalid:
; 3415 :                 VHD( E_FAIL, "Loading error: invalid assignment type." );

	mov	DWORD PTR _hr$[ebp], -2147467259	; 80004005H
	cmp	DWORD PTR _hr$[ebp], 0
	jge	SHORT $LN4@Reallocate
	jmp	SHORT $lExit$73
	jmp	SHORT $lExit$73
$LN4@Reallocate:

; 3416 :             }
; 3417 : 
; 3418 :             D3DXASSERT(m_pEffect->m_LocalTimer > 0);

	mov	eax, DWORD PTR _this$[ebp]
	mov	ecx, DWORD PTR [eax+36]
	cmp	DWORD PTR [ecx+164], 0
	ja	SHORT $LN3@Reallocate
	push	OFFSET ??_C@_0BM@CFJFHGND@m_pEffect?9?$DOm_LocalTimer?5?$DO?50?$AA@
	push	3418					; 00000d5aH
	push	OFFSET ??_C@_0FA@JDHJHLEA@c?3?2users?2simon?2documents?2github?2@
	call	?D3DXDebugAssert@@YGHPBDH0@Z		; D3DXDebugAssert
$LN3@Reallocate:
	xor	eax, eax
	jne	SHORT $LN4@Reallocate

; 3419 :             m_pEffect->EvaluateAssignment(pAssignment);

	mov	eax, DWORD PTR _pAssignment$7[ebp]
	push	eax
	mov	ecx, DWORD PTR _this$[ebp]
	mov	ecx, DWORD PTR [ecx+36]
	call	?EvaluateAssignment@CEffect@D3DX11Effects@@IAEHPAUSAssignment@2@@Z ; D3DX11Effects::CEffect::EvaluateAssignment

; 3420 :         }

	jmp	$LN61@Reallocate
$LN60@Reallocate:

; 3421 :     }

	jmp	$LN66@Reallocate
$lExit$73:

; 3422 : 
; 3423 : lExit:
; 3424 :     return hr;

	mov	eax, DWORD PTR _hr$[ebp]

; 3425 : }

	pop	edi
	pop	esi
	pop	ebx
	add	esp, 352				; 00000160H
	cmp	ebp, esp
	call	__RTC_CheckEsp
	mov	esp, ebp
	pop	ebp
	ret	12					; 0000000cH
	npad	1
$LN72@Reallocate:
	DD	$LN7@Reallocate
	DD	$LN46@Reallocate
	DD	$LN46@Reallocate
	DD	$LN46@Reallocate
	DD	$LN30@Reallocate
	DD	$LN30@Reallocate
	DD	$LN37@Reallocate
??$ReallocateBlockAssignments@USSamplerBlock@D3DX11Effects@@@CEffectLoader@D3DX11Effects@@IAEJAAPAUSSamplerBlock@1@IPAU21@@Z ENDP ; D3DX11Effects::CEffectLoader::ReallocateBlockAssignments<D3DX11Effects::SSamplerBlock>
_TEXT	ENDS
; Function compile flags: /Odtp /RTCsu /ZI
; File c:\users\simon\documents\github\sparta2.0\uclan-sparta\effects11\effectload.cpp
;	COMDAT ??$ReallocateBlockAssignments@USRasterizerBlock@D3DX11Effects@@@CEffectLoader@D3DX11Effects@@IAEJAAPAUSRasterizerBlock@1@IPAU21@@Z
_TEXT	SEGMENT
tv216 = -352						; size = 4
tv175 = -352						; size = 4
_pVariable$1 = -152					; size = 4
_pDep$2 = -140						; size = 4
_iDep$3 = -128						; size = 4
_pOldVariable$4 = -116					; size = 4
_pOldBlock$5 = -104					; size = 4
_cbDeps$6 = -92						; size = 4
_pAssignment$7 = -80					; size = 4
_pBlock$8 = -68						; size = 4
_j$ = -56						; size = 4
_i$ = -44						; size = 4
_pHeap$ = -32						; size = 4
_hr$ = -20						; size = 4
_this$ = -8						; size = 4
_pBlocks$ = 8						; size = 4
_cBlocks$ = 12						; size = 4
_pOldBlocks$ = 16					; size = 4
??$ReallocateBlockAssignments@USRasterizerBlock@D3DX11Effects@@@CEffectLoader@D3DX11Effects@@IAEJAAPAUSRasterizerBlock@1@IPAU21@@Z PROC ; D3DX11Effects::CEffectLoader::ReallocateBlockAssignments<D3DX11Effects::SRasterizerBlock>, COMDAT
; _this$ = ecx

; 3312 : {

	push	ebp
	mov	ebp, esp
	sub	esp, 352				; 00000160H
	push	ebx
	push	esi
	push	edi
	push	ecx
	lea	edi, DWORD PTR [ebp-352]
	mov	ecx, 88					; 00000058H
	mov	eax, -858993460				; ccccccccH
	rep stosd
	pop	ecx
	mov	DWORD PTR _this$[ebp], ecx

; 3313 :     HRESULT hr = S_OK;

	mov	DWORD PTR _hr$[ebp], 0

; 3314 :     CEffectHeap *pHeap = &m_pEffect->m_Heap;

	mov	eax, DWORD PTR _this$[ebp]
	mov	ecx, DWORD PTR [eax+36]
	add	ecx, 12					; 0000000cH
	mov	DWORD PTR _pHeap$[ebp], ecx

; 3315 :     UINT  i, j;
; 3316 : 
; 3317 :     for(i=0; i<cBlocks; i++)

	mov	DWORD PTR _i$[ebp], 0
	jmp	SHORT $LN67@Reallocate
$LN66@Reallocate:
	mov	eax, DWORD PTR _i$[ebp]
	add	eax, 1
	mov	DWORD PTR _i$[ebp], eax
$LN67@Reallocate:
	mov	eax, DWORD PTR _i$[ebp]
	cmp	eax, DWORD PTR _cBlocks$[ebp]
	jae	$lExit$73

; 3318 :     {
; 3319 :         T *pBlock = &pBlocks[i];

	mov	eax, DWORD PTR _i$[ebp]
	shl	eax, 6
	mov	ecx, DWORD PTR _pBlocks$[ebp]
	add	eax, DWORD PTR [ecx]
	mov	DWORD PTR _pBlock$8[ebp], eax

; 3320 :         VHD( pHeap->MoveData((void**) &pBlock->pAssignments, sizeof(SAssignment)*pBlock->AssignmentCount), "Internal loading error: cannot move assignment count." );

	mov	eax, DWORD PTR _pBlock$8[ebp]
	mov	ecx, DWORD PTR [eax+8]
	shl	ecx, 5
	push	ecx
	mov	edx, DWORD PTR _pBlock$8[ebp]
	add	edx, 12					; 0000000cH
	push	edx
	mov	ecx, DWORD PTR _pHeap$[ebp]
	call	?MoveData@CEffectHeap@D3DX11Effects@@QAEJPAPAXI@Z ; D3DX11Effects::CEffectHeap::MoveData
	mov	DWORD PTR _hr$[ebp], eax
	cmp	DWORD PTR _hr$[ebp], 0
	jge	SHORT $LN64@Reallocate
	jmp	$lExit$73
	jmp	$lExit$73
$LN64@Reallocate:

; 3321 : 
; 3322 :         for (j=0; j<pBlock->AssignmentCount; j++)

	mov	DWORD PTR _j$[ebp], 0
	jmp	SHORT $LN62@Reallocate
$LN61@Reallocate:
	mov	eax, DWORD PTR _j$[ebp]
	add	eax, 1
	mov	DWORD PTR _j$[ebp], eax
$LN62@Reallocate:
	mov	eax, DWORD PTR _pBlock$8[ebp]
	mov	ecx, DWORD PTR _j$[ebp]
	cmp	ecx, DWORD PTR [eax+8]
	jae	$LN60@Reallocate

; 3323 :         {
; 3324 :             SAssignment *pAssignment = &pBlock->pAssignments[j];

	mov	eax, DWORD PTR _j$[ebp]
	shl	eax, 5
	mov	ecx, DWORD PTR _pBlock$8[ebp]
	add	eax, DWORD PTR [ecx+12]
	mov	DWORD PTR _pAssignment$7[ebp], eax

; 3325 :             UINT  cbDeps;
; 3326 : 
; 3327 :             // When cloning, convert pointers back into offsets
; 3328 :             if( pOldBlocks )

	cmp	DWORD PTR _pOldBlocks$[ebp], 0
	je	SHORT $LN59@Reallocate

; 3329 :             {
; 3330 :                 T *pOldBlock = &pOldBlocks[i];

	mov	eax, DWORD PTR _i$[ebp]
	shl	eax, 6
	add	eax, DWORD PTR _pOldBlocks$[ebp]
	mov	DWORD PTR _pOldBlock$5[ebp], eax

; 3331 :                 pAssignment->Destination.Offset = (UINT)( (UINT_PTR)pAssignment->Destination.pGeneric - (UINT_PTR)pOldBlock ) ;

	mov	eax, DWORD PTR _pAssignment$7[ebp]
	mov	ecx, DWORD PTR [eax+20]
	sub	ecx, DWORD PTR _pOldBlock$5[ebp]
	mov	edx, DWORD PTR _pAssignment$7[ebp]
	mov	DWORD PTR [edx+20], ecx
$LN59@Reallocate:

; 3332 :             }
; 3333 : 
; 3334 :             // Convert destination pointers from offset to real pointer
; 3335 :             pAssignment->Destination.pGeneric = (BYTE*) pBlock + pAssignment->Destination.Offset;

	mov	eax, DWORD PTR _pAssignment$7[ebp]
	mov	ecx, DWORD PTR _pBlock$8[ebp]
	add	ecx, DWORD PTR [eax+20]
	mov	edx, DWORD PTR _pAssignment$7[ebp]
	mov	DWORD PTR [edx+20], ecx

; 3336 : 
; 3337 :             // Make sure the data pointer points into the backing store
; 3338 :             VBD( pAssignment->Destination.pGeneric >= &pBlock->BackingStore && 

	mov	eax, DWORD PTR _pBlock$8[ebp]
	add	eax, 20					; 00000014H
	mov	ecx, DWORD PTR _pAssignment$7[ebp]
	cmp	DWORD PTR [ecx+20], eax
	jb	SHORT $LN57@Reallocate
	mov	eax, DWORD PTR _pBlock$8[ebp]
	add	eax, 60					; 0000003cH
	mov	ecx, DWORD PTR _pAssignment$7[ebp]
	cmp	DWORD PTR [ecx+20], eax
	jb	SHORT $LN58@Reallocate
$LN57@Reallocate:
	mov	DWORD PTR _hr$[ebp], -2147467259	; 80004005H
	jmp	$lExit$73
	jmp	$lExit$73
$LN58@Reallocate:

; 3339 :                  pAssignment->Destination.pGeneric < (BYTE*) &pBlock->BackingStore + sizeof(pBlock->BackingStore), 
; 3340 :                  "Internal loading error: assignment destination out of range." );
; 3341 : 
; 3342 :             // Fixup dependencies
; 3343 :             cbDeps = pAssignment->DependencyCount * sizeof(SAssignment::SDependency);

	mov	eax, DWORD PTR _pAssignment$7[ebp]
	mov	ecx, DWORD PTR [eax+12]
	shl	ecx, 2
	mov	DWORD PTR _cbDeps$6[ebp], ecx

; 3344 :             VHD( pHeap->MoveData((void**) &pAssignment->pDependencies, cbDeps), "Internal loading error: cannot move assignment dependencies." );

	mov	eax, DWORD PTR _cbDeps$6[ebp]
	push	eax
	mov	ecx, DWORD PTR _pAssignment$7[ebp]
	add	ecx, 16					; 00000010H
	push	ecx
	mov	ecx, DWORD PTR _pHeap$[ebp]
	call	?MoveData@CEffectHeap@D3DX11Effects@@QAEJPAPAXI@Z ; D3DX11Effects::CEffectHeap::MoveData
	mov	DWORD PTR _hr$[ebp], eax
	cmp	DWORD PTR _hr$[ebp], 0
	jge	SHORT $LN55@Reallocate
	jmp	$lExit$73
	jmp	$lExit$73
$LN55@Reallocate:

; 3345 : 
; 3346 :             SGlobalVariable *pOldVariable = NULL;

	mov	DWORD PTR _pOldVariable$4[ebp], 0

; 3347 :             for(UINT  iDep=0; iDep<pAssignment->DependencyCount; iDep++)

	mov	DWORD PTR _iDep$3[ebp], 0
	jmp	SHORT $LN53@Reallocate
$LN52@Reallocate:
	mov	eax, DWORD PTR _iDep$3[ebp]
	add	eax, 1
	mov	DWORD PTR _iDep$3[ebp], eax
$LN53@Reallocate:
	mov	eax, DWORD PTR _pAssignment$7[ebp]
	mov	ecx, DWORD PTR _iDep$3[ebp]
	cmp	ecx, DWORD PTR [eax+12]
	jae	SHORT $LN51@Reallocate

; 3348 :             {
; 3349 :                 SAssignment::SDependency *pDep = &pAssignment->pDependencies[iDep];

	mov	eax, DWORD PTR _pAssignment$7[ebp]
	mov	ecx, DWORD PTR [eax+16]
	mov	edx, DWORD PTR _iDep$3[ebp]
	lea	eax, DWORD PTR [ecx+edx*4]
	mov	DWORD PTR _pDep$2[ebp], eax

; 3350 :                 // We ignore all but the last variable because below, we only use the last dependency
; 3351 :                 pOldVariable = pDep->pVariable;

	mov	eax, DWORD PTR _pDep$2[ebp]
	mov	ecx, DWORD PTR [eax]
	mov	DWORD PTR _pOldVariable$4[ebp], ecx

; 3352 :                 VH( FixupVariablePointer(&pDep->pVariable) );

	mov	eax, DWORD PTR _pDep$2[ebp]
	push	eax
	mov	ecx, DWORD PTR _this$[ebp]
	call	?FixupVariablePointer@CEffectLoader@D3DX11Effects@@IAEJPAPAUSGlobalVariable@2@@Z ; D3DX11Effects::CEffectLoader::FixupVariablePointer
	mov	DWORD PTR _hr$[ebp], eax
	cmp	DWORD PTR _hr$[ebp], 0
	jge	SHORT $LN50@Reallocate
	jmp	$lExit$73
	jmp	$lExit$73
$LN50@Reallocate:

; 3353 :             }

	jmp	SHORT $LN52@Reallocate
$LN51@Reallocate:

; 3354 : 
; 3355 :             // Fixup source pointers
; 3356 :             switch(pAssignment->LhsType)

	mov	eax, DWORD PTR _pAssignment$7[ebp]
	mov	ecx, DWORD PTR [eax]
	mov	DWORD PTR tv175[ebp], ecx
	cmp	DWORD PTR tv175[ebp], 7
	jg	SHORT $LN70@Reallocate
	cmp	DWORD PTR tv175[ebp], 7
	je	SHORT $LN43@Reallocate
	cmp	DWORD PTR tv175[ebp], 6
	ja	$LN30@Reallocate
	mov	edx, DWORD PTR tv175[ebp]
	jmp	DWORD PTR $LN72@Reallocate[edx*4]
$LN70@Reallocate:
	cmp	DWORD PTR tv175[ebp], 16		; 00000010H
	jg	SHORT $LN71@Reallocate
	cmp	DWORD PTR tv175[ebp], 14		; 0000000eH
	jge	SHORT $LN46@Reallocate
	cmp	DWORD PTR tv175[ebp], 8
	je	SHORT $LN40@Reallocate
	jmp	$LN30@Reallocate
$LN71@Reallocate:
	cmp	DWORD PTR tv175[ebp], 196618		; 0003000aH
	je	$LN34@Reallocate
	jmp	$LN30@Reallocate
$LN46@Reallocate:

; 3357 :             {
; 3358 :             case ELHS_VertexShaderBlock:
; 3359 :             case ELHS_PixelShaderBlock:
; 3360 :             case ELHS_GeometryShaderBlock:
; 3361 :             case ELHS_HullShaderBlock:
; 3362 :             case ELHS_DomainShaderBlock:
; 3363 :             case ELHS_ComputeShaderBlock:
; 3364 :                 VH( FixupShaderPointer(&pAssignment->Source.pShader) );

	mov	eax, DWORD PTR _pAssignment$7[ebp]
	add	eax, 24					; 00000018H
	push	eax
	mov	ecx, DWORD PTR _this$[ebp]
	call	?FixupShaderPointer@CEffectLoader@D3DX11Effects@@IAEJPAPAUSShaderBlock@2@@Z ; D3DX11Effects::CEffectLoader::FixupShaderPointer
	mov	DWORD PTR _hr$[ebp], eax
	cmp	DWORD PTR _hr$[ebp], 0
	jge	SHORT $LN45@Reallocate
	jmp	$lExit$73
	jmp	$lExit$73
$LN45@Reallocate:

; 3365 :                 break;

	jmp	$LN4@Reallocate
$LN43@Reallocate:

; 3366 : 
; 3367 :             case ELHS_DepthStencilBlock:
; 3368 :                 VH( FixupDSPointer((SDepthStencilBlock**)&pAssignment->Source.pBlock) );

	mov	eax, DWORD PTR _pAssignment$7[ebp]
	add	eax, 24					; 00000018H
	push	eax
	mov	ecx, DWORD PTR _this$[ebp]
	call	?FixupDSPointer@CEffectLoader@D3DX11Effects@@IAEJPAPAUSDepthStencilBlock@2@@Z ; D3DX11Effects::CEffectLoader::FixupDSPointer
	mov	DWORD PTR _hr$[ebp], eax
	cmp	DWORD PTR _hr$[ebp], 0
	jge	SHORT $LN42@Reallocate
	jmp	$lExit$73
	jmp	$lExit$73
$LN42@Reallocate:

; 3369 :                 break;

	jmp	$LN4@Reallocate
$LN40@Reallocate:

; 3370 :             case ELHS_BlendBlock:
; 3371 :                 VH( FixupABPointer((SBlendBlock**) &pAssignment->Source.pBlock) );

	mov	eax, DWORD PTR _pAssignment$7[ebp]
	add	eax, 24					; 00000018H
	push	eax
	mov	ecx, DWORD PTR _this$[ebp]
	call	?FixupABPointer@CEffectLoader@D3DX11Effects@@IAEJPAPAUSBlendBlock@2@@Z ; D3DX11Effects::CEffectLoader::FixupABPointer
	mov	DWORD PTR _hr$[ebp], eax
	cmp	DWORD PTR _hr$[ebp], 0
	jge	SHORT $LN39@Reallocate
	jmp	$lExit$73
	jmp	$lExit$73
$LN39@Reallocate:

; 3372 :                 break;

	jmp	$LN4@Reallocate
$LN37@Reallocate:

; 3373 :             case ELHS_RasterizerBlock:
; 3374 :                 VH( FixupRSPointer((SRasterizerBlock**) &pAssignment->Source.pBlock) );

	mov	eax, DWORD PTR _pAssignment$7[ebp]
	add	eax, 24					; 00000018H
	push	eax
	mov	ecx, DWORD PTR _this$[ebp]
	call	?FixupRSPointer@CEffectLoader@D3DX11Effects@@IAEJPAPAUSRasterizerBlock@2@@Z ; D3DX11Effects::CEffectLoader::FixupRSPointer
	mov	DWORD PTR _hr$[ebp], eax
	cmp	DWORD PTR _hr$[ebp], 0
	jge	SHORT $LN36@Reallocate
	jmp	$lExit$73
	jmp	$lExit$73
$LN36@Reallocate:

; 3375 :                 break;

	jmp	$LN4@Reallocate
$LN34@Reallocate:

; 3376 : 
; 3377 :             case ELHS_Texture:
; 3378 :                 VH( FixupShaderResourcePointer((SShaderResource**) &pAssignment->Source.pShaderResource) );

	mov	eax, DWORD PTR _pAssignment$7[ebp]
	add	eax, 24					; 00000018H
	push	eax
	mov	ecx, DWORD PTR _this$[ebp]
	call	?FixupShaderResourcePointer@CEffectLoader@D3DX11Effects@@IAEJPAPAUSShaderResource@2@@Z ; D3DX11Effects::CEffectLoader::FixupShaderResourcePointer
	mov	DWORD PTR _hr$[ebp], eax
	cmp	DWORD PTR _hr$[ebp], 0
	jge	SHORT $LN33@Reallocate
	jmp	$lExit$73
	jmp	$lExit$73
$LN33@Reallocate:

; 3379 :                 break;

	jmp	$LN4@Reallocate
$LN30@Reallocate:

; 3380 : 
; 3381 :             default:
; 3382 :                 // Non-object assignment (must have at least one dependency or it would have been pruned by now)
; 3383 :                 D3DXASSERT( !pAssignment->IsObjectAssignment() && pAssignment->DependencyCount > 0 );

	mov	ecx, DWORD PTR _pAssignment$7[ebp]
	call	?IsObjectAssignment@SAssignment@D3DX11Effects@@QAEHXZ ; D3DX11Effects::SAssignment::IsObjectAssignment
	test	eax, eax
	jne	SHORT $LN26@Reallocate
	mov	eax, DWORD PTR _pAssignment$7[ebp]
	cmp	DWORD PTR [eax+12], 0
	ja	SHORT $LN29@Reallocate
$LN26@Reallocate:
	push	OFFSET ??_C@_0EH@BPELLKNA@?$CBpAssignment?9?$DOIsObjectAssignment@
	push	3383					; 00000d37H
	push	OFFSET ??_C@_0FA@JDHJHLEA@c?3?2users?2simon?2documents?2github?2@
	call	?D3DXDebugAssert@@YGHPBDH0@Z		; D3DXDebugAssert
$LN29@Reallocate:
	xor	eax, eax
	jne	SHORT $LN30@Reallocate

; 3384 : 
; 3385 :                 // Numeric variables must be relocated before this function is called
; 3386 :                 
; 3387 :                 switch (pAssignment->AssignmentType)

	mov	eax, DWORD PTR _pAssignment$7[ebp]
	mov	ecx, DWORD PTR [eax+4]
	mov	DWORD PTR tv216[ebp], ecx
	cmp	DWORD PTR tv216[ebp], 2
	je	SHORT $LN23@Reallocate
	cmp	DWORD PTR tv216[ebp], 4
	je	SHORT $LN23@Reallocate
	jmp	$LN13@Reallocate
$LN23@Reallocate:

; 3388 :                 {
; 3389 :                 case ERAT_NumericVariable:
; 3390 :                 case ERAT_NumericVariableIndex:
; 3391 :                     // the variable or variable array is always the last dependency in the chain
; 3392 :                     SGlobalVariable *pVariable;
; 3393 :                     pVariable = pAssignment->pDependencies[pAssignment->DependencyCount - 1].pVariable;

	mov	eax, DWORD PTR _pAssignment$7[ebp]
	mov	ecx, DWORD PTR [eax+12]
	mov	edx, DWORD PTR _pAssignment$7[ebp]
	mov	eax, DWORD PTR [edx+16]
	mov	ecx, DWORD PTR [eax+ecx*4-4]
	mov	DWORD PTR _pVariable$1[ebp], ecx
$LN22@Reallocate:

; 3394 :                     D3DXASSERT( pVariable->pType->BelongsInConstantBuffer() && NULL != pVariable->pCB );

	mov	eax, DWORD PTR _pVariable$1[ebp]
	mov	ecx, DWORD PTR [eax+12]
	call	?BelongsInConstantBuffer@SType@D3DX11Effects@@QBEHXZ ; D3DX11Effects::SType::BelongsInConstantBuffer
	test	eax, eax
	je	SHORT $LN18@Reallocate
	mov	eax, DWORD PTR _pVariable$1[ebp]
	cmp	DWORD PTR [eax+36], 0
	jne	SHORT $LN21@Reallocate
$LN18@Reallocate:
	push	OFFSET ??_C@_0EG@GMMJAJM@pVariable?9?$DOpType?9?$DOBelongsInConst@
	push	3394					; 00000d42H
	push	OFFSET ??_C@_0FA@JDHJHLEA@c?3?2users?2simon?2documents?2github?2@
	call	?D3DXDebugAssert@@YGHPBDH0@Z		; D3DXDebugAssert
$LN21@Reallocate:
	xor	eax, eax
	jne	SHORT $LN22@Reallocate

; 3395 : 
; 3396 :                     // When cloning, convert pointers back into offsets
; 3397 :                     if( pOldBlocks )

	cmp	DWORD PTR _pOldBlocks$[ebp], 0
	je	SHORT $LN17@Reallocate

; 3398 :                     {
; 3399 :                         VBD( pOldVariable != NULL, "Internal loading error: pOldVariable is NULL." );

	cmp	DWORD PTR _pOldVariable$4[ebp], 0
	jne	SHORT $LN16@Reallocate
	mov	DWORD PTR _hr$[ebp], -2147467259	; 80004005H
	jmp	$lExit$73
	jmp	$lExit$73
$LN16@Reallocate:

; 3400 :                         pAssignment->Source.Offset = pAssignment->Source.pNumeric - pOldVariable->pCB->pBackingStore;

	mov	eax, DWORD PTR _pOldVariable$4[ebp]
	mov	ecx, DWORD PTR [eax+36]
	mov	edx, DWORD PTR _pAssignment$7[ebp]
	mov	eax, DWORD PTR [edx+24]
	sub	eax, DWORD PTR [ecx+16]
	mov	ecx, DWORD PTR _pAssignment$7[ebp]
	mov	DWORD PTR [ecx+24], eax
$LN17@Reallocate:

; 3401 :                     }
; 3402 : 
; 3403 :                     // Convert from offset to pointer
; 3404 :                     pAssignment->Source.pNumeric = pVariable->pCB->pBackingStore + pAssignment->Source.Offset;

	mov	eax, DWORD PTR _pVariable$1[ebp]
	mov	ecx, DWORD PTR [eax+36]
	mov	edx, DWORD PTR [ecx+16]
	mov	eax, DWORD PTR _pAssignment$7[ebp]
	add	edx, DWORD PTR [eax+24]
	mov	ecx, DWORD PTR _pAssignment$7[ebp]
	mov	DWORD PTR [ecx+24], edx

; 3405 :                     break;

	jmp	SHORT $LN24@Reallocate
$LN13@Reallocate:

; 3406 : 
; 3407 :                 default:
; 3408 :                     // Shouldn't be able to get here
; 3409 :                     D3DXASSERT(0);

	mov	eax, 1
	test	eax, eax
	je	SHORT $LN12@Reallocate
	push	OFFSET ??_C@_01GBGANLPD@0?$AA@
	push	3409					; 00000d51H
	push	OFFSET ??_C@_0FA@JDHJHLEA@c?3?2users?2simon?2documents?2github?2@
	call	?D3DXDebugAssert@@YGHPBDH0@Z		; D3DXDebugAssert
$LN12@Reallocate:
	xor	eax, eax
	jne	SHORT $LN13@Reallocate

; 3410 :                     VHD( E_FAIL, "Loading error: invalid assignment type." );

	mov	DWORD PTR _hr$[ebp], -2147467259	; 80004005H
	cmp	DWORD PTR _hr$[ebp], 0
	jge	SHORT $LN24@Reallocate
	jmp	SHORT $lExit$73
	jmp	SHORT $lExit$73
$LN24@Reallocate:

; 3411 :                 }
; 3412 :                 break;

	jmp	SHORT $LN4@Reallocate
$LN7@Reallocate:

; 3413 : 
; 3414 :             case ELHS_Invalid:
; 3415 :                 VHD( E_FAIL, "Loading error: invalid assignment type." );

	mov	DWORD PTR _hr$[ebp], -2147467259	; 80004005H
	cmp	DWORD PTR _hr$[ebp], 0
	jge	SHORT $LN4@Reallocate
	jmp	SHORT $lExit$73
	jmp	SHORT $lExit$73
$LN4@Reallocate:

; 3416 :             }
; 3417 : 
; 3418 :             D3DXASSERT(m_pEffect->m_LocalTimer > 0);

	mov	eax, DWORD PTR _this$[ebp]
	mov	ecx, DWORD PTR [eax+36]
	cmp	DWORD PTR [ecx+164], 0
	ja	SHORT $LN3@Reallocate
	push	OFFSET ??_C@_0BM@CFJFHGND@m_pEffect?9?$DOm_LocalTimer?5?$DO?50?$AA@
	push	3418					; 00000d5aH
	push	OFFSET ??_C@_0FA@JDHJHLEA@c?3?2users?2simon?2documents?2github?2@
	call	?D3DXDebugAssert@@YGHPBDH0@Z		; D3DXDebugAssert
$LN3@Reallocate:
	xor	eax, eax
	jne	SHORT $LN4@Reallocate

; 3419 :             m_pEffect->EvaluateAssignment(pAssignment);

	mov	eax, DWORD PTR _pAssignment$7[ebp]
	push	eax
	mov	ecx, DWORD PTR _this$[ebp]
	mov	ecx, DWORD PTR [ecx+36]
	call	?EvaluateAssignment@CEffect@D3DX11Effects@@IAEHPAUSAssignment@2@@Z ; D3DX11Effects::CEffect::EvaluateAssignment

; 3420 :         }

	jmp	$LN61@Reallocate
$LN60@Reallocate:

; 3421 :     }

	jmp	$LN66@Reallocate
$lExit$73:

; 3422 : 
; 3423 : lExit:
; 3424 :     return hr;

	mov	eax, DWORD PTR _hr$[ebp]

; 3425 : }

	pop	edi
	pop	esi
	pop	ebx
	add	esp, 352				; 00000160H
	cmp	ebp, esp
	call	__RTC_CheckEsp
	mov	esp, ebp
	pop	ebp
	ret	12					; 0000000cH
	npad	1
$LN72@Reallocate:
	DD	$LN7@Reallocate
	DD	$LN46@Reallocate
	DD	$LN46@Reallocate
	DD	$LN46@Reallocate
	DD	$LN30@Reallocate
	DD	$LN30@Reallocate
	DD	$LN37@Reallocate
??$ReallocateBlockAssignments@USRasterizerBlock@D3DX11Effects@@@CEffectLoader@D3DX11Effects@@IAEJAAPAUSRasterizerBlock@1@IPAU21@@Z ENDP ; D3DX11Effects::CEffectLoader::ReallocateBlockAssignments<D3DX11Effects::SRasterizerBlock>
_TEXT	ENDS
; Function compile flags: /Odtp /RTCsu /ZI
; File c:\users\simon\documents\github\sparta2.0\uclan-sparta\effects11\effectload.cpp
;	COMDAT ??$ReallocateBlockAssignments@USBlendBlock@D3DX11Effects@@@CEffectLoader@D3DX11Effects@@IAEJAAPAUSBlendBlock@1@IPAU21@@Z
_TEXT	SEGMENT
tv216 = -352						; size = 4
tv175 = -352						; size = 4
_pVariable$1 = -152					; size = 4
_pDep$2 = -140						; size = 4
_iDep$3 = -128						; size = 4
_pOldVariable$4 = -116					; size = 4
_pOldBlock$5 = -104					; size = 4
_cbDeps$6 = -92						; size = 4
_pAssignment$7 = -80					; size = 4
_pBlock$8 = -68						; size = 4
_j$ = -56						; size = 4
_i$ = -44						; size = 4
_pHeap$ = -32						; size = 4
_hr$ = -20						; size = 4
_this$ = -8						; size = 4
_pBlocks$ = 8						; size = 4
_cBlocks$ = 12						; size = 4
_pOldBlocks$ = 16					; size = 4
??$ReallocateBlockAssignments@USBlendBlock@D3DX11Effects@@@CEffectLoader@D3DX11Effects@@IAEJAAPAUSBlendBlock@1@IPAU21@@Z PROC ; D3DX11Effects::CEffectLoader::ReallocateBlockAssignments<D3DX11Effects::SBlendBlock>, COMDAT
; _this$ = ecx

; 3312 : {

	push	ebp
	mov	ebp, esp
	sub	esp, 352				; 00000160H
	push	ebx
	push	esi
	push	edi
	push	ecx
	lea	edi, DWORD PTR [ebp-352]
	mov	ecx, 88					; 00000058H
	mov	eax, -858993460				; ccccccccH
	rep stosd
	pop	ecx
	mov	DWORD PTR _this$[ebp], ecx

; 3313 :     HRESULT hr = S_OK;

	mov	DWORD PTR _hr$[ebp], 0

; 3314 :     CEffectHeap *pHeap = &m_pEffect->m_Heap;

	mov	eax, DWORD PTR _this$[ebp]
	mov	ecx, DWORD PTR [eax+36]
	add	ecx, 12					; 0000000cH
	mov	DWORD PTR _pHeap$[ebp], ecx

; 3315 :     UINT  i, j;
; 3316 : 
; 3317 :     for(i=0; i<cBlocks; i++)

	mov	DWORD PTR _i$[ebp], 0
	jmp	SHORT $LN67@Reallocate
$LN66@Reallocate:
	mov	eax, DWORD PTR _i$[ebp]
	add	eax, 1
	mov	DWORD PTR _i$[ebp], eax
$LN67@Reallocate:
	mov	eax, DWORD PTR _i$[ebp]
	cmp	eax, DWORD PTR _cBlocks$[ebp]
	jae	$lExit$73

; 3318 :     {
; 3319 :         T *pBlock = &pBlocks[i];

	imul	eax, DWORD PTR _i$[ebp], 288
	mov	ecx, DWORD PTR _pBlocks$[ebp]
	add	eax, DWORD PTR [ecx]
	mov	DWORD PTR _pBlock$8[ebp], eax

; 3320 :         VHD( pHeap->MoveData((void**) &pBlock->pAssignments, sizeof(SAssignment)*pBlock->AssignmentCount), "Internal loading error: cannot move assignment count." );

	mov	eax, DWORD PTR _pBlock$8[ebp]
	mov	ecx, DWORD PTR [eax+8]
	shl	ecx, 5
	push	ecx
	mov	edx, DWORD PTR _pBlock$8[ebp]
	add	edx, 12					; 0000000cH
	push	edx
	mov	ecx, DWORD PTR _pHeap$[ebp]
	call	?MoveData@CEffectHeap@D3DX11Effects@@QAEJPAPAXI@Z ; D3DX11Effects::CEffectHeap::MoveData
	mov	DWORD PTR _hr$[ebp], eax
	cmp	DWORD PTR _hr$[ebp], 0
	jge	SHORT $LN64@Reallocate
	jmp	$lExit$73
	jmp	$lExit$73
$LN64@Reallocate:

; 3321 : 
; 3322 :         for (j=0; j<pBlock->AssignmentCount; j++)

	mov	DWORD PTR _j$[ebp], 0
	jmp	SHORT $LN62@Reallocate
$LN61@Reallocate:
	mov	eax, DWORD PTR _j$[ebp]
	add	eax, 1
	mov	DWORD PTR _j$[ebp], eax
$LN62@Reallocate:
	mov	eax, DWORD PTR _pBlock$8[ebp]
	mov	ecx, DWORD PTR _j$[ebp]
	cmp	ecx, DWORD PTR [eax+8]
	jae	$LN60@Reallocate

; 3323 :         {
; 3324 :             SAssignment *pAssignment = &pBlock->pAssignments[j];

	mov	eax, DWORD PTR _j$[ebp]
	shl	eax, 5
	mov	ecx, DWORD PTR _pBlock$8[ebp]
	add	eax, DWORD PTR [ecx+12]
	mov	DWORD PTR _pAssignment$7[ebp], eax

; 3325 :             UINT  cbDeps;
; 3326 : 
; 3327 :             // When cloning, convert pointers back into offsets
; 3328 :             if( pOldBlocks )

	cmp	DWORD PTR _pOldBlocks$[ebp], 0
	je	SHORT $LN59@Reallocate

; 3329 :             {
; 3330 :                 T *pOldBlock = &pOldBlocks[i];

	imul	eax, DWORD PTR _i$[ebp], 288
	add	eax, DWORD PTR _pOldBlocks$[ebp]
	mov	DWORD PTR _pOldBlock$5[ebp], eax

; 3331 :                 pAssignment->Destination.Offset = (UINT)( (UINT_PTR)pAssignment->Destination.pGeneric - (UINT_PTR)pOldBlock ) ;

	mov	eax, DWORD PTR _pAssignment$7[ebp]
	mov	ecx, DWORD PTR [eax+20]
	sub	ecx, DWORD PTR _pOldBlock$5[ebp]
	mov	edx, DWORD PTR _pAssignment$7[ebp]
	mov	DWORD PTR [edx+20], ecx
$LN59@Reallocate:

; 3332 :             }
; 3333 : 
; 3334 :             // Convert destination pointers from offset to real pointer
; 3335 :             pAssignment->Destination.pGeneric = (BYTE*) pBlock + pAssignment->Destination.Offset;

	mov	eax, DWORD PTR _pAssignment$7[ebp]
	mov	ecx, DWORD PTR _pBlock$8[ebp]
	add	ecx, DWORD PTR [eax+20]
	mov	edx, DWORD PTR _pAssignment$7[ebp]
	mov	DWORD PTR [edx+20], ecx

; 3336 : 
; 3337 :             // Make sure the data pointer points into the backing store
; 3338 :             VBD( pAssignment->Destination.pGeneric >= &pBlock->BackingStore && 

	mov	eax, DWORD PTR _pBlock$8[ebp]
	add	eax, 20					; 00000014H
	mov	ecx, DWORD PTR _pAssignment$7[ebp]
	cmp	DWORD PTR [ecx+20], eax
	jb	SHORT $LN57@Reallocate
	mov	eax, DWORD PTR _pBlock$8[ebp]
	add	eax, 284				; 0000011cH
	mov	ecx, DWORD PTR _pAssignment$7[ebp]
	cmp	DWORD PTR [ecx+20], eax
	jb	SHORT $LN58@Reallocate
$LN57@Reallocate:
	mov	DWORD PTR _hr$[ebp], -2147467259	; 80004005H
	jmp	$lExit$73
	jmp	$lExit$73
$LN58@Reallocate:

; 3339 :                  pAssignment->Destination.pGeneric < (BYTE*) &pBlock->BackingStore + sizeof(pBlock->BackingStore), 
; 3340 :                  "Internal loading error: assignment destination out of range." );
; 3341 : 
; 3342 :             // Fixup dependencies
; 3343 :             cbDeps = pAssignment->DependencyCount * sizeof(SAssignment::SDependency);

	mov	eax, DWORD PTR _pAssignment$7[ebp]
	mov	ecx, DWORD PTR [eax+12]
	shl	ecx, 2
	mov	DWORD PTR _cbDeps$6[ebp], ecx

; 3344 :             VHD( pHeap->MoveData((void**) &pAssignment->pDependencies, cbDeps), "Internal loading error: cannot move assignment dependencies." );

	mov	eax, DWORD PTR _cbDeps$6[ebp]
	push	eax
	mov	ecx, DWORD PTR _pAssignment$7[ebp]
	add	ecx, 16					; 00000010H
	push	ecx
	mov	ecx, DWORD PTR _pHeap$[ebp]
	call	?MoveData@CEffectHeap@D3DX11Effects@@QAEJPAPAXI@Z ; D3DX11Effects::CEffectHeap::MoveData
	mov	DWORD PTR _hr$[ebp], eax
	cmp	DWORD PTR _hr$[ebp], 0
	jge	SHORT $LN55@Reallocate
	jmp	$lExit$73
	jmp	$lExit$73
$LN55@Reallocate:

; 3345 : 
; 3346 :             SGlobalVariable *pOldVariable = NULL;

	mov	DWORD PTR _pOldVariable$4[ebp], 0

; 3347 :             for(UINT  iDep=0; iDep<pAssignment->DependencyCount; iDep++)

	mov	DWORD PTR _iDep$3[ebp], 0
	jmp	SHORT $LN53@Reallocate
$LN52@Reallocate:
	mov	eax, DWORD PTR _iDep$3[ebp]
	add	eax, 1
	mov	DWORD PTR _iDep$3[ebp], eax
$LN53@Reallocate:
	mov	eax, DWORD PTR _pAssignment$7[ebp]
	mov	ecx, DWORD PTR _iDep$3[ebp]
	cmp	ecx, DWORD PTR [eax+12]
	jae	SHORT $LN51@Reallocate

; 3348 :             {
; 3349 :                 SAssignment::SDependency *pDep = &pAssignment->pDependencies[iDep];

	mov	eax, DWORD PTR _pAssignment$7[ebp]
	mov	ecx, DWORD PTR [eax+16]
	mov	edx, DWORD PTR _iDep$3[ebp]
	lea	eax, DWORD PTR [ecx+edx*4]
	mov	DWORD PTR _pDep$2[ebp], eax

; 3350 :                 // We ignore all but the last variable because below, we only use the last dependency
; 3351 :                 pOldVariable = pDep->pVariable;

	mov	eax, DWORD PTR _pDep$2[ebp]
	mov	ecx, DWORD PTR [eax]
	mov	DWORD PTR _pOldVariable$4[ebp], ecx

; 3352 :                 VH( FixupVariablePointer(&pDep->pVariable) );

	mov	eax, DWORD PTR _pDep$2[ebp]
	push	eax
	mov	ecx, DWORD PTR _this$[ebp]
	call	?FixupVariablePointer@CEffectLoader@D3DX11Effects@@IAEJPAPAUSGlobalVariable@2@@Z ; D3DX11Effects::CEffectLoader::FixupVariablePointer
	mov	DWORD PTR _hr$[ebp], eax
	cmp	DWORD PTR _hr$[ebp], 0
	jge	SHORT $LN50@Reallocate
	jmp	$lExit$73
	jmp	$lExit$73
$LN50@Reallocate:

; 3353 :             }

	jmp	SHORT $LN52@Reallocate
$LN51@Reallocate:

; 3354 : 
; 3355 :             // Fixup source pointers
; 3356 :             switch(pAssignment->LhsType)

	mov	eax, DWORD PTR _pAssignment$7[ebp]
	mov	ecx, DWORD PTR [eax]
	mov	DWORD PTR tv175[ebp], ecx
	cmp	DWORD PTR tv175[ebp], 7
	jg	SHORT $LN70@Reallocate
	cmp	DWORD PTR tv175[ebp], 7
	je	SHORT $LN43@Reallocate
	cmp	DWORD PTR tv175[ebp], 6
	ja	$LN30@Reallocate
	mov	edx, DWORD PTR tv175[ebp]
	jmp	DWORD PTR $LN72@Reallocate[edx*4]
$LN70@Reallocate:
	cmp	DWORD PTR tv175[ebp], 16		; 00000010H
	jg	SHORT $LN71@Reallocate
	cmp	DWORD PTR tv175[ebp], 14		; 0000000eH
	jge	SHORT $LN46@Reallocate
	cmp	DWORD PTR tv175[ebp], 8
	je	SHORT $LN40@Reallocate
	jmp	$LN30@Reallocate
$LN71@Reallocate:
	cmp	DWORD PTR tv175[ebp], 196618		; 0003000aH
	je	$LN34@Reallocate
	jmp	$LN30@Reallocate
$LN46@Reallocate:

; 3357 :             {
; 3358 :             case ELHS_VertexShaderBlock:
; 3359 :             case ELHS_PixelShaderBlock:
; 3360 :             case ELHS_GeometryShaderBlock:
; 3361 :             case ELHS_HullShaderBlock:
; 3362 :             case ELHS_DomainShaderBlock:
; 3363 :             case ELHS_ComputeShaderBlock:
; 3364 :                 VH( FixupShaderPointer(&pAssignment->Source.pShader) );

	mov	eax, DWORD PTR _pAssignment$7[ebp]
	add	eax, 24					; 00000018H
	push	eax
	mov	ecx, DWORD PTR _this$[ebp]
	call	?FixupShaderPointer@CEffectLoader@D3DX11Effects@@IAEJPAPAUSShaderBlock@2@@Z ; D3DX11Effects::CEffectLoader::FixupShaderPointer
	mov	DWORD PTR _hr$[ebp], eax
	cmp	DWORD PTR _hr$[ebp], 0
	jge	SHORT $LN45@Reallocate
	jmp	$lExit$73
	jmp	$lExit$73
$LN45@Reallocate:

; 3365 :                 break;

	jmp	$LN4@Reallocate
$LN43@Reallocate:

; 3366 : 
; 3367 :             case ELHS_DepthStencilBlock:
; 3368 :                 VH( FixupDSPointer((SDepthStencilBlock**)&pAssignment->Source.pBlock) );

	mov	eax, DWORD PTR _pAssignment$7[ebp]
	add	eax, 24					; 00000018H
	push	eax
	mov	ecx, DWORD PTR _this$[ebp]
	call	?FixupDSPointer@CEffectLoader@D3DX11Effects@@IAEJPAPAUSDepthStencilBlock@2@@Z ; D3DX11Effects::CEffectLoader::FixupDSPointer
	mov	DWORD PTR _hr$[ebp], eax
	cmp	DWORD PTR _hr$[ebp], 0
	jge	SHORT $LN42@Reallocate
	jmp	$lExit$73
	jmp	$lExit$73
$LN42@Reallocate:

; 3369 :                 break;

	jmp	$LN4@Reallocate
$LN40@Reallocate:

; 3370 :             case ELHS_BlendBlock:
; 3371 :                 VH( FixupABPointer((SBlendBlock**) &pAssignment->Source.pBlock) );

	mov	eax, DWORD PTR _pAssignment$7[ebp]
	add	eax, 24					; 00000018H
	push	eax
	mov	ecx, DWORD PTR _this$[ebp]
	call	?FixupABPointer@CEffectLoader@D3DX11Effects@@IAEJPAPAUSBlendBlock@2@@Z ; D3DX11Effects::CEffectLoader::FixupABPointer
	mov	DWORD PTR _hr$[ebp], eax
	cmp	DWORD PTR _hr$[ebp], 0
	jge	SHORT $LN39@Reallocate
	jmp	$lExit$73
	jmp	$lExit$73
$LN39@Reallocate:

; 3372 :                 break;

	jmp	$LN4@Reallocate
$LN37@Reallocate:

; 3373 :             case ELHS_RasterizerBlock:
; 3374 :                 VH( FixupRSPointer((SRasterizerBlock**) &pAssignment->Source.pBlock) );

	mov	eax, DWORD PTR _pAssignment$7[ebp]
	add	eax, 24					; 00000018H
	push	eax
	mov	ecx, DWORD PTR _this$[ebp]
	call	?FixupRSPointer@CEffectLoader@D3DX11Effects@@IAEJPAPAUSRasterizerBlock@2@@Z ; D3DX11Effects::CEffectLoader::FixupRSPointer
	mov	DWORD PTR _hr$[ebp], eax
	cmp	DWORD PTR _hr$[ebp], 0
	jge	SHORT $LN36@Reallocate
	jmp	$lExit$73
	jmp	$lExit$73
$LN36@Reallocate:

; 3375 :                 break;

	jmp	$LN4@Reallocate
$LN34@Reallocate:

; 3376 : 
; 3377 :             case ELHS_Texture:
; 3378 :                 VH( FixupShaderResourcePointer((SShaderResource**) &pAssignment->Source.pShaderResource) );

	mov	eax, DWORD PTR _pAssignment$7[ebp]
	add	eax, 24					; 00000018H
	push	eax
	mov	ecx, DWORD PTR _this$[ebp]
	call	?FixupShaderResourcePointer@CEffectLoader@D3DX11Effects@@IAEJPAPAUSShaderResource@2@@Z ; D3DX11Effects::CEffectLoader::FixupShaderResourcePointer
	mov	DWORD PTR _hr$[ebp], eax
	cmp	DWORD PTR _hr$[ebp], 0
	jge	SHORT $LN33@Reallocate
	jmp	$lExit$73
	jmp	$lExit$73
$LN33@Reallocate:

; 3379 :                 break;

	jmp	$LN4@Reallocate
$LN30@Reallocate:

; 3380 : 
; 3381 :             default:
; 3382 :                 // Non-object assignment (must have at least one dependency or it would have been pruned by now)
; 3383 :                 D3DXASSERT( !pAssignment->IsObjectAssignment() && pAssignment->DependencyCount > 0 );

	mov	ecx, DWORD PTR _pAssignment$7[ebp]
	call	?IsObjectAssignment@SAssignment@D3DX11Effects@@QAEHXZ ; D3DX11Effects::SAssignment::IsObjectAssignment
	test	eax, eax
	jne	SHORT $LN26@Reallocate
	mov	eax, DWORD PTR _pAssignment$7[ebp]
	cmp	DWORD PTR [eax+12], 0
	ja	SHORT $LN29@Reallocate
$LN26@Reallocate:
	push	OFFSET ??_C@_0EH@BPELLKNA@?$CBpAssignment?9?$DOIsObjectAssignment@
	push	3383					; 00000d37H
	push	OFFSET ??_C@_0FA@JDHJHLEA@c?3?2users?2simon?2documents?2github?2@
	call	?D3DXDebugAssert@@YGHPBDH0@Z		; D3DXDebugAssert
$LN29@Reallocate:
	xor	eax, eax
	jne	SHORT $LN30@Reallocate

; 3384 : 
; 3385 :                 // Numeric variables must be relocated before this function is called
; 3386 :                 
; 3387 :                 switch (pAssignment->AssignmentType)

	mov	eax, DWORD PTR _pAssignment$7[ebp]
	mov	ecx, DWORD PTR [eax+4]
	mov	DWORD PTR tv216[ebp], ecx
	cmp	DWORD PTR tv216[ebp], 2
	je	SHORT $LN23@Reallocate
	cmp	DWORD PTR tv216[ebp], 4
	je	SHORT $LN23@Reallocate
	jmp	$LN13@Reallocate
$LN23@Reallocate:

; 3388 :                 {
; 3389 :                 case ERAT_NumericVariable:
; 3390 :                 case ERAT_NumericVariableIndex:
; 3391 :                     // the variable or variable array is always the last dependency in the chain
; 3392 :                     SGlobalVariable *pVariable;
; 3393 :                     pVariable = pAssignment->pDependencies[pAssignment->DependencyCount - 1].pVariable;

	mov	eax, DWORD PTR _pAssignment$7[ebp]
	mov	ecx, DWORD PTR [eax+12]
	mov	edx, DWORD PTR _pAssignment$7[ebp]
	mov	eax, DWORD PTR [edx+16]
	mov	ecx, DWORD PTR [eax+ecx*4-4]
	mov	DWORD PTR _pVariable$1[ebp], ecx
$LN22@Reallocate:

; 3394 :                     D3DXASSERT( pVariable->pType->BelongsInConstantBuffer() && NULL != pVariable->pCB );

	mov	eax, DWORD PTR _pVariable$1[ebp]
	mov	ecx, DWORD PTR [eax+12]
	call	?BelongsInConstantBuffer@SType@D3DX11Effects@@QBEHXZ ; D3DX11Effects::SType::BelongsInConstantBuffer
	test	eax, eax
	je	SHORT $LN18@Reallocate
	mov	eax, DWORD PTR _pVariable$1[ebp]
	cmp	DWORD PTR [eax+36], 0
	jne	SHORT $LN21@Reallocate
$LN18@Reallocate:
	push	OFFSET ??_C@_0EG@GMMJAJM@pVariable?9?$DOpType?9?$DOBelongsInConst@
	push	3394					; 00000d42H
	push	OFFSET ??_C@_0FA@JDHJHLEA@c?3?2users?2simon?2documents?2github?2@
	call	?D3DXDebugAssert@@YGHPBDH0@Z		; D3DXDebugAssert
$LN21@Reallocate:
	xor	eax, eax
	jne	SHORT $LN22@Reallocate

; 3395 : 
; 3396 :                     // When cloning, convert pointers back into offsets
; 3397 :                     if( pOldBlocks )

	cmp	DWORD PTR _pOldBlocks$[ebp], 0
	je	SHORT $LN17@Reallocate

; 3398 :                     {
; 3399 :                         VBD( pOldVariable != NULL, "Internal loading error: pOldVariable is NULL." );

	cmp	DWORD PTR _pOldVariable$4[ebp], 0
	jne	SHORT $LN16@Reallocate
	mov	DWORD PTR _hr$[ebp], -2147467259	; 80004005H
	jmp	$lExit$73
	jmp	$lExit$73
$LN16@Reallocate:

; 3400 :                         pAssignment->Source.Offset = pAssignment->Source.pNumeric - pOldVariable->pCB->pBackingStore;

	mov	eax, DWORD PTR _pOldVariable$4[ebp]
	mov	ecx, DWORD PTR [eax+36]
	mov	edx, DWORD PTR _pAssignment$7[ebp]
	mov	eax, DWORD PTR [edx+24]
	sub	eax, DWORD PTR [ecx+16]
	mov	ecx, DWORD PTR _pAssignment$7[ebp]
	mov	DWORD PTR [ecx+24], eax
$LN17@Reallocate:

; 3401 :                     }
; 3402 : 
; 3403 :                     // Convert from offset to pointer
; 3404 :                     pAssignment->Source.pNumeric = pVariable->pCB->pBackingStore + pAssignment->Source.Offset;

	mov	eax, DWORD PTR _pVariable$1[ebp]
	mov	ecx, DWORD PTR [eax+36]
	mov	edx, DWORD PTR [ecx+16]
	mov	eax, DWORD PTR _pAssignment$7[ebp]
	add	edx, DWORD PTR [eax+24]
	mov	ecx, DWORD PTR _pAssignment$7[ebp]
	mov	DWORD PTR [ecx+24], edx

; 3405 :                     break;

	jmp	SHORT $LN24@Reallocate
$LN13@Reallocate:

; 3406 : 
; 3407 :                 default:
; 3408 :                     // Shouldn't be able to get here
; 3409 :                     D3DXASSERT(0);

	mov	eax, 1
	test	eax, eax
	je	SHORT $LN12@Reallocate
	push	OFFSET ??_C@_01GBGANLPD@0?$AA@
	push	3409					; 00000d51H
	push	OFFSET ??_C@_0FA@JDHJHLEA@c?3?2users?2simon?2documents?2github?2@
	call	?D3DXDebugAssert@@YGHPBDH0@Z		; D3DXDebugAssert
$LN12@Reallocate:
	xor	eax, eax
	jne	SHORT $LN13@Reallocate

; 3410 :                     VHD( E_FAIL, "Loading error: invalid assignment type." );

	mov	DWORD PTR _hr$[ebp], -2147467259	; 80004005H
	cmp	DWORD PTR _hr$[ebp], 0
	jge	SHORT $LN24@Reallocate
	jmp	SHORT $lExit$73
	jmp	SHORT $lExit$73
$LN24@Reallocate:

; 3411 :                 }
; 3412 :                 break;

	jmp	SHORT $LN4@Reallocate
$LN7@Reallocate:

; 3413 : 
; 3414 :             case ELHS_Invalid:
; 3415 :                 VHD( E_FAIL, "Loading error: invalid assignment type." );

	mov	DWORD PTR _hr$[ebp], -2147467259	; 80004005H
	cmp	DWORD PTR _hr$[ebp], 0
	jge	SHORT $LN4@Reallocate
	jmp	SHORT $lExit$73
	jmp	SHORT $lExit$73
$LN4@Reallocate:

; 3416 :             }
; 3417 : 
; 3418 :             D3DXASSERT(m_pEffect->m_LocalTimer > 0);

	mov	eax, DWORD PTR _this$[ebp]
	mov	ecx, DWORD PTR [eax+36]
	cmp	DWORD PTR [ecx+164], 0
	ja	SHORT $LN3@Reallocate
	push	OFFSET ??_C@_0BM@CFJFHGND@m_pEffect?9?$DOm_LocalTimer?5?$DO?50?$AA@
	push	3418					; 00000d5aH
	push	OFFSET ??_C@_0FA@JDHJHLEA@c?3?2users?2simon?2documents?2github?2@
	call	?D3DXDebugAssert@@YGHPBDH0@Z		; D3DXDebugAssert
$LN3@Reallocate:
	xor	eax, eax
	jne	SHORT $LN4@Reallocate

; 3419 :             m_pEffect->EvaluateAssignment(pAssignment);

	mov	eax, DWORD PTR _pAssignment$7[ebp]
	push	eax
	mov	ecx, DWORD PTR _this$[ebp]
	mov	ecx, DWORD PTR [ecx+36]
	call	?EvaluateAssignment@CEffect@D3DX11Effects@@IAEHPAUSAssignment@2@@Z ; D3DX11Effects::CEffect::EvaluateAssignment

; 3420 :         }

	jmp	$LN61@Reallocate
$LN60@Reallocate:

; 3421 :     }

	jmp	$LN66@Reallocate
$lExit$73:

; 3422 : 
; 3423 : lExit:
; 3424 :     return hr;

	mov	eax, DWORD PTR _hr$[ebp]

; 3425 : }

	pop	edi
	pop	esi
	pop	ebx
	add	esp, 352				; 00000160H
	cmp	ebp, esp
	call	__RTC_CheckEsp
	mov	esp, ebp
	pop	ebp
	ret	12					; 0000000cH
	npad	1
$LN72@Reallocate:
	DD	$LN7@Reallocate
	DD	$LN46@Reallocate
	DD	$LN46@Reallocate
	DD	$LN46@Reallocate
	DD	$LN30@Reallocate
	DD	$LN30@Reallocate
	DD	$LN37@Reallocate
??$ReallocateBlockAssignments@USBlendBlock@D3DX11Effects@@@CEffectLoader@D3DX11Effects@@IAEJAAPAUSBlendBlock@1@IPAU21@@Z ENDP ; D3DX11Effects::CEffectLoader::ReallocateBlockAssignments<D3DX11Effects::SBlendBlock>
_TEXT	ENDS
; Function compile flags: /Odtp /RTCsu /ZI
; File c:\users\simon\documents\github\sparta2.0\uclan-sparta\effects11\effectload.cpp
;	COMDAT ??$ReallocateBlockAssignments@USDepthStencilBlock@D3DX11Effects@@@CEffectLoader@D3DX11Effects@@IAEJAAPAUSDepthStencilBlock@1@IPAU21@@Z
_TEXT	SEGMENT
tv216 = -352						; size = 4
tv175 = -352						; size = 4
_pVariable$1 = -152					; size = 4
_pDep$2 = -140						; size = 4
_iDep$3 = -128						; size = 4
_pOldVariable$4 = -116					; size = 4
_pOldBlock$5 = -104					; size = 4
_cbDeps$6 = -92						; size = 4
_pAssignment$7 = -80					; size = 4
_pBlock$8 = -68						; size = 4
_j$ = -56						; size = 4
_i$ = -44						; size = 4
_pHeap$ = -32						; size = 4
_hr$ = -20						; size = 4
_this$ = -8						; size = 4
_pBlocks$ = 8						; size = 4
_cBlocks$ = 12						; size = 4
_pOldBlocks$ = 16					; size = 4
??$ReallocateBlockAssignments@USDepthStencilBlock@D3DX11Effects@@@CEffectLoader@D3DX11Effects@@IAEJAAPAUSDepthStencilBlock@1@IPAU21@@Z PROC ; D3DX11Effects::CEffectLoader::ReallocateBlockAssignments<D3DX11Effects::SDepthStencilBlock>, COMDAT
; _this$ = ecx

; 3312 : {

	push	ebp
	mov	ebp, esp
	sub	esp, 352				; 00000160H
	push	ebx
	push	esi
	push	edi
	push	ecx
	lea	edi, DWORD PTR [ebp-352]
	mov	ecx, 88					; 00000058H
	mov	eax, -858993460				; ccccccccH
	rep stosd
	pop	ecx
	mov	DWORD PTR _this$[ebp], ecx

; 3313 :     HRESULT hr = S_OK;

	mov	DWORD PTR _hr$[ebp], 0

; 3314 :     CEffectHeap *pHeap = &m_pEffect->m_Heap;

	mov	eax, DWORD PTR _this$[ebp]
	mov	ecx, DWORD PTR [eax+36]
	add	ecx, 12					; 0000000cH
	mov	DWORD PTR _pHeap$[ebp], ecx

; 3315 :     UINT  i, j;
; 3316 : 
; 3317 :     for(i=0; i<cBlocks; i++)

	mov	DWORD PTR _i$[ebp], 0
	jmp	SHORT $LN67@Reallocate
$LN66@Reallocate:
	mov	eax, DWORD PTR _i$[ebp]
	add	eax, 1
	mov	DWORD PTR _i$[ebp], eax
$LN67@Reallocate:
	mov	eax, DWORD PTR _i$[ebp]
	cmp	eax, DWORD PTR _cBlocks$[ebp]
	jae	$lExit$73

; 3318 :     {
; 3319 :         T *pBlock = &pBlocks[i];

	imul	eax, DWORD PTR _i$[ebp], 76
	mov	ecx, DWORD PTR _pBlocks$[ebp]
	add	eax, DWORD PTR [ecx]
	mov	DWORD PTR _pBlock$8[ebp], eax

; 3320 :         VHD( pHeap->MoveData((void**) &pBlock->pAssignments, sizeof(SAssignment)*pBlock->AssignmentCount), "Internal loading error: cannot move assignment count." );

	mov	eax, DWORD PTR _pBlock$8[ebp]
	mov	ecx, DWORD PTR [eax+8]
	shl	ecx, 5
	push	ecx
	mov	edx, DWORD PTR _pBlock$8[ebp]
	add	edx, 12					; 0000000cH
	push	edx
	mov	ecx, DWORD PTR _pHeap$[ebp]
	call	?MoveData@CEffectHeap@D3DX11Effects@@QAEJPAPAXI@Z ; D3DX11Effects::CEffectHeap::MoveData
	mov	DWORD PTR _hr$[ebp], eax
	cmp	DWORD PTR _hr$[ebp], 0
	jge	SHORT $LN64@Reallocate
	jmp	$lExit$73
	jmp	$lExit$73
$LN64@Reallocate:

; 3321 : 
; 3322 :         for (j=0; j<pBlock->AssignmentCount; j++)

	mov	DWORD PTR _j$[ebp], 0
	jmp	SHORT $LN62@Reallocate
$LN61@Reallocate:
	mov	eax, DWORD PTR _j$[ebp]
	add	eax, 1
	mov	DWORD PTR _j$[ebp], eax
$LN62@Reallocate:
	mov	eax, DWORD PTR _pBlock$8[ebp]
	mov	ecx, DWORD PTR _j$[ebp]
	cmp	ecx, DWORD PTR [eax+8]
	jae	$LN60@Reallocate

; 3323 :         {
; 3324 :             SAssignment *pAssignment = &pBlock->pAssignments[j];

	mov	eax, DWORD PTR _j$[ebp]
	shl	eax, 5
	mov	ecx, DWORD PTR _pBlock$8[ebp]
	add	eax, DWORD PTR [ecx+12]
	mov	DWORD PTR _pAssignment$7[ebp], eax

; 3325 :             UINT  cbDeps;
; 3326 : 
; 3327 :             // When cloning, convert pointers back into offsets
; 3328 :             if( pOldBlocks )

	cmp	DWORD PTR _pOldBlocks$[ebp], 0
	je	SHORT $LN59@Reallocate

; 3329 :             {
; 3330 :                 T *pOldBlock = &pOldBlocks[i];

	imul	eax, DWORD PTR _i$[ebp], 76
	add	eax, DWORD PTR _pOldBlocks$[ebp]
	mov	DWORD PTR _pOldBlock$5[ebp], eax

; 3331 :                 pAssignment->Destination.Offset = (UINT)( (UINT_PTR)pAssignment->Destination.pGeneric - (UINT_PTR)pOldBlock ) ;

	mov	eax, DWORD PTR _pAssignment$7[ebp]
	mov	ecx, DWORD PTR [eax+20]
	sub	ecx, DWORD PTR _pOldBlock$5[ebp]
	mov	edx, DWORD PTR _pAssignment$7[ebp]
	mov	DWORD PTR [edx+20], ecx
$LN59@Reallocate:

; 3332 :             }
; 3333 : 
; 3334 :             // Convert destination pointers from offset to real pointer
; 3335 :             pAssignment->Destination.pGeneric = (BYTE*) pBlock + pAssignment->Destination.Offset;

	mov	eax, DWORD PTR _pAssignment$7[ebp]
	mov	ecx, DWORD PTR _pBlock$8[ebp]
	add	ecx, DWORD PTR [eax+20]
	mov	edx, DWORD PTR _pAssignment$7[ebp]
	mov	DWORD PTR [edx+20], ecx

; 3336 : 
; 3337 :             // Make sure the data pointer points into the backing store
; 3338 :             VBD( pAssignment->Destination.pGeneric >= &pBlock->BackingStore && 

	mov	eax, DWORD PTR _pBlock$8[ebp]
	add	eax, 20					; 00000014H
	mov	ecx, DWORD PTR _pAssignment$7[ebp]
	cmp	DWORD PTR [ecx+20], eax
	jb	SHORT $LN57@Reallocate
	mov	eax, DWORD PTR _pBlock$8[ebp]
	add	eax, 72					; 00000048H
	mov	ecx, DWORD PTR _pAssignment$7[ebp]
	cmp	DWORD PTR [ecx+20], eax
	jb	SHORT $LN58@Reallocate
$LN57@Reallocate:
	mov	DWORD PTR _hr$[ebp], -2147467259	; 80004005H
	jmp	$lExit$73
	jmp	$lExit$73
$LN58@Reallocate:

; 3339 :                  pAssignment->Destination.pGeneric < (BYTE*) &pBlock->BackingStore + sizeof(pBlock->BackingStore), 
; 3340 :                  "Internal loading error: assignment destination out of range." );
; 3341 : 
; 3342 :             // Fixup dependencies
; 3343 :             cbDeps = pAssignment->DependencyCount * sizeof(SAssignment::SDependency);

	mov	eax, DWORD PTR _pAssignment$7[ebp]
	mov	ecx, DWORD PTR [eax+12]
	shl	ecx, 2
	mov	DWORD PTR _cbDeps$6[ebp], ecx

; 3344 :             VHD( pHeap->MoveData((void**) &pAssignment->pDependencies, cbDeps), "Internal loading error: cannot move assignment dependencies." );

	mov	eax, DWORD PTR _cbDeps$6[ebp]
	push	eax
	mov	ecx, DWORD PTR _pAssignment$7[ebp]
	add	ecx, 16					; 00000010H
	push	ecx
	mov	ecx, DWORD PTR _pHeap$[ebp]
	call	?MoveData@CEffectHeap@D3DX11Effects@@QAEJPAPAXI@Z ; D3DX11Effects::CEffectHeap::MoveData
	mov	DWORD PTR _hr$[ebp], eax
	cmp	DWORD PTR _hr$[ebp], 0
	jge	SHORT $LN55@Reallocate
	jmp	$lExit$73
	jmp	$lExit$73
$LN55@Reallocate:

; 3345 : 
; 3346 :             SGlobalVariable *pOldVariable = NULL;

	mov	DWORD PTR _pOldVariable$4[ebp], 0

; 3347 :             for(UINT  iDep=0; iDep<pAssignment->DependencyCount; iDep++)

	mov	DWORD PTR _iDep$3[ebp], 0
	jmp	SHORT $LN53@Reallocate
$LN52@Reallocate:
	mov	eax, DWORD PTR _iDep$3[ebp]
	add	eax, 1
	mov	DWORD PTR _iDep$3[ebp], eax
$LN53@Reallocate:
	mov	eax, DWORD PTR _pAssignment$7[ebp]
	mov	ecx, DWORD PTR _iDep$3[ebp]
	cmp	ecx, DWORD PTR [eax+12]
	jae	SHORT $LN51@Reallocate

; 3348 :             {
; 3349 :                 SAssignment::SDependency *pDep = &pAssignment->pDependencies[iDep];

	mov	eax, DWORD PTR _pAssignment$7[ebp]
	mov	ecx, DWORD PTR [eax+16]
	mov	edx, DWORD PTR _iDep$3[ebp]
	lea	eax, DWORD PTR [ecx+edx*4]
	mov	DWORD PTR _pDep$2[ebp], eax

; 3350 :                 // We ignore all but the last variable because below, we only use the last dependency
; 3351 :                 pOldVariable = pDep->pVariable;

	mov	eax, DWORD PTR _pDep$2[ebp]
	mov	ecx, DWORD PTR [eax]
	mov	DWORD PTR _pOldVariable$4[ebp], ecx

; 3352 :                 VH( FixupVariablePointer(&pDep->pVariable) );

	mov	eax, DWORD PTR _pDep$2[ebp]
	push	eax
	mov	ecx, DWORD PTR _this$[ebp]
	call	?FixupVariablePointer@CEffectLoader@D3DX11Effects@@IAEJPAPAUSGlobalVariable@2@@Z ; D3DX11Effects::CEffectLoader::FixupVariablePointer
	mov	DWORD PTR _hr$[ebp], eax
	cmp	DWORD PTR _hr$[ebp], 0
	jge	SHORT $LN50@Reallocate
	jmp	$lExit$73
	jmp	$lExit$73
$LN50@Reallocate:

; 3353 :             }

	jmp	SHORT $LN52@Reallocate
$LN51@Reallocate:

; 3354 : 
; 3355 :             // Fixup source pointers
; 3356 :             switch(pAssignment->LhsType)

	mov	eax, DWORD PTR _pAssignment$7[ebp]
	mov	ecx, DWORD PTR [eax]
	mov	DWORD PTR tv175[ebp], ecx
	cmp	DWORD PTR tv175[ebp], 7
	jg	SHORT $LN70@Reallocate
	cmp	DWORD PTR tv175[ebp], 7
	je	SHORT $LN43@Reallocate
	cmp	DWORD PTR tv175[ebp], 6
	ja	$LN30@Reallocate
	mov	edx, DWORD PTR tv175[ebp]
	jmp	DWORD PTR $LN72@Reallocate[edx*4]
$LN70@Reallocate:
	cmp	DWORD PTR tv175[ebp], 16		; 00000010H
	jg	SHORT $LN71@Reallocate
	cmp	DWORD PTR tv175[ebp], 14		; 0000000eH
	jge	SHORT $LN46@Reallocate
	cmp	DWORD PTR tv175[ebp], 8
	je	SHORT $LN40@Reallocate
	jmp	$LN30@Reallocate
$LN71@Reallocate:
	cmp	DWORD PTR tv175[ebp], 196618		; 0003000aH
	je	$LN34@Reallocate
	jmp	$LN30@Reallocate
$LN46@Reallocate:

; 3357 :             {
; 3358 :             case ELHS_VertexShaderBlock:
; 3359 :             case ELHS_PixelShaderBlock:
; 3360 :             case ELHS_GeometryShaderBlock:
; 3361 :             case ELHS_HullShaderBlock:
; 3362 :             case ELHS_DomainShaderBlock:
; 3363 :             case ELHS_ComputeShaderBlock:
; 3364 :                 VH( FixupShaderPointer(&pAssignment->Source.pShader) );

	mov	eax, DWORD PTR _pAssignment$7[ebp]
	add	eax, 24					; 00000018H
	push	eax
	mov	ecx, DWORD PTR _this$[ebp]
	call	?FixupShaderPointer@CEffectLoader@D3DX11Effects@@IAEJPAPAUSShaderBlock@2@@Z ; D3DX11Effects::CEffectLoader::FixupShaderPointer
	mov	DWORD PTR _hr$[ebp], eax
	cmp	DWORD PTR _hr$[ebp], 0
	jge	SHORT $LN45@Reallocate
	jmp	$lExit$73
	jmp	$lExit$73
$LN45@Reallocate:

; 3365 :                 break;

	jmp	$LN4@Reallocate
$LN43@Reallocate:

; 3366 : 
; 3367 :             case ELHS_DepthStencilBlock:
; 3368 :                 VH( FixupDSPointer((SDepthStencilBlock**)&pAssignment->Source.pBlock) );

	mov	eax, DWORD PTR _pAssignment$7[ebp]
	add	eax, 24					; 00000018H
	push	eax
	mov	ecx, DWORD PTR _this$[ebp]
	call	?FixupDSPointer@CEffectLoader@D3DX11Effects@@IAEJPAPAUSDepthStencilBlock@2@@Z ; D3DX11Effects::CEffectLoader::FixupDSPointer
	mov	DWORD PTR _hr$[ebp], eax
	cmp	DWORD PTR _hr$[ebp], 0
	jge	SHORT $LN42@Reallocate
	jmp	$lExit$73
	jmp	$lExit$73
$LN42@Reallocate:

; 3369 :                 break;

	jmp	$LN4@Reallocate
$LN40@Reallocate:

; 3370 :             case ELHS_BlendBlock:
; 3371 :                 VH( FixupABPointer((SBlendBlock**) &pAssignment->Source.pBlock) );

	mov	eax, DWORD PTR _pAssignment$7[ebp]
	add	eax, 24					; 00000018H
	push	eax
	mov	ecx, DWORD PTR _this$[ebp]
	call	?FixupABPointer@CEffectLoader@D3DX11Effects@@IAEJPAPAUSBlendBlock@2@@Z ; D3DX11Effects::CEffectLoader::FixupABPointer
