; Listing generated by Microsoft (R) Optimizing Compiler Version 18.00.30501.0 

	TITLE	C:\Users\Simon\Documents\GitHub\UCLAN-sparta\Effects11\EffectReflection.cpp
	.686P
	.XMM
	include listing.inc
	.model	flat

INCLUDELIB LIBCMTD
INCLUDELIB OLDNAMES

PUBLIC	_IID_ID3DX11EffectBlendVariable
PUBLIC	_IID_ID3DX11EffectDepthStencilVariable
PUBLIC	_IID_ID3DX11EffectVectorVariable
PUBLIC	_IID_ID3DX11EffectRasterizerVariable
PUBLIC	_IID_ID3DX11EffectMatrixVariable
PUBLIC	?c_InvalidIndex@SType@D3DX11Effects@@2IB	; D3DX11Effects::SType::c_InvalidIndex
PUBLIC	?c_ScalarSize@SType@D3DX11Effects@@2IB		; D3DX11Effects::SType::c_ScalarSize
PUBLIC	?c_ScalarsPerRegister@SType@D3DX11Effects@@2IB	; D3DX11Effects::SType::c_ScalarsPerRegister
PUBLIC	?c_RegisterSize@SType@D3DX11Effects@@2IB	; D3DX11Effects::SType::c_RegisterSize
PUBLIC	_IID_ID3DX11EffectSamplerVariable
PUBLIC	_IID_ID3DX11EffectStringVariable
PUBLIC	_IID_ID3DX11EffectPass
PUBLIC	?D3D11_DEFAULT@@3UCD3D11_DEFAULT@@B		; D3D11_DEFAULT
PUBLIC	_IID_ID3DX11EffectClassInstanceVariable
PUBLIC	_IID_ID3DX11EffectTechnique
PUBLIC	_IID_ID3DX11EffectInterfaceVariable
PUBLIC	_IID_ID3DX11EffectGroup
PUBLIC	_IID_ID3D11ShaderReflectionType
PUBLIC	_IID_ID3DX11Effect
PUBLIC	_IID_ID3D11ShaderReflectionVariable
PUBLIC	_IID_ID3D11ShaderReflectionConstantBuffer
PUBLIC	_IID_ID3DX11EffectShaderResourceVariable
PUBLIC	_IID_ID3D11ShaderReflection
PUBLIC	_IID_ID3D11LibraryReflection
PUBLIC	_IID_ID3DX11EffectUnorderedAccessViewVariable
PUBLIC	_IID_ID3D11FunctionReflection
PUBLIC	_IID_ID3D11FunctionParameterReflection
PUBLIC	_IID_ID3D11Module
PUBLIC	_IID_ID3D11ModuleInstance
PUBLIC	_IID_ID3DX11EffectRenderTargetViewVariable
PUBLIC	_IID_ID3D11Linker
PUBLIC	_IID_ID3D11LinkingNode
PUBLIC	_IID_ID3DX11EffectDepthStencilViewVariable
PUBLIC	_IID_ID3D11FunctionLinkingGraph
PUBLIC	_IID_ID3DX11EffectConstantBuffer
PUBLIC	_IID_ID3DX11EffectType
PUBLIC	?c_IsTBuffer@SBinaryConstantBuffer@D3DX11Effects@@2IB ; D3DX11Effects::SBinaryConstantBuffer::c_IsTBuffer
PUBLIC	?c_IsSingle@SBinaryConstantBuffer@D3DX11Effects@@2IB ; D3DX11Effects::SBinaryConstantBuffer::c_IsSingle
PUBLIC	?value@?$integral_constant@_N$0A@@std@@2_NB	; std::integral_constant<bool,0>::value
PUBLIC	?value@?$integral_constant@_N$00@std@@2_NB	; std::integral_constant<bool,1>::value
PUBLIC	_IID_ID3DX11EffectVariable
PUBLIC	_IID_ID3DX11EffectShaderVariable
PUBLIC	_IID_ID3DX11EffectScalarVariable
;	COMDAT _IID_ID3DX11EffectScalarVariable
CONST	SEGMENT
_IID_ID3DX11EffectScalarVariable DD 0921ef2e5H
	DW	0a65dH
	DW	04e92H
	DB	09fH
	DB	0c6H
	DB	04eH
	DB	09cH
	DB	0c0H
	DB	09aH
	DB	04aH
	DB	0deH
CONST	ENDS
;	COMDAT _IID_ID3DX11EffectShaderVariable
CONST	SEGMENT
_IID_ID3DX11EffectShaderVariable DD 07508b344H
	DW	020aH
	DW	04ec7H
	DB	091H
	DB	018H
	DB	062H
	DB	0cdH
	DB	0d3H
	DB	06cH
	DB	088H
	DB	0d7H
CONST	ENDS
;	COMDAT _IID_ID3DX11EffectVariable
CONST	SEGMENT
_IID_ID3DX11EffectVariable DD 036a777dH
	DW	0b56eH
	DW	04b25H
	DB	0b3H
	DB	013H
	DB	0ccH
	DB	03dH
	DB	0daH
	DB	0b7H
	DB	018H
	DB	073H
CONST	ENDS
;	COMDAT ?value@?$integral_constant@_N$00@std@@2_NB
CONST	SEGMENT
?value@?$integral_constant@_N$00@std@@2_NB DB 01H	; std::integral_constant<bool,1>::value
CONST	ENDS
;	COMDAT ?value@?$integral_constant@_N$0A@@std@@2_NB
CONST	SEGMENT
?value@?$integral_constant@_N$0A@@std@@2_NB DB 00H	; std::integral_constant<bool,0>::value
CONST	ENDS
;	COMDAT ?c_IsSingle@SBinaryConstantBuffer@D3DX11Effects@@2IB
CONST	SEGMENT
?c_IsSingle@SBinaryConstantBuffer@D3DX11Effects@@2IB DD 02H ; D3DX11Effects::SBinaryConstantBuffer::c_IsSingle
CONST	ENDS
;	COMDAT ?c_IsTBuffer@SBinaryConstantBuffer@D3DX11Effects@@2IB
CONST	SEGMENT
?c_IsTBuffer@SBinaryConstantBuffer@D3DX11Effects@@2IB DD 01H ; D3DX11Effects::SBinaryConstantBuffer::c_IsTBuffer
CONST	ENDS
;	COMDAT _IID_ID3DX11EffectType
CONST	SEGMENT
_IID_ID3DX11EffectType DD 04250d721H
	DW	0d5e5H
	DW	0491fH
	DB	0b6H
	DB	02bH
	DB	058H
	DB	07cH
	DB	043H
	DB	018H
	DB	062H
	DB	085H
CONST	ENDS
;	COMDAT _IID_ID3DX11EffectConstantBuffer
CONST	SEGMENT
_IID_ID3DX11EffectConstantBuffer DD 02cb6c733H
	DW	082d2H
	DW	04000H
	DB	0b3H
	DB	0daH
	DB	062H
	DB	019H
	DB	0d9H
	DB	0a9H
	DB	09bH
	DB	0f2H
CONST	ENDS
;	COMDAT _IID_ID3D11FunctionLinkingGraph
CONST	SEGMENT
_IID_ID3D11FunctionLinkingGraph DD 054133220H
	DW	01ce8H
	DW	043d3H
	DB	082H
	DB	036H
	DB	098H
	DB	055H
	DB	0c5H
	DB	0ceH
	DB	0ecH
	DB	0ffH
CONST	ENDS
;	COMDAT _IID_ID3DX11EffectDepthStencilViewVariable
CONST	SEGMENT
_IID_ID3DX11EffectDepthStencilViewVariable DD 033c648acH
	DW	02e9eH
	DW	04a2eH
	DB	09cH
	DB	0d6H
	DB	0deH
	DB	031H
	DB	0acH
	DB	0c5H
	DB	0b3H
	DB	047H
CONST	ENDS
;	COMDAT _IID_ID3D11LinkingNode
CONST	SEGMENT
_IID_ID3D11LinkingNode DD 0d80dd70cH
	DW	08d2fH
	DW	04751H
	DB	094H
	DB	0a1H
	DB	03H
	DB	0c7H
	DB	09bH
	DB	035H
	DB	056H
	DB	0dbH
CONST	ENDS
;	COMDAT _IID_ID3D11Linker
CONST	SEGMENT
_IID_ID3D11Linker DD 059a6cd0eH
	DW	0e10dH
	DW	04c1fH
	DB	088H
	DB	0c0H
	DB	063H
	DB	0abH
	DB	0a1H
	DB	0daH
	DB	0f3H
	DB	0eH
CONST	ENDS
;	COMDAT _IID_ID3DX11EffectRenderTargetViewVariable
CONST	SEGMENT
_IID_ID3DX11EffectRenderTargetViewVariable DD 0d5066909H
	DW	0f40cH
	DW	043f8H
	DB	09dH
	DB	0b5H
	DB	05H
	DB	07cH
	DB	02aH
	DB	020H
	DB	085H
	DB	052H
CONST	ENDS
;	COMDAT _IID_ID3D11ModuleInstance
CONST	SEGMENT
_IID_ID3D11ModuleInstance DD 0469e07f7H
	DW	045aH
	DW	048d5H
	DB	0aaH
	DB	012H
	DB	068H
	DB	0a4H
	DB	078H
	DB	0cdH
	DB	0f7H
	DB	05dH
CONST	ENDS
;	COMDAT _IID_ID3D11Module
CONST	SEGMENT
_IID_ID3D11Module DD 0cac701eeH
	DW	080fcH
	DW	04122H
	DB	082H
	DB	042H
	DB	010H
	DB	0b3H
	DB	09cH
	DB	08cH
	DB	0ecH
	DB	034H
CONST	ENDS
;	COMDAT _IID_ID3D11FunctionParameterReflection
CONST	SEGMENT
_IID_ID3D11FunctionParameterReflection DD 042757488H
	DW	0334fH
	DW	047feH
	DB	098H
	DB	02eH
	DB	01aH
	DB	065H
	DB	0d0H
	DB	08cH
	DB	0c4H
	DB	062H
CONST	ENDS
;	COMDAT _IID_ID3D11FunctionReflection
CONST	SEGMENT
_IID_ID3D11FunctionReflection DD 0207bcecbH
	DW	0d683H
	DW	04a06H
	DB	0a8H
	DB	0a3H
	DB	09bH
	DB	014H
	DB	09bH
	DB	09fH
	DB	073H
	DB	0a4H
CONST	ENDS
;	COMDAT _IID_ID3DX11EffectUnorderedAccessViewVariable
CONST	SEGMENT
_IID_ID3DX11EffectUnorderedAccessViewVariable DD 079b4ac8cH
	DW	0870aH
	DW	047d2H
	DB	0b0H
	DB	05aH
	DB	08bH
	DB	0d5H
	DB	0ccH
	DB	03eH
	DB	0e6H
	DB	0c9H
CONST	ENDS
;	COMDAT _IID_ID3D11LibraryReflection
CONST	SEGMENT
_IID_ID3D11LibraryReflection DD 054384f1bH
	DW	05b3eH
	DW	04bb7H
	DB	0aeH
	DB	01H
	DB	060H
	DB	0baH
	DB	030H
	DB	097H
	DB	0cbH
	DB	0b6H
CONST	ENDS
;	COMDAT _IID_ID3D11ShaderReflection
CONST	SEGMENT
_IID_ID3D11ShaderReflection DD 08d536ca1H
	DW	0ccaH
	DW	04956H
	DB	0a8H
	DB	037H
	DB	078H
	DB	069H
	DB	063H
	DB	075H
	DB	055H
	DB	084H
CONST	ENDS
;	COMDAT _IID_ID3DX11EffectShaderResourceVariable
CONST	SEGMENT
_IID_ID3DX11EffectShaderResourceVariable DD 0350db233H
	DW	0bbe0H
	DW	0485cH
	DB	09bH
	DB	0feH
	DB	0c0H
	DB	02H
	DB	06bH
	DB	084H
	DB	04fH
	DB	089H
CONST	ENDS
;	COMDAT _IID_ID3D11ShaderReflectionConstantBuffer
CONST	SEGMENT
_IID_ID3D11ShaderReflectionConstantBuffer DD 0eb62d63dH
	DW	093ddH
	DW	04318H
	DB	08aH
	DB	0e8H
	DB	0c6H
	DB	0f8H
	DB	03aH
	DB	0d3H
	DB	071H
	DB	0b8H
CONST	ENDS
;	COMDAT _IID_ID3D11ShaderReflectionVariable
CONST	SEGMENT
_IID_ID3D11ShaderReflectionVariable DD 051f23923H
	DW	0f3e5H
	DW	04bd1H
	DB	091H
	DB	0cbH
	DB	060H
	DB	061H
	DB	077H
	DB	0d8H
	DB	0dbH
	DB	04cH
CONST	ENDS
;	COMDAT _IID_ID3DX11Effect
CONST	SEGMENT
_IID_ID3DX11Effect DD 0fa61ca24H
	DW	0e4baH
	DW	04262H
	DB	09dH
	DB	0b8H
	DB	0b1H
	DB	032H
	DB	0e8H
	DB	0caH
	DB	0e3H
	DB	019H
CONST	ENDS
;	COMDAT _IID_ID3D11ShaderReflectionType
CONST	SEGMENT
_IID_ID3D11ShaderReflectionType DD 06e6ffa6aH
	DW	09baeH
	DW	04613H
	DB	0a5H
	DB	01eH
	DB	091H
	DB	065H
	DB	02dH
	DB	050H
	DB	08cH
	DB	021H
CONST	ENDS
;	COMDAT _IID_ID3DX11EffectGroup
CONST	SEGMENT
_IID_ID3DX11EffectGroup DD 03074acfH
	DW	097deH
	DW	0485fH
	DB	0b2H
	DB	01H
	DB	0cbH
	DB	077H
	DB	052H
	DB	064H
	DB	0afH
	DB	0d6H
CONST	ENDS
;	COMDAT _IID_ID3DX11EffectInterfaceVariable
CONST	SEGMENT
_IID_ID3DX11EffectInterfaceVariable DD 0516c8cd8H
	DW	01c80H
	DW	040a4H
	DB	0b1H
	DB	09bH
	DB	06H
	DB	088H
	DB	079H
	DB	02fH
	DB	011H
	DB	0a5H
CONST	ENDS
;	COMDAT _IID_ID3DX11EffectTechnique
CONST	SEGMENT
_IID_ID3DX11EffectTechnique DD 051198831H
	DW	01f1dH
	DW	04f47H
	DB	0bdH
	DB	076H
	DB	041H
	DB	0cbH
	DB	08H
	DB	035H
	DB	0b1H
	DB	0deH
CONST	ENDS
;	COMDAT _IID_ID3DX11EffectClassInstanceVariable
CONST	SEGMENT
_IID_ID3DX11EffectClassInstanceVariable DD 0926a8053H
	DW	02a39H
	DW	04db4H
	DB	09bH
	DB	0deH
	DB	0cfH
	DB	064H
	DB	09aH
	DB	0deH
	DB	0bdH
	DB	0c1H
CONST	ENDS
;	COMDAT _IID_ID3DX11EffectPass
CONST	SEGMENT
_IID_ID3DX11EffectPass DD 03437cec4H
	DW	04ac1H
	DW	04d87H
	DB	089H
	DB	016H
	DB	0f4H
	DB	0bdH
	DB	05aH
	DB	041H
	DB	038H
	DB	0cH
CONST	ENDS
;	COMDAT _IID_ID3DX11EffectStringVariable
CONST	SEGMENT
_IID_ID3DX11EffectStringVariable DD 0f355c818H
	DW	01beH
	DW	04653H
	DB	0a7H
	DB	0ccH
	DB	060H
	DB	0ffH
	DB	0feH
	DB	0ddH
	DB	0c7H
	DB	06dH
CONST	ENDS
;	COMDAT _IID_ID3DX11EffectSamplerVariable
CONST	SEGMENT
_IID_ID3DX11EffectSamplerVariable DD 0c6402e55H
	DW	01095H
	DW	04d95H
	DB	089H
	DB	031H
	DB	0f9H
	DB	026H
	DB	060H
	DB	051H
	DB	03dH
	DB	0d9H
CONST	ENDS
;	COMDAT ?c_RegisterSize@SType@D3DX11Effects@@2IB
CONST	SEGMENT
?c_RegisterSize@SType@D3DX11Effects@@2IB DD 010H	; D3DX11Effects::SType::c_RegisterSize
CONST	ENDS
;	COMDAT ?c_ScalarsPerRegister@SType@D3DX11Effects@@2IB
CONST	SEGMENT
?c_ScalarsPerRegister@SType@D3DX11Effects@@2IB DD 04H	; D3DX11Effects::SType::c_ScalarsPerRegister
CONST	ENDS
;	COMDAT ?c_ScalarSize@SType@D3DX11Effects@@2IB
CONST	SEGMENT
?c_ScalarSize@SType@D3DX11Effects@@2IB DD 04H		; D3DX11Effects::SType::c_ScalarSize
CONST	ENDS
;	COMDAT ?c_InvalidIndex@SType@D3DX11Effects@@2IB
CONST	SEGMENT
?c_InvalidIndex@SType@D3DX11Effects@@2IB DD 0ffffffffH	; D3DX11Effects::SType::c_InvalidIndex
CONST	ENDS
;	COMDAT _IID_ID3DX11EffectMatrixVariable
CONST	SEGMENT
_IID_ID3DX11EffectMatrixVariable DD 0e1096cf4H
	DW	0c027H
	DW	0419aH
	DB	08dH
	DB	086H
	DB	0d2H
	DB	091H
	DB	073H
	DB	0dcH
	DB	080H
	DB	03eH
CONST	ENDS
;	COMDAT _IID_ID3DX11EffectRasterizerVariable
CONST	SEGMENT
_IID_ID3DX11EffectRasterizerVariable DD 053a262f6H
	DW	05f74H
	DW	04151H
	DB	0a1H
	DB	032H
	DB	0e3H
	DB	0ddH
	DB	019H
	DB	0a6H
	DB	02cH
	DB	09dH
CONST	ENDS
;	COMDAT _IID_ID3DX11EffectVectorVariable
CONST	SEGMENT
_IID_ID3DX11EffectVectorVariable DD 05e785d4aH
	DW	0d87bH
	DW	048d8H
	DB	0b6H
	DB	0e6H
	DB	0fH
	DB	08cH
	DB	0a7H
	DB	0e7H
	DB	046H
	DB	07aH
CONST	ENDS
;	COMDAT _IID_ID3DX11EffectDepthStencilVariable
CONST	SEGMENT
_IID_ID3DX11EffectDepthStencilVariable DD 069b5751bH
	DW	061a5H
	DW	048e5H
	DB	0bdH
	DB	041H
	DB	0d9H
	DB	039H
	DB	088H
	DB	011H
	DB	015H
	DB	063H
CONST	ENDS
;	COMDAT _IID_ID3DX11EffectBlendVariable
CONST	SEGMENT
_IID_ID3DX11EffectBlendVariable DD 0d664f4d7H
	DW	03b81H
	DW	04805H
	DB	0b2H
	DB	077H
	DB	0c1H
	DB	0dfH
	DB	058H
	DB	0c3H
	DB	09fH
	DB	053H
CONST	ENDS
PUBLIC	?strchr@@YAPADPADH@Z				; strchr
PUBLIC	??0ID3DX11EffectType@@QAE@XZ			; ID3DX11EffectType::ID3DX11EffectType
PUBLIC	??0ID3DX11EffectVariable@@QAE@XZ		; ID3DX11EffectVariable::ID3DX11EffectVariable
PUBLIC	??0ID3DX11EffectScalarVariable@@QAE@XZ		; ID3DX11EffectScalarVariable::ID3DX11EffectScalarVariable
PUBLIC	??0ID3DX11EffectVectorVariable@@QAE@XZ		; ID3DX11EffectVectorVariable::ID3DX11EffectVectorVariable
PUBLIC	??0ID3DX11EffectMatrixVariable@@QAE@XZ		; ID3DX11EffectMatrixVariable::ID3DX11EffectMatrixVariable
PUBLIC	??0ID3DX11EffectStringVariable@@QAE@XZ		; ID3DX11EffectStringVariable::ID3DX11EffectStringVariable
PUBLIC	??0ID3DX11EffectClassInstanceVariable@@QAE@XZ	; ID3DX11EffectClassInstanceVariable::ID3DX11EffectClassInstanceVariable
PUBLIC	??0ID3DX11EffectInterfaceVariable@@QAE@XZ	; ID3DX11EffectInterfaceVariable::ID3DX11EffectInterfaceVariable
PUBLIC	??0ID3DX11EffectShaderResourceVariable@@QAE@XZ	; ID3DX11EffectShaderResourceVariable::ID3DX11EffectShaderResourceVariable
PUBLIC	??0ID3DX11EffectUnorderedAccessViewVariable@@QAE@XZ ; ID3DX11EffectUnorderedAccessViewVariable::ID3DX11EffectUnorderedAccessViewVariable
PUBLIC	??0ID3DX11EffectRenderTargetViewVariable@@QAE@XZ ; ID3DX11EffectRenderTargetViewVariable::ID3DX11EffectRenderTargetViewVariable
PUBLIC	??0ID3DX11EffectDepthStencilViewVariable@@QAE@XZ ; ID3DX11EffectDepthStencilViewVariable::ID3DX11EffectDepthStencilViewVariable
PUBLIC	??0ID3DX11EffectConstantBuffer@@QAE@XZ		; ID3DX11EffectConstantBuffer::ID3DX11EffectConstantBuffer
PUBLIC	??0ID3DX11EffectShaderVariable@@QAE@XZ		; ID3DX11EffectShaderVariable::ID3DX11EffectShaderVariable
PUBLIC	??0ID3DX11EffectBlendVariable@@QAE@XZ		; ID3DX11EffectBlendVariable::ID3DX11EffectBlendVariable
PUBLIC	??0ID3DX11EffectDepthStencilVariable@@QAE@XZ	; ID3DX11EffectDepthStencilVariable::ID3DX11EffectDepthStencilVariable
PUBLIC	??0ID3DX11EffectRasterizerVariable@@QAE@XZ	; ID3DX11EffectRasterizerVariable::ID3DX11EffectRasterizerVariable
PUBLIC	??0ID3DX11EffectSamplerVariable@@QAE@XZ		; ID3DX11EffectSamplerVariable::ID3DX11EffectSamplerVariable
PUBLIC	??0ID3DX11EffectPass@@QAE@XZ			; ID3DX11EffectPass::ID3DX11EffectPass
PUBLIC	??0ID3DX11EffectTechnique@@QAE@XZ		; ID3DX11EffectTechnique::ID3DX11EffectTechnique
PUBLIC	??0ID3DX11EffectGroup@@QAE@XZ			; ID3DX11EffectGroup::ID3DX11EffectGroup
PUBLIC	?StringCchCopyA@@YGJPADIPBD@Z			; StringCchCopyA
PUBLIC	?AlignToPowerOf2@@YAIII@Z			; AlignToPowerOf2
PUBLIC	?IsObjectTypeHelper@D3DX11Effects@@YAHW4EVarType@1@W4EObjectType@1@1@Z ; D3DX11Effects::IsObjectTypeHelper
PUBLIC	?IsShaderHelper@D3DX11Effects@@YAHW4EVarType@1@W4EObjectType@1@@Z ; D3DX11Effects::IsShaderHelper
PUBLIC	?IsObjectType@SType@D3DX11Effects@@QBEHW4EObjectType@2@@Z ; D3DX11Effects::SType::IsObjectType
PUBLIC	?IsShader@SType@D3DX11Effects@@QBEHXZ		; D3DX11Effects::SType::IsShader
PUBLIC	?GetDescHelper@SType@D3DX11Effects@@QBEJPAU_D3DX11_EFFECT_TYPE_DESC@@H@Z ; D3DX11Effects::SType::GetDescHelper
PUBLIC	?GetMemberTypeByIndex@SType@D3DX11Effects@@UAGPAUID3DX11EffectType@@I@Z ; D3DX11Effects::SType::GetMemberTypeByIndex
PUBLIC	?GetMemberTypeByName@SType@D3DX11Effects@@UAGPAUID3DX11EffectType@@PBD@Z ; D3DX11Effects::SType::GetMemberTypeByName
PUBLIC	?GetMemberTypeBySemantic@SType@D3DX11Effects@@UAGPAUID3DX11EffectType@@PBD@Z ; D3DX11Effects::SType::GetMemberTypeBySemantic
PUBLIC	?GetMemberName@SType@D3DX11Effects@@UAGPBDI@Z	; D3DX11Effects::SType::GetMemberName
PUBLIC	?GetMemberSemantic@SType@D3DX11Effects@@UAGPBDI@Z ; D3DX11Effects::SType::GetMemberSemantic
PUBLIC	?IsValid@SSingleElementType@D3DX11Effects@@UAGHXZ ; D3DX11Effects::SSingleElementType::IsValid
PUBLIC	?GetDesc@SSingleElementType@D3DX11Effects@@UAGJPAU_D3DX11_EFFECT_TYPE_DESC@@@Z ; D3DX11Effects::SSingleElementType::GetDesc
PUBLIC	?GetMemberTypeByIndex@SSingleElementType@D3DX11Effects@@UAGPAUID3DX11EffectType@@I@Z ; D3DX11Effects::SSingleElementType::GetMemberTypeByIndex
PUBLIC	?GetMemberTypeByName@SSingleElementType@D3DX11Effects@@UAGPAUID3DX11EffectType@@PBD@Z ; D3DX11Effects::SSingleElementType::GetMemberTypeByName
PUBLIC	?GetMemberTypeBySemantic@SSingleElementType@D3DX11Effects@@UAGPAUID3DX11EffectType@@PBD@Z ; D3DX11Effects::SSingleElementType::GetMemberTypeBySemantic
PUBLIC	?GetMemberName@SSingleElementType@D3DX11Effects@@UAGPBDI@Z ; D3DX11Effects::SSingleElementType::GetMemberName
PUBLIC	?GetMemberSemantic@SSingleElementType@D3DX11Effects@@UAGPBDI@Z ; D3DX11Effects::SSingleElementType::GetMemberSemantic
PUBLIC	??0SSingleElementType@D3DX11Effects@@QAE@XZ	; D3DX11Effects::SSingleElementType::SSingleElementType
PUBLIC	?IsValid@STechnique@D3DX11Effects@@UAGHXZ	; D3DX11Effects::STechnique::IsValid
PUBLIC	?GetDesc@STechnique@D3DX11Effects@@UAGJPAU_D3DX11_TECHNIQUE_DESC@@@Z ; D3DX11Effects::STechnique::GetDesc
PUBLIC	?GetAnnotationByIndex@STechnique@D3DX11Effects@@UAGPAUID3DX11EffectVariable@@I@Z ; D3DX11Effects::STechnique::GetAnnotationByIndex
PUBLIC	?GetAnnotationByName@STechnique@D3DX11Effects@@UAGPAUID3DX11EffectVariable@@PBD@Z ; D3DX11Effects::STechnique::GetAnnotationByName
PUBLIC	?GetPassByIndex@STechnique@D3DX11Effects@@UAGPAUID3DX11EffectPass@@I@Z ; D3DX11Effects::STechnique::GetPassByIndex
PUBLIC	?GetPassByName@STechnique@D3DX11Effects@@UAGPAUID3DX11EffectPass@@PBD@Z ; D3DX11Effects::STechnique::GetPassByName
PUBLIC	?ComputeStateBlockMask@STechnique@D3DX11Effects@@UAGJPAU_D3DX11_STATE_BLOCK_MASK@@@Z ; D3DX11Effects::STechnique::ComputeStateBlockMask
PUBLIC	?IsValid@SGroup@D3DX11Effects@@UAGHXZ		; D3DX11Effects::SGroup::IsValid
PUBLIC	?GetDesc@SGroup@D3DX11Effects@@UAGJPAU_D3DX11_GROUP_DESC@@@Z ; D3DX11Effects::SGroup::GetDesc
PUBLIC	?GetAnnotationByIndex@SGroup@D3DX11Effects@@UAGPAUID3DX11EffectVariable@@I@Z ; D3DX11Effects::SGroup::GetAnnotationByIndex
PUBLIC	?GetAnnotationByName@SGroup@D3DX11Effects@@UAGPAUID3DX11EffectVariable@@PBD@Z ; D3DX11Effects::SGroup::GetAnnotationByName
PUBLIC	?GetTechniqueByIndex@SGroup@D3DX11Effects@@UAGPAUID3DX11EffectTechnique@@I@Z ; D3DX11Effects::SGroup::GetTechniqueByIndex
PUBLIC	?GetTechniqueByName@SGroup@D3DX11Effects@@UAGPAUID3DX11EffectTechnique@@PBD@Z ; D3DX11Effects::SGroup::GetTechniqueByName
PUBLIC	?IsValid@SPassBlock@D3DX11Effects@@UAGHXZ	; D3DX11Effects::SPassBlock::IsValid
PUBLIC	?GetDesc@SPassBlock@D3DX11Effects@@UAGJPAU_D3DX11_PASS_DESC@@@Z ; D3DX11Effects::SPassBlock::GetDesc
PUBLIC	?GetVertexShaderDesc@SPassBlock@D3DX11Effects@@UAGJPAU_D3DX11_PASS_SHADER_DESC@@@Z ; D3DX11Effects::SPassBlock::GetVertexShaderDesc
PUBLIC	?GetGeometryShaderDesc@SPassBlock@D3DX11Effects@@UAGJPAU_D3DX11_PASS_SHADER_DESC@@@Z ; D3DX11Effects::SPassBlock::GetGeometryShaderDesc
PUBLIC	?GetPixelShaderDesc@SPassBlock@D3DX11Effects@@UAGJPAU_D3DX11_PASS_SHADER_DESC@@@Z ; D3DX11Effects::SPassBlock::GetPixelShaderDesc
PUBLIC	?GetHullShaderDesc@SPassBlock@D3DX11Effects@@UAGJPAU_D3DX11_PASS_SHADER_DESC@@@Z ; D3DX11Effects::SPassBlock::GetHullShaderDesc
PUBLIC	?GetDomainShaderDesc@SPassBlock@D3DX11Effects@@UAGJPAU_D3DX11_PASS_SHADER_DESC@@@Z ; D3DX11Effects::SPassBlock::GetDomainShaderDesc
PUBLIC	?GetComputeShaderDesc@SPassBlock@D3DX11Effects@@UAGJPAU_D3DX11_PASS_SHADER_DESC@@@Z ; D3DX11Effects::SPassBlock::GetComputeShaderDesc
PUBLIC	?GetAnnotationByIndex@SPassBlock@D3DX11Effects@@UAGPAUID3DX11EffectVariable@@I@Z ; D3DX11Effects::SPassBlock::GetAnnotationByIndex
PUBLIC	?GetAnnotationByName@SPassBlock@D3DX11Effects@@UAGPAUID3DX11EffectVariable@@PBD@Z ; D3DX11Effects::SPassBlock::GetAnnotationByName
PUBLIC	?Apply@SPassBlock@D3DX11Effects@@UAGJIPAUID3D11DeviceContext@@@Z ; D3DX11Effects::SPassBlock::Apply
PUBLIC	?ComputeStateBlockMask@SPassBlock@D3DX11Effects@@UAGJPAU_D3DX11_STATE_BLOCK_MASK@@@Z ; D3DX11Effects::SPassBlock::ComputeStateBlockMask
PUBLIC	?IsValid@SEffectInvalidType@D3DX11Effects@@UAGHXZ ; D3DX11Effects::SEffectInvalidType::IsValid
PUBLIC	?GetDesc@SEffectInvalidType@D3DX11Effects@@UAGJPAU_D3DX11_EFFECT_TYPE_DESC@@@Z ; D3DX11Effects::SEffectInvalidType::GetDesc
PUBLIC	?GetMemberTypeByIndex@SEffectInvalidType@D3DX11Effects@@UAGPAUID3DX11EffectType@@I@Z ; D3DX11Effects::SEffectInvalidType::GetMemberTypeByIndex
PUBLIC	?GetMemberTypeByName@SEffectInvalidType@D3DX11Effects@@UAGPAUID3DX11EffectType@@PBD@Z ; D3DX11Effects::SEffectInvalidType::GetMemberTypeByName
PUBLIC	?GetMemberTypeBySemantic@SEffectInvalidType@D3DX11Effects@@UAGPAUID3DX11EffectType@@PBD@Z ; D3DX11Effects::SEffectInvalidType::GetMemberTypeBySemantic
PUBLIC	?GetMemberName@SEffectInvalidType@D3DX11Effects@@UAGPBDI@Z ; D3DX11Effects::SEffectInvalidType::GetMemberName
PUBLIC	?GetMemberSemantic@SEffectInvalidType@D3DX11Effects@@UAGPBDI@Z ; D3DX11Effects::SEffectInvalidType::GetMemberSemantic
PUBLIC	??0SEffectInvalidType@D3DX11Effects@@QAE@XZ	; D3DX11Effects::SEffectInvalidType::SEffectInvalidType
PUBLIC	?IsValid@?$TEffectInvalidVariable@UID3DX11EffectScalarVariable@@@D3DX11Effects@@UAGHXZ ; D3DX11Effects::TEffectInvalidVariable<ID3DX11EffectScalarVariable>::IsValid
PUBLIC	?GetType@?$TEffectInvalidVariable@UID3DX11EffectScalarVariable@@@D3DX11Effects@@UAGPAUID3DX11EffectType@@XZ ; D3DX11Effects::TEffectInvalidVariable<ID3DX11EffectScalarVariable>::GetType
PUBLIC	?GetDesc@?$TEffectInvalidVariable@UID3DX11EffectScalarVariable@@@D3DX11Effects@@UAGJPAU_D3DX11_EFFECT_VARIABLE_DESC@@@Z ; D3DX11Effects::TEffectInvalidVariable<ID3DX11EffectScalarVariable>::GetDesc
PUBLIC	?GetAnnotationByIndex@?$TEffectInvalidVariable@UID3DX11EffectScalarVariable@@@D3DX11Effects@@UAGPAUID3DX11EffectVariable@@I@Z ; D3DX11Effects::TEffectInvalidVariable<ID3DX11EffectScalarVariable>::GetAnnotationByIndex
PUBLIC	?GetAnnotationByName@?$TEffectInvalidVariable@UID3DX11EffectScalarVariable@@@D3DX11Effects@@UAGPAUID3DX11EffectVariable@@PBD@Z ; D3DX11Effects::TEffectInvalidVariable<ID3DX11EffectScalarVariable>::GetAnnotationByName
PUBLIC	?GetMemberByIndex@?$TEffectInvalidVariable@UID3DX11EffectScalarVariable@@@D3DX11Effects@@UAGPAUID3DX11EffectVariable@@I@Z ; D3DX11Effects::TEffectInvalidVariable<ID3DX11EffectScalarVariable>::GetMemberByIndex
PUBLIC	?GetMemberByName@?$TEffectInvalidVariable@UID3DX11EffectScalarVariable@@@D3DX11Effects@@UAGPAUID3DX11EffectVariable@@PBD@Z ; D3DX11Effects::TEffectInvalidVariable<ID3DX11EffectScalarVariable>::GetMemberByName
PUBLIC	?GetMemberBySemantic@?$TEffectInvalidVariable@UID3DX11EffectScalarVariable@@@D3DX11Effects@@UAGPAUID3DX11EffectVariable@@PBD@Z ; D3DX11Effects::TEffectInvalidVariable<ID3DX11EffectScalarVariable>::GetMemberBySemantic
PUBLIC	?GetElement@?$TEffectInvalidVariable@UID3DX11EffectScalarVariable@@@D3DX11Effects@@UAGPAUID3DX11EffectVariable@@I@Z ; D3DX11Effects::TEffectInvalidVariable<ID3DX11EffectScalarVariable>::GetElement
PUBLIC	?GetParentConstantBuffer@?$TEffectInvalidVariable@UID3DX11EffectScalarVariable@@@D3DX11Effects@@UAGPAUID3DX11EffectConstantBuffer@@XZ ; D3DX11Effects::TEffectInvalidVariable<ID3DX11EffectScalarVariable>::GetParentConstantBuffer
PUBLIC	?AsScalar@?$TEffectInvalidVariable@UID3DX11EffectScalarVariable@@@D3DX11Effects@@UAGPAUID3DX11EffectScalarVariable@@XZ ; D3DX11Effects::TEffectInvalidVariable<ID3DX11EffectScalarVariable>::AsScalar
PUBLIC	?AsVector@?$TEffectInvalidVariable@UID3DX11EffectScalarVariable@@@D3DX11Effects@@UAGPAUID3DX11EffectVectorVariable@@XZ ; D3DX11Effects::TEffectInvalidVariable<ID3DX11EffectScalarVariable>::AsVector
PUBLIC	?AsMatrix@?$TEffectInvalidVariable@UID3DX11EffectScalarVariable@@@D3DX11Effects@@UAGPAUID3DX11EffectMatrixVariable@@XZ ; D3DX11Effects::TEffectInvalidVariable<ID3DX11EffectScalarVariable>::AsMatrix
PUBLIC	?AsString@?$TEffectInvalidVariable@UID3DX11EffectScalarVariable@@@D3DX11Effects@@UAGPAUID3DX11EffectStringVariable@@XZ ; D3DX11Effects::TEffectInvalidVariable<ID3DX11EffectScalarVariable>::AsString
PUBLIC	?AsClassInstance@?$TEffectInvalidVariable@UID3DX11EffectScalarVariable@@@D3DX11Effects@@UAGPAUID3DX11EffectClassInstanceVariable@@XZ ; D3DX11Effects::TEffectInvalidVariable<ID3DX11EffectScalarVariable>::AsClassInstance
PUBLIC	?AsInterface@?$TEffectInvalidVariable@UID3DX11EffectScalarVariable@@@D3DX11Effects@@UAGPAUID3DX11EffectInterfaceVariable@@XZ ; D3DX11Effects::TEffectInvalidVariable<ID3DX11EffectScalarVariable>::AsInterface
PUBLIC	?AsShaderResource@?$TEffectInvalidVariable@UID3DX11EffectScalarVariable@@@D3DX11Effects@@UAGPAUID3DX11EffectShaderResourceVariable@@XZ ; D3DX11Effects::TEffectInvalidVariable<ID3DX11EffectScalarVariable>::AsShaderResource
PUBLIC	?AsUnorderedAccessView@?$TEffectInvalidVariable@UID3DX11EffectScalarVariable@@@D3DX11Effects@@UAGPAUID3DX11EffectUnorderedAccessViewVariable@@XZ ; D3DX11Effects::TEffectInvalidVariable<ID3DX11EffectScalarVariable>::AsUnorderedAccessView
PUBLIC	?AsRenderTargetView@?$TEffectInvalidVariable@UID3DX11EffectScalarVariable@@@D3DX11Effects@@UAGPAUID3DX11EffectRenderTargetViewVariable@@XZ ; D3DX11Effects::TEffectInvalidVariable<ID3DX11EffectScalarVariable>::AsRenderTargetView
PUBLIC	?AsDepthStencilView@?$TEffectInvalidVariable@UID3DX11EffectScalarVariable@@@D3DX11Effects@@UAGPAUID3DX11EffectDepthStencilViewVariable@@XZ ; D3DX11Effects::TEffectInvalidVariable<ID3DX11EffectScalarVariable>::AsDepthStencilView
PUBLIC	?AsConstantBuffer@?$TEffectInvalidVariable@UID3DX11EffectScalarVariable@@@D3DX11Effects@@UAGPAUID3DX11EffectConstantBuffer@@XZ ; D3DX11Effects::TEffectInvalidVariable<ID3DX11EffectScalarVariable>::AsConstantBuffer
PUBLIC	?AsShader@?$TEffectInvalidVariable@UID3DX11EffectScalarVariable@@@D3DX11Effects@@UAGPAUID3DX11EffectShaderVariable@@XZ ; D3DX11Effects::TEffectInvalidVariable<ID3DX11EffectScalarVariable>::AsShader
PUBLIC	?AsBlend@?$TEffectInvalidVariable@UID3DX11EffectScalarVariable@@@D3DX11Effects@@UAGPAUID3DX11EffectBlendVariable@@XZ ; D3DX11Effects::TEffectInvalidVariable<ID3DX11EffectScalarVariable>::AsBlend
PUBLIC	?AsDepthStencil@?$TEffectInvalidVariable@UID3DX11EffectScalarVariable@@@D3DX11Effects@@UAGPAUID3DX11EffectDepthStencilVariable@@XZ ; D3DX11Effects::TEffectInvalidVariable<ID3DX11EffectScalarVariable>::AsDepthStencil
PUBLIC	?AsRasterizer@?$TEffectInvalidVariable@UID3DX11EffectScalarVariable@@@D3DX11Effects@@UAGPAUID3DX11EffectRasterizerVariable@@XZ ; D3DX11Effects::TEffectInvalidVariable<ID3DX11EffectScalarVariable>::AsRasterizer
PUBLIC	?AsSampler@?$TEffectInvalidVariable@UID3DX11EffectScalarVariable@@@D3DX11Effects@@UAGPAUID3DX11EffectSamplerVariable@@XZ ; D3DX11Effects::TEffectInvalidVariable<ID3DX11EffectScalarVariable>::AsSampler
PUBLIC	?SetRawValue@?$TEffectInvalidVariable@UID3DX11EffectScalarVariable@@@D3DX11Effects@@UAGJPBXII@Z ; D3DX11Effects::TEffectInvalidVariable<ID3DX11EffectScalarVariable>::SetRawValue
PUBLIC	?GetRawValue@?$TEffectInvalidVariable@UID3DX11EffectScalarVariable@@@D3DX11Effects@@UAGJPAXII@Z ; D3DX11Effects::TEffectInvalidVariable<ID3DX11EffectScalarVariable>::GetRawValue
PUBLIC	??0?$TEffectInvalidVariable@UID3DX11EffectScalarVariable@@@D3DX11Effects@@QAE@XZ ; D3DX11Effects::TEffectInvalidVariable<ID3DX11EffectScalarVariable>::TEffectInvalidVariable<ID3DX11EffectScalarVariable>
PUBLIC	?SetFloat@SEffectInvalidScalarVariable@D3DX11Effects@@UAGJM@Z ; D3DX11Effects::SEffectInvalidScalarVariable::SetFloat
PUBLIC	?GetFloat@SEffectInvalidScalarVariable@D3DX11Effects@@UAGJPAM@Z ; D3DX11Effects::SEffectInvalidScalarVariable::GetFloat
PUBLIC	?SetFloatArray@SEffectInvalidScalarVariable@D3DX11Effects@@UAGJPBMII@Z ; D3DX11Effects::SEffectInvalidScalarVariable::SetFloatArray
PUBLIC	?GetFloatArray@SEffectInvalidScalarVariable@D3DX11Effects@@UAGJPAMII@Z ; D3DX11Effects::SEffectInvalidScalarVariable::GetFloatArray
PUBLIC	?SetInt@SEffectInvalidScalarVariable@D3DX11Effects@@UAGJH@Z ; D3DX11Effects::SEffectInvalidScalarVariable::SetInt
PUBLIC	?GetInt@SEffectInvalidScalarVariable@D3DX11Effects@@UAGJPAH@Z ; D3DX11Effects::SEffectInvalidScalarVariable::GetInt
PUBLIC	?SetIntArray@SEffectInvalidScalarVariable@D3DX11Effects@@UAGJPBHII@Z ; D3DX11Effects::SEffectInvalidScalarVariable::SetIntArray
PUBLIC	?GetIntArray@SEffectInvalidScalarVariable@D3DX11Effects@@UAGJPAHII@Z ; D3DX11Effects::SEffectInvalidScalarVariable::GetIntArray
PUBLIC	?SetBool@SEffectInvalidScalarVariable@D3DX11Effects@@UAGJH@Z ; D3DX11Effects::SEffectInvalidScalarVariable::SetBool
PUBLIC	?GetBool@SEffectInvalidScalarVariable@D3DX11Effects@@UAGJPAH@Z ; D3DX11Effects::SEffectInvalidScalarVariable::GetBool
PUBLIC	?SetBoolArray@SEffectInvalidScalarVariable@D3DX11Effects@@UAGJPBHII@Z ; D3DX11Effects::SEffectInvalidScalarVariable::SetBoolArray
PUBLIC	?GetBoolArray@SEffectInvalidScalarVariable@D3DX11Effects@@UAGJPAHII@Z ; D3DX11Effects::SEffectInvalidScalarVariable::GetBoolArray
PUBLIC	??0SEffectInvalidScalarVariable@D3DX11Effects@@QAE@XZ ; D3DX11Effects::SEffectInvalidScalarVariable::SEffectInvalidScalarVariable
PUBLIC	?IsValid@?$TEffectInvalidVariable@UID3DX11EffectVectorVariable@@@D3DX11Effects@@UAGHXZ ; D3DX11Effects::TEffectInvalidVariable<ID3DX11EffectVectorVariable>::IsValid
PUBLIC	?GetType@?$TEffectInvalidVariable@UID3DX11EffectVectorVariable@@@D3DX11Effects@@UAGPAUID3DX11EffectType@@XZ ; D3DX11Effects::TEffectInvalidVariable<ID3DX11EffectVectorVariable>::GetType
PUBLIC	?GetDesc@?$TEffectInvalidVariable@UID3DX11EffectVectorVariable@@@D3DX11Effects@@UAGJPAU_D3DX11_EFFECT_VARIABLE_DESC@@@Z ; D3DX11Effects::TEffectInvalidVariable<ID3DX11EffectVectorVariable>::GetDesc
PUBLIC	?GetAnnotationByIndex@?$TEffectInvalidVariable@UID3DX11EffectVectorVariable@@@D3DX11Effects@@UAGPAUID3DX11EffectVariable@@I@Z ; D3DX11Effects::TEffectInvalidVariable<ID3DX11EffectVectorVariable>::GetAnnotationByIndex
PUBLIC	?GetAnnotationByName@?$TEffectInvalidVariable@UID3DX11EffectVectorVariable@@@D3DX11Effects@@UAGPAUID3DX11EffectVariable@@PBD@Z ; D3DX11Effects::TEffectInvalidVariable<ID3DX11EffectVectorVariable>::GetAnnotationByName
PUBLIC	?GetMemberByIndex@?$TEffectInvalidVariable@UID3DX11EffectVectorVariable@@@D3DX11Effects@@UAGPAUID3DX11EffectVariable@@I@Z ; D3DX11Effects::TEffectInvalidVariable<ID3DX11EffectVectorVariable>::GetMemberByIndex
PUBLIC	?GetMemberByName@?$TEffectInvalidVariable@UID3DX11EffectVectorVariable@@@D3DX11Effects@@UAGPAUID3DX11EffectVariable@@PBD@Z ; D3DX11Effects::TEffectInvalidVariable<ID3DX11EffectVectorVariable>::GetMemberByName
PUBLIC	?GetMemberBySemantic@?$TEffectInvalidVariable@UID3DX11EffectVectorVariable@@@D3DX11Effects@@UAGPAUID3DX11EffectVariable@@PBD@Z ; D3DX11Effects::TEffectInvalidVariable<ID3DX11EffectVectorVariable>::GetMemberBySemantic
PUBLIC	?GetElement@?$TEffectInvalidVariable@UID3DX11EffectVectorVariable@@@D3DX11Effects@@UAGPAUID3DX11EffectVariable@@I@Z ; D3DX11Effects::TEffectInvalidVariable<ID3DX11EffectVectorVariable>::GetElement
PUBLIC	?GetParentConstantBuffer@?$TEffectInvalidVariable@UID3DX11EffectVectorVariable@@@D3DX11Effects@@UAGPAUID3DX11EffectConstantBuffer@@XZ ; D3DX11Effects::TEffectInvalidVariable<ID3DX11EffectVectorVariable>::GetParentConstantBuffer
PUBLIC	?AsScalar@?$TEffectInvalidVariable@UID3DX11EffectVectorVariable@@@D3DX11Effects@@UAGPAUID3DX11EffectScalarVariable@@XZ ; D3DX11Effects::TEffectInvalidVariable<ID3DX11EffectVectorVariable>::AsScalar
PUBLIC	?AsVector@?$TEffectInvalidVariable@UID3DX11EffectVectorVariable@@@D3DX11Effects@@UAGPAUID3DX11EffectVectorVariable@@XZ ; D3DX11Effects::TEffectInvalidVariable<ID3DX11EffectVectorVariable>::AsVector
PUBLIC	?AsMatrix@?$TEffectInvalidVariable@UID3DX11EffectVectorVariable@@@D3DX11Effects@@UAGPAUID3DX11EffectMatrixVariable@@XZ ; D3DX11Effects::TEffectInvalidVariable<ID3DX11EffectVectorVariable>::AsMatrix
PUBLIC	?AsString@?$TEffectInvalidVariable@UID3DX11EffectVectorVariable@@@D3DX11Effects@@UAGPAUID3DX11EffectStringVariable@@XZ ; D3DX11Effects::TEffectInvalidVariable<ID3DX11EffectVectorVariable>::AsString
PUBLIC	?AsClassInstance@?$TEffectInvalidVariable@UID3DX11EffectVectorVariable@@@D3DX11Effects@@UAGPAUID3DX11EffectClassInstanceVariable@@XZ ; D3DX11Effects::TEffectInvalidVariable<ID3DX11EffectVectorVariable>::AsClassInstance
PUBLIC	?AsInterface@?$TEffectInvalidVariable@UID3DX11EffectVectorVariable@@@D3DX11Effects@@UAGPAUID3DX11EffectInterfaceVariable@@XZ ; D3DX11Effects::TEffectInvalidVariable<ID3DX11EffectVectorVariable>::AsInterface
PUBLIC	?AsShaderResource@?$TEffectInvalidVariable@UID3DX11EffectVectorVariable@@@D3DX11Effects@@UAGPAUID3DX11EffectShaderResourceVariable@@XZ ; D3DX11Effects::TEffectInvalidVariable<ID3DX11EffectVectorVariable>::AsShaderResource
PUBLIC	?AsUnorderedAccessView@?$TEffectInvalidVariable@UID3DX11EffectVectorVariable@@@D3DX11Effects@@UAGPAUID3DX11EffectUnorderedAccessViewVariable@@XZ ; D3DX11Effects::TEffectInvalidVariable<ID3DX11EffectVectorVariable>::AsUnorderedAccessView
PUBLIC	?AsRenderTargetView@?$TEffectInvalidVariable@UID3DX11EffectVectorVariable@@@D3DX11Effects@@UAGPAUID3DX11EffectRenderTargetViewVariable@@XZ ; D3DX11Effects::TEffectInvalidVariable<ID3DX11EffectVectorVariable>::AsRenderTargetView
PUBLIC	?AsDepthStencilView@?$TEffectInvalidVariable@UID3DX11EffectVectorVariable@@@D3DX11Effects@@UAGPAUID3DX11EffectDepthStencilViewVariable@@XZ ; D3DX11Effects::TEffectInvalidVariable<ID3DX11EffectVectorVariable>::AsDepthStencilView
PUBLIC	?AsConstantBuffer@?$TEffectInvalidVariable@UID3DX11EffectVectorVariable@@@D3DX11Effects@@UAGPAUID3DX11EffectConstantBuffer@@XZ ; D3DX11Effects::TEffectInvalidVariable<ID3DX11EffectVectorVariable>::AsConstantBuffer
PUBLIC	?AsShader@?$TEffectInvalidVariable@UID3DX11EffectVectorVariable@@@D3DX11Effects@@UAGPAUID3DX11EffectShaderVariable@@XZ ; D3DX11Effects::TEffectInvalidVariable<ID3DX11EffectVectorVariable>::AsShader
PUBLIC	?AsBlend@?$TEffectInvalidVariable@UID3DX11EffectVectorVariable@@@D3DX11Effects@@UAGPAUID3DX11EffectBlendVariable@@XZ ; D3DX11Effects::TEffectInvalidVariable<ID3DX11EffectVectorVariable>::AsBlend
PUBLIC	?AsDepthStencil@?$TEffectInvalidVariable@UID3DX11EffectVectorVariable@@@D3DX11Effects@@UAGPAUID3DX11EffectDepthStencilVariable@@XZ ; D3DX11Effects::TEffectInvalidVariable<ID3DX11EffectVectorVariable>::AsDepthStencil
PUBLIC	?AsRasterizer@?$TEffectInvalidVariable@UID3DX11EffectVectorVariable@@@D3DX11Effects@@UAGPAUID3DX11EffectRasterizerVariable@@XZ ; D3DX11Effects::TEffectInvalidVariable<ID3DX11EffectVectorVariable>::AsRasterizer
PUBLIC	?AsSampler@?$TEffectInvalidVariable@UID3DX11EffectVectorVariable@@@D3DX11Effects@@UAGPAUID3DX11EffectSamplerVariable@@XZ ; D3DX11Effects::TEffectInvalidVariable<ID3DX11EffectVectorVariable>::AsSampler
PUBLIC	?SetRawValue@?$TEffectInvalidVariable@UID3DX11EffectVectorVariable@@@D3DX11Effects@@UAGJPBXII@Z ; D3DX11Effects::TEffectInvalidVariable<ID3DX11EffectVectorVariable>::SetRawValue
PUBLIC	?GetRawValue@?$TEffectInvalidVariable@UID3DX11EffectVectorVariable@@@D3DX11Effects@@UAGJPAXII@Z ; D3DX11Effects::TEffectInvalidVariable<ID3DX11EffectVectorVariable>::GetRawValue
PUBLIC	??0?$TEffectInvalidVariable@UID3DX11EffectVectorVariable@@@D3DX11Effects@@QAE@XZ ; D3DX11Effects::TEffectInvalidVariable<ID3DX11EffectVectorVariable>::TEffectInvalidVariable<ID3DX11EffectVectorVariable>
PUBLIC	?SetFloatVector@SEffectInvalidVectorVariable@D3DX11Effects@@UAGJPBM@Z ; D3DX11Effects::SEffectInvalidVectorVariable::SetFloatVector
PUBLIC	?SetIntVector@SEffectInvalidVectorVariable@D3DX11Effects@@UAGJPBH@Z ; D3DX11Effects::SEffectInvalidVectorVariable::SetIntVector
PUBLIC	?SetBoolVector@SEffectInvalidVectorVariable@D3DX11Effects@@UAGJPBH@Z ; D3DX11Effects::SEffectInvalidVectorVariable::SetBoolVector
PUBLIC	?GetFloatVector@SEffectInvalidVectorVariable@D3DX11Effects@@UAGJPAM@Z ; D3DX11Effects::SEffectInvalidVectorVariable::GetFloatVector
PUBLIC	?GetIntVector@SEffectInvalidVectorVariable@D3DX11Effects@@UAGJPAH@Z ; D3DX11Effects::SEffectInvalidVectorVariable::GetIntVector
PUBLIC	?GetBoolVector@SEffectInvalidVectorVariable@D3DX11Effects@@UAGJPAH@Z ; D3DX11Effects::SEffectInvalidVectorVariable::GetBoolVector
PUBLIC	?SetBoolVectorArray@SEffectInvalidVectorVariable@D3DX11Effects@@UAGJPBHII@Z ; D3DX11Effects::SEffectInvalidVectorVariable::SetBoolVectorArray
PUBLIC	?SetIntVectorArray@SEffectInvalidVectorVariable@D3DX11Effects@@UAGJPBHII@Z ; D3DX11Effects::SEffectInvalidVectorVariable::SetIntVectorArray
PUBLIC	?SetFloatVectorArray@SEffectInvalidVectorVariable@D3DX11Effects@@UAGJPBMII@Z ; D3DX11Effects::SEffectInvalidVectorVariable::SetFloatVectorArray
PUBLIC	?GetBoolVectorArray@SEffectInvalidVectorVariable@D3DX11Effects@@UAGJPAHII@Z ; D3DX11Effects::SEffectInvalidVectorVariable::GetBoolVectorArray
PUBLIC	?GetIntVectorArray@SEffectInvalidVectorVariable@D3DX11Effects@@UAGJPAHII@Z ; D3DX11Effects::SEffectInvalidVectorVariable::GetIntVectorArray
PUBLIC	?GetFloatVectorArray@SEffectInvalidVectorVariable@D3DX11Effects@@UAGJPAMII@Z ; D3DX11Effects::SEffectInvalidVectorVariable::GetFloatVectorArray
PUBLIC	??0SEffectInvalidVectorVariable@D3DX11Effects@@QAE@XZ ; D3DX11Effects::SEffectInvalidVectorVariable::SEffectInvalidVectorVariable
PUBLIC	?IsValid@?$TEffectInvalidVariable@UID3DX11EffectMatrixVariable@@@D3DX11Effects@@UAGHXZ ; D3DX11Effects::TEffectInvalidVariable<ID3DX11EffectMatrixVariable>::IsValid
PUBLIC	?GetType@?$TEffectInvalidVariable@UID3DX11EffectMatrixVariable@@@D3DX11Effects@@UAGPAUID3DX11EffectType@@XZ ; D3DX11Effects::TEffectInvalidVariable<ID3DX11EffectMatrixVariable>::GetType
PUBLIC	?GetDesc@?$TEffectInvalidVariable@UID3DX11EffectMatrixVariable@@@D3DX11Effects@@UAGJPAU_D3DX11_EFFECT_VARIABLE_DESC@@@Z ; D3DX11Effects::TEffectInvalidVariable<ID3DX11EffectMatrixVariable>::GetDesc
PUBLIC	?GetAnnotationByIndex@?$TEffectInvalidVariable@UID3DX11EffectMatrixVariable@@@D3DX11Effects@@UAGPAUID3DX11EffectVariable@@I@Z ; D3DX11Effects::TEffectInvalidVariable<ID3DX11EffectMatrixVariable>::GetAnnotationByIndex
PUBLIC	?GetAnnotationByName@?$TEffectInvalidVariable@UID3DX11EffectMatrixVariable@@@D3DX11Effects@@UAGPAUID3DX11EffectVariable@@PBD@Z ; D3DX11Effects::TEffectInvalidVariable<ID3DX11EffectMatrixVariable>::GetAnnotationByName
PUBLIC	?GetMemberByIndex@?$TEffectInvalidVariable@UID3DX11EffectMatrixVariable@@@D3DX11Effects@@UAGPAUID3DX11EffectVariable@@I@Z ; D3DX11Effects::TEffectInvalidVariable<ID3DX11EffectMatrixVariable>::GetMemberByIndex
PUBLIC	?GetMemberByName@?$TEffectInvalidVariable@UID3DX11EffectMatrixVariable@@@D3DX11Effects@@UAGPAUID3DX11EffectVariable@@PBD@Z ; D3DX11Effects::TEffectInvalidVariable<ID3DX11EffectMatrixVariable>::GetMemberByName
PUBLIC	?GetMemberBySemantic@?$TEffectInvalidVariable@UID3DX11EffectMatrixVariable@@@D3DX11Effects@@UAGPAUID3DX11EffectVariable@@PBD@Z ; D3DX11Effects::TEffectInvalidVariable<ID3DX11EffectMatrixVariable>::GetMemberBySemantic
PUBLIC	?GetElement@?$TEffectInvalidVariable@UID3DX11EffectMatrixVariable@@@D3DX11Effects@@UAGPAUID3DX11EffectVariable@@I@Z ; D3DX11Effects::TEffectInvalidVariable<ID3DX11EffectMatrixVariable>::GetElement
PUBLIC	?GetParentConstantBuffer@?$TEffectInvalidVariable@UID3DX11EffectMatrixVariable@@@D3DX11Effects@@UAGPAUID3DX11EffectConstantBuffer@@XZ ; D3DX11Effects::TEffectInvalidVariable<ID3DX11EffectMatrixVariable>::GetParentConstantBuffer
PUBLIC	?AsScalar@?$TEffectInvalidVariable@UID3DX11EffectMatrixVariable@@@D3DX11Effects@@UAGPAUID3DX11EffectScalarVariable@@XZ ; D3DX11Effects::TEffectInvalidVariable<ID3DX11EffectMatrixVariable>::AsScalar
PUBLIC	?AsVector@?$TEffectInvalidVariable@UID3DX11EffectMatrixVariable@@@D3DX11Effects@@UAGPAUID3DX11EffectVectorVariable@@XZ ; D3DX11Effects::TEffectInvalidVariable<ID3DX11EffectMatrixVariable>::AsVector
PUBLIC	?AsMatrix@?$TEffectInvalidVariable@UID3DX11EffectMatrixVariable@@@D3DX11Effects@@UAGPAUID3DX11EffectMatrixVariable@@XZ ; D3DX11Effects::TEffectInvalidVariable<ID3DX11EffectMatrixVariable>::AsMatrix
PUBLIC	?AsString@?$TEffectInvalidVariable@UID3DX11EffectMatrixVariable@@@D3DX11Effects@@UAGPAUID3DX11EffectStringVariable@@XZ ; D3DX11Effects::TEffectInvalidVariable<ID3DX11EffectMatrixVariable>::AsString
PUBLIC	?AsClassInstance@?$TEffectInvalidVariable@UID3DX11EffectMatrixVariable@@@D3DX11Effects@@UAGPAUID3DX11EffectClassInstanceVariable@@XZ ; D3DX11Effects::TEffectInvalidVariable<ID3DX11EffectMatrixVariable>::AsClassInstance
PUBLIC	?AsInterface@?$TEffectInvalidVariable@UID3DX11EffectMatrixVariable@@@D3DX11Effects@@UAGPAUID3DX11EffectInterfaceVariable@@XZ ; D3DX11Effects::TEffectInvalidVariable<ID3DX11EffectMatrixVariable>::AsInterface
PUBLIC	?AsShaderResource@?$TEffectInvalidVariable@UID3DX11EffectMatrixVariable@@@D3DX11Effects@@UAGPAUID3DX11EffectShaderResourceVariable@@XZ ; D3DX11Effects::TEffectInvalidVariable<ID3DX11EffectMatrixVariable>::AsShaderResource
PUBLIC	?AsUnorderedAccessView@?$TEffectInvalidVariable@UID3DX11EffectMatrixVariable@@@D3DX11Effects@@UAGPAUID3DX11EffectUnorderedAccessViewVariable@@XZ ; D3DX11Effects::TEffectInvalidVariable<ID3DX11EffectMatrixVariable>::AsUnorderedAccessView
PUBLIC	?AsRenderTargetView@?$TEffectInvalidVariable@UID3DX11EffectMatrixVariable@@@D3DX11Effects@@UAGPAUID3DX11EffectRenderTargetViewVariable@@XZ ; D3DX11Effects::TEffectInvalidVariable<ID3DX11EffectMatrixVariable>::AsRenderTargetView
PUBLIC	?AsDepthStencilView@?$TEffectInvalidVariable@UID3DX11EffectMatrixVariable@@@D3DX11Effects@@UAGPAUID3DX11EffectDepthStencilViewVariable@@XZ ; D3DX11Effects::TEffectInvalidVariable<ID3DX11EffectMatrixVariable>::AsDepthStencilView
PUBLIC	?AsConstantBuffer@?$TEffectInvalidVariable@UID3DX11EffectMatrixVariable@@@D3DX11Effects@@UAGPAUID3DX11EffectConstantBuffer@@XZ ; D3DX11Effects::TEffectInvalidVariable<ID3DX11EffectMatrixVariable>::AsConstantBuffer
PUBLIC	?AsShader@?$TEffectInvalidVariable@UID3DX11EffectMatrixVariable@@@D3DX11Effects@@UAGPAUID3DX11EffectShaderVariable@@XZ ; D3DX11Effects::TEffectInvalidVariable<ID3DX11EffectMatrixVariable>::AsShader
PUBLIC	?AsBlend@?$TEffectInvalidVariable@UID3DX11EffectMatrixVariable@@@D3DX11Effects@@UAGPAUID3DX11EffectBlendVariable@@XZ ; D3DX11Effects::TEffectInvalidVariable<ID3DX11EffectMatrixVariable>::AsBlend
PUBLIC	?AsDepthStencil@?$TEffectInvalidVariable@UID3DX11EffectMatrixVariable@@@D3DX11Effects@@UAGPAUID3DX11EffectDepthStencilVariable@@XZ ; D3DX11Effects::TEffectInvalidVariable<ID3DX11EffectMatrixVariable>::AsDepthStencil
PUBLIC	?AsRasterizer@?$TEffectInvalidVariable@UID3DX11EffectMatrixVariable@@@D3DX11Effects@@UAGPAUID3DX11EffectRasterizerVariable@@XZ ; D3DX11Effects::TEffectInvalidVariable<ID3DX11EffectMatrixVariable>::AsRasterizer
PUBLIC	?AsSampler@?$TEffectInvalidVariable@UID3DX11EffectMatrixVariable@@@D3DX11Effects@@UAGPAUID3DX11EffectSamplerVariable@@XZ ; D3DX11Effects::TEffectInvalidVariable<ID3DX11EffectMatrixVariable>::AsSampler
PUBLIC	?SetRawValue@?$TEffectInvalidVariable@UID3DX11EffectMatrixVariable@@@D3DX11Effects@@UAGJPBXII@Z ; D3DX11Effects::TEffectInvalidVariable<ID3DX11EffectMatrixVariable>::SetRawValue
PUBLIC	?GetRawValue@?$TEffectInvalidVariable@UID3DX11EffectMatrixVariable@@@D3DX11Effects@@UAGJPAXII@Z ; D3DX11Effects::TEffectInvalidVariable<ID3DX11EffectMatrixVariable>::GetRawValue
PUBLIC	??0?$TEffectInvalidVariable@UID3DX11EffectMatrixVariable@@@D3DX11Effects@@QAE@XZ ; D3DX11Effects::TEffectInvalidVariable<ID3DX11EffectMatrixVariable>::TEffectInvalidVariable<ID3DX11EffectMatrixVariable>
PUBLIC	?SetMatrix@SEffectInvalidMatrixVariable@D3DX11Effects@@UAGJPBM@Z ; D3DX11Effects::SEffectInvalidMatrixVariable::SetMatrix
PUBLIC	?GetMatrix@SEffectInvalidMatrixVariable@D3DX11Effects@@UAGJPAM@Z ; D3DX11Effects::SEffectInvalidMatrixVariable::GetMatrix
PUBLIC	?SetMatrixArray@SEffectInvalidMatrixVariable@D3DX11Effects@@UAGJPBMII@Z ; D3DX11Effects::SEffectInvalidMatrixVariable::SetMatrixArray
PUBLIC	?GetMatrixArray@SEffectInvalidMatrixVariable@D3DX11Effects@@UAGJPAMII@Z ; D3DX11Effects::SEffectInvalidMatrixVariable::GetMatrixArray
PUBLIC	?SetMatrixPointerArray@SEffectInvalidMatrixVariable@D3DX11Effects@@UAGJPAPBMII@Z ; D3DX11Effects::SEffectInvalidMatrixVariable::SetMatrixPointerArray
PUBLIC	?GetMatrixPointerArray@SEffectInvalidMatrixVariable@D3DX11Effects@@UAGJPAPAMII@Z ; D3DX11Effects::SEffectInvalidMatrixVariable::GetMatrixPointerArray
PUBLIC	?SetMatrixTranspose@SEffectInvalidMatrixVariable@D3DX11Effects@@UAGJPBM@Z ; D3DX11Effects::SEffectInvalidMatrixVariable::SetMatrixTranspose
PUBLIC	?GetMatrixTranspose@SEffectInvalidMatrixVariable@D3DX11Effects@@UAGJPAM@Z ; D3DX11Effects::SEffectInvalidMatrixVariable::GetMatrixTranspose
PUBLIC	?SetMatrixTransposeArray@SEffectInvalidMatrixVariable@D3DX11Effects@@UAGJPBMII@Z ; D3DX11Effects::SEffectInvalidMatrixVariable::SetMatrixTransposeArray
PUBLIC	?GetMatrixTransposeArray@SEffectInvalidMatrixVariable@D3DX11Effects@@UAGJPAMII@Z ; D3DX11Effects::SEffectInvalidMatrixVariable::GetMatrixTransposeArray
PUBLIC	?SetMatrixTransposePointerArray@SEffectInvalidMatrixVariable@D3DX11Effects@@UAGJPAPBMII@Z ; D3DX11Effects::SEffectInvalidMatrixVariable::SetMatrixTransposePointerArray
PUBLIC	?GetMatrixTransposePointerArray@SEffectInvalidMatrixVariable@D3DX11Effects@@UAGJPAPAMII@Z ; D3DX11Effects::SEffectInvalidMatrixVariable::GetMatrixTransposePointerArray
PUBLIC	??0SEffectInvalidMatrixVariable@D3DX11Effects@@QAE@XZ ; D3DX11Effects::SEffectInvalidMatrixVariable::SEffectInvalidMatrixVariable
PUBLIC	?IsValid@?$TEffectInvalidVariable@UID3DX11EffectStringVariable@@@D3DX11Effects@@UAGHXZ ; D3DX11Effects::TEffectInvalidVariable<ID3DX11EffectStringVariable>::IsValid
PUBLIC	?GetType@?$TEffectInvalidVariable@UID3DX11EffectStringVariable@@@D3DX11Effects@@UAGPAUID3DX11EffectType@@XZ ; D3DX11Effects::TEffectInvalidVariable<ID3DX11EffectStringVariable>::GetType
PUBLIC	?GetDesc@?$TEffectInvalidVariable@UID3DX11EffectStringVariable@@@D3DX11Effects@@UAGJPAU_D3DX11_EFFECT_VARIABLE_DESC@@@Z ; D3DX11Effects::TEffectInvalidVariable<ID3DX11EffectStringVariable>::GetDesc
PUBLIC	?GetAnnotationByIndex@?$TEffectInvalidVariable@UID3DX11EffectStringVariable@@@D3DX11Effects@@UAGPAUID3DX11EffectVariable@@I@Z ; D3DX11Effects::TEffectInvalidVariable<ID3DX11EffectStringVariable>::GetAnnotationByIndex
PUBLIC	?GetAnnotationByName@?$TEffectInvalidVariable@UID3DX11EffectStringVariable@@@D3DX11Effects@@UAGPAUID3DX11EffectVariable@@PBD@Z ; D3DX11Effects::TEffectInvalidVariable<ID3DX11EffectStringVariable>::GetAnnotationByName
PUBLIC	?GetMemberByIndex@?$TEffectInvalidVariable@UID3DX11EffectStringVariable@@@D3DX11Effects@@UAGPAUID3DX11EffectVariable@@I@Z ; D3DX11Effects::TEffectInvalidVariable<ID3DX11EffectStringVariable>::GetMemberByIndex
PUBLIC	?GetMemberByName@?$TEffectInvalidVariable@UID3DX11EffectStringVariable@@@D3DX11Effects@@UAGPAUID3DX11EffectVariable@@PBD@Z ; D3DX11Effects::TEffectInvalidVariable<ID3DX11EffectStringVariable>::GetMemberByName
PUBLIC	?GetMemberBySemantic@?$TEffectInvalidVariable@UID3DX11EffectStringVariable@@@D3DX11Effects@@UAGPAUID3DX11EffectVariable@@PBD@Z ; D3DX11Effects::TEffectInvalidVariable<ID3DX11EffectStringVariable>::GetMemberBySemantic
PUBLIC	?GetElement@?$TEffectInvalidVariable@UID3DX11EffectStringVariable@@@D3DX11Effects@@UAGPAUID3DX11EffectVariable@@I@Z ; D3DX11Effects::TEffectInvalidVariable<ID3DX11EffectStringVariable>::GetElement
PUBLIC	?GetParentConstantBuffer@?$TEffectInvalidVariable@UID3DX11EffectStringVariable@@@D3DX11Effects@@UAGPAUID3DX11EffectConstantBuffer@@XZ ; D3DX11Effects::TEffectInvalidVariable<ID3DX11EffectStringVariable>::GetParentConstantBuffer
PUBLIC	?AsScalar@?$TEffectInvalidVariable@UID3DX11EffectStringVariable@@@D3DX11Effects@@UAGPAUID3DX11EffectScalarVariable@@XZ ; D3DX11Effects::TEffectInvalidVariable<ID3DX11EffectStringVariable>::AsScalar
PUBLIC	?AsVector@?$TEffectInvalidVariable@UID3DX11EffectStringVariable@@@D3DX11Effects@@UAGPAUID3DX11EffectVectorVariable@@XZ ; D3DX11Effects::TEffectInvalidVariable<ID3DX11EffectStringVariable>::AsVector
PUBLIC	?AsMatrix@?$TEffectInvalidVariable@UID3DX11EffectStringVariable@@@D3DX11Effects@@UAGPAUID3DX11EffectMatrixVariable@@XZ ; D3DX11Effects::TEffectInvalidVariable<ID3DX11EffectStringVariable>::AsMatrix
PUBLIC	?AsString@?$TEffectInvalidVariable@UID3DX11EffectStringVariable@@@D3DX11Effects@@UAGPAUID3DX11EffectStringVariable@@XZ ; D3DX11Effects::TEffectInvalidVariable<ID3DX11EffectStringVariable>::AsString
PUBLIC	?AsClassInstance@?$TEffectInvalidVariable@UID3DX11EffectStringVariable@@@D3DX11Effects@@UAGPAUID3DX11EffectClassInstanceVariable@@XZ ; D3DX11Effects::TEffectInvalidVariable<ID3DX11EffectStringVariable>::AsClassInstance
PUBLIC	?AsInterface@?$TEffectInvalidVariable@UID3DX11EffectStringVariable@@@D3DX11Effects@@UAGPAUID3DX11EffectInterfaceVariable@@XZ ; D3DX11Effects::TEffectInvalidVariable<ID3DX11EffectStringVariable>::AsInterface
PUBLIC	?AsShaderResource@?$TEffectInvalidVariable@UID3DX11EffectStringVariable@@@D3DX11Effects@@UAGPAUID3DX11EffectShaderResourceVariable@@XZ ; D3DX11Effects::TEffectInvalidVariable<ID3DX11EffectStringVariable>::AsShaderResource
PUBLIC	?AsUnorderedAccessView@?$TEffectInvalidVariable@UID3DX11EffectStringVariable@@@D3DX11Effects@@UAGPAUID3DX11EffectUnorderedAccessViewVariable@@XZ ; D3DX11Effects::TEffectInvalidVariable<ID3DX11EffectStringVariable>::AsUnorderedAccessView
PUBLIC	?AsRenderTargetView@?$TEffectInvalidVariable@UID3DX11EffectStringVariable@@@D3DX11Effects@@UAGPAUID3DX11EffectRenderTargetViewVariable@@XZ ; D3DX11Effects::TEffectInvalidVariable<ID3DX11EffectStringVariable>::AsRenderTargetView
PUBLIC	?AsDepthStencilView@?$TEffectInvalidVariable@UID3DX11EffectStringVariable@@@D3DX11Effects@@UAGPAUID3DX11EffectDepthStencilViewVariable@@XZ ; D3DX11Effects::TEffectInvalidVariable<ID3DX11EffectStringVariable>::AsDepthStencilView
PUBLIC	?AsConstantBuffer@?$TEffectInvalidVariable@UID3DX11EffectStringVariable@@@D3DX11Effects@@UAGPAUID3DX11EffectConstantBuffer@@XZ ; D3DX11Effects::TEffectInvalidVariable<ID3DX11EffectStringVariable>::AsConstantBuffer
PUBLIC	?AsShader@?$TEffectInvalidVariable@UID3DX11EffectStringVariable@@@D3DX11Effects@@UAGPAUID3DX11EffectShaderVariable@@XZ ; D3DX11Effects::TEffectInvalidVariable<ID3DX11EffectStringVariable>::AsShader
PUBLIC	?AsBlend@?$TEffectInvalidVariable@UID3DX11EffectStringVariable@@@D3DX11Effects@@UAGPAUID3DX11EffectBlendVariable@@XZ ; D3DX11Effects::TEffectInvalidVariable<ID3DX11EffectStringVariable>::AsBlend
PUBLIC	?AsDepthStencil@?$TEffectInvalidVariable@UID3DX11EffectStringVariable@@@D3DX11Effects@@UAGPAUID3DX11EffectDepthStencilVariable@@XZ ; D3DX11Effects::TEffectInvalidVariable<ID3DX11EffectStringVariable>::AsDepthStencil
PUBLIC	?AsRasterizer@?$TEffectInvalidVariable@UID3DX11EffectStringVariable@@@D3DX11Effects@@UAGPAUID3DX11EffectRasterizerVariable@@XZ ; D3DX11Effects::TEffectInvalidVariable<ID3DX11EffectStringVariable>::AsRasterizer
PUBLIC	?AsSampler@?$TEffectInvalidVariable@UID3DX11EffectStringVariable@@@D3DX11Effects@@UAGPAUID3DX11EffectSamplerVariable@@XZ ; D3DX11Effects::TEffectInvalidVariable<ID3DX11EffectStringVariable>::AsSampler
PUBLIC	?SetRawValue@?$TEffectInvalidVariable@UID3DX11EffectStringVariable@@@D3DX11Effects@@UAGJPBXII@Z ; D3DX11Effects::TEffectInvalidVariable<ID3DX11EffectStringVariable>::SetRawValue
PUBLIC	?GetRawValue@?$TEffectInvalidVariable@UID3DX11EffectStringVariable@@@D3DX11Effects@@UAGJPAXII@Z ; D3DX11Effects::TEffectInvalidVariable<ID3DX11EffectStringVariable>::GetRawValue
PUBLIC	??0?$TEffectInvalidVariable@UID3DX11EffectStringVariable@@@D3DX11Effects@@QAE@XZ ; D3DX11Effects::TEffectInvalidVariable<ID3DX11EffectStringVariable>::TEffectInvalidVariable<ID3DX11EffectStringVariable>
PUBLIC	?GetString@SEffectInvalidStringVariable@D3DX11Effects@@UAGJPAPBD@Z ; D3DX11Effects::SEffectInvalidStringVariable::GetString
PUBLIC	?GetStringArray@SEffectInvalidStringVariable@D3DX11Effects@@UAGJPAPBDII@Z ; D3DX11Effects::SEffectInvalidStringVariable::GetStringArray
PUBLIC	??0SEffectInvalidStringVariable@D3DX11Effects@@QAE@XZ ; D3DX11Effects::SEffectInvalidStringVariable::SEffectInvalidStringVariable
PUBLIC	?IsValid@?$TEffectInvalidVariable@UID3DX11EffectClassInstanceVariable@@@D3DX11Effects@@UAGHXZ ; D3DX11Effects::TEffectInvalidVariable<ID3DX11EffectClassInstanceVariable>::IsValid
PUBLIC	?GetType@?$TEffectInvalidVariable@UID3DX11EffectClassInstanceVariable@@@D3DX11Effects@@UAGPAUID3DX11EffectType@@XZ ; D3DX11Effects::TEffectInvalidVariable<ID3DX11EffectClassInstanceVariable>::GetType
PUBLIC	?GetDesc@?$TEffectInvalidVariable@UID3DX11EffectClassInstanceVariable@@@D3DX11Effects@@UAGJPAU_D3DX11_EFFECT_VARIABLE_DESC@@@Z ; D3DX11Effects::TEffectInvalidVariable<ID3DX11EffectClassInstanceVariable>::GetDesc
PUBLIC	?GetAnnotationByIndex@?$TEffectInvalidVariable@UID3DX11EffectClassInstanceVariable@@@D3DX11Effects@@UAGPAUID3DX11EffectVariable@@I@Z ; D3DX11Effects::TEffectInvalidVariable<ID3DX11EffectClassInstanceVariable>::GetAnnotationByIndex
PUBLIC	?GetAnnotationByName@?$TEffectInvalidVariable@UID3DX11EffectClassInstanceVariable@@@D3DX11Effects@@UAGPAUID3DX11EffectVariable@@PBD@Z ; D3DX11Effects::TEffectInvalidVariable<ID3DX11EffectClassInstanceVariable>::GetAnnotationByName
PUBLIC	?GetMemberByIndex@?$TEffectInvalidVariable@UID3DX11EffectClassInstanceVariable@@@D3DX11Effects@@UAGPAUID3DX11EffectVariable@@I@Z ; D3DX11Effects::TEffectInvalidVariable<ID3DX11EffectClassInstanceVariable>::GetMemberByIndex
PUBLIC	?GetMemberByName@?$TEffectInvalidVariable@UID3DX11EffectClassInstanceVariable@@@D3DX11Effects@@UAGPAUID3DX11EffectVariable@@PBD@Z ; D3DX11Effects::TEffectInvalidVariable<ID3DX11EffectClassInstanceVariable>::GetMemberByName
PUBLIC	?GetMemberBySemantic@?$TEffectInvalidVariable@UID3DX11EffectClassInstanceVariable@@@D3DX11Effects@@UAGPAUID3DX11EffectVariable@@PBD@Z ; D3DX11Effects::TEffectInvalidVariable<ID3DX11EffectClassInstanceVariable>::GetMemberBySemantic
PUBLIC	?GetElement@?$TEffectInvalidVariable@UID3DX11EffectClassInstanceVariable@@@D3DX11Effects@@UAGPAUID3DX11EffectVariable@@I@Z ; D3DX11Effects::TEffectInvalidVariable<ID3DX11EffectClassInstanceVariable>::GetElement
PUBLIC	?GetParentConstantBuffer@?$TEffectInvalidVariable@UID3DX11EffectClassInstanceVariable@@@D3DX11Effects@@UAGPAUID3DX11EffectConstantBuffer@@XZ ; D3DX11Effects::TEffectInvalidVariable<ID3DX11EffectClassInstanceVariable>::GetParentConstantBuffer
PUBLIC	?AsScalar@?$TEffectInvalidVariable@UID3DX11EffectClassInstanceVariable@@@D3DX11Effects@@UAGPAUID3DX11EffectScalarVariable@@XZ ; D3DX11Effects::TEffectInvalidVariable<ID3DX11EffectClassInstanceVariable>::AsScalar
PUBLIC	?AsVector@?$TEffectInvalidVariable@UID3DX11EffectClassInstanceVariable@@@D3DX11Effects@@UAGPAUID3DX11EffectVectorVariable@@XZ ; D3DX11Effects::TEffectInvalidVariable<ID3DX11EffectClassInstanceVariable>::AsVector
PUBLIC	?AsMatrix@?$TEffectInvalidVariable@UID3DX11EffectClassInstanceVariable@@@D3DX11Effects@@UAGPAUID3DX11EffectMatrixVariable@@XZ ; D3DX11Effects::TEffectInvalidVariable<ID3DX11EffectClassInstanceVariable>::AsMatrix
PUBLIC	?AsString@?$TEffectInvalidVariable@UID3DX11EffectClassInstanceVariable@@@D3DX11Effects@@UAGPAUID3DX11EffectStringVariable@@XZ ; D3DX11Effects::TEffectInvalidVariable<ID3DX11EffectClassInstanceVariable>::AsString
PUBLIC	?AsClassInstance@?$TEffectInvalidVariable@UID3DX11EffectClassInstanceVariable@@@D3DX11Effects@@UAGPAUID3DX11EffectClassInstanceVariable@@XZ ; D3DX11Effects::TEffectInvalidVariable<ID3DX11EffectClassInstanceVariable>::AsClassInstance
PUBLIC	?AsInterface@?$TEffectInvalidVariable@UID3DX11EffectClassInstanceVariable@@@D3DX11Effects@@UAGPAUID3DX11EffectInterfaceVariable@@XZ ; D3DX11Effects::TEffectInvalidVariable<ID3DX11EffectClassInstanceVariable>::AsInterface
PUBLIC	?AsShaderResource@?$TEffectInvalidVariable@UID3DX11EffectClassInstanceVariable@@@D3DX11Effects@@UAGPAUID3DX11EffectShaderResourceVariable@@XZ ; D3DX11Effects::TEffectInvalidVariable<ID3DX11EffectClassInstanceVariable>::AsShaderResource
PUBLIC	?AsUnorderedAccessView@?$TEffectInvalidVariable@UID3DX11EffectClassInstanceVariable@@@D3DX11Effects@@UAGPAUID3DX11EffectUnorderedAccessViewVariable@@XZ ; D3DX11Effects::TEffectInvalidVariable<ID3DX11EffectClassInstanceVariable>::AsUnorderedAccessView
PUBLIC	?AsRenderTargetView@?$TEffectInvalidVariable@UID3DX11EffectClassInstanceVariable@@@D3DX11Effects@@UAGPAUID3DX11EffectRenderTargetViewVariable@@XZ ; D3DX11Effects::TEffectInvalidVariable<ID3DX11EffectClassInstanceVariable>::AsRenderTargetView
PUBLIC	?AsDepthStencilView@?$TEffectInvalidVariable@UID3DX11EffectClassInstanceVariable@@@D3DX11Effects@@UAGPAUID3DX11EffectDepthStencilViewVariable@@XZ ; D3DX11Effects::TEffectInvalidVariable<ID3DX11EffectClassInstanceVariable>::AsDepthStencilView
PUBLIC	?AsConstantBuffer@?$TEffectInvalidVariable@UID3DX11EffectClassInstanceVariable@@@D3DX11Effects@@UAGPAUID3DX11EffectConstantBuffer@@XZ ; D3DX11Effects::TEffectInvalidVariable<ID3DX11EffectClassInstanceVariable>::AsConstantBuffer
PUBLIC	?AsShader@?$TEffectInvalidVariable@UID3DX11EffectClassInstanceVariable@@@D3DX11Effects@@UAGPAUID3DX11EffectShaderVariable@@XZ ; D3DX11Effects::TEffectInvalidVariable<ID3DX11EffectClassInstanceVariable>::AsShader
PUBLIC	?AsBlend@?$TEffectInvalidVariable@UID3DX11EffectClassInstanceVariable@@@D3DX11Effects@@UAGPAUID3DX11EffectBlendVariable@@XZ ; D3DX11Effects::TEffectInvalidVariable<ID3DX11EffectClassInstanceVariable>::AsBlend
PUBLIC	?AsDepthStencil@?$TEffectInvalidVariable@UID3DX11EffectClassInstanceVariable@@@D3DX11Effects@@UAGPAUID3DX11EffectDepthStencilVariable@@XZ ; D3DX11Effects::TEffectInvalidVariable<ID3DX11EffectClassInstanceVariable>::AsDepthStencil
PUBLIC	?AsRasterizer@?$TEffectInvalidVariable@UID3DX11EffectClassInstanceVariable@@@D3DX11Effects@@UAGPAUID3DX11EffectRasterizerVariable@@XZ ; D3DX11Effects::TEffectInvalidVariable<ID3DX11EffectClassInstanceVariable>::AsRasterizer
PUBLIC	?AsSampler@?$TEffectInvalidVariable@UID3DX11EffectClassInstanceVariable@@@D3DX11Effects@@UAGPAUID3DX11EffectSamplerVariable@@XZ ; D3DX11Effects::TEffectInvalidVariable<ID3DX11EffectClassInstanceVariable>::AsSampler
PUBLIC	?SetRawValue@?$TEffectInvalidVariable@UID3DX11EffectClassInstanceVariable@@@D3DX11Effects@@UAGJPBXII@Z ; D3DX11Effects::TEffectInvalidVariable<ID3DX11EffectClassInstanceVariable>::SetRawValue
PUBLIC	?GetRawValue@?$TEffectInvalidVariable@UID3DX11EffectClassInstanceVariable@@@D3DX11Effects@@UAGJPAXII@Z ; D3DX11Effects::TEffectInvalidVariable<ID3DX11EffectClassInstanceVariable>::GetRawValue
PUBLIC	??0?$TEffectInvalidVariable@UID3DX11EffectClassInstanceVariable@@@D3DX11Effects@@QAE@XZ ; D3DX11Effects::TEffectInvalidVariable<ID3DX11EffectClassInstanceVariable>::TEffectInvalidVariable<ID3DX11EffectClassInstanceVariable>
PUBLIC	?GetClassInstance@SEffectInvalidClassInstanceVariable@D3DX11Effects@@UAGJPAPAUID3D11ClassInstance@@@Z ; D3DX11Effects::SEffectInvalidClassInstanceVariable::GetClassInstance
PUBLIC	??0SEffectInvalidClassInstanceVariable@D3DX11Effects@@QAE@XZ ; D3DX11Effects::SEffectInvalidClassInstanceVariable::SEffectInvalidClassInstanceVariable
PUBLIC	?IsValid@?$TEffectInvalidVariable@UID3DX11EffectInterfaceVariable@@@D3DX11Effects@@UAGHXZ ; D3DX11Effects::TEffectInvalidVariable<ID3DX11EffectInterfaceVariable>::IsValid
PUBLIC	?GetType@?$TEffectInvalidVariable@UID3DX11EffectInterfaceVariable@@@D3DX11Effects@@UAGPAUID3DX11EffectType@@XZ ; D3DX11Effects::TEffectInvalidVariable<ID3DX11EffectInterfaceVariable>::GetType
PUBLIC	?GetDesc@?$TEffectInvalidVariable@UID3DX11EffectInterfaceVariable@@@D3DX11Effects@@UAGJPAU_D3DX11_EFFECT_VARIABLE_DESC@@@Z ; D3DX11Effects::TEffectInvalidVariable<ID3DX11EffectInterfaceVariable>::GetDesc
PUBLIC	?GetAnnotationByIndex@?$TEffectInvalidVariable@UID3DX11EffectInterfaceVariable@@@D3DX11Effects@@UAGPAUID3DX11EffectVariable@@I@Z ; D3DX11Effects::TEffectInvalidVariable<ID3DX11EffectInterfaceVariable>::GetAnnotationByIndex
PUBLIC	?GetAnnotationByName@?$TEffectInvalidVariable@UID3DX11EffectInterfaceVariable@@@D3DX11Effects@@UAGPAUID3DX11EffectVariable@@PBD@Z ; D3DX11Effects::TEffectInvalidVariable<ID3DX11EffectInterfaceVariable>::GetAnnotationByName
PUBLIC	?GetMemberByIndex@?$TEffectInvalidVariable@UID3DX11EffectInterfaceVariable@@@D3DX11Effects@@UAGPAUID3DX11EffectVariable@@I@Z ; D3DX11Effects::TEffectInvalidVariable<ID3DX11EffectInterfaceVariable>::GetMemberByIndex
PUBLIC	?GetMemberByName@?$TEffectInvalidVariable@UID3DX11EffectInterfaceVariable@@@D3DX11Effects@@UAGPAUID3DX11EffectVariable@@PBD@Z ; D3DX11Effects::TEffectInvalidVariable<ID3DX11EffectInterfaceVariable>::GetMemberByName
PUBLIC	?GetMemberBySemantic@?$TEffectInvalidVariable@UID3DX11EffectInterfaceVariable@@@D3DX11Effects@@UAGPAUID3DX11EffectVariable@@PBD@Z ; D3DX11Effects::TEffectInvalidVariable<ID3DX11EffectInterfaceVariable>::GetMemberBySemantic
PUBLIC	?GetElement@?$TEffectInvalidVariable@UID3DX11EffectInterfaceVariable@@@D3DX11Effects@@UAGPAUID3DX11EffectVariable@@I@Z ; D3DX11Effects::TEffectInvalidVariable<ID3DX11EffectInterfaceVariable>::GetElement
PUBLIC	?GetParentConstantBuffer@?$TEffectInvalidVariable@UID3DX11EffectInterfaceVariable@@@D3DX11Effects@@UAGPAUID3DX11EffectConstantBuffer@@XZ ; D3DX11Effects::TEffectInvalidVariable<ID3DX11EffectInterfaceVariable>::GetParentConstantBuffer
PUBLIC	?AsScalar@?$TEffectInvalidVariable@UID3DX11EffectInterfaceVariable@@@D3DX11Effects@@UAGPAUID3DX11EffectScalarVariable@@XZ ; D3DX11Effects::TEffectInvalidVariable<ID3DX11EffectInterfaceVariable>::AsScalar
PUBLIC	?AsVector@?$TEffectInvalidVariable@UID3DX11EffectInterfaceVariable@@@D3DX11Effects@@UAGPAUID3DX11EffectVectorVariable@@XZ ; D3DX11Effects::TEffectInvalidVariable<ID3DX11EffectInterfaceVariable>::AsVector
PUBLIC	?AsMatrix@?$TEffectInvalidVariable@UID3DX11EffectInterfaceVariable@@@D3DX11Effects@@UAGPAUID3DX11EffectMatrixVariable@@XZ ; D3DX11Effects::TEffectInvalidVariable<ID3DX11EffectInterfaceVariable>::AsMatrix
PUBLIC	?AsString@?$TEffectInvalidVariable@UID3DX11EffectInterfaceVariable@@@D3DX11Effects@@UAGPAUID3DX11EffectStringVariable@@XZ ; D3DX11Effects::TEffectInvalidVariable<ID3DX11EffectInterfaceVariable>::AsString
PUBLIC	?AsClassInstance@?$TEffectInvalidVariable@UID3DX11EffectInterfaceVariable@@@D3DX11Effects@@UAGPAUID3DX11EffectClassInstanceVariable@@XZ ; D3DX11Effects::TEffectInvalidVariable<ID3DX11EffectInterfaceVariable>::AsClassInstance
PUBLIC	?AsInterface@?$TEffectInvalidVariable@UID3DX11EffectInterfaceVariable@@@D3DX11Effects@@UAGPAUID3DX11EffectInterfaceVariable@@XZ ; D3DX11Effects::TEffectInvalidVariable<ID3DX11EffectInterfaceVariable>::AsInterface
PUBLIC	?AsShaderResource@?$TEffectInvalidVariable@UID3DX11EffectInterfaceVariable@@@D3DX11Effects@@UAGPAUID3DX11EffectShaderResourceVariable@@XZ ; D3DX11Effects::TEffectInvalidVariable<ID3DX11EffectInterfaceVariable>::AsShaderResource
PUBLIC	?AsUnorderedAccessView@?$TEffectInvalidVariable@UID3DX11EffectInterfaceVariable@@@D3DX11Effects@@UAGPAUID3DX11EffectUnorderedAccessViewVariable@@XZ ; D3DX11Effects::TEffectInvalidVariable<ID3DX11EffectInterfaceVariable>::AsUnorderedAccessView
PUBLIC	?AsRenderTargetView@?$TEffectInvalidVariable@UID3DX11EffectInterfaceVariable@@@D3DX11Effects@@UAGPAUID3DX11EffectRenderTargetViewVariable@@XZ ; D3DX11Effects::TEffectInvalidVariable<ID3DX11EffectInterfaceVariable>::AsRenderTargetView
PUBLIC	?AsDepthStencilView@?$TEffectInvalidVariable@UID3DX11EffectInterfaceVariable@@@D3DX11Effects@@UAGPAUID3DX11EffectDepthStencilViewVariable@@XZ ; D3DX11Effects::TEffectInvalidVariable<ID3DX11EffectInterfaceVariable>::AsDepthStencilView
PUBLIC	?AsConstantBuffer@?$TEffectInvalidVariable@UID3DX11EffectInterfaceVariable@@@D3DX11Effects@@UAGPAUID3DX11EffectConstantBuffer@@XZ ; D3DX11Effects::TEffectInvalidVariable<ID3DX11EffectInterfaceVariable>::AsConstantBuffer
PUBLIC	?AsShader@?$TEffectInvalidVariable@UID3DX11EffectInterfaceVariable@@@D3DX11Effects@@UAGPAUID3DX11EffectShaderVariable@@XZ ; D3DX11Effects::TEffectInvalidVariable<ID3DX11EffectInterfaceVariable>::AsShader
PUBLIC	?AsBlend@?$TEffectInvalidVariable@UID3DX11EffectInterfaceVariable@@@D3DX11Effects@@UAGPAUID3DX11EffectBlendVariable@@XZ ; D3DX11Effects::TEffectInvalidVariable<ID3DX11EffectInterfaceVariable>::AsBlend
PUBLIC	?AsDepthStencil@?$TEffectInvalidVariable@UID3DX11EffectInterfaceVariable@@@D3DX11Effects@@UAGPAUID3DX11EffectDepthStencilVariable@@XZ ; D3DX11Effects::TEffectInvalidVariable<ID3DX11EffectInterfaceVariable>::AsDepthStencil
PUBLIC	?AsRasterizer@?$TEffectInvalidVariable@UID3DX11EffectInterfaceVariable@@@D3DX11Effects@@UAGPAUID3DX11EffectRasterizerVariable@@XZ ; D3DX11Effects::TEffectInvalidVariable<ID3DX11EffectInterfaceVariable>::AsRasterizer
PUBLIC	?AsSampler@?$TEffectInvalidVariable@UID3DX11EffectInterfaceVariable@@@D3DX11Effects@@UAGPAUID3DX11EffectSamplerVariable@@XZ ; D3DX11Effects::TEffectInvalidVariable<ID3DX11EffectInterfaceVariable>::AsSampler
PUBLIC	?SetRawValue@?$TEffectInvalidVariable@UID3DX11EffectInterfaceVariable@@@D3DX11Effects@@UAGJPBXII@Z ; D3DX11Effects::TEffectInvalidVariable<ID3DX11EffectInterfaceVariable>::SetRawValue
PUBLIC	?GetRawValue@?$TEffectInvalidVariable@UID3DX11EffectInterfaceVariable@@@D3DX11Effects@@UAGJPAXII@Z ; D3DX11Effects::TEffectInvalidVariable<ID3DX11EffectInterfaceVariable>::GetRawValue
PUBLIC	??0?$TEffectInvalidVariable@UID3DX11EffectInterfaceVariable@@@D3DX11Effects@@QAE@XZ ; D3DX11Effects::TEffectInvalidVariable<ID3DX11EffectInterfaceVariable>::TEffectInvalidVariable<ID3DX11EffectInterfaceVariable>
PUBLIC	?SetClassInstance@SEffectInvalidInterfaceVariable@D3DX11Effects@@UAGJPAUID3DX11EffectClassInstanceVariable@@@Z ; D3DX11Effects::SEffectInvalidInterfaceVariable::SetClassInstance
PUBLIC	?GetClassInstance@SEffectInvalidInterfaceVariable@D3DX11Effects@@UAGJPAPAUID3DX11EffectClassInstanceVariable@@@Z ; D3DX11Effects::SEffectInvalidInterfaceVariable::GetClassInstance
PUBLIC	??0SEffectInvalidInterfaceVariable@D3DX11Effects@@QAE@XZ ; D3DX11Effects::SEffectInvalidInterfaceVariable::SEffectInvalidInterfaceVariable
PUBLIC	?IsValid@?$TEffectInvalidVariable@UID3DX11EffectShaderResourceVariable@@@D3DX11Effects@@UAGHXZ ; D3DX11Effects::TEffectInvalidVariable<ID3DX11EffectShaderResourceVariable>::IsValid
PUBLIC	?GetType@?$TEffectInvalidVariable@UID3DX11EffectShaderResourceVariable@@@D3DX11Effects@@UAGPAUID3DX11EffectType@@XZ ; D3DX11Effects::TEffectInvalidVariable<ID3DX11EffectShaderResourceVariable>::GetType
PUBLIC	?GetDesc@?$TEffectInvalidVariable@UID3DX11EffectShaderResourceVariable@@@D3DX11Effects@@UAGJPAU_D3DX11_EFFECT_VARIABLE_DESC@@@Z ; D3DX11Effects::TEffectInvalidVariable<ID3DX11EffectShaderResourceVariable>::GetDesc
PUBLIC	?GetAnnotationByIndex@?$TEffectInvalidVariable@UID3DX11EffectShaderResourceVariable@@@D3DX11Effects@@UAGPAUID3DX11EffectVariable@@I@Z ; D3DX11Effects::TEffectInvalidVariable<ID3DX11EffectShaderResourceVariable>::GetAnnotationByIndex
PUBLIC	?GetAnnotationByName@?$TEffectInvalidVariable@UID3DX11EffectShaderResourceVariable@@@D3DX11Effects@@UAGPAUID3DX11EffectVariable@@PBD@Z ; D3DX11Effects::TEffectInvalidVariable<ID3DX11EffectShaderResourceVariable>::GetAnnotationByName
PUBLIC	?GetMemberByIndex@?$TEffectInvalidVariable@UID3DX11EffectShaderResourceVariable@@@D3DX11Effects@@UAGPAUID3DX11EffectVariable@@I@Z ; D3DX11Effects::TEffectInvalidVariable<ID3DX11EffectShaderResourceVariable>::GetMemberByIndex
PUBLIC	?GetMemberByName@?$TEffectInvalidVariable@UID3DX11EffectShaderResourceVariable@@@D3DX11Effects@@UAGPAUID3DX11EffectVariable@@PBD@Z ; D3DX11Effects::TEffectInvalidVariable<ID3DX11EffectShaderResourceVariable>::GetMemberByName
PUBLIC	?GetMemberBySemantic@?$TEffectInvalidVariable@UID3DX11EffectShaderResourceVariable@@@D3DX11Effects@@UAGPAUID3DX11EffectVariable@@PBD@Z ; D3DX11Effects::TEffectInvalidVariable<ID3DX11EffectShaderResourceVariable>::GetMemberBySemantic
PUBLIC	?GetElement@?$TEffectInvalidVariable@UID3DX11EffectShaderResourceVariable@@@D3DX11Effects@@UAGPAUID3DX11EffectVariable@@I@Z ; D3DX11Effects::TEffectInvalidVariable<ID3DX11EffectShaderResourceVariable>::GetElement
PUBLIC	?GetParentConstantBuffer@?$TEffectInvalidVariable@UID3DX11EffectShaderResourceVariable@@@D3DX11Effects@@UAGPAUID3DX11EffectConstantBuffer@@XZ ; D3DX11Effects::TEffectInvalidVariable<ID3DX11EffectShaderResourceVariable>::GetParentConstantBuffer
PUBLIC	?AsScalar@?$TEffectInvalidVariable@UID3DX11EffectShaderResourceVariable@@@D3DX11Effects@@UAGPAUID3DX11EffectScalarVariable@@XZ ; D3DX11Effects::TEffectInvalidVariable<ID3DX11EffectShaderResourceVariable>::AsScalar
PUBLIC	?AsVector@?$TEffectInvalidVariable@UID3DX11EffectShaderResourceVariable@@@D3DX11Effects@@UAGPAUID3DX11EffectVectorVariable@@XZ ; D3DX11Effects::TEffectInvalidVariable<ID3DX11EffectShaderResourceVariable>::AsVector
PUBLIC	?AsMatrix@?$TEffectInvalidVariable@UID3DX11EffectShaderResourceVariable@@@D3DX11Effects@@UAGPAUID3DX11EffectMatrixVariable@@XZ ; D3DX11Effects::TEffectInvalidVariable<ID3DX11EffectShaderResourceVariable>::AsMatrix
PUBLIC	?AsString@?$TEffectInvalidVariable@UID3DX11EffectShaderResourceVariable@@@D3DX11Effects@@UAGPAUID3DX11EffectStringVariable@@XZ ; D3DX11Effects::TEffectInvalidVariable<ID3DX11EffectShaderResourceVariable>::AsString
PUBLIC	?AsClassInstance@?$TEffectInvalidVariable@UID3DX11EffectShaderResourceVariable@@@D3DX11Effects@@UAGPAUID3DX11EffectClassInstanceVariable@@XZ ; D3DX11Effects::TEffectInvalidVariable<ID3DX11EffectShaderResourceVariable>::AsClassInstance
PUBLIC	?AsInterface@?$TEffectInvalidVariable@UID3DX11EffectShaderResourceVariable@@@D3DX11Effects@@UAGPAUID3DX11EffectInterfaceVariable@@XZ ; D3DX11Effects::TEffectInvalidVariable<ID3DX11EffectShaderResourceVariable>::AsInterface
PUBLIC	?AsShaderResource@?$TEffectInvalidVariable@UID3DX11EffectShaderResourceVariable@@@D3DX11Effects@@UAGPAUID3DX11EffectShaderResourceVariable@@XZ ; D3DX11Effects::TEffectInvalidVariable<ID3DX11EffectShaderResourceVariable>::AsShaderResource
PUBLIC	?AsUnorderedAccessView@?$TEffectInvalidVariable@UID3DX11EffectShaderResourceVariable@@@D3DX11Effects@@UAGPAUID3DX11EffectUnorderedAccessViewVariable@@XZ ; D3DX11Effects::TEffectInvalidVariable<ID3DX11EffectShaderResourceVariable>::AsUnorderedAccessView
PUBLIC	?AsRenderTargetView@?$TEffectInvalidVariable@UID3DX11EffectShaderResourceVariable@@@D3DX11Effects@@UAGPAUID3DX11EffectRenderTargetViewVariable@@XZ ; D3DX11Effects::TEffectInvalidVariable<ID3DX11EffectShaderResourceVariable>::AsRenderTargetView
PUBLIC	?AsDepthStencilView@?$TEffectInvalidVariable@UID3DX11EffectShaderResourceVariable@@@D3DX11Effects@@UAGPAUID3DX11EffectDepthStencilViewVariable@@XZ ; D3DX11Effects::TEffectInvalidVariable<ID3DX11EffectShaderResourceVariable>::AsDepthStencilView
PUBLIC	?AsConstantBuffer@?$TEffectInvalidVariable@UID3DX11EffectShaderResourceVariable@@@D3DX11Effects@@UAGPAUID3DX11EffectConstantBuffer@@XZ ; D3DX11Effects::TEffectInvalidVariable<ID3DX11EffectShaderResourceVariable>::AsConstantBuffer
PUBLIC	?AsShader@?$TEffectInvalidVariable@UID3DX11EffectShaderResourceVariable@@@D3DX11Effects@@UAGPAUID3DX11EffectShaderVariable@@XZ ; D3DX11Effects::TEffectInvalidVariable<ID3DX11EffectShaderResourceVariable>::AsShader
PUBLIC	?AsBlend@?$TEffectInvalidVariable@UID3DX11EffectShaderResourceVariable@@@D3DX11Effects@@UAGPAUID3DX11EffectBlendVariable@@XZ ; D3DX11Effects::TEffectInvalidVariable<ID3DX11EffectShaderResourceVariable>::AsBlend
PUBLIC	?AsDepthStencil@?$TEffectInvalidVariable@UID3DX11EffectShaderResourceVariable@@@D3DX11Effects@@UAGPAUID3DX11EffectDepthStencilVariable@@XZ ; D3DX11Effects::TEffectInvalidVariable<ID3DX11EffectShaderResourceVariable>::AsDepthStencil
PUBLIC	?AsRasterizer@?$TEffectInvalidVariable@UID3DX11EffectShaderResourceVariable@@@D3DX11Effects@@UAGPAUID3DX11EffectRasterizerVariable@@XZ ; D3DX11Effects::TEffectInvalidVariable<ID3DX11EffectShaderResourceVariable>::AsRasterizer
PUBLIC	?AsSampler@?$TEffectInvalidVariable@UID3DX11EffectShaderResourceVariable@@@D3DX11Effects@@UAGPAUID3DX11EffectSamplerVariable@@XZ ; D3DX11Effects::TEffectInvalidVariable<ID3DX11EffectShaderResourceVariable>::AsSampler
PUBLIC	?SetRawValue@?$TEffectInvalidVariable@UID3DX11EffectShaderResourceVariable@@@D3DX11Effects@@UAGJPBXII@Z ; D3DX11Effects::TEffectInvalidVariable<ID3DX11EffectShaderResourceVariable>::SetRawValue
PUBLIC	?GetRawValue@?$TEffectInvalidVariable@UID3DX11EffectShaderResourceVariable@@@D3DX11Effects@@UAGJPAXII@Z ; D3DX11Effects::TEffectInvalidVariable<ID3DX11EffectShaderResourceVariable>::GetRawValue
PUBLIC	??0?$TEffectInvalidVariable@UID3DX11EffectShaderResourceVariable@@@D3DX11Effects@@QAE@XZ ; D3DX11Effects::TEffectInvalidVariable<ID3DX11EffectShaderResourceVariable>::TEffectInvalidVariable<ID3DX11EffectShaderResourceVariable>
PUBLIC	?SetResource@SEffectInvalidShaderResourceVariable@D3DX11Effects@@UAGJPAUID3D11ShaderResourceView@@@Z ; D3DX11Effects::SEffectInvalidShaderResourceVariable::SetResource
PUBLIC	?GetResource@SEffectInvalidShaderResourceVariable@D3DX11Effects@@UAGJPAPAUID3D11ShaderResourceView@@@Z ; D3DX11Effects::SEffectInvalidShaderResourceVariable::GetResource
PUBLIC	?SetResourceArray@SEffectInvalidShaderResourceVariable@D3DX11Effects@@UAGJPAPAUID3D11ShaderResourceView@@II@Z ; D3DX11Effects::SEffectInvalidShaderResourceVariable::SetResourceArray
PUBLIC	?GetResourceArray@SEffectInvalidShaderResourceVariable@D3DX11Effects@@UAGJPAPAUID3D11ShaderResourceView@@II@Z ; D3DX11Effects::SEffectInvalidShaderResourceVariable::GetResourceArray
PUBLIC	??0SEffectInvalidShaderResourceVariable@D3DX11Effects@@QAE@XZ ; D3DX11Effects::SEffectInvalidShaderResourceVariable::SEffectInvalidShaderResourceVariable
PUBLIC	?IsValid@?$TEffectInvalidVariable@UID3DX11EffectUnorderedAccessViewVariable@@@D3DX11Effects@@UAGHXZ ; D3DX11Effects::TEffectInvalidVariable<ID3DX11EffectUnorderedAccessViewVariable>::IsValid
PUBLIC	?GetType@?$TEffectInvalidVariable@UID3DX11EffectUnorderedAccessViewVariable@@@D3DX11Effects@@UAGPAUID3DX11EffectType@@XZ ; D3DX11Effects::TEffectInvalidVariable<ID3DX11EffectUnorderedAccessViewVariable>::GetType
PUBLIC	?GetDesc@?$TEffectInvalidVariable@UID3DX11EffectUnorderedAccessViewVariable@@@D3DX11Effects@@UAGJPAU_D3DX11_EFFECT_VARIABLE_DESC@@@Z ; D3DX11Effects::TEffectInvalidVariable<ID3DX11EffectUnorderedAccessViewVariable>::GetDesc
PUBLIC	?GetAnnotationByIndex@?$TEffectInvalidVariable@UID3DX11EffectUnorderedAccessViewVariable@@@D3DX11Effects@@UAGPAUID3DX11EffectVariable@@I@Z ; D3DX11Effects::TEffectInvalidVariable<ID3DX11EffectUnorderedAccessViewVariable>::GetAnnotationByIndex
PUBLIC	?GetAnnotationByName@?$TEffectInvalidVariable@UID3DX11EffectUnorderedAccessViewVariable@@@D3DX11Effects@@UAGPAUID3DX11EffectVariable@@PBD@Z ; D3DX11Effects::TEffectInvalidVariable<ID3DX11EffectUnorderedAccessViewVariable>::GetAnnotationByName
PUBLIC	?GetMemberByIndex@?$TEffectInvalidVariable@UID3DX11EffectUnorderedAccessViewVariable@@@D3DX11Effects@@UAGPAUID3DX11EffectVariable@@I@Z ; D3DX11Effects::TEffectInvalidVariable<ID3DX11EffectUnorderedAccessViewVariable>::GetMemberByIndex
PUBLIC	?GetMemberByName@?$TEffectInvalidVariable@UID3DX11EffectUnorderedAccessViewVariable@@@D3DX11Effects@@UAGPAUID3DX11EffectVariable@@PBD@Z ; D3DX11Effects::TEffectInvalidVariable<ID3DX11EffectUnorderedAccessViewVariable>::GetMemberByName
PUBLIC	?GetMemberBySemantic@?$TEffectInvalidVariable@UID3DX11EffectUnorderedAccessViewVariable@@@D3DX11Effects@@UAGPAUID3DX11EffectVariable@@PBD@Z ; D3DX11Effects::TEffectInvalidVariable<ID3DX11EffectUnorderedAccessViewVariable>::GetMemberBySemantic
PUBLIC	?GetElement@?$TEffectInvalidVariable@UID3DX11EffectUnorderedAccessViewVariable@@@D3DX11Effects@@UAGPAUID3DX11EffectVariable@@I@Z ; D3DX11Effects::TEffectInvalidVariable<ID3DX11EffectUnorderedAccessViewVariable>::GetElement
PUBLIC	?GetParentConstantBuffer@?$TEffectInvalidVariable@UID3DX11EffectUnorderedAccessViewVariable@@@D3DX11Effects@@UAGPAUID3DX11EffectConstantBuffer@@XZ ; D3DX11Effects::TEffectInvalidVariable<ID3DX11EffectUnorderedAccessViewVariable>::GetParentConstantBuffer
PUBLIC	?AsScalar@?$TEffectInvalidVariable@UID3DX11EffectUnorderedAccessViewVariable@@@D3DX11Effects@@UAGPAUID3DX11EffectScalarVariable@@XZ ; D3DX11Effects::TEffectInvalidVariable<ID3DX11EffectUnorderedAccessViewVariable>::AsScalar
PUBLIC	?AsVector@?$TEffectInvalidVariable@UID3DX11EffectUnorderedAccessViewVariable@@@D3DX11Effects@@UAGPAUID3DX11EffectVectorVariable@@XZ ; D3DX11Effects::TEffectInvalidVariable<ID3DX11EffectUnorderedAccessViewVariable>::AsVector
PUBLIC	?AsMatrix@?$TEffectInvalidVariable@UID3DX11EffectUnorderedAccessViewVariable@@@D3DX11Effects@@UAGPAUID3DX11EffectMatrixVariable@@XZ ; D3DX11Effects::TEffectInvalidVariable<ID3DX11EffectUnorderedAccessViewVariable>::AsMatrix
PUBLIC	?AsString@?$TEffectInvalidVariable@UID3DX11EffectUnorderedAccessViewVariable@@@D3DX11Effects@@UAGPAUID3DX11EffectStringVariable@@XZ ; D3DX11Effects::TEffectInvalidVariable<ID3DX11EffectUnorderedAccessViewVariable>::AsString
PUBLIC	?AsClassInstance@?$TEffectInvalidVariable@UID3DX11EffectUnorderedAccessViewVariable@@@D3DX11Effects@@UAGPAUID3DX11EffectClassInstanceVariable@@XZ ; D3DX11Effects::TEffectInvalidVariable<ID3DX11EffectUnorderedAccessViewVariable>::AsClassInstance
PUBLIC	?AsInterface@?$TEffectInvalidVariable@UID3DX11EffectUnorderedAccessViewVariable@@@D3DX11Effects@@UAGPAUID3DX11EffectInterfaceVariable@@XZ ; D3DX11Effects::TEffectInvalidVariable<ID3DX11EffectUnorderedAccessViewVariable>::AsInterface
PUBLIC	?AsShaderResource@?$TEffectInvalidVariable@UID3DX11EffectUnorderedAccessViewVariable@@@D3DX11Effects@@UAGPAUID3DX11EffectShaderResourceVariable@@XZ ; D3DX11Effects::TEffectInvalidVariable<ID3DX11EffectUnorderedAccessViewVariable>::AsShaderResource
PUBLIC	?AsUnorderedAccessView@?$TEffectInvalidVariable@UID3DX11EffectUnorderedAccessViewVariable@@@D3DX11Effects@@UAGPAUID3DX11EffectUnorderedAccessViewVariable@@XZ ; D3DX11Effects::TEffectInvalidVariable<ID3DX11EffectUnorderedAccessViewVariable>::AsUnorderedAccessView
PUBLIC	?AsRenderTargetView@?$TEffectInvalidVariable@UID3DX11EffectUnorderedAccessViewVariable@@@D3DX11Effects@@UAGPAUID3DX11EffectRenderTargetViewVariable@@XZ ; D3DX11Effects::TEffectInvalidVariable<ID3DX11EffectUnorderedAccessViewVariable>::AsRenderTargetView
PUBLIC	?AsDepthStencilView@?$TEffectInvalidVariable@UID3DX11EffectUnorderedAccessViewVariable@@@D3DX11Effects@@UAGPAUID3DX11EffectDepthStencilViewVariable@@XZ ; D3DX11Effects::TEffectInvalidVariable<ID3DX11EffectUnorderedAccessViewVariable>::AsDepthStencilView
PUBLIC	?AsConstantBuffer@?$TEffectInvalidVariable@UID3DX11EffectUnorderedAccessViewVariable@@@D3DX11Effects@@UAGPAUID3DX11EffectConstantBuffer@@XZ ; D3DX11Effects::TEffectInvalidVariable<ID3DX11EffectUnorderedAccessViewVariable>::AsConstantBuffer
PUBLIC	?AsShader@?$TEffectInvalidVariable@UID3DX11EffectUnorderedAccessViewVariable@@@D3DX11Effects@@UAGPAUID3DX11EffectShaderVariable@@XZ ; D3DX11Effects::TEffectInvalidVariable<ID3DX11EffectUnorderedAccessViewVariable>::AsShader
PUBLIC	?AsBlend@?$TEffectInvalidVariable@UID3DX11EffectUnorderedAccessViewVariable@@@D3DX11Effects@@UAGPAUID3DX11EffectBlendVariable@@XZ ; D3DX11Effects::TEffectInvalidVariable<ID3DX11EffectUnorderedAccessViewVariable>::AsBlend
PUBLIC	?AsDepthStencil@?$TEffectInvalidVariable@UID3DX11EffectUnorderedAccessViewVariable@@@D3DX11Effects@@UAGPAUID3DX11EffectDepthStencilVariable@@XZ ; D3DX11Effects::TEffectInvalidVariable<ID3DX11EffectUnorderedAccessViewVariable>::AsDepthStencil
PUBLIC	?AsRasterizer@?$TEffectInvalidVariable@UID3DX11EffectUnorderedAccessViewVariable@@@D3DX11Effects@@UAGPAUID3DX11EffectRasterizerVariable@@XZ ; D3DX11Effects::TEffectInvalidVariable<ID3DX11EffectUnorderedAccessViewVariable>::AsRasterizer
PUBLIC	?AsSampler@?$TEffectInvalidVariable@UID3DX11EffectUnorderedAccessViewVariable@@@D3DX11Effects@@UAGPAUID3DX11EffectSamplerVariable@@XZ ; D3DX11Effects::TEffectInvalidVariable<ID3DX11EffectUnorderedAccessViewVariable>::AsSampler
PUBLIC	?SetRawValue@?$TEffectInvalidVariable@UID3DX11EffectUnorderedAccessViewVariable@@@D3DX11Effects@@UAGJPBXII@Z ; D3DX11Effects::TEffectInvalidVariable<ID3DX11EffectUnorderedAccessViewVariable>::SetRawValue
PUBLIC	?GetRawValue@?$TEffectInvalidVariable@UID3DX11EffectUnorderedAccessViewVariable@@@D3DX11Effects@@UAGJPAXII@Z ; D3DX11Effects::TEffectInvalidVariable<ID3DX11EffectUnorderedAccessViewVariable>::GetRawValue
PUBLIC	??0?$TEffectInvalidVariable@UID3DX11EffectUnorderedAccessViewVariable@@@D3DX11Effects@@QAE@XZ ; D3DX11Effects::TEffectInvalidVariable<ID3DX11EffectUnorderedAccessViewVariable>::TEffectInvalidVariable<ID3DX11EffectUnorderedAccessViewVariable>
PUBLIC	?SetUnorderedAccessView@SEffectInvalidUnorderedAccessViewVariable@D3DX11Effects@@UAGJPAUID3D11UnorderedAccessView@@@Z ; D3DX11Effects::SEffectInvalidUnorderedAccessViewVariable::SetUnorderedAccessView
PUBLIC	?GetUnorderedAccessView@SEffectInvalidUnorderedAccessViewVariable@D3DX11Effects@@UAGJPAPAUID3D11UnorderedAccessView@@@Z ; D3DX11Effects::SEffectInvalidUnorderedAccessViewVariable::GetUnorderedAccessView
PUBLIC	?SetUnorderedAccessViewArray@SEffectInvalidUnorderedAccessViewVariable@D3DX11Effects@@UAGJPAPAUID3D11UnorderedAccessView@@II@Z ; D3DX11Effects::SEffectInvalidUnorderedAccessViewVariable::SetUnorderedAccessViewArray
PUBLIC	?GetUnorderedAccessViewArray@SEffectInvalidUnorderedAccessViewVariable@D3DX11Effects@@UAGJPAPAUID3D11UnorderedAccessView@@II@Z ; D3DX11Effects::SEffectInvalidUnorderedAccessViewVariable::GetUnorderedAccessViewArray
PUBLIC	??0SEffectInvalidUnorderedAccessViewVariable@D3DX11Effects@@QAE@XZ ; D3DX11Effects::SEffectInvalidUnorderedAccessViewVariable::SEffectInvalidUnorderedAccessViewVariable
PUBLIC	?IsValid@?$TEffectInvalidVariable@UID3DX11EffectRenderTargetViewVariable@@@D3DX11Effects@@UAGHXZ ; D3DX11Effects::TEffectInvalidVariable<ID3DX11EffectRenderTargetViewVariable>::IsValid
PUBLIC	?GetType@?$TEffectInvalidVariable@UID3DX11EffectRenderTargetViewVariable@@@D3DX11Effects@@UAGPAUID3DX11EffectType@@XZ ; D3DX11Effects::TEffectInvalidVariable<ID3DX11EffectRenderTargetViewVariable>::GetType
PUBLIC	?GetDesc@?$TEffectInvalidVariable@UID3DX11EffectRenderTargetViewVariable@@@D3DX11Effects@@UAGJPAU_D3DX11_EFFECT_VARIABLE_DESC@@@Z ; D3DX11Effects::TEffectInvalidVariable<ID3DX11EffectRenderTargetViewVariable>::GetDesc
PUBLIC	?GetAnnotationByIndex@?$TEffectInvalidVariable@UID3DX11EffectRenderTargetViewVariable@@@D3DX11Effects@@UAGPAUID3DX11EffectVariable@@I@Z ; D3DX11Effects::TEffectInvalidVariable<ID3DX11EffectRenderTargetViewVariable>::GetAnnotationByIndex
PUBLIC	?GetAnnotationByName@?$TEffectInvalidVariable@UID3DX11EffectRenderTargetViewVariable@@@D3DX11Effects@@UAGPAUID3DX11EffectVariable@@PBD@Z ; D3DX11Effects::TEffectInvalidVariable<ID3DX11EffectRenderTargetViewVariable>::GetAnnotationByName
PUBLIC	?GetMemberByIndex@?$TEffectInvalidVariable@UID3DX11EffectRenderTargetViewVariable@@@D3DX11Effects@@UAGPAUID3DX11EffectVariable@@I@Z ; D3DX11Effects::TEffectInvalidVariable<ID3DX11EffectRenderTargetViewVariable>::GetMemberByIndex
PUBLIC	?GetMemberByName@?$TEffectInvalidVariable@UID3DX11EffectRenderTargetViewVariable@@@D3DX11Effects@@UAGPAUID3DX11EffectVariable@@PBD@Z ; D3DX11Effects::TEffectInvalidVariable<ID3DX11EffectRenderTargetViewVariable>::GetMemberByName
PUBLIC	?GetMemberBySemantic@?$TEffectInvalidVariable@UID3DX11EffectRenderTargetViewVariable@@@D3DX11Effects@@UAGPAUID3DX11EffectVariable@@PBD@Z ; D3DX11Effects::TEffectInvalidVariable<ID3DX11EffectRenderTargetViewVariable>::GetMemberBySemantic
PUBLIC	?GetElement@?$TEffectInvalidVariable@UID3DX11EffectRenderTargetViewVariable@@@D3DX11Effects@@UAGPAUID3DX11EffectVariable@@I@Z ; D3DX11Effects::TEffectInvalidVariable<ID3DX11EffectRenderTargetViewVariable>::GetElement
PUBLIC	?GetParentConstantBuffer@?$TEffectInvalidVariable@UID3DX11EffectRenderTargetViewVariable@@@D3DX11Effects@@UAGPAUID3DX11EffectConstantBuffer@@XZ ; D3DX11Effects::TEffectInvalidVariable<ID3DX11EffectRenderTargetViewVariable>::GetParentConstantBuffer
PUBLIC	?AsScalar@?$TEffectInvalidVariable@UID3DX11EffectRenderTargetViewVariable@@@D3DX11Effects@@UAGPAUID3DX11EffectScalarVariable@@XZ ; D3DX11Effects::TEffectInvalidVariable<ID3DX11EffectRenderTargetViewVariable>::AsScalar
PUBLIC	?AsVector@?$TEffectInvalidVariable@UID3DX11EffectRenderTargetViewVariable@@@D3DX11Effects@@UAGPAUID3DX11EffectVectorVariable@@XZ ; D3DX11Effects::TEffectInvalidVariable<ID3DX11EffectRenderTargetViewVariable>::AsVector
PUBLIC	?AsMatrix@?$TEffectInvalidVariable@UID3DX11EffectRenderTargetViewVariable@@@D3DX11Effects@@UAGPAUID3DX11EffectMatrixVariable@@XZ ; D3DX11Effects::TEffectInvalidVariable<ID3DX11EffectRenderTargetViewVariable>::AsMatrix
PUBLIC	?AsString@?$TEffectInvalidVariable@UID3DX11EffectRenderTargetViewVariable@@@D3DX11Effects@@UAGPAUID3DX11EffectStringVariable@@XZ ; D3DX11Effects::TEffectInvalidVariable<ID3DX11EffectRenderTargetViewVariable>::AsString
PUBLIC	?AsClassInstance@?$TEffectInvalidVariable@UID3DX11EffectRenderTargetViewVariable@@@D3DX11Effects@@UAGPAUID3DX11EffectClassInstanceVariable@@XZ ; D3DX11Effects::TEffectInvalidVariable<ID3DX11EffectRenderTargetViewVariable>::AsClassInstance
PUBLIC	?AsInterface@?$TEffectInvalidVariable@UID3DX11EffectRenderTargetViewVariable@@@D3DX11Effects@@UAGPAUID3DX11EffectInterfaceVariable@@XZ ; D3DX11Effects::TEffectInvalidVariable<ID3DX11EffectRenderTargetViewVariable>::AsInterface
PUBLIC	?AsShaderResource@?$TEffectInvalidVariable@UID3DX11EffectRenderTargetViewVariable@@@D3DX11Effects@@UAGPAUID3DX11EffectShaderResourceVariable@@XZ ; D3DX11Effects::TEffectInvalidVariable<ID3DX11EffectRenderTargetViewVariable>::AsShaderResource
PUBLIC	?AsUnorderedAccessView@?$TEffectInvalidVariable@UID3DX11EffectRenderTargetViewVariable@@@D3DX11Effects@@UAGPAUID3DX11EffectUnorderedAccessViewVariable@@XZ ; D3DX11Effects::TEffectInvalidVariable<ID3DX11EffectRenderTargetViewVariable>::AsUnorderedAccessView
PUBLIC	?AsRenderTargetView@?$TEffectInvalidVariable@UID3DX11EffectRenderTargetViewVariable@@@D3DX11Effects@@UAGPAUID3DX11EffectRenderTargetViewVariable@@XZ ; D3DX11Effects::TEffectInvalidVariable<ID3DX11EffectRenderTargetViewVariable>::AsRenderTargetView
PUBLIC	?AsDepthStencilView@?$TEffectInvalidVariable@UID3DX11EffectRenderTargetViewVariable@@@D3DX11Effects@@UAGPAUID3DX11EffectDepthStencilViewVariable@@XZ ; D3DX11Effects::TEffectInvalidVariable<ID3DX11EffectRenderTargetViewVariable>::AsDepthStencilView
PUBLIC	?AsConstantBuffer@?$TEffectInvalidVariable@UID3DX11EffectRenderTargetViewVariable@@@D3DX11Effects@@UAGPAUID3DX11EffectConstantBuffer@@XZ ; D3DX11Effects::TEffectInvalidVariable<ID3DX11EffectRenderTargetViewVariable>::AsConstantBuffer
PUBLIC	?AsShader@?$TEffectInvalidVariable@UID3DX11EffectRenderTargetViewVariable@@@D3DX11Effects@@UAGPAUID3DX11EffectShaderVariable@@XZ ; D3DX11Effects::TEffectInvalidVariable<ID3DX11EffectRenderTargetViewVariable>::AsShader
PUBLIC	?AsBlend@?$TEffectInvalidVariable@UID3DX11EffectRenderTargetViewVariable@@@D3DX11Effects@@UAGPAUID3DX11EffectBlendVariable@@XZ ; D3DX11Effects::TEffectInvalidVariable<ID3DX11EffectRenderTargetViewVariable>::AsBlend
PUBLIC	?AsDepthStencil@?$TEffectInvalidVariable@UID3DX11EffectRenderTargetViewVariable@@@D3DX11Effects@@UAGPAUID3DX11EffectDepthStencilVariable@@XZ ; D3DX11Effects::TEffectInvalidVariable<ID3DX11EffectRenderTargetViewVariable>::AsDepthStencil
PUBLIC	?AsRasterizer@?$TEffectInvalidVariable@UID3DX11EffectRenderTargetViewVariable@@@D3DX11Effects@@UAGPAUID3DX11EffectRasterizerVariable@@XZ ; D3DX11Effects::TEffectInvalidVariable<ID3DX11EffectRenderTargetViewVariable>::AsRasterizer
PUBLIC	?AsSampler@?$TEffectInvalidVariable@UID3DX11EffectRenderTargetViewVariable@@@D3DX11Effects@@UAGPAUID3DX11EffectSamplerVariable@@XZ ; D3DX11Effects::TEffectInvalidVariable<ID3DX11EffectRenderTargetViewVariable>::AsSampler
PUBLIC	?SetRawValue@?$TEffectInvalidVariable@UID3DX11EffectRenderTargetViewVariable@@@D3DX11Effects@@UAGJPBXII@Z ; D3DX11Effects::TEffectInvalidVariable<ID3DX11EffectRenderTargetViewVariable>::SetRawValue
PUBLIC	?GetRawValue@?$TEffectInvalidVariable@UID3DX11EffectRenderTargetViewVariable@@@D3DX11Effects@@UAGJPAXII@Z ; D3DX11Effects::TEffectInvalidVariable<ID3DX11EffectRenderTargetViewVariable>::GetRawValue
PUBLIC	??0?$TEffectInvalidVariable@UID3DX11EffectRenderTargetViewVariable@@@D3DX11Effects@@QAE@XZ ; D3DX11Effects::TEffectInvalidVariable<ID3DX11EffectRenderTargetViewVariable>::TEffectInvalidVariable<ID3DX11EffectRenderTargetViewVariable>
PUBLIC	?SetRenderTarget@SEffectInvalidRenderTargetViewVariable@D3DX11Effects@@UAGJPAUID3D11RenderTargetView@@@Z ; D3DX11Effects::SEffectInvalidRenderTargetViewVariable::SetRenderTarget
PUBLIC	?GetRenderTarget@SEffectInvalidRenderTargetViewVariable@D3DX11Effects@@UAGJPAPAUID3D11RenderTargetView@@@Z ; D3DX11Effects::SEffectInvalidRenderTargetViewVariable::GetRenderTarget
PUBLIC	?SetRenderTargetArray@SEffectInvalidRenderTargetViewVariable@D3DX11Effects@@UAGJPAPAUID3D11RenderTargetView@@II@Z ; D3DX11Effects::SEffectInvalidRenderTargetViewVariable::SetRenderTargetArray
PUBLIC	?GetRenderTargetArray@SEffectInvalidRenderTargetViewVariable@D3DX11Effects@@UAGJPAPAUID3D11RenderTargetView@@II@Z ; D3DX11Effects::SEffectInvalidRenderTargetViewVariable::GetRenderTargetArray
PUBLIC	??0SEffectInvalidRenderTargetViewVariable@D3DX11Effects@@QAE@XZ ; D3DX11Effects::SEffectInvalidRenderTargetViewVariable::SEffectInvalidRenderTargetViewVariable
PUBLIC	?IsValid@?$TEffectInvalidVariable@UID3DX11EffectDepthStencilViewVariable@@@D3DX11Effects@@UAGHXZ ; D3DX11Effects::TEffectInvalidVariable<ID3DX11EffectDepthStencilViewVariable>::IsValid
PUBLIC	?GetType@?$TEffectInvalidVariable@UID3DX11EffectDepthStencilViewVariable@@@D3DX11Effects@@UAGPAUID3DX11EffectType@@XZ ; D3DX11Effects::TEffectInvalidVariable<ID3DX11EffectDepthStencilViewVariable>::GetType
PUBLIC	?GetDesc@?$TEffectInvalidVariable@UID3DX11EffectDepthStencilViewVariable@@@D3DX11Effects@@UAGJPAU_D3DX11_EFFECT_VARIABLE_DESC@@@Z ; D3DX11Effects::TEffectInvalidVariable<ID3DX11EffectDepthStencilViewVariable>::GetDesc
PUBLIC	?GetAnnotationByIndex@?$TEffectInvalidVariable@UID3DX11EffectDepthStencilViewVariable@@@D3DX11Effects@@UAGPAUID3DX11EffectVariable@@I@Z ; D3DX11Effects::TEffectInvalidVariable<ID3DX11EffectDepthStencilViewVariable>::GetAnnotationByIndex
PUBLIC	?GetAnnotationByName@?$TEffectInvalidVariable@UID3DX11EffectDepthStencilViewVariable@@@D3DX11Effects@@UAGPAUID3DX11EffectVariable@@PBD@Z ; D3DX11Effects::TEffectInvalidVariable<ID3DX11EffectDepthStencilViewVariable>::GetAnnotationByName
PUBLIC	?GetMemberByIndex@?$TEffectInvalidVariable@UID3DX11EffectDepthStencilViewVariable@@@D3DX11Effects@@UAGPAUID3DX11EffectVariable@@I@Z ; D3DX11Effects::TEffectInvalidVariable<ID3DX11EffectDepthStencilViewVariable>::GetMemberByIndex
PUBLIC	?GetMemberByName@?$TEffectInvalidVariable@UID3DX11EffectDepthStencilViewVariable@@@D3DX11Effects@@UAGPAUID3DX11EffectVariable@@PBD@Z ; D3DX11Effects::TEffectInvalidVariable<ID3DX11EffectDepthStencilViewVariable>::GetMemberByName
PUBLIC	?GetMemberBySemantic@?$TEffectInvalidVariable@UID3DX11EffectDepthStencilViewVariable@@@D3DX11Effects@@UAGPAUID3DX11EffectVariable@@PBD@Z ; D3DX11Effects::TEffectInvalidVariable<ID3DX11EffectDepthStencilViewVariable>::GetMemberBySemantic
PUBLIC	?GetElement@?$TEffectInvalidVariable@UID3DX11EffectDepthStencilViewVariable@@@D3DX11Effects@@UAGPAUID3DX11EffectVariable@@I@Z ; D3DX11Effects::TEffectInvalidVariable<ID3DX11EffectDepthStencilViewVariable>::GetElement
PUBLIC	?GetParentConstantBuffer@?$TEffectInvalidVariable@UID3DX11EffectDepthStencilViewVariable@@@D3DX11Effects@@UAGPAUID3DX11EffectConstantBuffer@@XZ ; D3DX11Effects::TEffectInvalidVariable<ID3DX11EffectDepthStencilViewVariable>::GetParentConstantBuffer
PUBLIC	?AsScalar@?$TEffectInvalidVariable@UID3DX11EffectDepthStencilViewVariable@@@D3DX11Effects@@UAGPAUID3DX11EffectScalarVariable@@XZ ; D3DX11Effects::TEffectInvalidVariable<ID3DX11EffectDepthStencilViewVariable>::AsScalar
PUBLIC	?AsVector@?$TEffectInvalidVariable@UID3DX11EffectDepthStencilViewVariable@@@D3DX11Effects@@UAGPAUID3DX11EffectVectorVariable@@XZ ; D3DX11Effects::TEffectInvalidVariable<ID3DX11EffectDepthStencilViewVariable>::AsVector
PUBLIC	?AsMatrix@?$TEffectInvalidVariable@UID3DX11EffectDepthStencilViewVariable@@@D3DX11Effects@@UAGPAUID3DX11EffectMatrixVariable@@XZ ; D3DX11Effects::TEffectInvalidVariable<ID3DX11EffectDepthStencilViewVariable>::AsMatrix
PUBLIC	?AsString@?$TEffectInvalidVariable@UID3DX11EffectDepthStencilViewVariable@@@D3DX11Effects@@UAGPAUID3DX11EffectStringVariable@@XZ ; D3DX11Effects::TEffectInvalidVariable<ID3DX11EffectDepthStencilViewVariable>::AsString
PUBLIC	?AsClassInstance@?$TEffectInvalidVariable@UID3DX11EffectDepthStencilViewVariable@@@D3DX11Effects@@UAGPAUID3DX11EffectClassInstanceVariable@@XZ ; D3DX11Effects::TEffectInvalidVariable<ID3DX11EffectDepthStencilViewVariable>::AsClassInstance
PUBLIC	?AsInterface@?$TEffectInvalidVariable@UID3DX11EffectDepthStencilViewVariable@@@D3DX11Effects@@UAGPAUID3DX11EffectInterfaceVariable@@XZ ; D3DX11Effects::TEffectInvalidVariable<ID3DX11EffectDepthStencilViewVariable>::AsInterface
PUBLIC	?AsShaderResource@?$TEffectInvalidVariable@UID3DX11EffectDepthStencilViewVariable@@@D3DX11Effects@@UAGPAUID3DX11EffectShaderResourceVariable@@XZ ; D3DX11Effects::TEffectInvalidVariable<ID3DX11EffectDepthStencilViewVariable>::AsShaderResource
PUBLIC	?AsUnorderedAccessView@?$TEffectInvalidVariable@UID3DX11EffectDepthStencilViewVariable@@@D3DX11Effects@@UAGPAUID3DX11EffectUnorderedAccessViewVariable@@XZ ; D3DX11Effects::TEffectInvalidVariable<ID3DX11EffectDepthStencilViewVariable>::AsUnorderedAccessView
PUBLIC	?AsRenderTargetView@?$TEffectInvalidVariable@UID3DX11EffectDepthStencilViewVariable@@@D3DX11Effects@@UAGPAUID3DX11EffectRenderTargetViewVariable@@XZ ; D3DX11Effects::TEffectInvalidVariable<ID3DX11EffectDepthStencilViewVariable>::AsRenderTargetView
PUBLIC	?AsDepthStencilView@?$TEffectInvalidVariable@UID3DX11EffectDepthStencilViewVariable@@@D3DX11Effects@@UAGPAUID3DX11EffectDepthStencilViewVariable@@XZ ; D3DX11Effects::TEffectInvalidVariable<ID3DX11EffectDepthStencilViewVariable>::AsDepthStencilView
PUBLIC	?AsConstantBuffer@?$TEffectInvalidVariable@UID3DX11EffectDepthStencilViewVariable@@@D3DX11Effects@@UAGPAUID3DX11EffectConstantBuffer@@XZ ; D3DX11Effects::TEffectInvalidVariable<ID3DX11EffectDepthStencilViewVariable>::AsConstantBuffer
PUBLIC	?AsShader@?$TEffectInvalidVariable@UID3DX11EffectDepthStencilViewVariable@@@D3DX11Effects@@UAGPAUID3DX11EffectShaderVariable@@XZ ; D3DX11Effects::TEffectInvalidVariable<ID3DX11EffectDepthStencilViewVariable>::AsShader
PUBLIC	?AsBlend@?$TEffectInvalidVariable@UID3DX11EffectDepthStencilViewVariable@@@D3DX11Effects@@UAGPAUID3DX11EffectBlendVariable@@XZ ; D3DX11Effects::TEffectInvalidVariable<ID3DX11EffectDepthStencilViewVariable>::AsBlend
PUBLIC	?AsDepthStencil@?$TEffectInvalidVariable@UID3DX11EffectDepthStencilViewVariable@@@D3DX11Effects@@UAGPAUID3DX11EffectDepthStencilVariable@@XZ ; D3DX11Effects::TEffectInvalidVariable<ID3DX11EffectDepthStencilViewVariable>::AsDepthStencil
PUBLIC	?AsRasterizer@?$TEffectInvalidVariable@UID3DX11EffectDepthStencilViewVariable@@@D3DX11Effects@@UAGPAUID3DX11EffectRasterizerVariable@@XZ ; D3DX11Effects::TEffectInvalidVariable<ID3DX11EffectDepthStencilViewVariable>::AsRasterizer
PUBLIC	?AsSampler@?$TEffectInvalidVariable@UID3DX11EffectDepthStencilViewVariable@@@D3DX11Effects@@UAGPAUID3DX11EffectSamplerVariable@@XZ ; D3DX11Effects::TEffectInvalidVariable<ID3DX11EffectDepthStencilViewVariable>::AsSampler
PUBLIC	?SetRawValue@?$TEffectInvalidVariable@UID3DX11EffectDepthStencilViewVariable@@@D3DX11Effects@@UAGJPBXII@Z ; D3DX11Effects::TEffectInvalidVariable<ID3DX11EffectDepthStencilViewVariable>::SetRawValue
PUBLIC	?GetRawValue@?$TEffectInvalidVariable@UID3DX11EffectDepthStencilViewVariable@@@D3DX11Effects@@UAGJPAXII@Z ; D3DX11Effects::TEffectInvalidVariable<ID3DX11EffectDepthStencilViewVariable>::GetRawValue
PUBLIC	??0?$TEffectInvalidVariable@UID3DX11EffectDepthStencilViewVariable@@@D3DX11Effects@@QAE@XZ ; D3DX11Effects::TEffectInvalidVariable<ID3DX11EffectDepthStencilViewVariable>::TEffectInvalidVariable<ID3DX11EffectDepthStencilViewVariable>
PUBLIC	?SetDepthStencil@SEffectInvalidDepthStencilViewVariable@D3DX11Effects@@UAGJPAUID3D11DepthStencilView@@@Z ; D3DX11Effects::SEffectInvalidDepthStencilViewVariable::SetDepthStencil
PUBLIC	?GetDepthStencil@SEffectInvalidDepthStencilViewVariable@D3DX11Effects@@UAGJPAPAUID3D11DepthStencilView@@@Z ; D3DX11Effects::SEffectInvalidDepthStencilViewVariable::GetDepthStencil
PUBLIC	?SetDepthStencilArray@SEffectInvalidDepthStencilViewVariable@D3DX11Effects@@UAGJPAPAUID3D11DepthStencilView@@II@Z ; D3DX11Effects::SEffectInvalidDepthStencilViewVariable::SetDepthStencilArray
PUBLIC	?GetDepthStencilArray@SEffectInvalidDepthStencilViewVariable@D3DX11Effects@@UAGJPAPAUID3D11DepthStencilView@@II@Z ; D3DX11Effects::SEffectInvalidDepthStencilViewVariable::GetDepthStencilArray
PUBLIC	??0SEffectInvalidDepthStencilViewVariable@D3DX11Effects@@QAE@XZ ; D3DX11Effects::SEffectInvalidDepthStencilViewVariable::SEffectInvalidDepthStencilViewVariable
PUBLIC	?IsValid@?$TEffectInvalidVariable@UID3DX11EffectConstantBuffer@@@D3DX11Effects@@UAGHXZ ; D3DX11Effects::TEffectInvalidVariable<ID3DX11EffectConstantBuffer>::IsValid
PUBLIC	?GetType@?$TEffectInvalidVariable@UID3DX11EffectConstantBuffer@@@D3DX11Effects@@UAGPAUID3DX11EffectType@@XZ ; D3DX11Effects::TEffectInvalidVariable<ID3DX11EffectConstantBuffer>::GetType
PUBLIC	?GetDesc@?$TEffectInvalidVariable@UID3DX11EffectConstantBuffer@@@D3DX11Effects@@UAGJPAU_D3DX11_EFFECT_VARIABLE_DESC@@@Z ; D3DX11Effects::TEffectInvalidVariable<ID3DX11EffectConstantBuffer>::GetDesc
PUBLIC	?GetAnnotationByIndex@?$TEffectInvalidVariable@UID3DX11EffectConstantBuffer@@@D3DX11Effects@@UAGPAUID3DX11EffectVariable@@I@Z ; D3DX11Effects::TEffectInvalidVariable<ID3DX11EffectConstantBuffer>::GetAnnotationByIndex
PUBLIC	?GetAnnotationByName@?$TEffectInvalidVariable@UID3DX11EffectConstantBuffer@@@D3DX11Effects@@UAGPAUID3DX11EffectVariable@@PBD@Z ; D3DX11Effects::TEffectInvalidVariable<ID3DX11EffectConstantBuffer>::GetAnnotationByName
PUBLIC	?GetMemberByIndex@?$TEffectInvalidVariable@UID3DX11EffectConstantBuffer@@@D3DX11Effects@@UAGPAUID3DX11EffectVariable@@I@Z ; D3DX11Effects::TEffectInvalidVariable<ID3DX11EffectConstantBuffer>::GetMemberByIndex
PUBLIC	?GetMemberByName@?$TEffectInvalidVariable@UID3DX11EffectConstantBuffer@@@D3DX11Effects@@UAGPAUID3DX11EffectVariable@@PBD@Z ; D3DX11Effects::TEffectInvalidVariable<ID3DX11EffectConstantBuffer>::GetMemberByName
PUBLIC	?GetMemberBySemantic@?$TEffectInvalidVariable@UID3DX11EffectConstantBuffer@@@D3DX11Effects@@UAGPAUID3DX11EffectVariable@@PBD@Z ; D3DX11Effects::TEffectInvalidVariable<ID3DX11EffectConstantBuffer>::GetMemberBySemantic
PUBLIC	?GetElement@?$TEffectInvalidVariable@UID3DX11EffectConstantBuffer@@@D3DX11Effects@@UAGPAUID3DX11EffectVariable@@I@Z ; D3DX11Effects::TEffectInvalidVariable<ID3DX11EffectConstantBuffer>::GetElement
PUBLIC	?GetParentConstantBuffer@?$TEffectInvalidVariable@UID3DX11EffectConstantBuffer@@@D3DX11Effects@@UAGPAUID3DX11EffectConstantBuffer@@XZ ; D3DX11Effects::TEffectInvalidVariable<ID3DX11EffectConstantBuffer>::GetParentConstantBuffer
PUBLIC	?AsScalar@?$TEffectInvalidVariable@UID3DX11EffectConstantBuffer@@@D3DX11Effects@@UAGPAUID3DX11EffectScalarVariable@@XZ ; D3DX11Effects::TEffectInvalidVariable<ID3DX11EffectConstantBuffer>::AsScalar
PUBLIC	?AsVector@?$TEffectInvalidVariable@UID3DX11EffectConstantBuffer@@@D3DX11Effects@@UAGPAUID3DX11EffectVectorVariable@@XZ ; D3DX11Effects::TEffectInvalidVariable<ID3DX11EffectConstantBuffer>::AsVector
PUBLIC	?AsMatrix@?$TEffectInvalidVariable@UID3DX11EffectConstantBuffer@@@D3DX11Effects@@UAGPAUID3DX11EffectMatrixVariable@@XZ ; D3DX11Effects::TEffectInvalidVariable<ID3DX11EffectConstantBuffer>::AsMatrix
PUBLIC	?AsString@?$TEffectInvalidVariable@UID3DX11EffectConstantBuffer@@@D3DX11Effects@@UAGPAUID3DX11EffectStringVariable@@XZ ; D3DX11Effects::TEffectInvalidVariable<ID3DX11EffectConstantBuffer>::AsString
PUBLIC	?AsClassInstance@?$TEffectInvalidVariable@UID3DX11EffectConstantBuffer@@@D3DX11Effects@@UAGPAUID3DX11EffectClassInstanceVariable@@XZ ; D3DX11Effects::TEffectInvalidVariable<ID3DX11EffectConstantBuffer>::AsClassInstance
PUBLIC	?AsInterface@?$TEffectInvalidVariable@UID3DX11EffectConstantBuffer@@@D3DX11Effects@@UAGPAUID3DX11EffectInterfaceVariable@@XZ ; D3DX11Effects::TEffectInvalidVariable<ID3DX11EffectConstantBuffer>::AsInterface
PUBLIC	?AsShaderResource@?$TEffectInvalidVariable@UID3DX11EffectConstantBuffer@@@D3DX11Effects@@UAGPAUID3DX11EffectShaderResourceVariable@@XZ ; D3DX11Effects::TEffectInvalidVariable<ID3DX11EffectConstantBuffer>::AsShaderResource
PUBLIC	?AsUnorderedAccessView@?$TEffectInvalidVariable@UID3DX11EffectConstantBuffer@@@D3DX11Effects@@UAGPAUID3DX11EffectUnorderedAccessViewVariable@@XZ ; D3DX11Effects::TEffectInvalidVariable<ID3DX11EffectConstantBuffer>::AsUnorderedAccessView
PUBLIC	?AsRenderTargetView@?$TEffectInvalidVariable@UID3DX11EffectConstantBuffer@@@D3DX11Effects@@UAGPAUID3DX11EffectRenderTargetViewVariable@@XZ ; D3DX11Effects::TEffectInvalidVariable<ID3DX11EffectConstantBuffer>::AsRenderTargetView
PUBLIC	?AsDepthStencilView@?$TEffectInvalidVariable@UID3DX11EffectConstantBuffer@@@D3DX11Effects@@UAGPAUID3DX11EffectDepthStencilViewVariable@@XZ ; D3DX11Effects::TEffectInvalidVariable<ID3DX11EffectConstantBuffer>::AsDepthStencilView
PUBLIC	?AsConstantBuffer@?$TEffectInvalidVariable@UID3DX11EffectConstantBuffer@@@D3DX11Effects@@UAGPAUID3DX11EffectConstantBuffer@@XZ ; D3DX11Effects::TEffectInvalidVariable<ID3DX11EffectConstantBuffer>::AsConstantBuffer
PUBLIC	?AsShader@?$TEffectInvalidVariable@UID3DX11EffectConstantBuffer@@@D3DX11Effects@@UAGPAUID3DX11EffectShaderVariable@@XZ ; D3DX11Effects::TEffectInvalidVariable<ID3DX11EffectConstantBuffer>::AsShader
PUBLIC	?AsBlend@?$TEffectInvalidVariable@UID3DX11EffectConstantBuffer@@@D3DX11Effects@@UAGPAUID3DX11EffectBlendVariable@@XZ ; D3DX11Effects::TEffectInvalidVariable<ID3DX11EffectConstantBuffer>::AsBlend
PUBLIC	?AsDepthStencil@?$TEffectInvalidVariable@UID3DX11EffectConstantBuffer@@@D3DX11Effects@@UAGPAUID3DX11EffectDepthStencilVariable@@XZ ; D3DX11Effects::TEffectInvalidVariable<ID3DX11EffectConstantBuffer>::AsDepthStencil
PUBLIC	?AsRasterizer@?$TEffectInvalidVariable@UID3DX11EffectConstantBuffer@@@D3DX11Effects@@UAGPAUID3DX11EffectRasterizerVariable@@XZ ; D3DX11Effects::TEffectInvalidVariable<ID3DX11EffectConstantBuffer>::AsRasterizer
PUBLIC	?AsSampler@?$TEffectInvalidVariable@UID3DX11EffectConstantBuffer@@@D3DX11Effects@@UAGPAUID3DX11EffectSamplerVariable@@XZ ; D3DX11Effects::TEffectInvalidVariable<ID3DX11EffectConstantBuffer>::AsSampler
PUBLIC	?SetRawValue@?$TEffectInvalidVariable@UID3DX11EffectConstantBuffer@@@D3DX11Effects@@UAGJPBXII@Z ; D3DX11Effects::TEffectInvalidVariable<ID3DX11EffectConstantBuffer>::SetRawValue
PUBLIC	?GetRawValue@?$TEffectInvalidVariable@UID3DX11EffectConstantBuffer@@@D3DX11Effects@@UAGJPAXII@Z ; D3DX11Effects::TEffectInvalidVariable<ID3DX11EffectConstantBuffer>::GetRawValue
PUBLIC	??0?$TEffectInvalidVariable@UID3DX11EffectConstantBuffer@@@D3DX11Effects@@QAE@XZ ; D3DX11Effects::TEffectInvalidVariable<ID3DX11EffectConstantBuffer>::TEffectInvalidVariable<ID3DX11EffectConstantBuffer>
PUBLIC	?SetConstantBuffer@SEffectInvalidConstantBuffer@D3DX11Effects@@UAGJPAUID3D11Buffer@@@Z ; D3DX11Effects::SEffectInvalidConstantBuffer::SetConstantBuffer
PUBLIC	?GetConstantBuffer@SEffectInvalidConstantBuffer@D3DX11Effects@@UAGJPAPAUID3D11Buffer@@@Z ; D3DX11Effects::SEffectInvalidConstantBuffer::GetConstantBuffer
PUBLIC	?UndoSetConstantBuffer@SEffectInvalidConstantBuffer@D3DX11Effects@@UAGJXZ ; D3DX11Effects::SEffectInvalidConstantBuffer::UndoSetConstantBuffer
PUBLIC	?SetTextureBuffer@SEffectInvalidConstantBuffer@D3DX11Effects@@UAGJPAUID3D11ShaderResourceView@@@Z ; D3DX11Effects::SEffectInvalidConstantBuffer::SetTextureBuffer
PUBLIC	?GetTextureBuffer@SEffectInvalidConstantBuffer@D3DX11Effects@@UAGJPAPAUID3D11ShaderResourceView@@@Z ; D3DX11Effects::SEffectInvalidConstantBuffer::GetTextureBuffer
PUBLIC	?UndoSetTextureBuffer@SEffectInvalidConstantBuffer@D3DX11Effects@@UAGJXZ ; D3DX11Effects::SEffectInvalidConstantBuffer::UndoSetTextureBuffer
PUBLIC	??0SEffectInvalidConstantBuffer@D3DX11Effects@@QAE@XZ ; D3DX11Effects::SEffectInvalidConstantBuffer::SEffectInvalidConstantBuffer
PUBLIC	?IsValid@?$TEffectInvalidVariable@UID3DX11EffectShaderVariable@@@D3DX11Effects@@UAGHXZ ; D3DX11Effects::TEffectInvalidVariable<ID3DX11EffectShaderVariable>::IsValid
PUBLIC	?GetType@?$TEffectInvalidVariable@UID3DX11EffectShaderVariable@@@D3DX11Effects@@UAGPAUID3DX11EffectType@@XZ ; D3DX11Effects::TEffectInvalidVariable<ID3DX11EffectShaderVariable>::GetType
PUBLIC	?GetDesc@?$TEffectInvalidVariable@UID3DX11EffectShaderVariable@@@D3DX11Effects@@UAGJPAU_D3DX11_EFFECT_VARIABLE_DESC@@@Z ; D3DX11Effects::TEffectInvalidVariable<ID3DX11EffectShaderVariable>::GetDesc
PUBLIC	?GetAnnotationByIndex@?$TEffectInvalidVariable@UID3DX11EffectShaderVariable@@@D3DX11Effects@@UAGPAUID3DX11EffectVariable@@I@Z ; D3DX11Effects::TEffectInvalidVariable<ID3DX11EffectShaderVariable>::GetAnnotationByIndex
PUBLIC	?GetAnnotationByName@?$TEffectInvalidVariable@UID3DX11EffectShaderVariable@@@D3DX11Effects@@UAGPAUID3DX11EffectVariable@@PBD@Z ; D3DX11Effects::TEffectInvalidVariable<ID3DX11EffectShaderVariable>::GetAnnotationByName
PUBLIC	?GetMemberByIndex@?$TEffectInvalidVariable@UID3DX11EffectShaderVariable@@@D3DX11Effects@@UAGPAUID3DX11EffectVariable@@I@Z ; D3DX11Effects::TEffectInvalidVariable<ID3DX11EffectShaderVariable>::GetMemberByIndex
PUBLIC	?GetMemberByName@?$TEffectInvalidVariable@UID3DX11EffectShaderVariable@@@D3DX11Effects@@UAGPAUID3DX11EffectVariable@@PBD@Z ; D3DX11Effects::TEffectInvalidVariable<ID3DX11EffectShaderVariable>::GetMemberByName
PUBLIC	?GetMemberBySemantic@?$TEffectInvalidVariable@UID3DX11EffectShaderVariable@@@D3DX11Effects@@UAGPAUID3DX11EffectVariable@@PBD@Z ; D3DX11Effects::TEffectInvalidVariable<ID3DX11EffectShaderVariable>::GetMemberBySemantic
PUBLIC	?GetElement@?$TEffectInvalidVariable@UID3DX11EffectShaderVariable@@@D3DX11Effects@@UAGPAUID3DX11EffectVariable@@I@Z ; D3DX11Effects::TEffectInvalidVariable<ID3DX11EffectShaderVariable>::GetElement
PUBLIC	?GetParentConstantBuffer@?$TEffectInvalidVariable@UID3DX11EffectShaderVariable@@@D3DX11Effects@@UAGPAUID3DX11EffectConstantBuffer@@XZ ; D3DX11Effects::TEffectInvalidVariable<ID3DX11EffectShaderVariable>::GetParentConstantBuffer
PUBLIC	?AsScalar@?$TEffectInvalidVariable@UID3DX11EffectShaderVariable@@@D3DX11Effects@@UAGPAUID3DX11EffectScalarVariable@@XZ ; D3DX11Effects::TEffectInvalidVariable<ID3DX11EffectShaderVariable>::AsScalar
PUBLIC	?AsVector@?$TEffectInvalidVariable@UID3DX11EffectShaderVariable@@@D3DX11Effects@@UAGPAUID3DX11EffectVectorVariable@@XZ ; D3DX11Effects::TEffectInvalidVariable<ID3DX11EffectShaderVariable>::AsVector
PUBLIC	?AsMatrix@?$TEffectInvalidVariable@UID3DX11EffectShaderVariable@@@D3DX11Effects@@UAGPAUID3DX11EffectMatrixVariable@@XZ ; D3DX11Effects::TEffectInvalidVariable<ID3DX11EffectShaderVariable>::AsMatrix
PUBLIC	?AsString@?$TEffectInvalidVariable@UID3DX11EffectShaderVariable@@@D3DX11Effects@@UAGPAUID3DX11EffectStringVariable@@XZ ; D3DX11Effects::TEffectInvalidVariable<ID3DX11EffectShaderVariable>::AsString
PUBLIC	?AsClassInstance@?$TEffectInvalidVariable@UID3DX11EffectShaderVariable@@@D3DX11Effects@@UAGPAUID3DX11EffectClassInstanceVariable@@XZ ; D3DX11Effects::TEffectInvalidVariable<ID3DX11EffectShaderVariable>::AsClassInstance
PUBLIC	?AsInterface@?$TEffectInvalidVariable@UID3DX11EffectShaderVariable@@@D3DX11Effects@@UAGPAUID3DX11EffectInterfaceVariable@@XZ ; D3DX11Effects::TEffectInvalidVariable<ID3DX11EffectShaderVariable>::AsInterface
PUBLIC	?AsShaderResource@?$TEffectInvalidVariable@UID3DX11EffectShaderVariable@@@D3DX11Effects@@UAGPAUID3DX11EffectShaderResourceVariable@@XZ ; D3DX11Effects::TEffectInvalidVariable<ID3DX11EffectShaderVariable>::AsShaderResource
PUBLIC	?AsUnorderedAccessView@?$TEffectInvalidVariable@UID3DX11EffectShaderVariable@@@D3DX11Effects@@UAGPAUID3DX11EffectUnorderedAccessViewVariable@@XZ ; D3DX11Effects::TEffectInvalidVariable<ID3DX11EffectShaderVariable>::AsUnorderedAccessView
PUBLIC	?AsRenderTargetView@?$TEffectInvalidVariable@UID3DX11EffectShaderVariable@@@D3DX11Effects@@UAGPAUID3DX11EffectRenderTargetViewVariable@@XZ ; D3DX11Effects::TEffectInvalidVariable<ID3DX11EffectShaderVariable>::AsRenderTargetView
PUBLIC	?AsDepthStencilView@?$TEffectInvalidVariable@UID3DX11EffectShaderVariable@@@D3DX11Effects@@UAGPAUID3DX11EffectDepthStencilViewVariable@@XZ ; D3DX11Effects::TEffectInvalidVariable<ID3DX11EffectShaderVariable>::AsDepthStencilView
PUBLIC	?AsConstantBuffer@?$TEffectInvalidVariable@UID3DX11EffectShaderVariable@@@D3DX11Effects@@UAGPAUID3DX11EffectConstantBuffer@@XZ ; D3DX11Effects::TEffectInvalidVariable<ID3DX11EffectShaderVariable>::AsConstantBuffer
PUBLIC	?AsShader@?$TEffectInvalidVariable@UID3DX11EffectShaderVariable@@@D3DX11Effects@@UAGPAUID3DX11EffectShaderVariable@@XZ ; D3DX11Effects::TEffectInvalidVariable<ID3DX11EffectShaderVariable>::AsShader
PUBLIC	?AsBlend@?$TEffectInvalidVariable@UID3DX11EffectShaderVariable@@@D3DX11Effects@@UAGPAUID3DX11EffectBlendVariable@@XZ ; D3DX11Effects::TEffectInvalidVariable<ID3DX11EffectShaderVariable>::AsBlend
PUBLIC	?AsDepthStencil@?$TEffectInvalidVariable@UID3DX11EffectShaderVariable@@@D3DX11Effects@@UAGPAUID3DX11EffectDepthStencilVariable@@XZ ; D3DX11Effects::TEffectInvalidVariable<ID3DX11EffectShaderVariable>::AsDepthStencil
PUBLIC	?AsRasterizer@?$TEffectInvalidVariable@UID3DX11EffectShaderVariable@@@D3DX11Effects@@UAGPAUID3DX11EffectRasterizerVariable@@XZ ; D3DX11Effects::TEffectInvalidVariable<ID3DX11EffectShaderVariable>::AsRasterizer
PUBLIC	?AsSampler@?$TEffectInvalidVariable@UID3DX11EffectShaderVariable@@@D3DX11Effects@@UAGPAUID3DX11EffectSamplerVariable@@XZ ; D3DX11Effects::TEffectInvalidVariable<ID3DX11EffectShaderVariable>::AsSampler
PUBLIC	?SetRawValue@?$TEffectInvalidVariable@UID3DX11EffectShaderVariable@@@D3DX11Effects@@UAGJPBXII@Z ; D3DX11Effects::TEffectInvalidVariable<ID3DX11EffectShaderVariable>::SetRawValue
PUBLIC	?GetRawValue@?$TEffectInvalidVariable@UID3DX11EffectShaderVariable@@@D3DX11Effects@@UAGJPAXII@Z ; D3DX11Effects::TEffectInvalidVariable<ID3DX11EffectShaderVariable>::GetRawValue
PUBLIC	??0?$TEffectInvalidVariable@UID3DX11EffectShaderVariable@@@D3DX11Effects@@QAE@XZ ; D3DX11Effects::TEffectInvalidVariable<ID3DX11EffectShaderVariable>::TEffectInvalidVariable<ID3DX11EffectShaderVariable>
PUBLIC	?GetShaderDesc@SEffectInvalidShaderVariable@D3DX11Effects@@UAGJIPAU_D3DX11_EFFECT_SHADER_DESC@@@Z ; D3DX11Effects::SEffectInvalidShaderVariable::GetShaderDesc
PUBLIC	?GetVertexShader@SEffectInvalidShaderVariable@D3DX11Effects@@UAGJIPAPAUID3D11VertexShader@@@Z ; D3DX11Effects::SEffectInvalidShaderVariable::GetVertexShader
PUBLIC	?GetGeometryShader@SEffectInvalidShaderVariable@D3DX11Effects@@UAGJIPAPAUID3D11GeometryShader@@@Z ; D3DX11Effects::SEffectInvalidShaderVariable::GetGeometryShader
PUBLIC	?GetPixelShader@SEffectInvalidShaderVariable@D3DX11Effects@@UAGJIPAPAUID3D11PixelShader@@@Z ; D3DX11Effects::SEffectInvalidShaderVariable::GetPixelShader
PUBLIC	?GetHullShader@SEffectInvalidShaderVariable@D3DX11Effects@@UAGJIPAPAUID3D11HullShader@@@Z ; D3DX11Effects::SEffectInvalidShaderVariable::GetHullShader
PUBLIC	?GetDomainShader@SEffectInvalidShaderVariable@D3DX11Effects@@UAGJIPAPAUID3D11DomainShader@@@Z ; D3DX11Effects::SEffectInvalidShaderVariable::GetDomainShader
PUBLIC	?GetComputeShader@SEffectInvalidShaderVariable@D3DX11Effects@@UAGJIPAPAUID3D11ComputeShader@@@Z ; D3DX11Effects::SEffectInvalidShaderVariable::GetComputeShader
PUBLIC	?GetInputSignatureElementDesc@SEffectInvalidShaderVariable@D3DX11Effects@@UAGJIIPAU_D3D11_SIGNATURE_PARAMETER_DESC@@@Z ; D3DX11Effects::SEffectInvalidShaderVariable::GetInputSignatureElementDesc
PUBLIC	?GetOutputSignatureElementDesc@SEffectInvalidShaderVariable@D3DX11Effects@@UAGJIIPAU_D3D11_SIGNATURE_PARAMETER_DESC@@@Z ; D3DX11Effects::SEffectInvalidShaderVariable::GetOutputSignatureElementDesc
PUBLIC	?GetPatchConstantSignatureElementDesc@SEffectInvalidShaderVariable@D3DX11Effects@@UAGJIIPAU_D3D11_SIGNATURE_PARAMETER_DESC@@@Z ; D3DX11Effects::SEffectInvalidShaderVariable::GetPatchConstantSignatureElementDesc
PUBLIC	??0SEffectInvalidShaderVariable@D3DX11Effects@@QAE@XZ ; D3DX11Effects::SEffectInvalidShaderVariable::SEffectInvalidShaderVariable
PUBLIC	?IsValid@?$TEffectInvalidVariable@UID3DX11EffectBlendVariable@@@D3DX11Effects@@UAGHXZ ; D3DX11Effects::TEffectInvalidVariable<ID3DX11EffectBlendVariable>::IsValid
PUBLIC	?GetType@?$TEffectInvalidVariable@UID3DX11EffectBlendVariable@@@D3DX11Effects@@UAGPAUID3DX11EffectType@@XZ ; D3DX11Effects::TEffectInvalidVariable<ID3DX11EffectBlendVariable>::GetType
PUBLIC	?GetDesc@?$TEffectInvalidVariable@UID3DX11EffectBlendVariable@@@D3DX11Effects@@UAGJPAU_D3DX11_EFFECT_VARIABLE_DESC@@@Z ; D3DX11Effects::TEffectInvalidVariable<ID3DX11EffectBlendVariable>::GetDesc
PUBLIC	?GetAnnotationByIndex@?$TEffectInvalidVariable@UID3DX11EffectBlendVariable@@@D3DX11Effects@@UAGPAUID3DX11EffectVariable@@I@Z ; D3DX11Effects::TEffectInvalidVariable<ID3DX11EffectBlendVariable>::GetAnnotationByIndex
PUBLIC	?GetAnnotationByName@?$TEffectInvalidVariable@UID3DX11EffectBlendVariable@@@D3DX11Effects@@UAGPAUID3DX11EffectVariable@@PBD@Z ; D3DX11Effects::TEffectInvalidVariable<ID3DX11EffectBlendVariable>::GetAnnotationByName
PUBLIC	?GetMemberByIndex@?$TEffectInvalidVariable@UID3DX11EffectBlendVariable@@@D3DX11Effects@@UAGPAUID3DX11EffectVariable@@I@Z ; D3DX11Effects::TEffectInvalidVariable<ID3DX11EffectBlendVariable>::GetMemberByIndex
PUBLIC	?GetMemberByName@?$TEffectInvalidVariable@UID3DX11EffectBlendVariable@@@D3DX11Effects@@UAGPAUID3DX11EffectVariable@@PBD@Z ; D3DX11Effects::TEffectInvalidVariable<ID3DX11EffectBlendVariable>::GetMemberByName
PUBLIC	?GetMemberBySemantic@?$TEffectInvalidVariable@UID3DX11EffectBlendVariable@@@D3DX11Effects@@UAGPAUID3DX11EffectVariable@@PBD@Z ; D3DX11Effects::TEffectInvalidVariable<ID3DX11EffectBlendVariable>::GetMemberBySemantic
PUBLIC	?GetElement@?$TEffectInvalidVariable@UID3DX11EffectBlendVariable@@@D3DX11Effects@@UAGPAUID3DX11EffectVariable@@I@Z ; D3DX11Effects::TEffectInvalidVariable<ID3DX11EffectBlendVariable>::GetElement
PUBLIC	?GetParentConstantBuffer@?$TEffectInvalidVariable@UID3DX11EffectBlendVariable@@@D3DX11Effects@@UAGPAUID3DX11EffectConstantBuffer@@XZ ; D3DX11Effects::TEffectInvalidVariable<ID3DX11EffectBlendVariable>::GetParentConstantBuffer
PUBLIC	?AsScalar@?$TEffectInvalidVariable@UID3DX11EffectBlendVariable@@@D3DX11Effects@@UAGPAUID3DX11EffectScalarVariable@@XZ ; D3DX11Effects::TEffectInvalidVariable<ID3DX11EffectBlendVariable>::AsScalar
PUBLIC	?AsVector@?$TEffectInvalidVariable@UID3DX11EffectBlendVariable@@@D3DX11Effects@@UAGPAUID3DX11EffectVectorVariable@@XZ ; D3DX11Effects::TEffectInvalidVariable<ID3DX11EffectBlendVariable>::AsVector
PUBLIC	?AsMatrix@?$TEffectInvalidVariable@UID3DX11EffectBlendVariable@@@D3DX11Effects@@UAGPAUID3DX11EffectMatrixVariable@@XZ ; D3DX11Effects::TEffectInvalidVariable<ID3DX11EffectBlendVariable>::AsMatrix
PUBLIC	?AsString@?$TEffectInvalidVariable@UID3DX11EffectBlendVariable@@@D3DX11Effects@@UAGPAUID3DX11EffectStringVariable@@XZ ; D3DX11Effects::TEffectInvalidVariable<ID3DX11EffectBlendVariable>::AsString
PUBLIC	?AsClassInstance@?$TEffectInvalidVariable@UID3DX11EffectBlendVariable@@@D3DX11Effects@@UAGPAUID3DX11EffectClassInstanceVariable@@XZ ; D3DX11Effects::TEffectInvalidVariable<ID3DX11EffectBlendVariable>::AsClassInstance
PUBLIC	?AsInterface@?$TEffectInvalidVariable@UID3DX11EffectBlendVariable@@@D3DX11Effects@@UAGPAUID3DX11EffectInterfaceVariable@@XZ ; D3DX11Effects::TEffectInvalidVariable<ID3DX11EffectBlendVariable>::AsInterface
PUBLIC	?AsShaderResource@?$TEffectInvalidVariable@UID3DX11EffectBlendVariable@@@D3DX11Effects@@UAGPAUID3DX11EffectShaderResourceVariable@@XZ ; D3DX11Effects::TEffectInvalidVariable<ID3DX11EffectBlendVariable>::AsShaderResource
PUBLIC	?AsUnorderedAccessView@?$TEffectInvalidVariable@UID3DX11EffectBlendVariable@@@D3DX11Effects@@UAGPAUID3DX11EffectUnorderedAccessViewVariable@@XZ ; D3DX11Effects::TEffectInvalidVariable<ID3DX11EffectBlendVariable>::AsUnorderedAccessView
PUBLIC	?AsRenderTargetView@?$TEffectInvalidVariable@UID3DX11EffectBlendVariable@@@D3DX11Effects@@UAGPAUID3DX11EffectRenderTargetViewVariable@@XZ ; D3DX11Effects::TEffectInvalidVariable<ID3DX11EffectBlendVariable>::AsRenderTargetView
PUBLIC	?AsDepthStencilView@?$TEffectInvalidVariable@UID3DX11EffectBlendVariable@@@D3DX11Effects@@UAGPAUID3DX11EffectDepthStencilViewVariable@@XZ ; D3DX11Effects::TEffectInvalidVariable<ID3DX11EffectBlendVariable>::AsDepthStencilView
PUBLIC	?AsConstantBuffer@?$TEffectInvalidVariable@UID3DX11EffectBlendVariable@@@D3DX11Effects@@UAGPAUID3DX11EffectConstantBuffer@@XZ ; D3DX11Effects::TEffectInvalidVariable<ID3DX11EffectBlendVariable>::AsConstantBuffer
PUBLIC	?AsShader@?$TEffectInvalidVariable@UID3DX11EffectBlendVariable@@@D3DX11Effects@@UAGPAUID3DX11EffectShaderVariable@@XZ ; D3DX11Effects::TEffectInvalidVariable<ID3DX11EffectBlendVariable>::AsShader
PUBLIC	?AsBlend@?$TEffectInvalidVariable@UID3DX11EffectBlendVariable@@@D3DX11Effects@@UAGPAUID3DX11EffectBlendVariable@@XZ ; D3DX11Effects::TEffectInvalidVariable<ID3DX11EffectBlendVariable>::AsBlend
PUBLIC	?AsDepthStencil@?$TEffectInvalidVariable@UID3DX11EffectBlendVariable@@@D3DX11Effects@@UAGPAUID3DX11EffectDepthStencilVariable@@XZ ; D3DX11Effects::TEffectInvalidVariable<ID3DX11EffectBlendVariable>::AsDepthStencil
PUBLIC	?AsRasterizer@?$TEffectInvalidVariable@UID3DX11EffectBlendVariable@@@D3DX11Effects@@UAGPAUID3DX11EffectRasterizerVariable@@XZ ; D3DX11Effects::TEffectInvalidVariable<ID3DX11EffectBlendVariable>::AsRasterizer
PUBLIC	?AsSampler@?$TEffectInvalidVariable@UID3DX11EffectBlendVariable@@@D3DX11Effects@@UAGPAUID3DX11EffectSamplerVariable@@XZ ; D3DX11Effects::TEffectInvalidVariable<ID3DX11EffectBlendVariable>::AsSampler
PUBLIC	?SetRawValue@?$TEffectInvalidVariable@UID3DX11EffectBlendVariable@@@D3DX11Effects@@UAGJPBXII@Z ; D3DX11Effects::TEffectInvalidVariable<ID3DX11EffectBlendVariable>::SetRawValue
PUBLIC	?GetRawValue@?$TEffectInvalidVariable@UID3DX11EffectBlendVariable@@@D3DX11Effects@@UAGJPAXII@Z ; D3DX11Effects::TEffectInvalidVariable<ID3DX11EffectBlendVariable>::GetRawValue
PUBLIC	??0?$TEffectInvalidVariable@UID3DX11EffectBlendVariable@@@D3DX11Effects@@QAE@XZ ; D3DX11Effects::TEffectInvalidVariable<ID3DX11EffectBlendVariable>::TEffectInvalidVariable<ID3DX11EffectBlendVariable>
PUBLIC	?GetBlendState@SEffectInvalidBlendVariable@D3DX11Effects@@UAGJIPAPAUID3D11BlendState@@@Z ; D3DX11Effects::SEffectInvalidBlendVariable::GetBlendState
PUBLIC	?SetBlendState@SEffectInvalidBlendVariable@D3DX11Effects@@UAGJIPAUID3D11BlendState@@@Z ; D3DX11Effects::SEffectInvalidBlendVariable::SetBlendState
PUBLIC	?UndoSetBlendState@SEffectInvalidBlendVariable@D3DX11Effects@@UAGJI@Z ; D3DX11Effects::SEffectInvalidBlendVariable::UndoSetBlendState
PUBLIC	?GetBackingStore@SEffectInvalidBlendVariable@D3DX11Effects@@UAGJIPAUD3D11_BLEND_DESC@@@Z ; D3DX11Effects::SEffectInvalidBlendVariable::GetBackingStore
PUBLIC	??0SEffectInvalidBlendVariable@D3DX11Effects@@QAE@XZ ; D3DX11Effects::SEffectInvalidBlendVariable::SEffectInvalidBlendVariable
PUBLIC	?IsValid@?$TEffectInvalidVariable@UID3DX11EffectDepthStencilVariable@@@D3DX11Effects@@UAGHXZ ; D3DX11Effects::TEffectInvalidVariable<ID3DX11EffectDepthStencilVariable>::IsValid
PUBLIC	?GetType@?$TEffectInvalidVariable@UID3DX11EffectDepthStencilVariable@@@D3DX11Effects@@UAGPAUID3DX11EffectType@@XZ ; D3DX11Effects::TEffectInvalidVariable<ID3DX11EffectDepthStencilVariable>::GetType
PUBLIC	?GetDesc@?$TEffectInvalidVariable@UID3DX11EffectDepthStencilVariable@@@D3DX11Effects@@UAGJPAU_D3DX11_EFFECT_VARIABLE_DESC@@@Z ; D3DX11Effects::TEffectInvalidVariable<ID3DX11EffectDepthStencilVariable>::GetDesc
PUBLIC	?GetAnnotationByIndex@?$TEffectInvalidVariable@UID3DX11EffectDepthStencilVariable@@@D3DX11Effects@@UAGPAUID3DX11EffectVariable@@I@Z ; D3DX11Effects::TEffectInvalidVariable<ID3DX11EffectDepthStencilVariable>::GetAnnotationByIndex
PUBLIC	?GetAnnotationByName@?$TEffectInvalidVariable@UID3DX11EffectDepthStencilVariable@@@D3DX11Effects@@UAGPAUID3DX11EffectVariable@@PBD@Z ; D3DX11Effects::TEffectInvalidVariable<ID3DX11EffectDepthStencilVariable>::GetAnnotationByName
PUBLIC	?GetMemberByIndex@?$TEffectInvalidVariable@UID3DX11EffectDepthStencilVariable@@@D3DX11Effects@@UAGPAUID3DX11EffectVariable@@I@Z ; D3DX11Effects::TEffectInvalidVariable<ID3DX11EffectDepthStencilVariable>::GetMemberByIndex
PUBLIC	?GetMemberByName@?$TEffectInvalidVariable@UID3DX11EffectDepthStencilVariable@@@D3DX11Effects@@UAGPAUID3DX11EffectVariable@@PBD@Z ; D3DX11Effects::TEffectInvalidVariable<ID3DX11EffectDepthStencilVariable>::GetMemberByName
PUBLIC	?GetMemberBySemantic@?$TEffectInvalidVariable@UID3DX11EffectDepthStencilVariable@@@D3DX11Effects@@UAGPAUID3DX11EffectVariable@@PBD@Z ; D3DX11Effects::TEffectInvalidVariable<ID3DX11EffectDepthStencilVariable>::GetMemberBySemantic
PUBLIC	?GetElement@?$TEffectInvalidVariable@UID3DX11EffectDepthStencilVariable@@@D3DX11Effects@@UAGPAUID3DX11EffectVariable@@I@Z ; D3DX11Effects::TEffectInvalidVariable<ID3DX11EffectDepthStencilVariable>::GetElement
PUBLIC	?GetParentConstantBuffer@?$TEffectInvalidVariable@UID3DX11EffectDepthStencilVariable@@@D3DX11Effects@@UAGPAUID3DX11EffectConstantBuffer@@XZ ; D3DX11Effects::TEffectInvalidVariable<ID3DX11EffectDepthStencilVariable>::GetParentConstantBuffer
PUBLIC	?AsScalar@?$TEffectInvalidVariable@UID3DX11EffectDepthStencilVariable@@@D3DX11Effects@@UAGPAUID3DX11EffectScalarVariable@@XZ ; D3DX11Effects::TEffectInvalidVariable<ID3DX11EffectDepthStencilVariable>::AsScalar
PUBLIC	?AsVector@?$TEffectInvalidVariable@UID3DX11EffectDepthStencilVariable@@@D3DX11Effects@@UAGPAUID3DX11EffectVectorVariable@@XZ ; D3DX11Effects::TEffectInvalidVariable<ID3DX11EffectDepthStencilVariable>::AsVector
PUBLIC	?AsMatrix@?$TEffectInvalidVariable@UID3DX11EffectDepthStencilVariable@@@D3DX11Effects@@UAGPAUID3DX11EffectMatrixVariable@@XZ ; D3DX11Effects::TEffectInvalidVariable<ID3DX11EffectDepthStencilVariable>::AsMatrix
PUBLIC	?AsString@?$TEffectInvalidVariable@UID3DX11EffectDepthStencilVariable@@@D3DX11Effects@@UAGPAUID3DX11EffectStringVariable@@XZ ; D3DX11Effects::TEffectInvalidVariable<ID3DX11EffectDepthStencilVariable>::AsString
PUBLIC	?AsClassInstance@?$TEffectInvalidVariable@UID3DX11EffectDepthStencilVariable@@@D3DX11Effects@@UAGPAUID3DX11EffectClassInstanceVariable@@XZ ; D3DX11Effects::TEffectInvalidVariable<ID3DX11EffectDepthStencilVariable>::AsClassInstance
PUBLIC	?AsInterface@?$TEffectInvalidVariable@UID3DX11EffectDepthStencilVariable@@@D3DX11Effects@@UAGPAUID3DX11EffectInterfaceVariable@@XZ ; D3DX11Effects::TEffectInvalidVariable<ID3DX11EffectDepthStencilVariable>::AsInterface
PUBLIC	?AsShaderResource@?$TEffectInvalidVariable@UID3DX11EffectDepthStencilVariable@@@D3DX11Effects@@UAGPAUID3DX11EffectShaderResourceVariable@@XZ ; D3DX11Effects::TEffectInvalidVariable<ID3DX11EffectDepthStencilVariable>::AsShaderResource
PUBLIC	?AsUnorderedAccessView@?$TEffectInvalidVariable@UID3DX11EffectDepthStencilVariable@@@D3DX11Effects@@UAGPAUID3DX11EffectUnorderedAccessViewVariable@@XZ ; D3DX11Effects::TEffectInvalidVariable<ID3DX11EffectDepthStencilVariable>::AsUnorderedAccessView
PUBLIC	?AsRenderTargetView@?$TEffectInvalidVariable@UID3DX11EffectDepthStencilVariable@@@D3DX11Effects@@UAGPAUID3DX11EffectRenderTargetViewVariable@@XZ ; D3DX11Effects::TEffectInvalidVariable<ID3DX11EffectDepthStencilVariable>::AsRenderTargetView
PUBLIC	?AsDepthStencilView@?$TEffectInvalidVariable@UID3DX11EffectDepthStencilVariable@@@D3DX11Effects@@UAGPAUID3DX11EffectDepthStencilViewVariable@@XZ ; D3DX11Effects::TEffectInvalidVariable<ID3DX11EffectDepthStencilVariable>::AsDepthStencilView
PUBLIC	?AsConstantBuffer@?$TEffectInvalidVariable@UID3DX11EffectDepthStencilVariable@@@D3DX11Effects@@UAGPAUID3DX11EffectConstantBuffer@@XZ ; D3DX11Effects::TEffectInvalidVariable<ID3DX11EffectDepthStencilVariable>::AsConstantBuffer
PUBLIC	?AsShader@?$TEffectInvalidVariable@UID3DX11EffectDepthStencilVariable@@@D3DX11Effects@@UAGPAUID3DX11EffectShaderVariable@@XZ ; D3DX11Effects::TEffectInvalidVariable<ID3DX11EffectDepthStencilVariable>::AsShader
PUBLIC	?AsBlend@?$TEffectInvalidVariable@UID3DX11EffectDepthStencilVariable@@@D3DX11Effects@@UAGPAUID3DX11EffectBlendVariable@@XZ ; D3DX11Effects::TEffectInvalidVariable<ID3DX11EffectDepthStencilVariable>::AsBlend
PUBLIC	?AsDepthStencil@?$TEffectInvalidVariable@UID3DX11EffectDepthStencilVariable@@@D3DX11Effects@@UAGPAUID3DX11EffectDepthStencilVariable@@XZ ; D3DX11Effects::TEffectInvalidVariable<ID3DX11EffectDepthStencilVariable>::AsDepthStencil
PUBLIC	?AsRasterizer@?$TEffectInvalidVariable@UID3DX11EffectDepthStencilVariable@@@D3DX11Effects@@UAGPAUID3DX11EffectRasterizerVariable@@XZ ; D3DX11Effects::TEffectInvalidVariable<ID3DX11EffectDepthStencilVariable>::AsRasterizer
PUBLIC	?AsSampler@?$TEffectInvalidVariable@UID3DX11EffectDepthStencilVariable@@@D3DX11Effects@@UAGPAUID3DX11EffectSamplerVariable@@XZ ; D3DX11Effects::TEffectInvalidVariable<ID3DX11EffectDepthStencilVariable>::AsSampler
PUBLIC	?SetRawValue@?$TEffectInvalidVariable@UID3DX11EffectDepthStencilVariable@@@D3DX11Effects@@UAGJPBXII@Z ; D3DX11Effects::TEffectInvalidVariable<ID3DX11EffectDepthStencilVariable>::SetRawValue
PUBLIC	?GetRawValue@?$TEffectInvalidVariable@UID3DX11EffectDepthStencilVariable@@@D3DX11Effects@@UAGJPAXII@Z ; D3DX11Effects::TEffectInvalidVariable<ID3DX11EffectDepthStencilVariable>::GetRawValue
PUBLIC	??0?$TEffectInvalidVariable@UID3DX11EffectDepthStencilVariable@@@D3DX11Effects@@QAE@XZ ; D3DX11Effects::TEffectInvalidVariable<ID3DX11EffectDepthStencilVariable>::TEffectInvalidVariable<ID3DX11EffectDepthStencilVariable>
PUBLIC	?GetDepthStencilState@SEffectInvalidDepthStencilVariable@D3DX11Effects@@UAGJIPAPAUID3D11DepthStencilState@@@Z ; D3DX11Effects::SEffectInvalidDepthStencilVariable::GetDepthStencilState
PUBLIC	?SetDepthStencilState@SEffectInvalidDepthStencilVariable@D3DX11Effects@@UAGJIPAUID3D11DepthStencilState@@@Z ; D3DX11Effects::SEffectInvalidDepthStencilVariable::SetDepthStencilState
PUBLIC	?UndoSetDepthStencilState@SEffectInvalidDepthStencilVariable@D3DX11Effects@@UAGJI@Z ; D3DX11Effects::SEffectInvalidDepthStencilVariable::UndoSetDepthStencilState
PUBLIC	?GetBackingStore@SEffectInvalidDepthStencilVariable@D3DX11Effects@@UAGJIPAUD3D11_DEPTH_STENCIL_DESC@@@Z ; D3DX11Effects::SEffectInvalidDepthStencilVariable::GetBackingStore
PUBLIC	??0SEffectInvalidDepthStencilVariable@D3DX11Effects@@QAE@XZ ; D3DX11Effects::SEffectInvalidDepthStencilVariable::SEffectInvalidDepthStencilVariable
PUBLIC	?IsValid@?$TEffectInvalidVariable@UID3DX11EffectRasterizerVariable@@@D3DX11Effects@@UAGHXZ ; D3DX11Effects::TEffectInvalidVariable<ID3DX11EffectRasterizerVariable>::IsValid
PUBLIC	?GetType@?$TEffectInvalidVariable@UID3DX11EffectRasterizerVariable@@@D3DX11Effects@@UAGPAUID3DX11EffectType@@XZ ; D3DX11Effects::TEffectInvalidVariable<ID3DX11EffectRasterizerVariable>::GetType
PUBLIC	?GetDesc@?$TEffectInvalidVariable@UID3DX11EffectRasterizerVariable@@@D3DX11Effects@@UAGJPAU_D3DX11_EFFECT_VARIABLE_DESC@@@Z ; D3DX11Effects::TEffectInvalidVariable<ID3DX11EffectRasterizerVariable>::GetDesc
PUBLIC	?GetAnnotationByIndex@?$TEffectInvalidVariable@UID3DX11EffectRasterizerVariable@@@D3DX11Effects@@UAGPAUID3DX11EffectVariable@@I@Z ; D3DX11Effects::TEffectInvalidVariable<ID3DX11EffectRasterizerVariable>::GetAnnotationByIndex
PUBLIC	?GetAnnotationByName@?$TEffectInvalidVariable@UID3DX11EffectRasterizerVariable@@@D3DX11Effects@@UAGPAUID3DX11EffectVariable@@PBD@Z ; D3DX11Effects::TEffectInvalidVariable<ID3DX11EffectRasterizerVariable>::GetAnnotationByName
PUBLIC	?GetMemberByIndex@?$TEffectInvalidVariable@UID3DX11EffectRasterizerVariable@@@D3DX11Effects@@UAGPAUID3DX11EffectVariable@@I@Z ; D3DX11Effects::TEffectInvalidVariable<ID3DX11EffectRasterizerVariable>::GetMemberByIndex
PUBLIC	?GetMemberByName@?$TEffectInvalidVariable@UID3DX11EffectRasterizerVariable@@@D3DX11Effects@@UAGPAUID3DX11EffectVariable@@PBD@Z ; D3DX11Effects::TEffectInvalidVariable<ID3DX11EffectRasterizerVariable>::GetMemberByName
PUBLIC	?GetMemberBySemantic@?$TEffectInvalidVariable@UID3DX11EffectRasterizerVariable@@@D3DX11Effects@@UAGPAUID3DX11EffectVariable@@PBD@Z ; D3DX11Effects::TEffectInvalidVariable<ID3DX11EffectRasterizerVariable>::GetMemberBySemantic
PUBLIC	?GetElement@?$TEffectInvalidVariable@UID3DX11EffectRasterizerVariable@@@D3DX11Effects@@UAGPAUID3DX11EffectVariable@@I@Z ; D3DX11Effects::TEffectInvalidVariable<ID3DX11EffectRasterizerVariable>::GetElement
PUBLIC	?GetParentConstantBuffer@?$TEffectInvalidVariable@UID3DX11EffectRasterizerVariable@@@D3DX11Effects@@UAGPAUID3DX11EffectConstantBuffer@@XZ ; D3DX11Effects::TEffectInvalidVariable<ID3DX11EffectRasterizerVariable>::GetParentConstantBuffer
PUBLIC	?AsScalar@?$TEffectInvalidVariable@UID3DX11EffectRasterizerVariable@@@D3DX11Effects@@UAGPAUID3DX11EffectScalarVariable@@XZ ; D3DX11Effects::TEffectInvalidVariable<ID3DX11EffectRasterizerVariable>::AsScalar
PUBLIC	?AsVector@?$TEffectInvalidVariable@UID3DX11EffectRasterizerVariable@@@D3DX11Effects@@UAGPAUID3DX11EffectVectorVariable@@XZ ; D3DX11Effects::TEffectInvalidVariable<ID3DX11EffectRasterizerVariable>::AsVector
PUBLIC	?AsMatrix@?$TEffectInvalidVariable@UID3DX11EffectRasterizerVariable@@@D3DX11Effects@@UAGPAUID3DX11EffectMatrixVariable@@XZ ; D3DX11Effects::TEffectInvalidVariable<ID3DX11EffectRasterizerVariable>::AsMatrix
PUBLIC	?AsString@?$TEffectInvalidVariable@UID3DX11EffectRasterizerVariable@@@D3DX11Effects@@UAGPAUID3DX11EffectStringVariable@@XZ ; D3DX11Effects::TEffectInvalidVariable<ID3DX11EffectRasterizerVariable>::AsString
PUBLIC	?AsClassInstance@?$TEffectInvalidVariable@UID3DX11EffectRasterizerVariable@@@D3DX11Effects@@UAGPAUID3DX11EffectClassInstanceVariable@@XZ ; D3DX11Effects::TEffectInvalidVariable<ID3DX11EffectRasterizerVariable>::AsClassInstance
PUBLIC	?AsInterface@?$TEffectInvalidVariable@UID3DX11EffectRasterizerVariable@@@D3DX11Effects@@UAGPAUID3DX11EffectInterfaceVariable@@XZ ; D3DX11Effects::TEffectInvalidVariable<ID3DX11EffectRasterizerVariable>::AsInterface
PUBLIC	?AsShaderResource@?$TEffectInvalidVariable@UID3DX11EffectRasterizerVariable@@@D3DX11Effects@@UAGPAUID3DX11EffectShaderResourceVariable@@XZ ; D3DX11Effects::TEffectInvalidVariable<ID3DX11EffectRasterizerVariable>::AsShaderResource
PUBLIC	?AsUnorderedAccessView@?$TEffectInvalidVariable@UID3DX11EffectRasterizerVariable@@@D3DX11Effects@@UAGPAUID3DX11EffectUnorderedAccessViewVariable@@XZ ; D3DX11Effects::TEffectInvalidVariable<ID3DX11EffectRasterizerVariable>::AsUnorderedAccessView
PUBLIC	?AsRenderTargetView@?$TEffectInvalidVariable@UID3DX11EffectRasterizerVariable@@@D3DX11Effects@@UAGPAUID3DX11EffectRenderTargetViewVariable@@XZ ; D3DX11Effects::TEffectInvalidVariable<ID3DX11EffectRasterizerVariable>::AsRenderTargetView
PUBLIC	?AsDepthStencilView@?$TEffectInvalidVariable@UID3DX11EffectRasterizerVariable@@@D3DX11Effects@@UAGPAUID3DX11EffectDepthStencilViewVariable@@XZ ; D3DX11Effects::TEffectInvalidVariable<ID3DX11EffectRasterizerVariable>::AsDepthStencilView
PUBLIC	?AsConstantBuffer@?$TEffectInvalidVariable@UID3DX11EffectRasterizerVariable@@@D3DX11Effects@@UAGPAUID3DX11EffectConstantBuffer@@XZ ; D3DX11Effects::TEffectInvalidVariable<ID3DX11EffectRasterizerVariable>::AsConstantBuffer
PUBLIC	?AsShader@?$TEffectInvalidVariable@UID3DX11EffectRasterizerVariable@@@D3DX11Effects@@UAGPAUID3DX11EffectShaderVariable@@XZ ; D3DX11Effects::TEffectInvalidVariable<ID3DX11EffectRasterizerVariable>::AsShader
PUBLIC	?AsBlend@?$TEffectInvalidVariable@UID3DX11EffectRasterizerVariable@@@D3DX11Effects@@UAGPAUID3DX11EffectBlendVariable@@XZ ; D3DX11Effects::TEffectInvalidVariable<ID3DX11EffectRasterizerVariable>::AsBlend
PUBLIC	?AsDepthStencil@?$TEffectInvalidVariable@UID3DX11EffectRasterizerVariable@@@D3DX11Effects@@UAGPAUID3DX11EffectDepthStencilVariable@@XZ ; D3DX11Effects::TEffectInvalidVariable<ID3DX11EffectRasterizerVariable>::AsDepthStencil
PUBLIC	?AsRasterizer@?$TEffectInvalidVariable@UID3DX11EffectRasterizerVariable@@@D3DX11Effects@@UAGPAUID3DX11EffectRasterizerVariable@@XZ ; D3DX11Effects::TEffectInvalidVariable<ID3DX11EffectRasterizerVariable>::AsRasterizer
PUBLIC	?AsSampler@?$TEffectInvalidVariable@UID3DX11EffectRasterizerVariable@@@D3DX11Effects@@UAGPAUID3DX11EffectSamplerVariable@@XZ ; D3DX11Effects::TEffectInvalidVariable<ID3DX11EffectRasterizerVariable>::AsSampler
PUBLIC	?SetRawValue@?$TEffectInvalidVariable@UID3DX11EffectRasterizerVariable@@@D3DX11Effects@@UAGJPBXII@Z ; D3DX11Effects::TEffectInvalidVariable<ID3DX11EffectRasterizerVariable>::SetRawValue
PUBLIC	?GetRawValue@?$TEffectInvalidVariable@UID3DX11EffectRasterizerVariable@@@D3DX11Effects@@UAGJPAXII@Z ; D3DX11Effects::TEffectInvalidVariable<ID3DX11EffectRasterizerVariable>::GetRawValue
PUBLIC	??0?$TEffectInvalidVariable@UID3DX11EffectRasterizerVariable@@@D3DX11Effects@@QAE@XZ ; D3DX11Effects::TEffectInvalidVariable<ID3DX11EffectRasterizerVariable>::TEffectInvalidVariable<ID3DX11EffectRasterizerVariable>
PUBLIC	?GetRasterizerState@SEffectInvalidRasterizerVariable@D3DX11Effects@@UAGJIPAPAUID3D11RasterizerState@@@Z ; D3DX11Effects::SEffectInvalidRasterizerVariable::GetRasterizerState
PUBLIC	?SetRasterizerState@SEffectInvalidRasterizerVariable@D3DX11Effects@@UAGJIPAUID3D11RasterizerState@@@Z ; D3DX11Effects::SEffectInvalidRasterizerVariable::SetRasterizerState
PUBLIC	?UndoSetRasterizerState@SEffectInvalidRasterizerVariable@D3DX11Effects@@UAGJI@Z ; D3DX11Effects::SEffectInvalidRasterizerVariable::UndoSetRasterizerState
PUBLIC	?GetBackingStore@SEffectInvalidRasterizerVariable@D3DX11Effects@@UAGJIPAUD3D11_RASTERIZER_DESC@@@Z ; D3DX11Effects::SEffectInvalidRasterizerVariable::GetBackingStore
PUBLIC	??0SEffectInvalidRasterizerVariable@D3DX11Effects@@QAE@XZ ; D3DX11Effects::SEffectInvalidRasterizerVariable::SEffectInvalidRasterizerVariable
PUBLIC	?IsValid@?$TEffectInvalidVariable@UID3DX11EffectSamplerVariable@@@D3DX11Effects@@UAGHXZ ; D3DX11Effects::TEffectInvalidVariable<ID3DX11EffectSamplerVariable>::IsValid
PUBLIC	?GetType@?$TEffectInvalidVariable@UID3DX11EffectSamplerVariable@@@D3DX11Effects@@UAGPAUID3DX11EffectType@@XZ ; D3DX11Effects::TEffectInvalidVariable<ID3DX11EffectSamplerVariable>::GetType
PUBLIC	?GetDesc@?$TEffectInvalidVariable@UID3DX11EffectSamplerVariable@@@D3DX11Effects@@UAGJPAU_D3DX11_EFFECT_VARIABLE_DESC@@@Z ; D3DX11Effects::TEffectInvalidVariable<ID3DX11EffectSamplerVariable>::GetDesc
PUBLIC	?GetAnnotationByIndex@?$TEffectInvalidVariable@UID3DX11EffectSamplerVariable@@@D3DX11Effects@@UAGPAUID3DX11EffectVariable@@I@Z ; D3DX11Effects::TEffectInvalidVariable<ID3DX11EffectSamplerVariable>::GetAnnotationByIndex
PUBLIC	?GetAnnotationByName@?$TEffectInvalidVariable@UID3DX11EffectSamplerVariable@@@D3DX11Effects@@UAGPAUID3DX11EffectVariable@@PBD@Z ; D3DX11Effects::TEffectInvalidVariable<ID3DX11EffectSamplerVariable>::GetAnnotationByName
PUBLIC	?GetMemberByIndex@?$TEffectInvalidVariable@UID3DX11EffectSamplerVariable@@@D3DX11Effects@@UAGPAUID3DX11EffectVariable@@I@Z ; D3DX11Effects::TEffectInvalidVariable<ID3DX11EffectSamplerVariable>::GetMemberByIndex
PUBLIC	?GetMemberByName@?$TEffectInvalidVariable@UID3DX11EffectSamplerVariable@@@D3DX11Effects@@UAGPAUID3DX11EffectVariable@@PBD@Z ; D3DX11Effects::TEffectInvalidVariable<ID3DX11EffectSamplerVariable>::GetMemberByName
PUBLIC	?GetMemberBySemantic@?$TEffectInvalidVariable@UID3DX11EffectSamplerVariable@@@D3DX11Effects@@UAGPAUID3DX11EffectVariable@@PBD@Z ; D3DX11Effects::TEffectInvalidVariable<ID3DX11EffectSamplerVariable>::GetMemberBySemantic
PUBLIC	?GetElement@?$TEffectInvalidVariable@UID3DX11EffectSamplerVariable@@@D3DX11Effects@@UAGPAUID3DX11EffectVariable@@I@Z ; D3DX11Effects::TEffectInvalidVariable<ID3DX11EffectSamplerVariable>::GetElement
PUBLIC	?GetParentConstantBuffer@?$TEffectInvalidVariable@UID3DX11EffectSamplerVariable@@@D3DX11Effects@@UAGPAUID3DX11EffectConstantBuffer@@XZ ; D3DX11Effects::TEffectInvalidVariable<ID3DX11EffectSamplerVariable>::GetParentConstantBuffer
PUBLIC	?AsScalar@?$TEffectInvalidVariable@UID3DX11EffectSamplerVariable@@@D3DX11Effects@@UAGPAUID3DX11EffectScalarVariable@@XZ ; D3DX11Effects::TEffectInvalidVariable<ID3DX11EffectSamplerVariable>::AsScalar
PUBLIC	?AsVector@?$TEffectInvalidVariable@UID3DX11EffectSamplerVariable@@@D3DX11Effects@@UAGPAUID3DX11EffectVectorVariable@@XZ ; D3DX11Effects::TEffectInvalidVariable<ID3DX11EffectSamplerVariable>::AsVector
PUBLIC	?AsMatrix@?$TEffectInvalidVariable@UID3DX11EffectSamplerVariable@@@D3DX11Effects@@UAGPAUID3DX11EffectMatrixVariable@@XZ ; D3DX11Effects::TEffectInvalidVariable<ID3DX11EffectSamplerVariable>::AsMatrix
PUBLIC	?AsString@?$TEffectInvalidVariable@UID3DX11EffectSamplerVariable@@@D3DX11Effects@@UAGPAUID3DX11EffectStringVariable@@XZ ; D3DX11Effects::TEffectInvalidVariable<ID3DX11EffectSamplerVariable>::AsString
PUBLIC	?AsClassInstance@?$TEffectInvalidVariable@UID3DX11EffectSamplerVariable@@@D3DX11Effects@@UAGPAUID3DX11EffectClassInstanceVariable@@XZ ; D3DX11Effects::TEffectInvalidVariable<ID3DX11EffectSamplerVariable>::AsClassInstance
PUBLIC	?AsInterface@?$TEffectInvalidVariable@UID3DX11EffectSamplerVariable@@@D3DX11Effects@@UAGPAUID3DX11EffectInterfaceVariable@@XZ ; D3DX11Effects::TEffectInvalidVariable<ID3DX11EffectSamplerVariable>::AsInterface
PUBLIC	?AsShaderResource@?$TEffectInvalidVariable@UID3DX11EffectSamplerVariable@@@D3DX11Effects@@UAGPAUID3DX11EffectShaderResourceVariable@@XZ ; D3DX11Effects::TEffectInvalidVariable<ID3DX11EffectSamplerVariable>::AsShaderResource
PUBLIC	?AsUnorderedAccessView@?$TEffectInvalidVariable@UID3DX11EffectSamplerVariable@@@D3DX11Effects@@UAGPAUID3DX11EffectUnorderedAccessViewVariable@@XZ ; D3DX11Effects::TEffectInvalidVariable<ID3DX11EffectSamplerVariable>::AsUnorderedAccessView
PUBLIC	?AsRenderTargetView@?$TEffectInvalidVariable@UID3DX11EffectSamplerVariable@@@D3DX11Effects@@UAGPAUID3DX11EffectRenderTargetViewVariable@@XZ ; D3DX11Effects::TEffectInvalidVariable<ID3DX11EffectSamplerVariable>::AsRenderTargetView
PUBLIC	?AsDepthStencilView@?$TEffectInvalidVariable@UID3DX11EffectSamplerVariable@@@D3DX11Effects@@UAGPAUID3DX11EffectDepthStencilViewVariable@@XZ ; D3DX11Effects::TEffectInvalidVariable<ID3DX11EffectSamplerVariable>::AsDepthStencilView
PUBLIC	?AsConstantBuffer@?$TEffectInvalidVariable@UID3DX11EffectSamplerVariable@@@D3DX11Effects@@UAGPAUID3DX11EffectConstantBuffer@@XZ ; D3DX11Effects::TEffectInvalidVariable<ID3DX11EffectSamplerVariable>::AsConstantBuffer
PUBLIC	?AsShader@?$TEffectInvalidVariable@UID3DX11EffectSamplerVariable@@@D3DX11Effects@@UAGPAUID3DX11EffectShaderVariable@@XZ ; D3DX11Effects::TEffectInvalidVariable<ID3DX11EffectSamplerVariable>::AsShader
PUBLIC	?AsBlend@?$TEffectInvalidVariable@UID3DX11EffectSamplerVariable@@@D3DX11Effects@@UAGPAUID3DX11EffectBlendVariable@@XZ ; D3DX11Effects::TEffectInvalidVariable<ID3DX11EffectSamplerVariable>::AsBlend
PUBLIC	?AsDepthStencil@?$TEffectInvalidVariable@UID3DX11EffectSamplerVariable@@@D3DX11Effects@@UAGPAUID3DX11EffectDepthStencilVariable@@XZ ; D3DX11Effects::TEffectInvalidVariable<ID3DX11EffectSamplerVariable>::AsDepthStencil
PUBLIC	?AsRasterizer@?$TEffectInvalidVariable@UID3DX11EffectSamplerVariable@@@D3DX11Effects@@UAGPAUID3DX11EffectRasterizerVariable@@XZ ; D3DX11Effects::TEffectInvalidVariable<ID3DX11EffectSamplerVariable>::AsRasterizer
PUBLIC	?AsSampler@?$TEffectInvalidVariable@UID3DX11EffectSamplerVariable@@@D3DX11Effects@@UAGPAUID3DX11EffectSamplerVariable@@XZ ; D3DX11Effects::TEffectInvalidVariable<ID3DX11EffectSamplerVariable>::AsSampler
PUBLIC	?SetRawValue@?$TEffectInvalidVariable@UID3DX11EffectSamplerVariable@@@D3DX11Effects@@UAGJPBXII@Z ; D3DX11Effects::TEffectInvalidVariable<ID3DX11EffectSamplerVariable>::SetRawValue
PUBLIC	?GetRawValue@?$TEffectInvalidVariable@UID3DX11EffectSamplerVariable@@@D3DX11Effects@@UAGJPAXII@Z ; D3DX11Effects::TEffectInvalidVariable<ID3DX11EffectSamplerVariable>::GetRawValue
PUBLIC	??0?$TEffectInvalidVariable@UID3DX11EffectSamplerVariable@@@D3DX11Effects@@QAE@XZ ; D3DX11Effects::TEffectInvalidVariable<ID3DX11EffectSamplerVariable>::TEffectInvalidVariable<ID3DX11EffectSamplerVariable>
PUBLIC	?GetSampler@SEffectInvalidSamplerVariable@D3DX11Effects@@UAGJIPAPAUID3D11SamplerState@@@Z ; D3DX11Effects::SEffectInvalidSamplerVariable::GetSampler
PUBLIC	?SetSampler@SEffectInvalidSamplerVariable@D3DX11Effects@@UAGJIPAUID3D11SamplerState@@@Z ; D3DX11Effects::SEffectInvalidSamplerVariable::SetSampler
PUBLIC	?UndoSetSampler@SEffectInvalidSamplerVariable@D3DX11Effects@@UAGJI@Z ; D3DX11Effects::SEffectInvalidSamplerVariable::UndoSetSampler
PUBLIC	?GetBackingStore@SEffectInvalidSamplerVariable@D3DX11Effects@@UAGJIPAUD3D11_SAMPLER_DESC@@@Z ; D3DX11Effects::SEffectInvalidSamplerVariable::GetBackingStore
PUBLIC	??0SEffectInvalidSamplerVariable@D3DX11Effects@@QAE@XZ ; D3DX11Effects::SEffectInvalidSamplerVariable::SEffectInvalidSamplerVariable
PUBLIC	?IsValid@SEffectInvalidPass@D3DX11Effects@@UAGHXZ ; D3DX11Effects::SEffectInvalidPass::IsValid
PUBLIC	?GetDesc@SEffectInvalidPass@D3DX11Effects@@UAGJPAU_D3DX11_PASS_DESC@@@Z ; D3DX11Effects::SEffectInvalidPass::GetDesc
PUBLIC	?GetVertexShaderDesc@SEffectInvalidPass@D3DX11Effects@@UAGJPAU_D3DX11_PASS_SHADER_DESC@@@Z ; D3DX11Effects::SEffectInvalidPass::GetVertexShaderDesc
PUBLIC	?GetGeometryShaderDesc@SEffectInvalidPass@D3DX11Effects@@UAGJPAU_D3DX11_PASS_SHADER_DESC@@@Z ; D3DX11Effects::SEffectInvalidPass::GetGeometryShaderDesc
PUBLIC	?GetPixelShaderDesc@SEffectInvalidPass@D3DX11Effects@@UAGJPAU_D3DX11_PASS_SHADER_DESC@@@Z ; D3DX11Effects::SEffectInvalidPass::GetPixelShaderDesc
PUBLIC	?GetHullShaderDesc@SEffectInvalidPass@D3DX11Effects@@UAGJPAU_D3DX11_PASS_SHADER_DESC@@@Z ; D3DX11Effects::SEffectInvalidPass::GetHullShaderDesc
PUBLIC	?GetDomainShaderDesc@SEffectInvalidPass@D3DX11Effects@@UAGJPAU_D3DX11_PASS_SHADER_DESC@@@Z ; D3DX11Effects::SEffectInvalidPass::GetDomainShaderDesc
PUBLIC	?GetComputeShaderDesc@SEffectInvalidPass@D3DX11Effects@@UAGJPAU_D3DX11_PASS_SHADER_DESC@@@Z ; D3DX11Effects::SEffectInvalidPass::GetComputeShaderDesc
PUBLIC	?GetAnnotationByIndex@SEffectInvalidPass@D3DX11Effects@@UAGPAUID3DX11EffectVariable@@I@Z ; D3DX11Effects::SEffectInvalidPass::GetAnnotationByIndex
PUBLIC	?GetAnnotationByName@SEffectInvalidPass@D3DX11Effects@@UAGPAUID3DX11EffectVariable@@PBD@Z ; D3DX11Effects::SEffectInvalidPass::GetAnnotationByName
PUBLIC	?Apply@SEffectInvalidPass@D3DX11Effects@@UAGJIPAUID3D11DeviceContext@@@Z ; D3DX11Effects::SEffectInvalidPass::Apply
PUBLIC	?ComputeStateBlockMask@SEffectInvalidPass@D3DX11Effects@@UAGJPAU_D3DX11_STATE_BLOCK_MASK@@@Z ; D3DX11Effects::SEffectInvalidPass::ComputeStateBlockMask
PUBLIC	??0SEffectInvalidPass@D3DX11Effects@@QAE@XZ	; D3DX11Effects::SEffectInvalidPass::SEffectInvalidPass
PUBLIC	?IsValid@SEffectInvalidTechnique@D3DX11Effects@@UAGHXZ ; D3DX11Effects::SEffectInvalidTechnique::IsValid
PUBLIC	?GetDesc@SEffectInvalidTechnique@D3DX11Effects@@UAGJPAU_D3DX11_TECHNIQUE_DESC@@@Z ; D3DX11Effects::SEffectInvalidTechnique::GetDesc
PUBLIC	?GetAnnotationByIndex@SEffectInvalidTechnique@D3DX11Effects@@UAGPAUID3DX11EffectVariable@@I@Z ; D3DX11Effects::SEffectInvalidTechnique::GetAnnotationByIndex
PUBLIC	?GetAnnotationByName@SEffectInvalidTechnique@D3DX11Effects@@UAGPAUID3DX11EffectVariable@@PBD@Z ; D3DX11Effects::SEffectInvalidTechnique::GetAnnotationByName
PUBLIC	?GetPassByIndex@SEffectInvalidTechnique@D3DX11Effects@@UAGPAUID3DX11EffectPass@@I@Z ; D3DX11Effects::SEffectInvalidTechnique::GetPassByIndex
PUBLIC	?GetPassByName@SEffectInvalidTechnique@D3DX11Effects@@UAGPAUID3DX11EffectPass@@PBD@Z ; D3DX11Effects::SEffectInvalidTechnique::GetPassByName
PUBLIC	?ComputeStateBlockMask@SEffectInvalidTechnique@D3DX11Effects@@UAGJPAU_D3DX11_STATE_BLOCK_MASK@@@Z ; D3DX11Effects::SEffectInvalidTechnique::ComputeStateBlockMask
PUBLIC	??0SEffectInvalidTechnique@D3DX11Effects@@QAE@XZ ; D3DX11Effects::SEffectInvalidTechnique::SEffectInvalidTechnique
PUBLIC	?IsValid@SEffectInvalidGroup@D3DX11Effects@@UAGHXZ ; D3DX11Effects::SEffectInvalidGroup::IsValid
PUBLIC	?GetDesc@SEffectInvalidGroup@D3DX11Effects@@UAGJPAU_D3DX11_GROUP_DESC@@@Z ; D3DX11Effects::SEffectInvalidGroup::GetDesc
PUBLIC	?GetAnnotationByIndex@SEffectInvalidGroup@D3DX11Effects@@UAGPAUID3DX11EffectVariable@@I@Z ; D3DX11Effects::SEffectInvalidGroup::GetAnnotationByIndex
PUBLIC	?GetAnnotationByName@SEffectInvalidGroup@D3DX11Effects@@UAGPAUID3DX11EffectVariable@@PBD@Z ; D3DX11Effects::SEffectInvalidGroup::GetAnnotationByName
PUBLIC	?GetTechniqueByIndex@SEffectInvalidGroup@D3DX11Effects@@UAGPAUID3DX11EffectTechnique@@I@Z ; D3DX11Effects::SEffectInvalidGroup::GetTechniqueByIndex
PUBLIC	?GetTechniqueByName@SEffectInvalidGroup@D3DX11Effects@@UAGPAUID3DX11EffectTechnique@@PBD@Z ; D3DX11Effects::SEffectInvalidGroup::GetTechniqueByName
PUBLIC	??0SEffectInvalidGroup@D3DX11Effects@@QAE@XZ	; D3DX11Effects::SEffectInvalidGroup::SEffectInvalidGroup
PUBLIC	?NoParentCB@D3DX11Effects@@YAPAUID3DX11EffectConstantBuffer@@XZ ; D3DX11Effects::NoParentCB
PUBLIC	?GetAnnotationByIndexHelper@D3DX11Effects@@YAPAUID3DX11EffectVariable@@PBDIIPAUSAnnotation@1@@Z ; D3DX11Effects::GetAnnotationByIndexHelper
PUBLIC	?GetAnnotationByNameHelper@D3DX11Effects@@YAPAUID3DX11EffectVariable@@PBD0IPAUSAnnotation@1@@Z ; D3DX11Effects::GetAnnotationByNameHelper
PUBLIC	?DirtyVariable@?$TGlobalVariable@UID3DX11EffectVariable@@@D3DX11Effects@@QAEXXZ ; D3DX11Effects::TGlobalVariable<ID3DX11EffectVariable>::DirtyVariable
PUBLIC	?AsScalar@?$TUncastableVariable@UID3DX11EffectShaderVariable@@@D3DX11Effects@@UAGPAUID3DX11EffectScalarVariable@@XZ ; D3DX11Effects::TUncastableVariable<ID3DX11EffectShaderVariable>::AsScalar
PUBLIC	?AsVector@?$TUncastableVariable@UID3DX11EffectShaderVariable@@@D3DX11Effects@@UAGPAUID3DX11EffectVectorVariable@@XZ ; D3DX11Effects::TUncastableVariable<ID3DX11EffectShaderVariable>::AsVector
PUBLIC	?AsMatrix@?$TUncastableVariable@UID3DX11EffectShaderVariable@@@D3DX11Effects@@UAGPAUID3DX11EffectMatrixVariable@@XZ ; D3DX11Effects::TUncastableVariable<ID3DX11EffectShaderVariable>::AsMatrix
PUBLIC	?AsString@?$TUncastableVariable@UID3DX11EffectShaderVariable@@@D3DX11Effects@@UAGPAUID3DX11EffectStringVariable@@XZ ; D3DX11Effects::TUncastableVariable<ID3DX11EffectShaderVariable>::AsString
PUBLIC	?AsClassInstance@?$TUncastableVariable@UID3DX11EffectShaderVariable@@@D3DX11Effects@@UAGPAUID3DX11EffectClassInstanceVariable@@XZ ; D3DX11Effects::TUncastableVariable<ID3DX11EffectShaderVariable>::AsClassInstance
PUBLIC	?AsInterface@?$TUncastableVariable@UID3DX11EffectShaderVariable@@@D3DX11Effects@@UAGPAUID3DX11EffectInterfaceVariable@@XZ ; D3DX11Effects::TUncastableVariable<ID3DX11EffectShaderVariable>::AsInterface
PUBLIC	?AsShaderResource@?$TUncastableVariable@UID3DX11EffectShaderVariable@@@D3DX11Effects@@UAGPAUID3DX11EffectShaderResourceVariable@@XZ ; D3DX11Effects::TUncastableVariable<ID3DX11EffectShaderVariable>::AsShaderResource
PUBLIC	?AsUnorderedAccessView@?$TUncastableVariable@UID3DX11EffectShaderVariable@@@D3DX11Effects@@UAGPAUID3DX11EffectUnorderedAccessViewVariable@@XZ ; D3DX11Effects::TUncastableVariable<ID3DX11EffectShaderVariable>::AsUnorderedAccessView
PUBLIC	?AsRenderTargetView@?$TUncastableVariable@UID3DX11EffectShaderVariable@@@D3DX11Effects@@UAGPAUID3DX11EffectRenderTargetViewVariable@@XZ ; D3DX11Effects::TUncastableVariable<ID3DX11EffectShaderVariable>::AsRenderTargetView
PUBLIC	?AsDepthStencilView@?$TUncastableVariable@UID3DX11EffectShaderVariable@@@D3DX11Effects@@UAGPAUID3DX11EffectDepthStencilViewVariable@@XZ ; D3DX11Effects::TUncastableVariable<ID3DX11EffectShaderVariable>::AsDepthStencilView
PUBLIC	?AsConstantBuffer@?$TUncastableVariable@UID3DX11EffectShaderVariable@@@D3DX11Effects@@UAGPAUID3DX11EffectConstantBuffer@@XZ ; D3DX11Effects::TUncastableVariable<ID3DX11EffectShaderVariable>::AsConstantBuffer
PUBLIC	?AsShader@?$TUncastableVariable@UID3DX11EffectShaderVariable@@@D3DX11Effects@@UAGPAUID3DX11EffectShaderVariable@@XZ ; D3DX11Effects::TUncastableVariable<ID3DX11EffectShaderVariable>::AsShader
PUBLIC	?AsBlend@?$TUncastableVariable@UID3DX11EffectShaderVariable@@@D3DX11Effects@@UAGPAUID3DX11EffectBlendVariable@@XZ ; D3DX11Effects::TUncastableVariable<ID3DX11EffectShaderVariable>::AsBlend
PUBLIC	?AsDepthStencil@?$TUncastableVariable@UID3DX11EffectShaderVariable@@@D3DX11Effects@@UAGPAUID3DX11EffectDepthStencilVariable@@XZ ; D3DX11Effects::TUncastableVariable<ID3DX11EffectShaderVariable>::AsDepthStencil
PUBLIC	?AsRasterizer@?$TUncastableVariable@UID3DX11EffectShaderVariable@@@D3DX11Effects@@UAGPAUID3DX11EffectRasterizerVariable@@XZ ; D3DX11Effects::TUncastableVariable<ID3DX11EffectShaderVariable>::AsRasterizer
PUBLIC	?AsSampler@?$TUncastableVariable@UID3DX11EffectShaderVariable@@@D3DX11Effects@@UAGPAUID3DX11EffectSamplerVariable@@XZ ; D3DX11Effects::TUncastableVariable<ID3DX11EffectShaderVariable>::AsSampler
PUBLIC	??0?$TUncastableVariable@UID3DX11EffectShaderVariable@@@D3DX11Effects@@QAE@XZ ; D3DX11Effects::TUncastableVariable<ID3DX11EffectShaderVariable>::TUncastableVariable<ID3DX11EffectShaderVariable>
PUBLIC	??0SAnonymousShader@D3DX11Effects@@QAE@PAUSShaderBlock@1@@Z ; D3DX11Effects::SAnonymousShader::SAnonymousShader
PUBLIC	?IsValid@SAnonymousShader@D3DX11Effects@@UAGHXZ	; D3DX11Effects::SAnonymousShader::IsValid
PUBLIC	?GetType@SAnonymousShader@D3DX11Effects@@UAGPAUID3DX11EffectType@@XZ ; D3DX11Effects::SAnonymousShader::GetType
PUBLIC	?GetDesc@SAnonymousShader@D3DX11Effects@@UAGJPAU_D3DX11_EFFECT_VARIABLE_DESC@@@Z ; D3DX11Effects::SAnonymousShader::GetDesc
PUBLIC	?GetAnnotationByIndex@SAnonymousShader@D3DX11Effects@@UAGPAUID3DX11EffectVariable@@I@Z ; D3DX11Effects::SAnonymousShader::GetAnnotationByIndex
PUBLIC	?GetAnnotationByName@SAnonymousShader@D3DX11Effects@@UAGPAUID3DX11EffectVariable@@PBD@Z ; D3DX11Effects::SAnonymousShader::GetAnnotationByName
PUBLIC	?GetMemberByIndex@SAnonymousShader@D3DX11Effects@@UAGPAUID3DX11EffectVariable@@I@Z ; D3DX11Effects::SAnonymousShader::GetMemberByIndex
PUBLIC	?GetMemberByName@SAnonymousShader@D3DX11Effects@@UAGPAUID3DX11EffectVariable@@PBD@Z ; D3DX11Effects::SAnonymousShader::GetMemberByName
PUBLIC	?GetMemberBySemantic@SAnonymousShader@D3DX11Effects@@UAGPAUID3DX11EffectVariable@@PBD@Z ; D3DX11Effects::SAnonymousShader::GetMemberBySemantic
PUBLIC	?GetElement@SAnonymousShader@D3DX11Effects@@UAGPAUID3DX11EffectVariable@@I@Z ; D3DX11Effects::SAnonymousShader::GetElement
PUBLIC	?GetParentConstantBuffer@SAnonymousShader@D3DX11Effects@@UAGPAUID3DX11EffectConstantBuffer@@XZ ; D3DX11Effects::SAnonymousShader::GetParentConstantBuffer
PUBLIC	?AsShader@SAnonymousShader@D3DX11Effects@@UAGPAUID3DX11EffectShaderVariable@@XZ ; D3DX11Effects::SAnonymousShader::AsShader
PUBLIC	?SetRawValue@SAnonymousShader@D3DX11Effects@@UAGJPBXII@Z ; D3DX11Effects::SAnonymousShader::SetRawValue
PUBLIC	?GetRawValue@SAnonymousShader@D3DX11Effects@@UAGJPAXII@Z ; D3DX11Effects::SAnonymousShader::GetRawValue
PUBLIC	?GetShaderDesc@SAnonymousShader@D3DX11Effects@@UAGJIPAU_D3DX11_EFFECT_SHADER_DESC@@@Z ; D3DX11Effects::SAnonymousShader::GetShaderDesc
PUBLIC	?GetVertexShader@SAnonymousShader@D3DX11Effects@@UAGJIPAPAUID3D11VertexShader@@@Z ; D3DX11Effects::SAnonymousShader::GetVertexShader
PUBLIC	?GetGeometryShader@SAnonymousShader@D3DX11Effects@@UAGJIPAPAUID3D11GeometryShader@@@Z ; D3DX11Effects::SAnonymousShader::GetGeometryShader
PUBLIC	?GetPixelShader@SAnonymousShader@D3DX11Effects@@UAGJIPAPAUID3D11PixelShader@@@Z ; D3DX11Effects::SAnonymousShader::GetPixelShader
PUBLIC	?GetHullShader@SAnonymousShader@D3DX11Effects@@UAGJIPAPAUID3D11HullShader@@@Z ; D3DX11Effects::SAnonymousShader::GetHullShader
PUBLIC	?GetDomainShader@SAnonymousShader@D3DX11Effects@@UAGJIPAPAUID3D11DomainShader@@@Z ; D3DX11Effects::SAnonymousShader::GetDomainShader
PUBLIC	?GetComputeShader@SAnonymousShader@D3DX11Effects@@UAGJIPAPAUID3D11ComputeShader@@@Z ; D3DX11Effects::SAnonymousShader::GetComputeShader
PUBLIC	?GetInputSignatureElementDesc@SAnonymousShader@D3DX11Effects@@UAGJIIPAU_D3D11_SIGNATURE_PARAMETER_DESC@@@Z ; D3DX11Effects::SAnonymousShader::GetInputSignatureElementDesc
PUBLIC	?GetOutputSignatureElementDesc@SAnonymousShader@D3DX11Effects@@UAGJIIPAU_D3D11_SIGNATURE_PARAMETER_DESC@@@Z ; D3DX11Effects::SAnonymousShader::GetOutputSignatureElementDesc
PUBLIC	?GetPatchConstantSignatureElementDesc@SAnonymousShader@D3DX11Effects@@UAGJIIPAU_D3D11_SIGNATURE_PARAMETER_DESC@@@Z ; D3DX11Effects::SAnonymousShader::GetPatchConstantSignatureElementDesc
PUBLIC	?GetDesc@SAnonymousShader@D3DX11Effects@@UAGJPAU_D3DX11_EFFECT_TYPE_DESC@@@Z ; D3DX11Effects::SAnonymousShader::GetDesc
PUBLIC	?GetMemberTypeByIndex@SAnonymousShader@D3DX11Effects@@UAGPAUID3DX11EffectType@@I@Z ; D3DX11Effects::SAnonymousShader::GetMemberTypeByIndex
PUBLIC	?GetMemberTypeByName@SAnonymousShader@D3DX11Effects@@UAGPAUID3DX11EffectType@@PBD@Z ; D3DX11Effects::SAnonymousShader::GetMemberTypeByName
PUBLIC	?GetMemberTypeBySemantic@SAnonymousShader@D3DX11Effects@@UAGPAUID3DX11EffectType@@PBD@Z ; D3DX11Effects::SAnonymousShader::GetMemberTypeBySemantic
PUBLIC	?GetMemberName@SAnonymousShader@D3DX11Effects@@UAGPBDI@Z ; D3DX11Effects::SAnonymousShader::GetMemberName
PUBLIC	?GetMemberSemantic@SAnonymousShader@D3DX11Effects@@UAGPBDI@Z ; D3DX11Effects::SAnonymousShader::GetMemberSemantic
PUBLIC	?ClonedSingle@SConstantBuffer@D3DX11Effects@@QBE_NXZ ; D3DX11Effects::SConstantBuffer::ClonedSingle
PUBLIC	?IsValid@SConstantBuffer@D3DX11Effects@@UAGHXZ	; D3DX11Effects::SConstantBuffer::IsValid
PUBLIC	?GetType@SConstantBuffer@D3DX11Effects@@UAGPAUID3DX11EffectType@@XZ ; D3DX11Effects::SConstantBuffer::GetType
PUBLIC	?GetDesc@SConstantBuffer@D3DX11Effects@@UAGJPAU_D3DX11_EFFECT_VARIABLE_DESC@@@Z ; D3DX11Effects::SConstantBuffer::GetDesc
PUBLIC	?GetAnnotationByIndex@SConstantBuffer@D3DX11Effects@@UAGPAUID3DX11EffectVariable@@I@Z ; D3DX11Effects::SConstantBuffer::GetAnnotationByIndex
PUBLIC	?GetAnnotationByName@SConstantBuffer@D3DX11Effects@@UAGPAUID3DX11EffectVariable@@PBD@Z ; D3DX11Effects::SConstantBuffer::GetAnnotationByName
PUBLIC	?GetMemberByIndex@SConstantBuffer@D3DX11Effects@@UAGPAUID3DX11EffectVariable@@I@Z ; D3DX11Effects::SConstantBuffer::GetMemberByIndex
PUBLIC	?GetMemberByName@SConstantBuffer@D3DX11Effects@@UAGPAUID3DX11EffectVariable@@PBD@Z ; D3DX11Effects::SConstantBuffer::GetMemberByName
PUBLIC	?GetMemberBySemantic@SConstantBuffer@D3DX11Effects@@UAGPAUID3DX11EffectVariable@@PBD@Z ; D3DX11Effects::SConstantBuffer::GetMemberBySemantic
PUBLIC	?GetElement@SConstantBuffer@D3DX11Effects@@UAGPAUID3DX11EffectVariable@@I@Z ; D3DX11Effects::SConstantBuffer::GetElement
PUBLIC	?GetParentConstantBuffer@SConstantBuffer@D3DX11Effects@@UAGPAUID3DX11EffectConstantBuffer@@XZ ; D3DX11Effects::SConstantBuffer::GetParentConstantBuffer
PUBLIC	?AsConstantBuffer@SConstantBuffer@D3DX11Effects@@UAGPAUID3DX11EffectConstantBuffer@@XZ ; D3DX11Effects::SConstantBuffer::AsConstantBuffer
PUBLIC	?SetRawValue@SConstantBuffer@D3DX11Effects@@UAGJPBXII@Z ; D3DX11Effects::SConstantBuffer::SetRawValue
PUBLIC	?GetRawValue@SConstantBuffer@D3DX11Effects@@UAGJPAXII@Z ; D3DX11Effects::SConstantBuffer::GetRawValue
PUBLIC	?SetConstantBuffer@SConstantBuffer@D3DX11Effects@@UAGJPAUID3D11Buffer@@@Z ; D3DX11Effects::SConstantBuffer::SetConstantBuffer
PUBLIC	?GetConstantBuffer@SConstantBuffer@D3DX11Effects@@UAGJPAPAUID3D11Buffer@@@Z ; D3DX11Effects::SConstantBuffer::GetConstantBuffer
PUBLIC	?UndoSetConstantBuffer@SConstantBuffer@D3DX11Effects@@UAGJXZ ; D3DX11Effects::SConstantBuffer::UndoSetConstantBuffer
PUBLIC	?SetTextureBuffer@SConstantBuffer@D3DX11Effects@@UAGJPAUID3D11ShaderResourceView@@@Z ; D3DX11Effects::SConstantBuffer::SetTextureBuffer
PUBLIC	?GetTextureBuffer@SConstantBuffer@D3DX11Effects@@UAGJPAPAUID3D11ShaderResourceView@@@Z ; D3DX11Effects::SConstantBuffer::GetTextureBuffer
PUBLIC	?UndoSetTextureBuffer@SConstantBuffer@D3DX11Effects@@UAGJXZ ; D3DX11Effects::SConstantBuffer::UndoSetTextureBuffer
PUBLIC	?GetDesc@SConstantBuffer@D3DX11Effects@@UAGJPAU_D3DX11_EFFECT_TYPE_DESC@@@Z ; D3DX11Effects::SConstantBuffer::GetDesc
PUBLIC	?GetMemberTypeByIndex@SConstantBuffer@D3DX11Effects@@UAGPAUID3DX11EffectType@@I@Z ; D3DX11Effects::SConstantBuffer::GetMemberTypeByIndex
PUBLIC	?GetMemberTypeByName@SConstantBuffer@D3DX11Effects@@UAGPAUID3DX11EffectType@@PBD@Z ; D3DX11Effects::SConstantBuffer::GetMemberTypeByName
PUBLIC	?GetMemberTypeBySemantic@SConstantBuffer@D3DX11Effects@@UAGPAUID3DX11EffectType@@PBD@Z ; D3DX11Effects::SConstantBuffer::GetMemberTypeBySemantic
PUBLIC	?GetMemberName@SConstantBuffer@D3DX11Effects@@UAGPBDI@Z ; D3DX11Effects::SConstantBuffer::GetMemberName
PUBLIC	?GetMemberSemantic@SConstantBuffer@D3DX11Effects@@UAGPBDI@Z ; D3DX11Effects::SConstantBuffer::GetMemberSemantic
PUBLIC	?IsInHeap@CEffectHeap@D3DX11Effects@@QBEHPAX@Z	; D3DX11Effects::CEffectHeap::IsInHeap
PUBLIC	?Grow@?$CEffectVector@PAUSSingleElementType@D3DX11Effects@@@@IAEJXZ ; CEffectVector<D3DX11Effects::SSingleElementType *>::Grow
PUBLIC	?Reserve@?$CEffectVector@PAUSSingleElementType@D3DX11Effects@@@@IAEJI@Z ; CEffectVector<D3DX11Effects::SSingleElementType *>::Reserve
PUBLIC	?Add@?$CEffectVector@PAUSSingleElementType@D3DX11Effects@@@@QAEJABQAUSSingleElementType@D3DX11Effects@@@Z ; CEffectVector<D3DX11Effects::SSingleElementType *>::Add
PUBLIC	??A?$CEffectVector@PAUSSingleElementType@D3DX11Effects@@@@QAEAAPAUSSingleElementType@D3DX11Effects@@I@Z ; CEffectVector<D3DX11Effects::SSingleElementType *>::operator[]
PUBLIC	?GetSize@?$CEffectVector@PAUSSingleElementType@D3DX11Effects@@@@QBEIXZ ; CEffectVector<D3DX11Effects::SSingleElementType *>::GetSize
PUBLIC	?Grow@?$CEffectVector@PAUSMember@D3DX11Effects@@@@IAEJXZ ; CEffectVector<D3DX11Effects::SMember *>::Grow
PUBLIC	?Reserve@?$CEffectVector@PAUSMember@D3DX11Effects@@@@IAEJI@Z ; CEffectVector<D3DX11Effects::SMember *>::Reserve
PUBLIC	?Add@?$CEffectVector@PAUSMember@D3DX11Effects@@@@QAEJABQAUSMember@D3DX11Effects@@@Z ; CEffectVector<D3DX11Effects::SMember *>::Add
PUBLIC	??A?$CEffectVector@PAUSMember@D3DX11Effects@@@@QAEAAPAUSMember@D3DX11Effects@@I@Z ; CEffectVector<D3DX11Effects::SMember *>::operator[]
PUBLIC	?GetSize@?$CEffectVector@PAUSMember@D3DX11Effects@@@@QBEIXZ ; CEffectVector<D3DX11Effects::SMember *>::GetSize
PUBLIC	?GetTickCount@CEffect@D3DX11Effects@@QBEKXZ	; D3DX11Effects::CEffect::GetTickCount
PUBLIC	?IsReflectionData@CEffect@D3DX11Effects@@QBEHPAX@Z ; D3DX11Effects::CEffect::IsReflectionData
PUBLIC	?IsRuntimeData@CEffect@D3DX11Effects@@QBEHPAX@Z	; D3DX11Effects::CEffect::IsRuntimeData
PUBLIC	?GetDevice@CEffect@D3DX11Effects@@UAGJPAPAUID3D11Device@@@Z ; D3DX11Effects::CEffect::GetDevice
PUBLIC	?GetDesc@CEffect@D3DX11Effects@@UAGJPAU_D3DX11_EFFECT_DESC@@@Z ; D3DX11Effects::CEffect::GetDesc
PUBLIC	?GetConstantBufferByIndex@CEffect@D3DX11Effects@@UAGPAUID3DX11EffectConstantBuffer@@I@Z ; D3DX11Effects::CEffect::GetConstantBufferByIndex
PUBLIC	?GetConstantBufferByName@CEffect@D3DX11Effects@@UAGPAUID3DX11EffectConstantBuffer@@PBD@Z ; D3DX11Effects::CEffect::GetConstantBufferByName
PUBLIC	?GetVariableByIndex@CEffect@D3DX11Effects@@UAGPAUID3DX11EffectVariable@@I@Z ; D3DX11Effects::CEffect::GetVariableByIndex
PUBLIC	?GetVariableByName@CEffect@D3DX11Effects@@UAGPAUID3DX11EffectVariable@@PBD@Z ; D3DX11Effects::CEffect::GetVariableByName
PUBLIC	?GetVariableBySemantic@CEffect@D3DX11Effects@@UAGPAUID3DX11EffectVariable@@PBD@Z ; D3DX11Effects::CEffect::GetVariableBySemantic
PUBLIC	?GetTechniqueByIndex@CEffect@D3DX11Effects@@UAGPAUID3DX11EffectTechnique@@I@Z ; D3DX11Effects::CEffect::GetTechniqueByIndex
PUBLIC	?GetTechniqueByName@CEffect@D3DX11Effects@@UAGPAUID3DX11EffectTechnique@@PBD@Z ; D3DX11Effects::CEffect::GetTechniqueByName
PUBLIC	?GetGroupByIndex@CEffect@D3DX11Effects@@UAGPAUID3DX11EffectGroup@@I@Z ; D3DX11Effects::CEffect::GetGroupByIndex
PUBLIC	?GetGroupByName@CEffect@D3DX11Effects@@UAGPAUID3DX11EffectGroup@@PBD@Z ; D3DX11Effects::CEffect::GetGroupByName
PUBLIC	?GetClassLinkage@CEffect@D3DX11Effects@@UAGPAUID3D11ClassLinkage@@XZ ; D3DX11Effects::CEffect::GetClassLinkage
PUBLIC	?CreatePooledSingleElementTypeInterface@CEffect@D3DX11Effects@@QAEPAUID3DX11EffectType@@PAUSType@2@@Z ; D3DX11Effects::CEffect::CreatePooledSingleElementTypeInterface
PUBLIC	?CreatePooledVariableMemberInterface@CEffect@D3DX11Effects@@QAEPAUID3DX11EffectVariable@@PAU?$TTopLevelVariable@UID3DX11EffectVariable@@@2@PAUSVariable@2@TUDataPointer@2@HI@Z ; D3DX11Effects::CEffect::CreatePooledVariableMemberInterface
PUBLIC	??$GetVariableByIndexHelper@USGlobalVariable@D3DX11Effects@@@D3DX11Effects@@YAHIIPAUSGlobalVariable@0@PAEPAPAU10@PAPAX@Z ; D3DX11Effects::GetVariableByIndexHelper<D3DX11Effects::SGlobalVariable>
PUBLIC	??$GetVariableByNameHelper@USGlobalVariable@D3DX11Effects@@@D3DX11Effects@@YAHPBDIPAUSGlobalVariable@0@PAEPAPAU10@PAPAXPAI@Z ; D3DX11Effects::GetVariableByNameHelper<D3DX11Effects::SGlobalVariable>
PUBLIC	??$GetVariableBySemanticHelper@USGlobalVariable@D3DX11Effects@@@D3DX11Effects@@YAHPBDIPAUSGlobalVariable@0@PAEPAPAU10@PAPAXPAI@Z ; D3DX11Effects::GetVariableBySemanticHelper<D3DX11Effects::SGlobalVariable>
PUBLIC	??$GetShaderDescHelper@$05@SPassBlock@D3DX11Effects@@QAEJPAU_D3DX11_PASS_SHADER_DESC@@@Z ; D3DX11Effects::SPassBlock::GetShaderDescHelper<6>
PUBLIC	??$GetShaderDescHelper@$04@SPassBlock@D3DX11Effects@@QAEJPAU_D3DX11_PASS_SHADER_DESC@@@Z ; D3DX11Effects::SPassBlock::GetShaderDescHelper<5>
PUBLIC	??$GetShaderDescHelper@$06@SPassBlock@D3DX11Effects@@QAEJPAU_D3DX11_PASS_SHADER_DESC@@@Z ; D3DX11Effects::SPassBlock::GetShaderDescHelper<7>
PUBLIC	??$GetShaderDescHelper@$0BN@@SPassBlock@D3DX11Effects@@QAEJPAU_D3DX11_PASS_SHADER_DESC@@@Z ; D3DX11Effects::SPassBlock::GetShaderDescHelper<29>
PUBLIC	??$GetShaderDescHelper@$0BO@@SPassBlock@D3DX11Effects@@QAEJPAU_D3DX11_PASS_SHADER_DESC@@@Z ; D3DX11Effects::SPassBlock::GetShaderDescHelper<30>
PUBLIC	??$GetShaderDescHelper@$0BM@@SPassBlock@D3DX11Effects@@QAEJPAU_D3DX11_PASS_SHADER_DESC@@@Z ; D3DX11Effects::SPassBlock::GetShaderDescHelper<28>
PUBLIC	?IsValid@SAnonymousShader@D3DX11Effects@@W3AGHXZ ; [thunk]:D3DX11Effects::SAnonymousShader::IsValid`adjustor{4}'
PUBLIC	?__LINE__Var@?1??AlignToPowerOf2@@YAIII@Z@4JA	; `AlignToPowerOf2'::`2'::__LINE__Var
PUBLIC	??_C@_0CD@GECBLADO@?$CIAlignment?5?$CG?5?$CIAlignment?5?9?51?$CJ?$CJ?5?$DN?$DN@ ; `string'
PUBLIC	??_C@_0EI@GKHIMBBO@c?3?2users?2simon?2documents?2github?2@ ; `string'
PUBLIC	??_C@_0DA@FKFDAOLL@Alignment?5?$DO?50?5?$CG?$CG?5Value?5?$DM?50xfffff@ ; `string'
PUBLIC	??_7SSingleElementType@D3DX11Effects@@6B@	; D3DX11Effects::SSingleElementType::`vftable'
PUBLIC	?g_InvalidScalarVariable@D3DX11Effects@@3USEffectInvalidScalarVariable@1@A ; D3DX11Effects::g_InvalidScalarVariable
PUBLIC	?g_InvalidVectorVariable@D3DX11Effects@@3USEffectInvalidVectorVariable@1@A ; D3DX11Effects::g_InvalidVectorVariable
PUBLIC	?g_InvalidMatrixVariable@D3DX11Effects@@3USEffectInvalidMatrixVariable@1@A ; D3DX11Effects::g_InvalidMatrixVariable
PUBLIC	?g_InvalidStringVariable@D3DX11Effects@@3USEffectInvalidStringVariable@1@A ; D3DX11Effects::g_InvalidStringVariable
PUBLIC	?g_InvalidClassInstanceVariable@D3DX11Effects@@3USEffectInvalidClassInstanceVariable@1@A ; D3DX11Effects::g_InvalidClassInstanceVariable
PUBLIC	?g_InvalidInterfaceVariable@D3DX11Effects@@3USEffectInvalidInterfaceVariable@1@A ; D3DX11Effects::g_InvalidInterfaceVariable
PUBLIC	?g_InvalidShaderResourceVariable@D3DX11Effects@@3USEffectInvalidShaderResourceVariable@1@A ; D3DX11Effects::g_InvalidShaderResourceVariable
PUBLIC	?g_InvalidUnorderedAccessViewVariable@D3DX11Effects@@3USEffectInvalidUnorderedAccessViewVariable@1@A ; D3DX11Effects::g_InvalidUnorderedAccessViewVariable
PUBLIC	?g_InvalidRenderTargetViewVariable@D3DX11Effects@@3USEffectInvalidRenderTargetViewVariable@1@A ; D3DX11Effects::g_InvalidRenderTargetViewVariable
PUBLIC	?g_InvalidDepthStencilViewVariable@D3DX11Effects@@3USEffectInvalidDepthStencilViewVariable@1@A ; D3DX11Effects::g_InvalidDepthStencilViewVariable
PUBLIC	?g_InvalidConstantBuffer@D3DX11Effects@@3USEffectInvalidConstantBuffer@1@A ; D3DX11Effects::g_InvalidConstantBuffer
PUBLIC	?g_InvalidShaderVariable@D3DX11Effects@@3USEffectInvalidShaderVariable@1@A ; D3DX11Effects::g_InvalidShaderVariable
PUBLIC	?g_InvalidBlendVariable@D3DX11Effects@@3USEffectInvalidBlendVariable@1@A ; D3DX11Effects::g_InvalidBlendVariable
PUBLIC	?g_InvalidDepthStencilVariable@D3DX11Effects@@3USEffectInvalidDepthStencilVariable@1@A ; D3DX11Effects::g_InvalidDepthStencilVariable
PUBLIC	?g_InvalidRasterizerVariable@D3DX11Effects@@3USEffectInvalidRasterizerVariable@1@A ; D3DX11Effects::g_InvalidRasterizerVariable
PUBLIC	?g_InvalidSamplerVariable@D3DX11Effects@@3USEffectInvalidSamplerVariable@1@A ; D3DX11Effects::g_InvalidSamplerVariable
PUBLIC	?g_InvalidTechnique@D3DX11Effects@@3USEffectInvalidTechnique@1@A ; D3DX11Effects::g_InvalidTechnique
PUBLIC	?g_InvalidPass@D3DX11Effects@@3USEffectInvalidPass@1@A ; D3DX11Effects::g_InvalidPass
PUBLIC	?g_InvalidType@D3DX11Effects@@3USEffectInvalidType@1@A ; D3DX11Effects::g_InvalidType
PUBLIC	??_7SEffectInvalidType@D3DX11Effects@@6B@	; D3DX11Effects::SEffectInvalidType::`vftable'
PUBLIC	??_7?$TEffectInvalidVariable@UID3DX11EffectScalarVariable@@@D3DX11Effects@@6B@ ; D3DX11Effects::TEffectInvalidVariable<ID3DX11EffectScalarVariable>::`vftable'
PUBLIC	??_7SEffectInvalidScalarVariable@D3DX11Effects@@6B@ ; D3DX11Effects::SEffectInvalidScalarVariable::`vftable'
PUBLIC	??_7?$TEffectInvalidVariable@UID3DX11EffectVectorVariable@@@D3DX11Effects@@6B@ ; D3DX11Effects::TEffectInvalidVariable<ID3DX11EffectVectorVariable>::`vftable'
PUBLIC	??_7SEffectInvalidVectorVariable@D3DX11Effects@@6B@ ; D3DX11Effects::SEffectInvalidVectorVariable::`vftable'
PUBLIC	??_7?$TEffectInvalidVariable@UID3DX11EffectMatrixVariable@@@D3DX11Effects@@6B@ ; D3DX11Effects::TEffectInvalidVariable<ID3DX11EffectMatrixVariable>::`vftable'
PUBLIC	??_7SEffectInvalidMatrixVariable@D3DX11Effects@@6B@ ; D3DX11Effects::SEffectInvalidMatrixVariable::`vftable'
PUBLIC	??_7?$TEffectInvalidVariable@UID3DX11EffectStringVariable@@@D3DX11Effects@@6B@ ; D3DX11Effects::TEffectInvalidVariable<ID3DX11EffectStringVariable>::`vftable'
PUBLIC	??_7SEffectInvalidStringVariable@D3DX11Effects@@6B@ ; D3DX11Effects::SEffectInvalidStringVariable::`vftable'
PUBLIC	??_7?$TEffectInvalidVariable@UID3DX11EffectClassInstanceVariable@@@D3DX11Effects@@6B@ ; D3DX11Effects::TEffectInvalidVariable<ID3DX11EffectClassInstanceVariable>::`vftable'
PUBLIC	??_7SEffectInvalidClassInstanceVariable@D3DX11Effects@@6B@ ; D3DX11Effects::SEffectInvalidClassInstanceVariable::`vftable'
PUBLIC	??_7?$TEffectInvalidVariable@UID3DX11EffectInterfaceVariable@@@D3DX11Effects@@6B@ ; D3DX11Effects::TEffectInvalidVariable<ID3DX11EffectInterfaceVariable>::`vftable'
PUBLIC	??_7SEffectInvalidInterfaceVariable@D3DX11Effects@@6B@ ; D3DX11Effects::SEffectInvalidInterfaceVariable::`vftable'
PUBLIC	??_7?$TEffectInvalidVariable@UID3DX11EffectShaderResourceVariable@@@D3DX11Effects@@6B@ ; D3DX11Effects::TEffectInvalidVariable<ID3DX11EffectShaderResourceVariable>::`vftable'
PUBLIC	??_7SEffectInvalidShaderResourceVariable@D3DX11Effects@@6B@ ; D3DX11Effects::SEffectInvalidShaderResourceVariable::`vftable'
PUBLIC	??_7?$TEffectInvalidVariable@UID3DX11EffectUnorderedAccessViewVariable@@@D3DX11Effects@@6B@ ; D3DX11Effects::TEffectInvalidVariable<ID3DX11EffectUnorderedAccessViewVariable>::`vftable'
PUBLIC	??_7SEffectInvalidUnorderedAccessViewVariable@D3DX11Effects@@6B@ ; D3DX11Effects::SEffectInvalidUnorderedAccessViewVariable::`vftable'
PUBLIC	??_7?$TEffectInvalidVariable@UID3DX11EffectRenderTargetViewVariable@@@D3DX11Effects@@6B@ ; D3DX11Effects::TEffectInvalidVariable<ID3DX11EffectRenderTargetViewVariable>::`vftable'
PUBLIC	??_7SEffectInvalidRenderTargetViewVariable@D3DX11Effects@@6B@ ; D3DX11Effects::SEffectInvalidRenderTargetViewVariable::`vftable'
PUBLIC	??_7?$TEffectInvalidVariable@UID3DX11EffectDepthStencilViewVariable@@@D3DX11Effects@@6B@ ; D3DX11Effects::TEffectInvalidVariable<ID3DX11EffectDepthStencilViewVariable>::`vftable'
PUBLIC	??_7SEffectInvalidDepthStencilViewVariable@D3DX11Effects@@6B@ ; D3DX11Effects::SEffectInvalidDepthStencilViewVariable::`vftable'
PUBLIC	??_7?$TEffectInvalidVariable@UID3DX11EffectConstantBuffer@@@D3DX11Effects@@6B@ ; D3DX11Effects::TEffectInvalidVariable<ID3DX11EffectConstantBuffer>::`vftable'
PUBLIC	??_7SEffectInvalidConstantBuffer@D3DX11Effects@@6B@ ; D3DX11Effects::SEffectInvalidConstantBuffer::`vftable'
PUBLIC	??_7?$TEffectInvalidVariable@UID3DX11EffectShaderVariable@@@D3DX11Effects@@6B@ ; D3DX11Effects::TEffectInvalidVariable<ID3DX11EffectShaderVariable>::`vftable'
PUBLIC	??_7SEffectInvalidShaderVariable@D3DX11Effects@@6B@ ; D3DX11Effects::SEffectInvalidShaderVariable::`vftable'
PUBLIC	??_7?$TEffectInvalidVariable@UID3DX11EffectBlendVariable@@@D3DX11Effects@@6B@ ; D3DX11Effects::TEffectInvalidVariable<ID3DX11EffectBlendVariable>::`vftable'
PUBLIC	??_7SEffectInvalidBlendVariable@D3DX11Effects@@6B@ ; D3DX11Effects::SEffectInvalidBlendVariable::`vftable'
PUBLIC	??_7?$TEffectInvalidVariable@UID3DX11EffectDepthStencilVariable@@@D3DX11Effects@@6B@ ; D3DX11Effects::TEffectInvalidVariable<ID3DX11EffectDepthStencilVariable>::`vftable'
PUBLIC	??_7SEffectInvalidDepthStencilVariable@D3DX11Effects@@6B@ ; D3DX11Effects::SEffectInvalidDepthStencilVariable::`vftable'
PUBLIC	??_7?$TEffectInvalidVariable@UID3DX11EffectRasterizerVariable@@@D3DX11Effects@@6B@ ; D3DX11Effects::TEffectInvalidVariable<ID3DX11EffectRasterizerVariable>::`vftable'
PUBLIC	??_7SEffectInvalidRasterizerVariable@D3DX11Effects@@6B@ ; D3DX11Effects::SEffectInvalidRasterizerVariable::`vftable'
PUBLIC	??_7?$TEffectInvalidVariable@UID3DX11EffectSamplerVariable@@@D3DX11Effects@@6B@ ; D3DX11Effects::TEffectInvalidVariable<ID3DX11EffectSamplerVariable>::`vftable'
PUBLIC	??_7SEffectInvalidSamplerVariable@D3DX11Effects@@6B@ ; D3DX11Effects::SEffectInvalidSamplerVariable::`vftable'
PUBLIC	??_7SEffectInvalidPass@D3DX11Effects@@6B@	; D3DX11Effects::SEffectInvalidPass::`vftable'
PUBLIC	??_7SEffectInvalidTechnique@D3DX11Effects@@6B@	; D3DX11Effects::SEffectInvalidTechnique::`vftable'
PUBLIC	??_7SEffectInvalidGroup@D3DX11Effects@@6B@	; D3DX11Effects::SEffectInvalidGroup::`vftable'
PUBLIC	??_C@_0EK@GJMHMFDP@c?3?2users?2simon?2documents?2github?2@ ; `string'
PUBLIC	??_C@_01GBGANLPD@0?$AA@				; `string'
PUBLIC	??_7?$TUncastableVariable@UID3DX11EffectShaderVariable@@@D3DX11Effects@@6B@ ; D3DX11Effects::TUncastableVariable<ID3DX11EffectShaderVariable>::`vftable'
PUBLIC	??_7SAnonymousShader@D3DX11Effects@@6B?$TUncastableVariable@UID3DX11EffectShaderVariable@@@1@@ ; D3DX11Effects::SAnonymousShader::`vftable'
PUBLIC	??_7SAnonymousShader@D3DX11Effects@@6BID3DX11EffectType@@@ ; D3DX11Effects::SAnonymousShader::`vftable'
PUBLIC	?g_InvalidGroup@D3DX11Effects@@3USEffectInvalidGroup@1@A ; D3DX11Effects::g_InvalidGroup
PUBLIC	?__LINE__Var@?1??CreatePooledVariableMemberInterface@CEffect@D3DX11Effects@@QAEPAUID3DX11EffectVariable@@PAU?$TTopLevelVariable@UID3DX11EffectVariable@@@3@PAUSVariable@3@TUDataPointer@3@HI@Z@4JA ; `D3DX11Effects::CEffect::CreatePooledVariableMemberInterface'::`2'::__LINE__Var
PUBLIC	??_C@_0DK@PHADBGEJ@pTopLevelEntity?9?$DOpEffect?9?$DOIsRefl@ ; `string'
PUBLIC	??_C@_0EM@FHJGNOLG@c?3?2users?2simon?2documents?2github?2@ ; `string'
PUBLIC	??_C@_0DJ@KJBKCDBP@pTopLevelEntity?9?$DOpEffect?9?$DOIsRunt@ ; `string'
PUBLIC	??_C@_0DH@NALIOCEA@pTopLevelEntity?9?$DOpEffect?9?$DOIsRunt@ ; `string'
PUBLIC	??_C@_0O@HLGHNBGJ@?$CBIsAnnotation?$AA@		; `string'
PUBLIC	??_C@_0CI@IOMBGMD@ID3DX11EffectType?3?3GetMemberType@ ; `string'
PUBLIC	??_C@_0CH@DKGHOAIK@ID3DX11EffectType?3?3GetMemberType@ ; `string'
PUBLIC	??_C@_0CL@EOGLHNML@ID3DX11EffectType?3?3GetMemberType@ ; `string'
PUBLIC	??_C@_0CB@EADPEEPN@ID3DX11EffectType?3?3GetMemberName@ ; `string'
PUBLIC	??_C@_0CF@KEEAFPCM@ID3DX11EffectType?3?3GetMemberSema@ ; `string'
PUBLIC	??_C@_0BL@ONOANMHA@ID3DX11EffectType?3?3GetDesc?$AA@ ; `string'
PUBLIC	?__LINE__Var@?1??GetDescHelper@SType@D3DX11Effects@@QBEJPAU_D3DX11_EFFECT_TYPE_DESC@@H@Z@4JA ; `D3DX11Effects::SType::GetDescHelper'::`2'::__LINE__Var
PUBLIC	??_C@_0L@ONEEIJGP@$Anonymous?$AA@		; `string'
PUBLIC	??_C@_0CL@GAONFE@ID3DX11EffectShaderVariable?3?3Get@ ; `string'
PUBLIC	??_C@_0CN@MIJDNEJI@ID3DX11EffectShaderVariable?3?3Get@ ; `string'
PUBLIC	??_C@_0CP@DFLAEMF@ID3DX11EffectShaderVariable?3?3Get@ ; `string'
PUBLIC	??_C@_0CM@DBPHAEDP@ID3DX11EffectShaderVariable?3?3Get@ ; `string'
PUBLIC	??_C@_0CL@OOFMNCDH@ID3DX11EffectShaderVariable?3?3Get@ ; `string'
PUBLIC	??_C@_0CN@FGJGJOHB@ID3DX11EffectShaderVariable?3?3Get@ ; `string'
PUBLIC	??_C@_0CO@JDGIHDHI@ID3DX11EffectShaderVariable?3?3Get@ ; `string'
PUBLIC	??_C@_0DK@BEGHJOBF@ID3DX11EffectShaderVariable?3?3Get@ ; `string'
PUBLIC	??_C@_0DL@OEBPLJAM@ID3DX11EffectShaderVariable?3?3Get@ ; `string'
PUBLIC	??_C@_0EC@BKBBLIEM@ID3DX11EffectShaderVariable?3?3Get@ ; `string'
PUBLIC	??_C@_0N@BAOCOKLF@vertexshader?$AA@		; `string'
PUBLIC	??_C@_0P@KPFMCAMP@geometryshader?$AA@		; `string'
PUBLIC	??_C@_0M@IFPDMPDN@pixelshader?$AA@		; `string'
PUBLIC	??_C@_0L@KPKEFELG@Hullshader?$AA@		; `string'
PUBLIC	??_C@_0N@DNJJOLKJ@Domainshader?$AA@		; `string'
PUBLIC	??_C@_0O@CNMAHNCB@Computeshader?$AA@		; `string'
PUBLIC	??_C@_0BG@MGGMAGAN@ID3DX11EffectVariable?$AA@	; `string'
PUBLIC	??_C@_0CC@MBMEMLJI@ID3DX11EffectVariable?3?3GetElemen@ ; `string'
PUBLIC	??_C@_0CP@EFOKFAGA@ID3DX11EffectVariable?3?3GetParent@ ; `string'
PUBLIC	??_C@_07KOCLEGMP@tbuffer?$AA@			; `string'
PUBLIC	??_C@_07NIFFHOPN@cbuffer?$AA@			; `string'
PUBLIC	?__LINE__Var@?1??GetDesc@SConstantBuffer@D3DX11Effects@@UAGJPAU_D3DX11_EFFECT_TYPE_DESC@@@Z@4JA ; `D3DX11Effects::SConstantBuffer::GetDesc'::`2'::__LINE__Var
PUBLIC	??_C@_0CJ@EDFAMMDL@pDesc?9?$DOUnpackedSize?5?$DO?$DN?5pDesc?9?$DOPa@ ; `string'
PUBLIC	??_C@_0CD@HKJCNCEA@ID3DX11EffectVariable?3?3SetRawVal@ ; `string'
PUBLIC	??_C@_0CD@HFIMAEMD@ID3DX11EffectVariable?3?3GetRawVal@ ; `string'
PUBLIC	??_C@_0CP@GOPBEHLO@ID3DX11EffectConstantBuffer?3?3Set@ ; `string'
PUBLIC	?__LINE__Var@?1??SetConstantBuffer@SConstantBuffer@D3DX11Effects@@UAGJPAUID3D11Buffer@@@Z@4JA ; `D3DX11Effects::SConstantBuffer::SetConstantBuffer'::`2'::__LINE__Var
PUBLIC	??_C@_0CC@ILPJAIHO@pMemberData?$FL0?$FN?4Type?5?$DN?$DN?5MDT_Buffe@ ; `string'
PUBLIC	??_C@_0CP@ELPKMMKA@ID3DX11EffectConstantBuffer?3?3Get@ ; `string'
PUBLIC	??_C@_0DD@MNGAHKCB@ID3DX11EffectConstantBuffer?3?3Und@ ; `string'
PUBLIC	??_C@_0CO@CNIJNKO@ID3DX11EffectConstantBuffer?3?3Set@ ; `string'
PUBLIC	?__LINE__Var@?1??SetTextureBuffer@SConstantBuffer@D3DX11Effects@@UAGJPAUID3D11ShaderResourceView@@@Z@4JA ; `D3DX11Effects::SConstantBuffer::SetTextureBuffer'::`2'::__LINE__Var
PUBLIC	??_C@_0CO@BCMLOEAC@pMemberData?$FL1?$FN?4Type?5?$DN?$DN?5MDT_Shade@ ; `string'
PUBLIC	??_C@_0CO@GGIBCDBM@ID3DX11EffectConstantBuffer?3?3Get@ ; `string'
PUBLIC	??_C@_0DC@CPOFHGMM@ID3DX11EffectConstantBuffer?3?3Und@ ; `string'
PUBLIC	??_C@_0BL@CLJFPKKE@ID3DX11EffectPass?3?3GetDesc?$AA@ ; `string'
PUBLIC	?g_AnonymousNullVS@D3DX11Effects@@3USAnonymousShader@1@A ; D3DX11Effects::g_AnonymousNullVS
PUBLIC	?g_AnonymousNullGS@D3DX11Effects@@3USAnonymousShader@1@A ; D3DX11Effects::g_AnonymousNullGS
PUBLIC	?g_AnonymousNullPS@D3DX11Effects@@3USAnonymousShader@1@A ; D3DX11Effects::g_AnonymousNullPS
PUBLIC	?g_AnonymousNullHS@D3DX11Effects@@3USAnonymousShader@1@A ; D3DX11Effects::g_AnonymousNullHS
PUBLIC	?g_AnonymousNullDS@D3DX11Effects@@3USAnonymousShader@1@A ; D3DX11Effects::g_AnonymousNullDS
PUBLIC	?g_AnonymousNullCS@D3DX11Effects@@3USAnonymousShader@1@A ; D3DX11Effects::g_AnonymousNullCS
PUBLIC	??_C@_0BC@CCBHEDDE@ID3DX11EffectPass?$AA@	; `string'
PUBLIC	?__LINE__Var@?1??Apply@SPassBlock@D3DX11Effects@@UAGJIPAUID3D11DeviceContext@@@Z@4JA ; `D3DX11Effects::SPassBlock::Apply'::`2'::__LINE__Var
PUBLIC	??_C@_0BM@LNEONEGN@pEffect?9?$DOm_pContext?5?$DN?$DN?5NULL?$AA@ ; `string'
PUBLIC	??_C@_0CA@DNKJLOHM@ID3DX11EffectTechnique?3?3GetDesc?$AA@ ; `string'
PUBLIC	??_C@_0BH@BBFBJLJP@ID3DX11EffectTechnique?$AA@	; `string'
PUBLIC	??_C@_0CH@GGNKKKDA@ID3DX11EffectTechnique?3?3GetPassB@ ; `string'
PUBLIC	??_C@_0CG@GHNNPEBN@ID3DX11EffectTechnique?3?3GetPassB@ ; `string'
PUBLIC	??_C@_0BM@EFAOMENO@ID3DX11EffectGroup?3?3GetDesc?$AA@ ; `string'
PUBLIC	??_C@_0BD@CJHINBOE@ID3DX11EffectGroup?$AA@	; `string'
PUBLIC	??_C@_0CI@ELEPCNNG@ID3DX11EffectGroup?3?3GetTechnique@ ; `string'
PUBLIC	??_C@_0CH@PALFJPOC@ID3DX11EffectGroup?3?3GetTechnique@ ; `string'
PUBLIC	??_C@_0BJ@IIODAFIA@ID3DX11Effect?3?3GetDevice?$AA@ ; `string'
PUBLIC	??_C@_0BH@HJMPPNCD@ID3DX11Effect?3?3GetDesc?$AA@ ; `string'
PUBLIC	??_C@_0CI@LBEFNPAD@ID3DX11Effect?3?3GetConstantBuffer@ ; `string'
PUBLIC	??_C@_0CH@PFHKCJPM@ID3DX11Effect?3?3GetConstantBuffer@ ; `string'
PUBLIC	??_C@_0CC@FMFCGBJ@ID3DX11Effect?3?3GetVariableByInde@ ; `string'
PUBLIC	??_C@_0CB@HODNAEAA@ID3DX11Effect?3?3GetVariableByName@ ; `string'
PUBLIC	??_C@_0CF@FDIBGDLP@ID3DX11Effect?3?3GetVariableBySema@ ; `string'
PUBLIC	??_C@_0CD@JNDCOBOM@ID3DX11Effect?3?3GetTechniqueByInd@ ; `string'
PUBLIC	?__LINE__Var@?1??GetTechniqueByIndex@CEffect@D3DX11Effects@@UAGPAUID3DX11EffectTechnique@@I@Z@4JA ; `D3DX11Effects::CEffect::GetTechniqueByIndex'::`2'::__LINE__Var
PUBLIC	??_C@_05MAJJAKPI@FALSE?$AA@			; `string'
PUBLIC	??_C@_0CC@FLNKENEC@ID3DX11Effect?3?3GetTechniqueByNam@ ; `string'
PUBLIC	??_C@_0BP@NMDKEEDJ@ID3DX11Effect?3?3GetGroupByIndex?$AA@ ; `string'
PUBLIC	??_C@_0BO@FHAFPIOJ@ID3DX11Effect?3?3GetGroupByName?$AA@ ; `string'
PUBLIC	??_C@_0M@NKIEOOKO@NULL?5?$CB?$DN?5pCB?$AA@	; `string'
PUBLIC	??_C@_0CA@ONKMEPNK@ID3DX11EffectVariable?3?3AsScalar?$AA@ ; `string'
PUBLIC	??_C@_0CA@IMDOICHK@ID3DX11EffectVariable?3?3AsVector?$AA@ ; `string'
PUBLIC	??_C@_0CA@HLLPIICO@ID3DX11EffectVariable?3?3AsMatrix?$AA@ ; `string'
PUBLIC	??_C@_0CA@NPAIMBLA@ID3DX11EffectVariable?3?3AsString?$AA@ ; `string'
PUBLIC	??_C@_0CH@DGGONKPA@ID3DX11EffectVariable?3?3AsClassIn@ ; `string'
PUBLIC	??_C@_0CD@IJDMLLGC@ID3DX11EffectVariable?3?3AsInterfa@ ; `string'
PUBLIC	??_C@_0CI@CAHLNOAL@ID3DX11EffectVariable?3?3AsShaderR@ ; `string'
PUBLIC	??_C@_0CN@NNAKDDLF@ID3DX11EffectVariable?3?3AsUnorder@ ; `string'
PUBLIC	??_C@_0CK@MBMJDIEM@ID3DX11EffectVariable?3?3AsRenderT@ ; `string'
PUBLIC	??_C@_0CK@BDFLCADG@ID3DX11EffectVariable?3?3AsDepthSt@ ; `string'
PUBLIC	??_C@_0CI@NALNEDPE@ID3DX11EffectVariable?3?3AsConstan@ ; `string'
PUBLIC	??_C@_0CA@EFNGDPCK@ID3DX11EffectVariable?3?3AsShader?$AA@ ; `string'
PUBLIC	??_C@_0BP@BBIMBLAD@ID3DX11EffectVariable?3?3AsBlend?$AA@ ; `string'
PUBLIC	??_C@_0CG@OKHHDBGN@ID3DX11EffectVariable?3?3AsDepthSt@ ; `string'
PUBLIC	??_C@_0CE@DBMPNCNM@ID3DX11EffectVariable?3?3AsRasteri@ ; `string'
PUBLIC	??_C@_0CB@NFKMEKAI@ID3DX11EffectVariable?3?3AsSampler@ ; `string'
PUBLIC	??_C@_0BC@HKPIIPPC@index?5?$DM?5m_CurSize?$AA@	; `string'
PUBLIC	??_C@_0CI@EEMHCIKK@ID3DX11EffectVariable?3?3GetMember@ ; `string'
PUBLIC	??_C@_0CH@HIEJNHKL@ID3DX11EffectVariable?3?3GetMember@ ; `string'
PUBLIC	??_C@_0BL@KAFGANGH@NULL?5?$CB?$DN?5?$CI?$CKppMember?$CJ?9?$DOpName?$AA@ ; `string'
PUBLIC	??_C@_06NNMPJPPN@$super?$AA@			; `string'
PUBLIC	??_C@_0CL@OEBEGPBF@ID3DX11EffectVariable?3?3GetMember@ ; `string'
PUBLIC	??_C@_0CH@GFJECJLP@ID3DX11EffectPass?3?3GetVertexShad@ ; `string'
PUBLIC	??_C@_0CG@MNOPKOPF@ID3DX11EffectPass?3?3GetPixelShade@ ; `string'
PUBLIC	??_C@_0CJ@NMEKPCOD@ID3DX11EffectPass?3?3GetGeometrySh@ ; `string'
PUBLIC	??_C@_0CF@NBEIFBBA@ID3DX11EffectPass?3?3GetHullShader@ ; `string'
PUBLIC	??_C@_0CH@NJCOGFBN@ID3DX11EffectPass?3?3GetDomainShad@ ; `string'
PUBLIC	??_C@_0CI@JMHPIDHG@ID3DX11EffectPass?3?3GetComputeSha@ ; `string'
PUBLIC	??_R0?AUID3DX11EffectType@@@8			; ID3DX11EffectType `RTTI Type Descriptor'
PUBLIC	??_R3ID3DX11EffectType@@8			; ID3DX11EffectType::`RTTI Class Hierarchy Descriptor'
PUBLIC	??_R2ID3DX11EffectType@@8			; ID3DX11EffectType::`RTTI Base Class Array'
PUBLIC	??_R1A@?0A@EA@ID3DX11EffectType@@8		; ID3DX11EffectType::`RTTI Base Class Descriptor at (0,-1,0,64)'
PUBLIC	??_R0?AUID3DX11EffectVariable@@@8		; ID3DX11EffectVariable `RTTI Type Descriptor'
PUBLIC	??_R3ID3DX11EffectVariable@@8			; ID3DX11EffectVariable::`RTTI Class Hierarchy Descriptor'
PUBLIC	??_R2ID3DX11EffectVariable@@8			; ID3DX11EffectVariable::`RTTI Base Class Array'
PUBLIC	??_R1A@?0A@EA@ID3DX11EffectVariable@@8		; ID3DX11EffectVariable::`RTTI Base Class Descriptor at (0,-1,0,64)'
PUBLIC	??_R0?AUID3DX11EffectScalarVariable@@@8		; ID3DX11EffectScalarVariable `RTTI Type Descriptor'
PUBLIC	??_R3ID3DX11EffectScalarVariable@@8		; ID3DX11EffectScalarVariable::`RTTI Class Hierarchy Descriptor'
PUBLIC	??_R2ID3DX11EffectScalarVariable@@8		; ID3DX11EffectScalarVariable::`RTTI Base Class Array'
PUBLIC	??_R1A@?0A@EA@ID3DX11EffectScalarVariable@@8	; ID3DX11EffectScalarVariable::`RTTI Base Class Descriptor at (0,-1,0,64)'
PUBLIC	??_R0?AUID3DX11EffectVectorVariable@@@8		; ID3DX11EffectVectorVariable `RTTI Type Descriptor'
PUBLIC	??_R3ID3DX11EffectVectorVariable@@8		; ID3DX11EffectVectorVariable::`RTTI Class Hierarchy Descriptor'
PUBLIC	??_R2ID3DX11EffectVectorVariable@@8		; ID3DX11EffectVectorVariable::`RTTI Base Class Array'
PUBLIC	??_R1A@?0A@EA@ID3DX11EffectVectorVariable@@8	; ID3DX11EffectVectorVariable::`RTTI Base Class Descriptor at (0,-1,0,64)'
PUBLIC	??_R0?AUID3DX11EffectMatrixVariable@@@8		; ID3DX11EffectMatrixVariable `RTTI Type Descriptor'
PUBLIC	??_R3ID3DX11EffectMatrixVariable@@8		; ID3DX11EffectMatrixVariable::`RTTI Class Hierarchy Descriptor'
PUBLIC	??_R2ID3DX11EffectMatrixVariable@@8		; ID3DX11EffectMatrixVariable::`RTTI Base Class Array'
PUBLIC	??_R1A@?0A@EA@ID3DX11EffectMatrixVariable@@8	; ID3DX11EffectMatrixVariable::`RTTI Base Class Descriptor at (0,-1,0,64)'
PUBLIC	??_R0?AUID3DX11EffectStringVariable@@@8		; ID3DX11EffectStringVariable `RTTI Type Descriptor'
PUBLIC	??_R3ID3DX11EffectStringVariable@@8		; ID3DX11EffectStringVariable::`RTTI Class Hierarchy Descriptor'
PUBLIC	??_R2ID3DX11EffectStringVariable@@8		; ID3DX11EffectStringVariable::`RTTI Base Class Array'
PUBLIC	??_R1A@?0A@EA@ID3DX11EffectStringVariable@@8	; ID3DX11EffectStringVariable::`RTTI Base Class Descriptor at (0,-1,0,64)'
PUBLIC	??_R0?AUID3DX11EffectClassInstanceVariable@@@8	; ID3DX11EffectClassInstanceVariable `RTTI Type Descriptor'
PUBLIC	??_R3ID3DX11EffectClassInstanceVariable@@8	; ID3DX11EffectClassInstanceVariable::`RTTI Class Hierarchy Descriptor'
PUBLIC	??_R2ID3DX11EffectClassInstanceVariable@@8	; ID3DX11EffectClassInstanceVariable::`RTTI Base Class Array'
PUBLIC	??_R1A@?0A@EA@ID3DX11EffectClassInstanceVariable@@8 ; ID3DX11EffectClassInstanceVariable::`RTTI Base Class Descriptor at (0,-1,0,64)'
PUBLIC	??_R0?AUID3DX11EffectInterfaceVariable@@@8	; ID3DX11EffectInterfaceVariable `RTTI Type Descriptor'
PUBLIC	??_R3ID3DX11EffectInterfaceVariable@@8		; ID3DX11EffectInterfaceVariable::`RTTI Class Hierarchy Descriptor'
PUBLIC	??_R2ID3DX11EffectInterfaceVariable@@8		; ID3DX11EffectInterfaceVariable::`RTTI Base Class Array'
PUBLIC	??_R1A@?0A@EA@ID3DX11EffectInterfaceVariable@@8	; ID3DX11EffectInterfaceVariable::`RTTI Base Class Descriptor at (0,-1,0,64)'
PUBLIC	??_R0?AUID3DX11EffectShaderResourceVariable@@@8	; ID3DX11EffectShaderResourceVariable `RTTI Type Descriptor'
PUBLIC	??_R3ID3DX11EffectShaderResourceVariable@@8	; ID3DX11EffectShaderResourceVariable::`RTTI Class Hierarchy Descriptor'
PUBLIC	??_R2ID3DX11EffectShaderResourceVariable@@8	; ID3DX11EffectShaderResourceVariable::`RTTI Base Class Array'
PUBLIC	??_R1A@?0A@EA@ID3DX11EffectShaderResourceVariable@@8 ; ID3DX11EffectShaderResourceVariable::`RTTI Base Class Descriptor at (0,-1,0,64)'
PUBLIC	??_R0?AUID3DX11EffectUnorderedAccessViewVariable@@@8 ; ID3DX11EffectUnorderedAccessViewVariable `RTTI Type Descriptor'
PUBLIC	??_R3ID3DX11EffectUnorderedAccessViewVariable@@8 ; ID3DX11EffectUnorderedAccessViewVariable::`RTTI Class Hierarchy Descriptor'
PUBLIC	??_R2ID3DX11EffectUnorderedAccessViewVariable@@8 ; ID3DX11EffectUnorderedAccessViewVariable::`RTTI Base Class Array'
PUBLIC	??_R1A@?0A@EA@ID3DX11EffectUnorderedAccessViewVariable@@8 ; ID3DX11EffectUnorderedAccessViewVariable::`RTTI Base Class Descriptor at (0,-1,0,64)'
PUBLIC	??_R0?AUID3DX11EffectRenderTargetViewVariable@@@8 ; ID3DX11EffectRenderTargetViewVariable `RTTI Type Descriptor'
PUBLIC	??_R3ID3DX11EffectRenderTargetViewVariable@@8	; ID3DX11EffectRenderTargetViewVariable::`RTTI Class Hierarchy Descriptor'
PUBLIC	??_R2ID3DX11EffectRenderTargetViewVariable@@8	; ID3DX11EffectRenderTargetViewVariable::`RTTI Base Class Array'
PUBLIC	??_R1A@?0A@EA@ID3DX11EffectRenderTargetViewVariable@@8 ; ID3DX11EffectRenderTargetViewVariable::`RTTI Base Class Descriptor at (0,-1,0,64)'
PUBLIC	??_R0?AUID3DX11EffectDepthStencilViewVariable@@@8 ; ID3DX11EffectDepthStencilViewVariable `RTTI Type Descriptor'
PUBLIC	??_R3ID3DX11EffectDepthStencilViewVariable@@8	; ID3DX11EffectDepthStencilViewVariable::`RTTI Class Hierarchy Descriptor'
PUBLIC	??_R2ID3DX11EffectDepthStencilViewVariable@@8	; ID3DX11EffectDepthStencilViewVariable::`RTTI Base Class Array'
PUBLIC	??_R1A@?0A@EA@ID3DX11EffectDepthStencilViewVariable@@8 ; ID3DX11EffectDepthStencilViewVariable::`RTTI Base Class Descriptor at (0,-1,0,64)'
PUBLIC	??_R0?AUID3DX11EffectConstantBuffer@@@8		; ID3DX11EffectConstantBuffer `RTTI Type Descriptor'
PUBLIC	??_R3ID3DX11EffectConstantBuffer@@8		; ID3DX11EffectConstantBuffer::`RTTI Class Hierarchy Descriptor'
PUBLIC	??_R2ID3DX11EffectConstantBuffer@@8		; ID3DX11EffectConstantBuffer::`RTTI Base Class Array'
PUBLIC	??_R1A@?0A@EA@ID3DX11EffectConstantBuffer@@8	; ID3DX11EffectConstantBuffer::`RTTI Base Class Descriptor at (0,-1,0,64)'
PUBLIC	??_R0?AUID3DX11EffectShaderVariable@@@8		; ID3DX11EffectShaderVariable `RTTI Type Descriptor'
PUBLIC	??_R3ID3DX11EffectShaderVariable@@8		; ID3DX11EffectShaderVariable::`RTTI Class Hierarchy Descriptor'
PUBLIC	??_R2ID3DX11EffectShaderVariable@@8		; ID3DX11EffectShaderVariable::`RTTI Base Class Array'
PUBLIC	??_R1A@?0A@EA@ID3DX11EffectShaderVariable@@8	; ID3DX11EffectShaderVariable::`RTTI Base Class Descriptor at (0,-1,0,64)'
PUBLIC	??_R0?AUID3DX11EffectBlendVariable@@@8		; ID3DX11EffectBlendVariable `RTTI Type Descriptor'
PUBLIC	??_R3ID3DX11EffectBlendVariable@@8		; ID3DX11EffectBlendVariable::`RTTI Class Hierarchy Descriptor'
PUBLIC	??_R2ID3DX11EffectBlendVariable@@8		; ID3DX11EffectBlendVariable::`RTTI Base Class Array'
PUBLIC	??_R1A@?0A@EA@ID3DX11EffectBlendVariable@@8	; ID3DX11EffectBlendVariable::`RTTI Base Class Descriptor at (0,-1,0,64)'
PUBLIC	??_R0?AUID3DX11EffectDepthStencilVariable@@@8	; ID3DX11EffectDepthStencilVariable `RTTI Type Descriptor'
PUBLIC	??_R3ID3DX11EffectDepthStencilVariable@@8	; ID3DX11EffectDepthStencilVariable::`RTTI Class Hierarchy Descriptor'
PUBLIC	??_R2ID3DX11EffectDepthStencilVariable@@8	; ID3DX11EffectDepthStencilVariable::`RTTI Base Class Array'
PUBLIC	??_R1A@?0A@EA@ID3DX11EffectDepthStencilVariable@@8 ; ID3DX11EffectDepthStencilVariable::`RTTI Base Class Descriptor at (0,-1,0,64)'
PUBLIC	??_R0?AUID3DX11EffectRasterizerVariable@@@8	; ID3DX11EffectRasterizerVariable `RTTI Type Descriptor'
PUBLIC	??_R3ID3DX11EffectRasterizerVariable@@8		; ID3DX11EffectRasterizerVariable::`RTTI Class Hierarchy Descriptor'
PUBLIC	??_R2ID3DX11EffectRasterizerVariable@@8		; ID3DX11EffectRasterizerVariable::`RTTI Base Class Array'
PUBLIC	??_R1A@?0A@EA@ID3DX11EffectRasterizerVariable@@8 ; ID3DX11EffectRasterizerVariable::`RTTI Base Class Descriptor at (0,-1,0,64)'
PUBLIC	??_R0?AUID3DX11EffectSamplerVariable@@@8	; ID3DX11EffectSamplerVariable `RTTI Type Descriptor'
PUBLIC	??_R3ID3DX11EffectSamplerVariable@@8		; ID3DX11EffectSamplerVariable::`RTTI Class Hierarchy Descriptor'
PUBLIC	??_R2ID3DX11EffectSamplerVariable@@8		; ID3DX11EffectSamplerVariable::`RTTI Base Class Array'
PUBLIC	??_R1A@?0A@EA@ID3DX11EffectSamplerVariable@@8	; ID3DX11EffectSamplerVariable::`RTTI Base Class Descriptor at (0,-1,0,64)'
PUBLIC	??_R0?AUID3DX11EffectPass@@@8			; ID3DX11EffectPass `RTTI Type Descriptor'
PUBLIC	??_R3ID3DX11EffectPass@@8			; ID3DX11EffectPass::`RTTI Class Hierarchy Descriptor'
PUBLIC	??_R2ID3DX11EffectPass@@8			; ID3DX11EffectPass::`RTTI Base Class Array'
PUBLIC	??_R1A@?0A@EA@ID3DX11EffectPass@@8		; ID3DX11EffectPass::`RTTI Base Class Descriptor at (0,-1,0,64)'
PUBLIC	??_R0?AUID3DX11EffectTechnique@@@8		; ID3DX11EffectTechnique `RTTI Type Descriptor'
PUBLIC	??_R3ID3DX11EffectTechnique@@8			; ID3DX11EffectTechnique::`RTTI Class Hierarchy Descriptor'
PUBLIC	??_R2ID3DX11EffectTechnique@@8			; ID3DX11EffectTechnique::`RTTI Base Class Array'
PUBLIC	??_R1A@?0A@EA@ID3DX11EffectTechnique@@8		; ID3DX11EffectTechnique::`RTTI Base Class Descriptor at (0,-1,0,64)'
PUBLIC	??_R0?AUID3DX11EffectGroup@@@8			; ID3DX11EffectGroup `RTTI Type Descriptor'
PUBLIC	??_R3ID3DX11EffectGroup@@8			; ID3DX11EffectGroup::`RTTI Class Hierarchy Descriptor'
PUBLIC	??_R2ID3DX11EffectGroup@@8			; ID3DX11EffectGroup::`RTTI Base Class Array'
PUBLIC	??_R1A@?0A@EA@ID3DX11EffectGroup@@8		; ID3DX11EffectGroup::`RTTI Base Class Descriptor at (0,-1,0,64)'
PUBLIC	??_R13?0A@EA@ID3DX11EffectType@@8		; ID3DX11EffectType::`RTTI Base Class Descriptor at (4,-1,0,64)'
PUBLIC	??_R4SSingleElementType@D3DX11Effects@@6B@	; D3DX11Effects::SSingleElementType::`RTTI Complete Object Locator'
PUBLIC	??_R0?AUSSingleElementType@D3DX11Effects@@@8	; D3DX11Effects::SSingleElementType `RTTI Type Descriptor'
PUBLIC	??_R3SSingleElementType@D3DX11Effects@@8	; D3DX11Effects::SSingleElementType::`RTTI Class Hierarchy Descriptor'
PUBLIC	??_R2SSingleElementType@D3DX11Effects@@8	; D3DX11Effects::SSingleElementType::`RTTI Base Class Array'
PUBLIC	??_R1A@?0A@EA@SSingleElementType@D3DX11Effects@@8 ; D3DX11Effects::SSingleElementType::`RTTI Base Class Descriptor at (0,-1,0,64)'
PUBLIC	??_R4SEffectInvalidScalarVariable@D3DX11Effects@@6B@ ; D3DX11Effects::SEffectInvalidScalarVariable::`RTTI Complete Object Locator'
PUBLIC	??_R0?AUSEffectInvalidScalarVariable@D3DX11Effects@@@8 ; D3DX11Effects::SEffectInvalidScalarVariable `RTTI Type Descriptor'
PUBLIC	??_R3SEffectInvalidScalarVariable@D3DX11Effects@@8 ; D3DX11Effects::SEffectInvalidScalarVariable::`RTTI Class Hierarchy Descriptor'
PUBLIC	??_R2SEffectInvalidScalarVariable@D3DX11Effects@@8 ; D3DX11Effects::SEffectInvalidScalarVariable::`RTTI Base Class Array'
PUBLIC	??_R1A@?0A@EA@SEffectInvalidScalarVariable@D3DX11Effects@@8 ; D3DX11Effects::SEffectInvalidScalarVariable::`RTTI Base Class Descriptor at (0,-1,0,64)'
PUBLIC	??_R1A@?0A@EA@?$TEffectInvalidVariable@UID3DX11EffectScalarVariable@@@D3DX11Effects@@8 ; D3DX11Effects::TEffectInvalidVariable<ID3DX11EffectScalarVariable>::`RTTI Base Class Descriptor at (0,-1,0,64)'
PUBLIC	??_R0?AU?$TEffectInvalidVariable@UID3DX11EffectScalarVariable@@@D3DX11Effects@@@8 ; D3DX11Effects::TEffectInvalidVariable<ID3DX11EffectScalarVariable> `RTTI Type Descriptor'
PUBLIC	??_R3?$TEffectInvalidVariable@UID3DX11EffectScalarVariable@@@D3DX11Effects@@8 ; D3DX11Effects::TEffectInvalidVariable<ID3DX11EffectScalarVariable>::`RTTI Class Hierarchy Descriptor'
PUBLIC	??_R2?$TEffectInvalidVariable@UID3DX11EffectScalarVariable@@@D3DX11Effects@@8 ; D3DX11Effects::TEffectInvalidVariable<ID3DX11EffectScalarVariable>::`RTTI Base Class Array'
PUBLIC	??_R4SEffectInvalidVectorVariable@D3DX11Effects@@6B@ ; D3DX11Effects::SEffectInvalidVectorVariable::`RTTI Complete Object Locator'
PUBLIC	??_R0?AUSEffectInvalidVectorVariable@D3DX11Effects@@@8 ; D3DX11Effects::SEffectInvalidVectorVariable `RTTI Type Descriptor'
PUBLIC	??_R3SEffectInvalidVectorVariable@D3DX11Effects@@8 ; D3DX11Effects::SEffectInvalidVectorVariable::`RTTI Class Hierarchy Descriptor'
PUBLIC	??_R2SEffectInvalidVectorVariable@D3DX11Effects@@8 ; D3DX11Effects::SEffectInvalidVectorVariable::`RTTI Base Class Array'
PUBLIC	??_R1A@?0A@EA@SEffectInvalidVectorVariable@D3DX11Effects@@8 ; D3DX11Effects::SEffectInvalidVectorVariable::`RTTI Base Class Descriptor at (0,-1,0,64)'
PUBLIC	??_R1A@?0A@EA@?$TEffectInvalidVariable@UID3DX11EffectVectorVariable@@@D3DX11Effects@@8 ; D3DX11Effects::TEffectInvalidVariable<ID3DX11EffectVectorVariable>::`RTTI Base Class Descriptor at (0,-1,0,64)'
PUBLIC	??_R0?AU?$TEffectInvalidVariable@UID3DX11EffectVectorVariable@@@D3DX11Effects@@@8 ; D3DX11Effects::TEffectInvalidVariable<ID3DX11EffectVectorVariable> `RTTI Type Descriptor'
PUBLIC	??_R3?$TEffectInvalidVariable@UID3DX11EffectVectorVariable@@@D3DX11Effects@@8 ; D3DX11Effects::TEffectInvalidVariable<ID3DX11EffectVectorVariable>::`RTTI Class Hierarchy Descriptor'
PUBLIC	??_R2?$TEffectInvalidVariable@UID3DX11EffectVectorVariable@@@D3DX11Effects@@8 ; D3DX11Effects::TEffectInvalidVariable<ID3DX11EffectVectorVariable>::`RTTI Base Class Array'
PUBLIC	??_R4SEffectInvalidMatrixVariable@D3DX11Effects@@6B@ ; D3DX11Effects::SEffectInvalidMatrixVariable::`RTTI Complete Object Locator'
PUBLIC	??_R0?AUSEffectInvalidMatrixVariable@D3DX11Effects@@@8 ; D3DX11Effects::SEffectInvalidMatrixVariable `RTTI Type Descriptor'
PUBLIC	??_R3SEffectInvalidMatrixVariable@D3DX11Effects@@8 ; D3DX11Effects::SEffectInvalidMatrixVariable::`RTTI Class Hierarchy Descriptor'
PUBLIC	??_R2SEffectInvalidMatrixVariable@D3DX11Effects@@8 ; D3DX11Effects::SEffectInvalidMatrixVariable::`RTTI Base Class Array'
PUBLIC	??_R1A@?0A@EA@SEffectInvalidMatrixVariable@D3DX11Effects@@8 ; D3DX11Effects::SEffectInvalidMatrixVariable::`RTTI Base Class Descriptor at (0,-1,0,64)'
PUBLIC	??_R1A@?0A@EA@?$TEffectInvalidVariable@UID3DX11EffectMatrixVariable@@@D3DX11Effects@@8 ; D3DX11Effects::TEffectInvalidVariable<ID3DX11EffectMatrixVariable>::`RTTI Base Class Descriptor at (0,-1,0,64)'
PUBLIC	??_R0?AU?$TEffectInvalidVariable@UID3DX11EffectMatrixVariable@@@D3DX11Effects@@@8 ; D3DX11Effects::TEffectInvalidVariable<ID3DX11EffectMatrixVariable> `RTTI Type Descriptor'
PUBLIC	??_R3?$TEffectInvalidVariable@UID3DX11EffectMatrixVariable@@@D3DX11Effects@@8 ; D3DX11Effects::TEffectInvalidVariable<ID3DX11EffectMatrixVariable>::`RTTI Class Hierarchy Descriptor'
PUBLIC	??_R2?$TEffectInvalidVariable@UID3DX11EffectMatrixVariable@@@D3DX11Effects@@8 ; D3DX11Effects::TEffectInvalidVariable<ID3DX11EffectMatrixVariable>::`RTTI Base Class Array'
PUBLIC	??_R4SEffectInvalidStringVariable@D3DX11Effects@@6B@ ; D3DX11Effects::SEffectInvalidStringVariable::`RTTI Complete Object Locator'
PUBLIC	??_R0?AUSEffectInvalidStringVariable@D3DX11Effects@@@8 ; D3DX11Effects::SEffectInvalidStringVariable `RTTI Type Descriptor'
PUBLIC	??_R3SEffectInvalidStringVariable@D3DX11Effects@@8 ; D3DX11Effects::SEffectInvalidStringVariable::`RTTI Class Hierarchy Descriptor'
PUBLIC	??_R2SEffectInvalidStringVariable@D3DX11Effects@@8 ; D3DX11Effects::SEffectInvalidStringVariable::`RTTI Base Class Array'
PUBLIC	??_R1A@?0A@EA@SEffectInvalidStringVariable@D3DX11Effects@@8 ; D3DX11Effects::SEffectInvalidStringVariable::`RTTI Base Class Descriptor at (0,-1,0,64)'
PUBLIC	??_R1A@?0A@EA@?$TEffectInvalidVariable@UID3DX11EffectStringVariable@@@D3DX11Effects@@8 ; D3DX11Effects::TEffectInvalidVariable<ID3DX11EffectStringVariable>::`RTTI Base Class Descriptor at (0,-1,0,64)'
PUBLIC	??_R0?AU?$TEffectInvalidVariable@UID3DX11EffectStringVariable@@@D3DX11Effects@@@8 ; D3DX11Effects::TEffectInvalidVariable<ID3DX11EffectStringVariable> `RTTI Type Descriptor'
PUBLIC	??_R3?$TEffectInvalidVariable@UID3DX11EffectStringVariable@@@D3DX11Effects@@8 ; D3DX11Effects::TEffectInvalidVariable<ID3DX11EffectStringVariable>::`RTTI Class Hierarchy Descriptor'
PUBLIC	??_R2?$TEffectInvalidVariable@UID3DX11EffectStringVariable@@@D3DX11Effects@@8 ; D3DX11Effects::TEffectInvalidVariable<ID3DX11EffectStringVariable>::`RTTI Base Class Array'
PUBLIC	??_R4SEffectInvalidClassInstanceVariable@D3DX11Effects@@6B@ ; D3DX11Effects::SEffectInvalidClassInstanceVariable::`RTTI Complete Object Locator'
PUBLIC	??_R0?AUSEffectInvalidClassInstanceVariable@D3DX11Effects@@@8 ; D3DX11Effects::SEffectInvalidClassInstanceVariable `RTTI Type Descriptor'
PUBLIC	??_R3SEffectInvalidClassInstanceVariable@D3DX11Effects@@8 ; D3DX11Effects::SEffectInvalidClassInstanceVariable::`RTTI Class Hierarchy Descriptor'
PUBLIC	??_R2SEffectInvalidClassInstanceVariable@D3DX11Effects@@8 ; D3DX11Effects::SEffectInvalidClassInstanceVariable::`RTTI Base Class Array'
PUBLIC	??_R1A@?0A@EA@SEffectInvalidClassInstanceVariable@D3DX11Effects@@8 ; D3DX11Effects::SEffectInvalidClassInstanceVariable::`RTTI Base Class Descriptor at (0,-1,0,64)'
PUBLIC	??_R1A@?0A@EA@?$TEffectInvalidVariable@UID3DX11EffectClassInstanceVariable@@@D3DX11Effects@@8 ; D3DX11Effects::TEffectInvalidVariable<ID3DX11EffectClassInstanceVariable>::`RTTI Base Class Descriptor at (0,-1,0,64)'
PUBLIC	??_R0?AU?$TEffectInvalidVariable@UID3DX11EffectClassInstanceVariable@@@D3DX11Effects@@@8 ; D3DX11Effects::TEffectInvalidVariable<ID3DX11EffectClassInstanceVariable> `RTTI Type Descriptor'
PUBLIC	??_R3?$TEffectInvalidVariable@UID3DX11EffectClassInstanceVariable@@@D3DX11Effects@@8 ; D3DX11Effects::TEffectInvalidVariable<ID3DX11EffectClassInstanceVariable>::`RTTI Class Hierarchy Descriptor'
PUBLIC	??_R2?$TEffectInvalidVariable@UID3DX11EffectClassInstanceVariable@@@D3DX11Effects@@8 ; D3DX11Effects::TEffectInvalidVariable<ID3DX11EffectClassInstanceVariable>::`RTTI Base Class Array'
PUBLIC	??_R4SEffectInvalidInterfaceVariable@D3DX11Effects@@6B@ ; D3DX11Effects::SEffectInvalidInterfaceVariable::`RTTI Complete Object Locator'
PUBLIC	??_R0?AUSEffectInvalidInterfaceVariable@D3DX11Effects@@@8 ; D3DX11Effects::SEffectInvalidInterfaceVariable `RTTI Type Descriptor'
PUBLIC	??_R3SEffectInvalidInterfaceVariable@D3DX11Effects@@8 ; D3DX11Effects::SEffectInvalidInterfaceVariable::`RTTI Class Hierarchy Descriptor'
PUBLIC	??_R2SEffectInvalidInterfaceVariable@D3DX11Effects@@8 ; D3DX11Effects::SEffectInvalidInterfaceVariable::`RTTI Base Class Array'
PUBLIC	??_R1A@?0A@EA@SEffectInvalidInterfaceVariable@D3DX11Effects@@8 ; D3DX11Effects::SEffectInvalidInterfaceVariable::`RTTI Base Class Descriptor at (0,-1,0,64)'
PUBLIC	??_R1A@?0A@EA@?$TEffectInvalidVariable@UID3DX11EffectInterfaceVariable@@@D3DX11Effects@@8 ; D3DX11Effects::TEffectInvalidVariable<ID3DX11EffectInterfaceVariable>::`RTTI Base Class Descriptor at (0,-1,0,64)'
PUBLIC	??_R0?AU?$TEffectInvalidVariable@UID3DX11EffectInterfaceVariable@@@D3DX11Effects@@@8 ; D3DX11Effects::TEffectInvalidVariable<ID3DX11EffectInterfaceVariable> `RTTI Type Descriptor'
PUBLIC	??_R3?$TEffectInvalidVariable@UID3DX11EffectInterfaceVariable@@@D3DX11Effects@@8 ; D3DX11Effects::TEffectInvalidVariable<ID3DX11EffectInterfaceVariable>::`RTTI Class Hierarchy Descriptor'
PUBLIC	??_R2?$TEffectInvalidVariable@UID3DX11EffectInterfaceVariable@@@D3DX11Effects@@8 ; D3DX11Effects::TEffectInvalidVariable<ID3DX11EffectInterfaceVariable>::`RTTI Base Class Array'
PUBLIC	??_R4SEffectInvalidShaderResourceVariable@D3DX11Effects@@6B@ ; D3DX11Effects::SEffectInvalidShaderResourceVariable::`RTTI Complete Object Locator'
PUBLIC	??_R0?AUSEffectInvalidShaderResourceVariable@D3DX11Effects@@@8 ; D3DX11Effects::SEffectInvalidShaderResourceVariable `RTTI Type Descriptor'
PUBLIC	??_R3SEffectInvalidShaderResourceVariable@D3DX11Effects@@8 ; D3DX11Effects::SEffectInvalidShaderResourceVariable::`RTTI Class Hierarchy Descriptor'
PUBLIC	??_R2SEffectInvalidShaderResourceVariable@D3DX11Effects@@8 ; D3DX11Effects::SEffectInvalidShaderResourceVariable::`RTTI Base Class Array'
PUBLIC	??_R1A@?0A@EA@SEffectInvalidShaderResourceVariable@D3DX11Effects@@8 ; D3DX11Effects::SEffectInvalidShaderResourceVariable::`RTTI Base Class Descriptor at (0,-1,0,64)'
PUBLIC	??_R1A@?0A@EA@?$TEffectInvalidVariable@UID3DX11EffectShaderResourceVariable@@@D3DX11Effects@@8 ; D3DX11Effects::TEffectInvalidVariable<ID3DX11EffectShaderResourceVariable>::`RTTI Base Class Descriptor at (0,-1,0,64)'
PUBLIC	??_R0?AU?$TEffectInvalidVariable@UID3DX11EffectShaderResourceVariable@@@D3DX11Effects@@@8 ; D3DX11Effects::TEffectInvalidVariable<ID3DX11EffectShaderResourceVariable> `RTTI Type Descriptor'
PUBLIC	??_R3?$TEffectInvalidVariable@UID3DX11EffectShaderResourceVariable@@@D3DX11Effects@@8 ; D3DX11Effects::TEffectInvalidVariable<ID3DX11EffectShaderResourceVariable>::`RTTI Class Hierarchy Descriptor'
PUBLIC	??_R2?$TEffectInvalidVariable@UID3DX11EffectShaderResourceVariable@@@D3DX11Effects@@8 ; D3DX11Effects::TEffectInvalidVariable<ID3DX11EffectShaderResourceVariable>::`RTTI Base Class Array'
PUBLIC	??_R4SEffectInvalidUnorderedAccessViewVariable@D3DX11Effects@@6B@ ; D3DX11Effects::SEffectInvalidUnorderedAccessViewVariable::`RTTI Complete Object Locator'
PUBLIC	??_R0?AUSEffectInvalidUnorderedAccessViewVariable@D3DX11Effects@@@8 ; D3DX11Effects::SEffectInvalidUnorderedAccessViewVariable `RTTI Type Descriptor'
PUBLIC	??_R3SEffectInvalidUnorderedAccessViewVariable@D3DX11Effects@@8 ; D3DX11Effects::SEffectInvalidUnorderedAccessViewVariable::`RTTI Class Hierarchy Descriptor'
PUBLIC	??_R2SEffectInvalidUnorderedAccessViewVariable@D3DX11Effects@@8 ; D3DX11Effects::SEffectInvalidUnorderedAccessViewVariable::`RTTI Base Class Array'
PUBLIC	??_R1A@?0A@EA@SEffectInvalidUnorderedAccessViewVariable@D3DX11Effects@@8 ; D3DX11Effects::SEffectInvalidUnorderedAccessViewVariable::`RTTI Base Class Descriptor at (0,-1,0,64)'
PUBLIC	??_R1A@?0A@EA@?$TEffectInvalidVariable@UID3DX11EffectUnorderedAccessViewVariable@@@D3DX11Effects@@8 ; D3DX11Effects::TEffectInvalidVariable<ID3DX11EffectUnorderedAccessViewVariable>::`RTTI Base Class Descriptor at (0,-1,0,64)'
PUBLIC	??_R0?AU?$TEffectInvalidVariable@UID3DX11EffectUnorderedAccessViewVariable@@@D3DX11Effects@@@8 ; D3DX11Effects::TEffectInvalidVariable<ID3DX11EffectUnorderedAccessViewVariable> `RTTI Type Descriptor'
PUBLIC	??_R3?$TEffectInvalidVariable@UID3DX11EffectUnorderedAccessViewVariable@@@D3DX11Effects@@8 ; D3DX11Effects::TEffectInvalidVariable<ID3DX11EffectUnorderedAccessViewVariable>::`RTTI Class Hierarchy Descriptor'
PUBLIC	??_R2?$TEffectInvalidVariable@UID3DX11EffectUnorderedAccessViewVariable@@@D3DX11Effects@@8 ; D3DX11Effects::TEffectInvalidVariable<ID3DX11EffectUnorderedAccessViewVariable>::`RTTI Base Class Array'
PUBLIC	??_R4SEffectInvalidRenderTargetViewVariable@D3DX11Effects@@6B@ ; D3DX11Effects::SEffectInvalidRenderTargetViewVariable::`RTTI Complete Object Locator'
PUBLIC	??_R0?AUSEffectInvalidRenderTargetViewVariable@D3DX11Effects@@@8 ; D3DX11Effects::SEffectInvalidRenderTargetViewVariable `RTTI Type Descriptor'
PUBLIC	??_R3SEffectInvalidRenderTargetViewVariable@D3DX11Effects@@8 ; D3DX11Effects::SEffectInvalidRenderTargetViewVariable::`RTTI Class Hierarchy Descriptor'
PUBLIC	??_R2SEffectInvalidRenderTargetViewVariable@D3DX11Effects@@8 ; D3DX11Effects::SEffectInvalidRenderTargetViewVariable::`RTTI Base Class Array'
PUBLIC	??_R1A@?0A@EA@SEffectInvalidRenderTargetViewVariable@D3DX11Effects@@8 ; D3DX11Effects::SEffectInvalidRenderTargetViewVariable::`RTTI Base Class Descriptor at (0,-1,0,64)'
PUBLIC	??_R1A@?0A@EA@?$TEffectInvalidVariable@UID3DX11EffectRenderTargetViewVariable@@@D3DX11Effects@@8 ; D3DX11Effects::TEffectInvalidVariable<ID3DX11EffectRenderTargetViewVariable>::`RTTI Base Class Descriptor at (0,-1,0,64)'
PUBLIC	??_R0?AU?$TEffectInvalidVariable@UID3DX11EffectRenderTargetViewVariable@@@D3DX11Effects@@@8 ; D3DX11Effects::TEffectInvalidVariable<ID3DX11EffectRenderTargetViewVariable> `RTTI Type Descriptor'
PUBLIC	??_R3?$TEffectInvalidVariable@UID3DX11EffectRenderTargetViewVariable@@@D3DX11Effects@@8 ; D3DX11Effects::TEffectInvalidVariable<ID3DX11EffectRenderTargetViewVariable>::`RTTI Class Hierarchy Descriptor'
PUBLIC	??_R2?$TEffectInvalidVariable@UID3DX11EffectRenderTargetViewVariable@@@D3DX11Effects@@8 ; D3DX11Effects::TEffectInvalidVariable<ID3DX11EffectRenderTargetViewVariable>::`RTTI Base Class Array'
PUBLIC	??_R4SEffectInvalidDepthStencilViewVariable@D3DX11Effects@@6B@ ; D3DX11Effects::SEffectInvalidDepthStencilViewVariable::`RTTI Complete Object Locator'
PUBLIC	??_R0?AUSEffectInvalidDepthStencilViewVariable@D3DX11Effects@@@8 ; D3DX11Effects::SEffectInvalidDepthStencilViewVariable `RTTI Type Descriptor'
PUBLIC	??_R3SEffectInvalidDepthStencilViewVariable@D3DX11Effects@@8 ; D3DX11Effects::SEffectInvalidDepthStencilViewVariable::`RTTI Class Hierarchy Descriptor'
PUBLIC	??_R2SEffectInvalidDepthStencilViewVariable@D3DX11Effects@@8 ; D3DX11Effects::SEffectInvalidDepthStencilViewVariable::`RTTI Base Class Array'
PUBLIC	??_R1A@?0A@EA@SEffectInvalidDepthStencilViewVariable@D3DX11Effects@@8 ; D3DX11Effects::SEffectInvalidDepthStencilViewVariable::`RTTI Base Class Descriptor at (0,-1,0,64)'
PUBLIC	??_R1A@?0A@EA@?$TEffectInvalidVariable@UID3DX11EffectDepthStencilViewVariable@@@D3DX11Effects@@8 ; D3DX11Effects::TEffectInvalidVariable<ID3DX11EffectDepthStencilViewVariable>::`RTTI Base Class Descriptor at (0,-1,0,64)'
PUBLIC	??_R0?AU?$TEffectInvalidVariable@UID3DX11EffectDepthStencilViewVariable@@@D3DX11Effects@@@8 ; D3DX11Effects::TEffectInvalidVariable<ID3DX11EffectDepthStencilViewVariable> `RTTI Type Descriptor'
PUBLIC	??_R3?$TEffectInvalidVariable@UID3DX11EffectDepthStencilViewVariable@@@D3DX11Effects@@8 ; D3DX11Effects::TEffectInvalidVariable<ID3DX11EffectDepthStencilViewVariable>::`RTTI Class Hierarchy Descriptor'
PUBLIC	??_R2?$TEffectInvalidVariable@UID3DX11EffectDepthStencilViewVariable@@@D3DX11Effects@@8 ; D3DX11Effects::TEffectInvalidVariable<ID3DX11EffectDepthStencilViewVariable>::`RTTI Base Class Array'
PUBLIC	??_R4SEffectInvalidConstantBuffer@D3DX11Effects@@6B@ ; D3DX11Effects::SEffectInvalidConstantBuffer::`RTTI Complete Object Locator'
PUBLIC	??_R0?AUSEffectInvalidConstantBuffer@D3DX11Effects@@@8 ; D3DX11Effects::SEffectInvalidConstantBuffer `RTTI Type Descriptor'
PUBLIC	??_R3SEffectInvalidConstantBuffer@D3DX11Effects@@8 ; D3DX11Effects::SEffectInvalidConstantBuffer::`RTTI Class Hierarchy Descriptor'
PUBLIC	??_R2SEffectInvalidConstantBuffer@D3DX11Effects@@8 ; D3DX11Effects::SEffectInvalidConstantBuffer::`RTTI Base Class Array'
PUBLIC	??_R1A@?0A@EA@SEffectInvalidConstantBuffer@D3DX11Effects@@8 ; D3DX11Effects::SEffectInvalidConstantBuffer::`RTTI Base Class Descriptor at (0,-1,0,64)'
PUBLIC	??_R1A@?0A@EA@?$TEffectInvalidVariable@UID3DX11EffectConstantBuffer@@@D3DX11Effects@@8 ; D3DX11Effects::TEffectInvalidVariable<ID3DX11EffectConstantBuffer>::`RTTI Base Class Descriptor at (0,-1,0,64)'
PUBLIC	??_R0?AU?$TEffectInvalidVariable@UID3DX11EffectConstantBuffer@@@D3DX11Effects@@@8 ; D3DX11Effects::TEffectInvalidVariable<ID3DX11EffectConstantBuffer> `RTTI Type Descriptor'
PUBLIC	??_R3?$TEffectInvalidVariable@UID3DX11EffectConstantBuffer@@@D3DX11Effects@@8 ; D3DX11Effects::TEffectInvalidVariable<ID3DX11EffectConstantBuffer>::`RTTI Class Hierarchy Descriptor'
PUBLIC	??_R2?$TEffectInvalidVariable@UID3DX11EffectConstantBuffer@@@D3DX11Effects@@8 ; D3DX11Effects::TEffectInvalidVariable<ID3DX11EffectConstantBuffer>::`RTTI Base Class Array'
PUBLIC	??_R4SEffectInvalidShaderVariable@D3DX11Effects@@6B@ ; D3DX11Effects::SEffectInvalidShaderVariable::`RTTI Complete Object Locator'
PUBLIC	??_R0?AUSEffectInvalidShaderVariable@D3DX11Effects@@@8 ; D3DX11Effects::SEffectInvalidShaderVariable `RTTI Type Descriptor'
PUBLIC	??_R3SEffectInvalidShaderVariable@D3DX11Effects@@8 ; D3DX11Effects::SEffectInvalidShaderVariable::`RTTI Class Hierarchy Descriptor'
PUBLIC	??_R2SEffectInvalidShaderVariable@D3DX11Effects@@8 ; D3DX11Effects::SEffectInvalidShaderVariable::`RTTI Base Class Array'
PUBLIC	??_R1A@?0A@EA@SEffectInvalidShaderVariable@D3DX11Effects@@8 ; D3DX11Effects::SEffectInvalidShaderVariable::`RTTI Base Class Descriptor at (0,-1,0,64)'
PUBLIC	??_R1A@?0A@EA@?$TEffectInvalidVariable@UID3DX11EffectShaderVariable@@@D3DX11Effects@@8 ; D3DX11Effects::TEffectInvalidVariable<ID3DX11EffectShaderVariable>::`RTTI Base Class Descriptor at (0,-1,0,64)'
PUBLIC	??_R0?AU?$TEffectInvalidVariable@UID3DX11EffectShaderVariable@@@D3DX11Effects@@@8 ; D3DX11Effects::TEffectInvalidVariable<ID3DX11EffectShaderVariable> `RTTI Type Descriptor'
PUBLIC	??_R3?$TEffectInvalidVariable@UID3DX11EffectShaderVariable@@@D3DX11Effects@@8 ; D3DX11Effects::TEffectInvalidVariable<ID3DX11EffectShaderVariable>::`RTTI Class Hierarchy Descriptor'
PUBLIC	??_R2?$TEffectInvalidVariable@UID3DX11EffectShaderVariable@@@D3DX11Effects@@8 ; D3DX11Effects::TEffectInvalidVariable<ID3DX11EffectShaderVariable>::`RTTI Base Class Array'
PUBLIC	??_R4SEffectInvalidBlendVariable@D3DX11Effects@@6B@ ; D3DX11Effects::SEffectInvalidBlendVariable::`RTTI Complete Object Locator'
PUBLIC	??_R0?AUSEffectInvalidBlendVariable@D3DX11Effects@@@8 ; D3DX11Effects::SEffectInvalidBlendVariable `RTTI Type Descriptor'
PUBLIC	??_R3SEffectInvalidBlendVariable@D3DX11Effects@@8 ; D3DX11Effects::SEffectInvalidBlendVariable::`RTTI Class Hierarchy Descriptor'
PUBLIC	??_R2SEffectInvalidBlendVariable@D3DX11Effects@@8 ; D3DX11Effects::SEffectInvalidBlendVariable::`RTTI Base Class Array'
PUBLIC	??_R1A@?0A@EA@SEffectInvalidBlendVariable@D3DX11Effects@@8 ; D3DX11Effects::SEffectInvalidBlendVariable::`RTTI Base Class Descriptor at (0,-1,0,64)'
PUBLIC	??_R1A@?0A@EA@?$TEffectInvalidVariable@UID3DX11EffectBlendVariable@@@D3DX11Effects@@8 ; D3DX11Effects::TEffectInvalidVariable<ID3DX11EffectBlendVariable>::`RTTI Base Class Descriptor at (0,-1,0,64)'
PUBLIC	??_R0?AU?$TEffectInvalidVariable@UID3DX11EffectBlendVariable@@@D3DX11Effects@@@8 ; D3DX11Effects::TEffectInvalidVariable<ID3DX11EffectBlendVariable> `RTTI Type Descriptor'
PUBLIC	??_R3?$TEffectInvalidVariable@UID3DX11EffectBlendVariable@@@D3DX11Effects@@8 ; D3DX11Effects::TEffectInvalidVariable<ID3DX11EffectBlendVariable>::`RTTI Class Hierarchy Descriptor'
PUBLIC	??_R2?$TEffectInvalidVariable@UID3DX11EffectBlendVariable@@@D3DX11Effects@@8 ; D3DX11Effects::TEffectInvalidVariable<ID3DX11EffectBlendVariable>::`RTTI Base Class Array'
PUBLIC	??_R4SEffectInvalidDepthStencilVariable@D3DX11Effects@@6B@ ; D3DX11Effects::SEffectInvalidDepthStencilVariable::`RTTI Complete Object Locator'
PUBLIC	??_R0?AUSEffectInvalidDepthStencilVariable@D3DX11Effects@@@8 ; D3DX11Effects::SEffectInvalidDepthStencilVariable `RTTI Type Descriptor'
PUBLIC	??_R3SEffectInvalidDepthStencilVariable@D3DX11Effects@@8 ; D3DX11Effects::SEffectInvalidDepthStencilVariable::`RTTI Class Hierarchy Descriptor'
PUBLIC	??_R2SEffectInvalidDepthStencilVariable@D3DX11Effects@@8 ; D3DX11Effects::SEffectInvalidDepthStencilVariable::`RTTI Base Class Array'
PUBLIC	??_R1A@?0A@EA@SEffectInvalidDepthStencilVariable@D3DX11Effects@@8 ; D3DX11Effects::SEffectInvalidDepthStencilVariable::`RTTI Base Class Descriptor at (0,-1,0,64)'
PUBLIC	??_R1A@?0A@EA@?$TEffectInvalidVariable@UID3DX11EffectDepthStencilVariable@@@D3DX11Effects@@8 ; D3DX11Effects::TEffectInvalidVariable<ID3DX11EffectDepthStencilVariable>::`RTTI Base Class Descriptor at (0,-1,0,64)'
PUBLIC	??_R0?AU?$TEffectInvalidVariable@UID3DX11EffectDepthStencilVariable@@@D3DX11Effects@@@8 ; D3DX11Effects::TEffectInvalidVariable<ID3DX11EffectDepthStencilVariable> `RTTI Type Descriptor'
PUBLIC	??_R3?$TEffectInvalidVariable@UID3DX11EffectDepthStencilVariable@@@D3DX11Effects@@8 ; D3DX11Effects::TEffectInvalidVariable<ID3DX11EffectDepthStencilVariable>::`RTTI Class Hierarchy Descriptor'
PUBLIC	??_R2?$TEffectInvalidVariable@UID3DX11EffectDepthStencilVariable@@@D3DX11Effects@@8 ; D3DX11Effects::TEffectInvalidVariable<ID3DX11EffectDepthStencilVariable>::`RTTI Base Class Array'
PUBLIC	??_R4SEffectInvalidRasterizerVariable@D3DX11Effects@@6B@ ; D3DX11Effects::SEffectInvalidRasterizerVariable::`RTTI Complete Object Locator'
PUBLIC	??_R0?AUSEffectInvalidRasterizerVariable@D3DX11Effects@@@8 ; D3DX11Effects::SEffectInvalidRasterizerVariable `RTTI Type Descriptor'
PUBLIC	??_R3SEffectInvalidRasterizerVariable@D3DX11Effects@@8 ; D3DX11Effects::SEffectInvalidRasterizerVariable::`RTTI Class Hierarchy Descriptor'
PUBLIC	??_R2SEffectInvalidRasterizerVariable@D3DX11Effects@@8 ; D3DX11Effects::SEffectInvalidRasterizerVariable::`RTTI Base Class Array'
PUBLIC	??_R1A@?0A@EA@SEffectInvalidRasterizerVariable@D3DX11Effects@@8 ; D3DX11Effects::SEffectInvalidRasterizerVariable::`RTTI Base Class Descriptor at (0,-1,0,64)'
PUBLIC	??_R1A@?0A@EA@?$TEffectInvalidVariable@UID3DX11EffectRasterizerVariable@@@D3DX11Effects@@8 ; D3DX11Effects::TEffectInvalidVariable<ID3DX11EffectRasterizerVariable>::`RTTI Base Class Descriptor at (0,-1,0,64)'
PUBLIC	??_R0?AU?$TEffectInvalidVariable@UID3DX11EffectRasterizerVariable@@@D3DX11Effects@@@8 ; D3DX11Effects::TEffectInvalidVariable<ID3DX11EffectRasterizerVariable> `RTTI Type Descriptor'
PUBLIC	??_R3?$TEffectInvalidVariable@UID3DX11EffectRasterizerVariable@@@D3DX11Effects@@8 ; D3DX11Effects::TEffectInvalidVariable<ID3DX11EffectRasterizerVariable>::`RTTI Class Hierarchy Descriptor'
PUBLIC	??_R2?$TEffectInvalidVariable@UID3DX11EffectRasterizerVariable@@@D3DX11Effects@@8 ; D3DX11Effects::TEffectInvalidVariable<ID3DX11EffectRasterizerVariable>::`RTTI Base Class Array'
PUBLIC	??_R4SEffectInvalidSamplerVariable@D3DX11Effects@@6B@ ; D3DX11Effects::SEffectInvalidSamplerVariable::`RTTI Complete Object Locator'
PUBLIC	??_R0?AUSEffectInvalidSamplerVariable@D3DX11Effects@@@8 ; D3DX11Effects::SEffectInvalidSamplerVariable `RTTI Type Descriptor'
PUBLIC	??_R3SEffectInvalidSamplerVariable@D3DX11Effects@@8 ; D3DX11Effects::SEffectInvalidSamplerVariable::`RTTI Class Hierarchy Descriptor'
PUBLIC	??_R2SEffectInvalidSamplerVariable@D3DX11Effects@@8 ; D3DX11Effects::SEffectInvalidSamplerVariable::`RTTI Base Class Array'
PUBLIC	??_R1A@?0A@EA@SEffectInvalidSamplerVariable@D3DX11Effects@@8 ; D3DX11Effects::SEffectInvalidSamplerVariable::`RTTI Base Class Descriptor at (0,-1,0,64)'
PUBLIC	??_R1A@?0A@EA@?$TEffectInvalidVariable@UID3DX11EffectSamplerVariable@@@D3DX11Effects@@8 ; D3DX11Effects::TEffectInvalidVariable<ID3DX11EffectSamplerVariable>::`RTTI Base Class Descriptor at (0,-1,0,64)'
PUBLIC	??_R0?AU?$TEffectInvalidVariable@UID3DX11EffectSamplerVariable@@@D3DX11Effects@@@8 ; D3DX11Effects::TEffectInvalidVariable<ID3DX11EffectSamplerVariable> `RTTI Type Descriptor'
PUBLIC	??_R3?$TEffectInvalidVariable@UID3DX11EffectSamplerVariable@@@D3DX11Effects@@8 ; D3DX11Effects::TEffectInvalidVariable<ID3DX11EffectSamplerVariable>::`RTTI Class Hierarchy Descriptor'
PUBLIC	??_R2?$TEffectInvalidVariable@UID3DX11EffectSamplerVariable@@@D3DX11Effects@@8 ; D3DX11Effects::TEffectInvalidVariable<ID3DX11EffectSamplerVariable>::`RTTI Base Class Array'
PUBLIC	??_R4SEffectInvalidTechnique@D3DX11Effects@@6B@	; D3DX11Effects::SEffectInvalidTechnique::`RTTI Complete Object Locator'
PUBLIC	??_R0?AUSEffectInvalidTechnique@D3DX11Effects@@@8 ; D3DX11Effects::SEffectInvalidTechnique `RTTI Type Descriptor'
PUBLIC	??_R3SEffectInvalidTechnique@D3DX11Effects@@8	; D3DX11Effects::SEffectInvalidTechnique::`RTTI Class Hierarchy Descriptor'
PUBLIC	??_R2SEffectInvalidTechnique@D3DX11Effects@@8	; D3DX11Effects::SEffectInvalidTechnique::`RTTI Base Class Array'
PUBLIC	??_R1A@?0A@EA@SEffectInvalidTechnique@D3DX11Effects@@8 ; D3DX11Effects::SEffectInvalidTechnique::`RTTI Base Class Descriptor at (0,-1,0,64)'
PUBLIC	??_R4SEffectInvalidPass@D3DX11Effects@@6B@	; D3DX11Effects::SEffectInvalidPass::`RTTI Complete Object Locator'
PUBLIC	??_R0?AUSEffectInvalidPass@D3DX11Effects@@@8	; D3DX11Effects::SEffectInvalidPass `RTTI Type Descriptor'
PUBLIC	??_R3SEffectInvalidPass@D3DX11Effects@@8	; D3DX11Effects::SEffectInvalidPass::`RTTI Class Hierarchy Descriptor'
PUBLIC	??_R2SEffectInvalidPass@D3DX11Effects@@8	; D3DX11Effects::SEffectInvalidPass::`RTTI Base Class Array'
PUBLIC	??_R1A@?0A@EA@SEffectInvalidPass@D3DX11Effects@@8 ; D3DX11Effects::SEffectInvalidPass::`RTTI Base Class Descriptor at (0,-1,0,64)'
PUBLIC	??_R4SEffectInvalidType@D3DX11Effects@@6B@	; D3DX11Effects::SEffectInvalidType::`RTTI Complete Object Locator'
PUBLIC	??_R0?AUSEffectInvalidType@D3DX11Effects@@@8	; D3DX11Effects::SEffectInvalidType `RTTI Type Descriptor'
PUBLIC	??_R3SEffectInvalidType@D3DX11Effects@@8	; D3DX11Effects::SEffectInvalidType::`RTTI Class Hierarchy Descriptor'
PUBLIC	??_R2SEffectInvalidType@D3DX11Effects@@8	; D3DX11Effects::SEffectInvalidType::`RTTI Base Class Array'
PUBLIC	??_R1A@?0A@EA@SEffectInvalidType@D3DX11Effects@@8 ; D3DX11Effects::SEffectInvalidType::`RTTI Base Class Descriptor at (0,-1,0,64)'
PUBLIC	??_R4?$TEffectInvalidVariable@UID3DX11EffectScalarVariable@@@D3DX11Effects@@6B@ ; D3DX11Effects::TEffectInvalidVariable<ID3DX11EffectScalarVariable>::`RTTI Complete Object Locator'
PUBLIC	??_R4?$TEffectInvalidVariable@UID3DX11EffectVectorVariable@@@D3DX11Effects@@6B@ ; D3DX11Effects::TEffectInvalidVariable<ID3DX11EffectVectorVariable>::`RTTI Complete Object Locator'
PUBLIC	??_R4?$TEffectInvalidVariable@UID3DX11EffectMatrixVariable@@@D3DX11Effects@@6B@ ; D3DX11Effects::TEffectInvalidVariable<ID3DX11EffectMatrixVariable>::`RTTI Complete Object Locator'
PUBLIC	??_R4?$TEffectInvalidVariable@UID3DX11EffectStringVariable@@@D3DX11Effects@@6B@ ; D3DX11Effects::TEffectInvalidVariable<ID3DX11EffectStringVariable>::`RTTI Complete Object Locator'
PUBLIC	??_R4?$TEffectInvalidVariable@UID3DX11EffectClassInstanceVariable@@@D3DX11Effects@@6B@ ; D3DX11Effects::TEffectInvalidVariable<ID3DX11EffectClassInstanceVariable>::`RTTI Complete Object Locator'
PUBLIC	??_R4?$TEffectInvalidVariable@UID3DX11EffectInterfaceVariable@@@D3DX11Effects@@6B@ ; D3DX11Effects::TEffectInvalidVariable<ID3DX11EffectInterfaceVariable>::`RTTI Complete Object Locator'
PUBLIC	??_R4?$TEffectInvalidVariable@UID3DX11EffectShaderResourceVariable@@@D3DX11Effects@@6B@ ; D3DX11Effects::TEffectInvalidVariable<ID3DX11EffectShaderResourceVariable>::`RTTI Complete Object Locator'
PUBLIC	??_R4?$TEffectInvalidVariable@UID3DX11EffectUnorderedAccessViewVariable@@@D3DX11Effects@@6B@ ; D3DX11Effects::TEffectInvalidVariable<ID3DX11EffectUnorderedAccessViewVariable>::`RTTI Complete Object Locator'
PUBLIC	??_R4?$TEffectInvalidVariable@UID3DX11EffectRenderTargetViewVariable@@@D3DX11Effects@@6B@ ; D3DX11Effects::TEffectInvalidVariable<ID3DX11EffectRenderTargetViewVariable>::`RTTI Complete Object Locator'
PUBLIC	??_R4?$TEffectInvalidVariable@UID3DX11EffectDepthStencilViewVariable@@@D3DX11Effects@@6B@ ; D3DX11Effects::TEffectInvalidVariable<ID3DX11EffectDepthStencilViewVariable>::`RTTI Complete Object Locator'
PUBLIC	??_R4?$TEffectInvalidVariable@UID3DX11EffectConstantBuffer@@@D3DX11Effects@@6B@ ; D3DX11Effects::TEffectInvalidVariable<ID3DX11EffectConstantBuffer>::`RTTI Complete Object Locator'
PUBLIC	??_R4?$TEffectInvalidVariable@UID3DX11EffectShaderVariable@@@D3DX11Effects@@6B@ ; D3DX11Effects::TEffectInvalidVariable<ID3DX11EffectShaderVariable>::`RTTI Complete Object Locator'
PUBLIC	??_R4?$TEffectInvalidVariable@UID3DX11EffectBlendVariable@@@D3DX11Effects@@6B@ ; D3DX11Effects::TEffectInvalidVariable<ID3DX11EffectBlendVariable>::`RTTI Complete Object Locator'
PUBLIC	??_R4?$TEffectInvalidVariable@UID3DX11EffectDepthStencilVariable@@@D3DX11Effects@@6B@ ; D3DX11Effects::TEffectInvalidVariable<ID3DX11EffectDepthStencilVariable>::`RTTI Complete Object Locator'
PUBLIC	??_R4?$TEffectInvalidVariable@UID3DX11EffectRasterizerVariable@@@D3DX11Effects@@6B@ ; D3DX11Effects::TEffectInvalidVariable<ID3DX11EffectRasterizerVariable>::`RTTI Complete Object Locator'
PUBLIC	??_R4?$TEffectInvalidVariable@UID3DX11EffectSamplerVariable@@@D3DX11Effects@@6B@ ; D3DX11Effects::TEffectInvalidVariable<ID3DX11EffectSamplerVariable>::`RTTI Complete Object Locator'
PUBLIC	??_R4SEffectInvalidGroup@D3DX11Effects@@6B@	; D3DX11Effects::SEffectInvalidGroup::`RTTI Complete Object Locator'
PUBLIC	??_R0?AUSEffectInvalidGroup@D3DX11Effects@@@8	; D3DX11Effects::SEffectInvalidGroup `RTTI Type Descriptor'
PUBLIC	??_R3SEffectInvalidGroup@D3DX11Effects@@8	; D3DX11Effects::SEffectInvalidGroup::`RTTI Class Hierarchy Descriptor'
PUBLIC	??_R2SEffectInvalidGroup@D3DX11Effects@@8	; D3DX11Effects::SEffectInvalidGroup::`RTTI Base Class Array'
PUBLIC	??_R1A@?0A@EA@SEffectInvalidGroup@D3DX11Effects@@8 ; D3DX11Effects::SEffectInvalidGroup::`RTTI Base Class Descriptor at (0,-1,0,64)'
PUBLIC	??_R4SAnonymousShader@D3DX11Effects@@6B?$TUncastableVariable@UID3DX11EffectShaderVariable@@@1@@ ; D3DX11Effects::SAnonymousShader::`RTTI Complete Object Locator'
PUBLIC	??_R0?AUSAnonymousShader@D3DX11Effects@@@8	; D3DX11Effects::SAnonymousShader `RTTI Type Descriptor'
PUBLIC	??_R3SAnonymousShader@D3DX11Effects@@8		; D3DX11Effects::SAnonymousShader::`RTTI Class Hierarchy Descriptor'
PUBLIC	??_R2SAnonymousShader@D3DX11Effects@@8		; D3DX11Effects::SAnonymousShader::`RTTI Base Class Array'
PUBLIC	??_R1A@?0A@EA@SAnonymousShader@D3DX11Effects@@8	; D3DX11Effects::SAnonymousShader::`RTTI Base Class Descriptor at (0,-1,0,64)'
PUBLIC	??_R1A@?0A@EA@?$TUncastableVariable@UID3DX11EffectShaderVariable@@@D3DX11Effects@@8 ; D3DX11Effects::TUncastableVariable<ID3DX11EffectShaderVariable>::`RTTI Base Class Descriptor at (0,-1,0,64)'
PUBLIC	??_R0?AU?$TUncastableVariable@UID3DX11EffectShaderVariable@@@D3DX11Effects@@@8 ; D3DX11Effects::TUncastableVariable<ID3DX11EffectShaderVariable> `RTTI Type Descriptor'
PUBLIC	??_R3?$TUncastableVariable@UID3DX11EffectShaderVariable@@@D3DX11Effects@@8 ; D3DX11Effects::TUncastableVariable<ID3DX11EffectShaderVariable>::`RTTI Class Hierarchy Descriptor'
PUBLIC	??_R2?$TUncastableVariable@UID3DX11EffectShaderVariable@@@D3DX11Effects@@8 ; D3DX11Effects::TUncastableVariable<ID3DX11EffectShaderVariable>::`RTTI Base Class Array'
PUBLIC	??_R4SAnonymousShader@D3DX11Effects@@6BID3DX11EffectType@@@ ; D3DX11Effects::SAnonymousShader::`RTTI Complete Object Locator'
PUBLIC	??_R4?$TUncastableVariable@UID3DX11EffectShaderVariable@@@D3DX11Effects@@6B@ ; D3DX11Effects::TUncastableVariable<ID3DX11EffectShaderVariable>::`RTTI Complete Object Locator'
EXTRN	__purecall:PROC
EXTRN	??3@YAXPAX@Z:PROC				; operator delete
EXTRN	_strchr:PROC
EXTRN	__stricmp:PROC
EXTRN	??_V@YAXPAX@Z:PROC				; operator delete[]
EXTRN	??2@YAPAXIABUnothrow_t@std@@@Z:PROC		; operator new
EXTRN	??_U@YAPAXIABUnothrow_t@std@@@Z:PROC		; operator new[]
EXTRN	?D3DXDebugAssert@@YGHPBDH0@Z:PROC		; D3DXDebugAssert
EXTRN	?GetTotalUnpackedSize@SType@D3DX11Effects@@QBEIH@Z:PROC ; D3DX11Effects::SType::GetTotalUnpackedSize
EXTRN	?GetTotalPackedSize@SType@D3DX11Effects@@QBEIH@Z:PROC ; D3DX11Effects::SType::GetTotalPackedSize
EXTRN	?ApplyPassAssignments@SPassBlock@D3DX11Effects@@QAEXXZ:PROC ; D3DX11Effects::SPassBlock::ApplyPassAssignments
EXTRN	?GetShaderType@SShaderBlock@D3DX11Effects@@QAE?AW4EObjectType@2@XZ:PROC ; D3DX11Effects::SShaderBlock::GetShaderType
EXTRN	?ComputeStateBlockMask@SShaderBlock@D3DX11Effects@@QAEJPAU_D3DX11_STATE_BLOCK_MASK@@@Z:PROC ; D3DX11Effects::SShaderBlock::ComputeStateBlockMask
EXTRN	?GetShaderDesc@SShaderBlock@D3DX11Effects@@QAEJPAU_D3DX11_EFFECT_SHADER_DESC@@H@Z:PROC ; D3DX11Effects::SShaderBlock::GetShaderDesc
EXTRN	?GetVertexShader@SShaderBlock@D3DX11Effects@@QAEJPAPAUID3D11VertexShader@@@Z:PROC ; D3DX11Effects::SShaderBlock::GetVertexShader
EXTRN	?GetGeometryShader@SShaderBlock@D3DX11Effects@@QAEJPAPAUID3D11GeometryShader@@@Z:PROC ; D3DX11Effects::SShaderBlock::GetGeometryShader
EXTRN	?GetPixelShader@SShaderBlock@D3DX11Effects@@QAEJPAPAUID3D11PixelShader@@@Z:PROC ; D3DX11Effects::SShaderBlock::GetPixelShader
EXTRN	?GetHullShader@SShaderBlock@D3DX11Effects@@QAEJPAPAUID3D11HullShader@@@Z:PROC ; D3DX11Effects::SShaderBlock::GetHullShader
EXTRN	?GetDomainShader@SShaderBlock@D3DX11Effects@@QAEJPAPAUID3D11DomainShader@@@Z:PROC ; D3DX11Effects::SShaderBlock::GetDomainShader
EXTRN	?GetComputeShader@SShaderBlock@D3DX11Effects@@QAEJPAPAUID3D11ComputeShader@@@Z:PROC ; D3DX11Effects::SShaderBlock::GetComputeShader
EXTRN	?GetSignatureElementDesc@SShaderBlock@D3DX11Effects@@QAEJW4ESigType@12@IPAU_D3D11_SIGNATURE_PARAMETER_DESC@@@Z:PROC ; D3DX11Effects::SShaderBlock::GetSignatureElementDesc
EXTRN	?CreateNewMember@D3DX11Effects@@YAPAUSMember@1@PAUSType@1@H@Z:PROC ; D3DX11Effects::CreateNewMember
EXTRN	?GetSize@CEffectHeap@D3DX11Effects@@QAEIXZ:PROC	; D3DX11Effects::CEffectHeap::GetSize
EXTRN	?ApplyPassBlock@CEffect@D3DX11Effects@@IAEXPAUSPassBlock@2@@Z:PROC ; D3DX11Effects::CEffect::ApplyPassBlock
EXTRN	?EvaluateAssignment@CEffect@D3DX11Effects@@IAEHPAUSAssignment@2@@Z:PROC ; D3DX11Effects::CEffect::EvaluateAssignment
EXTRN	?ValidatePassBlock@CEffect@D3DX11Effects@@IAEHPAUSPassBlock@2@@Z:PROC ; D3DX11Effects::CEffect::ValidatePassBlock
EXTRN	?ReplaceCBReference@CEffect@D3DX11Effects@@IAEXPAUSConstantBuffer@2@PAUID3D11Buffer@@@Z:PROC ; D3DX11Effects::CEffect::ReplaceCBReference
EXTRN	?IncrementTimer@CEffect@D3DX11Effects@@IAEXXZ:PROC ; D3DX11Effects::CEffect::IncrementTimer
EXTRN	@_RTC_CheckStackVars@8:PROC
EXTRN	@__security_check_cookie@4:PROC
EXTRN	__RTC_CheckEsp:PROC
EXTRN	__RTC_InitBase:PROC
EXTRN	__RTC_Shutdown:PROC
EXTRN	_memcpy:PROC
EXTRN	?nothrow@std@@3Unothrow_t@1@B:BYTE		; std::nothrow
EXTRN	?g_NullVS@D3DX11Effects@@3USShaderBlock@1@A:BYTE ; D3DX11Effects::g_NullVS
EXTRN	?g_NullGS@D3DX11Effects@@3USShaderBlock@1@A:BYTE ; D3DX11Effects::g_NullGS
EXTRN	?g_NullPS@D3DX11Effects@@3USShaderBlock@1@A:BYTE ; D3DX11Effects::g_NullPS
EXTRN	?g_NullHS@D3DX11Effects@@3USShaderBlock@1@A:BYTE ; D3DX11Effects::g_NullHS
EXTRN	?g_NullDS@D3DX11Effects@@3USShaderBlock@1@A:BYTE ; D3DX11Effects::g_NullDS
EXTRN	?g_NullCS@D3DX11Effects@@3USShaderBlock@1@A:BYTE ; D3DX11Effects::g_NullCS
EXTRN	??_7type_info@@6B@:QWORD			; type_info::`vftable'
EXTRN	___security_cookie:DWORD
EXTRN	__fltused:DWORD
_BSS	SEGMENT
?g_InvalidScalarVariable@D3DX11Effects@@3USEffectInvalidScalarVariable@1@A DD 01H DUP (?) ; D3DX11Effects::g_InvalidScalarVariable
?g_InvalidVectorVariable@D3DX11Effects@@3USEffectInvalidVectorVariable@1@A DD 01H DUP (?) ; D3DX11Effects::g_InvalidVectorVariable
?g_InvalidMatrixVariable@D3DX11Effects@@3USEffectInvalidMatrixVariable@1@A DD 01H DUP (?) ; D3DX11Effects::g_InvalidMatrixVariable
?g_InvalidStringVariable@D3DX11Effects@@3USEffectInvalidStringVariable@1@A DD 01H DUP (?) ; D3DX11Effects::g_InvalidStringVariable
?g_InvalidClassInstanceVariable@D3DX11Effects@@3USEffectInvalidClassInstanceVariable@1@A DD 01H DUP (?) ; D3DX11Effects::g_InvalidClassInstanceVariable
?g_InvalidInterfaceVariable@D3DX11Effects@@3USEffectInvalidInterfaceVariable@1@A DD 01H DUP (?) ; D3DX11Effects::g_InvalidInterfaceVariable
?g_InvalidShaderResourceVariable@D3DX11Effects@@3USEffectInvalidShaderResourceVariable@1@A DD 01H DUP (?) ; D3DX11Effects::g_InvalidShaderResourceVariable
?g_InvalidUnorderedAccessViewVariable@D3DX11Effects@@3USEffectInvalidUnorderedAccessViewVariable@1@A DD 01H DUP (?) ; D3DX11Effects::g_InvalidUnorderedAccessViewVariable
?g_InvalidRenderTargetViewVariable@D3DX11Effects@@3USEffectInvalidRenderTargetViewVariable@1@A DD 01H DUP (?) ; D3DX11Effects::g_InvalidRenderTargetViewVariable
?g_InvalidDepthStencilViewVariable@D3DX11Effects@@3USEffectInvalidDepthStencilViewVariable@1@A DD 01H DUP (?) ; D3DX11Effects::g_InvalidDepthStencilViewVariable
?g_InvalidConstantBuffer@D3DX11Effects@@3USEffectInvalidConstantBuffer@1@A DD 01H DUP (?) ; D3DX11Effects::g_InvalidConstantBuffer
?g_InvalidShaderVariable@D3DX11Effects@@3USEffectInvalidShaderVariable@1@A DD 01H DUP (?) ; D3DX11Effects::g_InvalidShaderVariable
?g_InvalidBlendVariable@D3DX11Effects@@3USEffectInvalidBlendVariable@1@A DD 01H DUP (?) ; D3DX11Effects::g_InvalidBlendVariable
?g_InvalidDepthStencilVariable@D3DX11Effects@@3USEffectInvalidDepthStencilVariable@1@A DD 01H DUP (?) ; D3DX11Effects::g_InvalidDepthStencilVariable
?g_InvalidRasterizerVariable@D3DX11Effects@@3USEffectInvalidRasterizerVariable@1@A DD 01H DUP (?) ; D3DX11Effects::g_InvalidRasterizerVariable
?g_InvalidSamplerVariable@D3DX11Effects@@3USEffectInvalidSamplerVariable@1@A DD 01H DUP (?) ; D3DX11Effects::g_InvalidSamplerVariable
?g_InvalidTechnique@D3DX11Effects@@3USEffectInvalidTechnique@1@A DD 01H DUP (?) ; D3DX11Effects::g_InvalidTechnique
?g_InvalidPass@D3DX11Effects@@3USEffectInvalidPass@1@A DD 01H DUP (?) ; D3DX11Effects::g_InvalidPass
?g_InvalidType@D3DX11Effects@@3USEffectInvalidType@1@A DD 01H DUP (?) ; D3DX11Effects::g_InvalidType
?g_InvalidGroup@D3DX11Effects@@3USEffectInvalidGroup@1@A DD 01H DUP (?) ; D3DX11Effects::g_InvalidGroup
?g_AnonymousNullVS@D3DX11Effects@@3USAnonymousShader@1@A DB 0cH DUP (?) ; D3DX11Effects::g_AnonymousNullVS
?g_AnonymousNullGS@D3DX11Effects@@3USAnonymousShader@1@A DB 0cH DUP (?) ; D3DX11Effects::g_AnonymousNullGS
?g_AnonymousNullPS@D3DX11Effects@@3USAnonymousShader@1@A DB 0cH DUP (?) ; D3DX11Effects::g_AnonymousNullPS
?g_AnonymousNullHS@D3DX11Effects@@3USAnonymousShader@1@A DB 0cH DUP (?) ; D3DX11Effects::g_AnonymousNullHS
?g_AnonymousNullDS@D3DX11Effects@@3USAnonymousShader@1@A DB 0cH DUP (?) ; D3DX11Effects::g_AnonymousNullDS
?g_AnonymousNullCS@D3DX11Effects@@3USAnonymousShader@1@A DB 0cH DUP (?) ; D3DX11Effects::g_AnonymousNullCS
_BSS	ENDS
CRT$XCU	SEGMENT
_g_InvalidType$initializer$ DD FLAT:??__Eg_InvalidType@D3DX11Effects@@YAXXZ
CRT$XCU	ENDS
;	COMDAT rtc$TMZ
rtc$TMZ	SEGMENT
__RTC_Shutdown.rtc$TMZ DD FLAT:__RTC_Shutdown
rtc$TMZ	ENDS
;	COMDAT rtc$IMZ
rtc$IMZ	SEGMENT
__RTC_InitBase.rtc$IMZ DD FLAT:__RTC_InitBase
rtc$IMZ	ENDS
;	COMDAT ??_R4?$TUncastableVariable@UID3DX11EffectShaderVariable@@@D3DX11Effects@@6B@
rdata$r	SEGMENT
??_R4?$TUncastableVariable@UID3DX11EffectShaderVariable@@@D3DX11Effects@@6B@ DD 00H ; D3DX11Effects::TUncastableVariable<ID3DX11EffectShaderVariable>::`RTTI Complete Object Locator'
	DD	00H
	DD	00H
	DD	FLAT:??_R0?AU?$TUncastableVariable@UID3DX11EffectShaderVariable@@@D3DX11Effects@@@8
	DD	FLAT:??_R3?$TUncastableVariable@UID3DX11EffectShaderVariable@@@D3DX11Effects@@8
rdata$r	ENDS
;	COMDAT ??_R4SAnonymousShader@D3DX11Effects@@6BID3DX11EffectType@@@
rdata$r	SEGMENT
??_R4SAnonymousShader@D3DX11Effects@@6BID3DX11EffectType@@@ DD 00H ; D3DX11Effects::SAnonymousShader::`RTTI Complete Object Locator'
	DD	04H
	DD	00H
	DD	FLAT:??_R0?AUSAnonymousShader@D3DX11Effects@@@8
	DD	FLAT:??_R3SAnonymousShader@D3DX11Effects@@8
rdata$r	ENDS
;	COMDAT ??_R2?$TUncastableVariable@UID3DX11EffectShaderVariable@@@D3DX11Effects@@8
rdata$r	SEGMENT
??_R2?$TUncastableVariable@UID3DX11EffectShaderVariable@@@D3DX11Effects@@8 DD FLAT:??_R1A@?0A@EA@?$TUncastableVariable@UID3DX11EffectShaderVariable@@@D3DX11Effects@@8 ; D3DX11Effects::TUncastableVariable<ID3DX11EffectShaderVariable>::`RTTI Base Class Array'
	DD	FLAT:??_R1A@?0A@EA@ID3DX11EffectShaderVariable@@8
	DD	FLAT:??_R1A@?0A@EA@ID3DX11EffectVariable@@8
rdata$r	ENDS
;	COMDAT ??_R3?$TUncastableVariable@UID3DX11EffectShaderVariable@@@D3DX11Effects@@8
rdata$r	SEGMENT
??_R3?$TUncastableVariable@UID3DX11EffectShaderVariable@@@D3DX11Effects@@8 DD 00H ; D3DX11Effects::TUncastableVariable<ID3DX11EffectShaderVariable>::`RTTI Class Hierarchy Descriptor'
	DD	00H
	DD	03H
	DD	FLAT:??_R2?$TUncastableVariable@UID3DX11EffectShaderVariable@@@D3DX11Effects@@8
rdata$r	ENDS
;	COMDAT ??_R0?AU?$TUncastableVariable@UID3DX11EffectShaderVariable@@@D3DX11Effects@@@8
data$r	SEGMENT
??_R0?AU?$TUncastableVariable@UID3DX11EffectShaderVariable@@@D3DX11Effects@@@8 DD FLAT:??_7type_info@@6B@ ; D3DX11Effects::TUncastableVariable<ID3DX11EffectShaderVariable> `RTTI Type Descriptor'
	DD	00H
	DB	'.?AU?$TUncastableVariable@UID3DX11EffectShaderVariable@@'
	DB	'@D3DX11Effects@@', 00H
data$r	ENDS
;	COMDAT ??_R1A@?0A@EA@?$TUncastableVariable@UID3DX11EffectShaderVariable@@@D3DX11Effects@@8
rdata$r	SEGMENT
??_R1A@?0A@EA@?$TUncastableVariable@UID3DX11EffectShaderVariable@@@D3DX11Effects@@8 DD FLAT:??_R0?AU?$TUncastableVariable@UID3DX11EffectShaderVariable@@@D3DX11Effects@@@8 ; D3DX11Effects::TUncastableVariable<ID3DX11EffectShaderVariable>::`RTTI Base Class Descriptor at (0,-1,0,64)'
	DD	02H
	DD	00H
	DD	0ffffffffH
	DD	00H
	DD	040H
	DD	FLAT:??_R3?$TUncastableVariable@UID3DX11EffectShaderVariable@@@D3DX11Effects@@8
rdata$r	ENDS
;	COMDAT ??_R1A@?0A@EA@SAnonymousShader@D3DX11Effects@@8
rdata$r	SEGMENT
??_R1A@?0A@EA@SAnonymousShader@D3DX11Effects@@8 DD FLAT:??_R0?AUSAnonymousShader@D3DX11Effects@@@8 ; D3DX11Effects::SAnonymousShader::`RTTI Base Class Descriptor at (0,-1,0,64)'
	DD	04H
	DD	00H
	DD	0ffffffffH
	DD	00H
	DD	040H
	DD	FLAT:??_R3SAnonymousShader@D3DX11Effects@@8
rdata$r	ENDS
;	COMDAT ??_R2SAnonymousShader@D3DX11Effects@@8
rdata$r	SEGMENT
??_R2SAnonymousShader@D3DX11Effects@@8 DD FLAT:??_R1A@?0A@EA@SAnonymousShader@D3DX11Effects@@8 ; D3DX11Effects::SAnonymousShader::`RTTI Base Class Array'
	DD	FLAT:??_R1A@?0A@EA@?$TUncastableVariable@UID3DX11EffectShaderVariable@@@D3DX11Effects@@8
	DD	FLAT:??_R1A@?0A@EA@ID3DX11EffectShaderVariable@@8
	DD	FLAT:??_R1A@?0A@EA@ID3DX11EffectVariable@@8
	DD	FLAT:??_R13?0A@EA@ID3DX11EffectType@@8
rdata$r	ENDS
;	COMDAT ??_R3SAnonymousShader@D3DX11Effects@@8
rdata$r	SEGMENT
??_R3SAnonymousShader@D3DX11Effects@@8 DD 00H		; D3DX11Effects::SAnonymousShader::`RTTI Class Hierarchy Descriptor'
	DD	01H
	DD	05H
	DD	FLAT:??_R2SAnonymousShader@D3DX11Effects@@8
rdata$r	ENDS
;	COMDAT ??_R0?AUSAnonymousShader@D3DX11Effects@@@8
data$r	SEGMENT
??_R0?AUSAnonymousShader@D3DX11Effects@@@8 DD FLAT:??_7type_info@@6B@ ; D3DX11Effects::SAnonymousShader `RTTI Type Descriptor'
	DD	00H
	DB	'.?AUSAnonymousShader@D3DX11Effects@@', 00H
data$r	ENDS
;	COMDAT ??_R4SAnonymousShader@D3DX11Effects@@6B?$TUncastableVariable@UID3DX11EffectShaderVariable@@@1@@
rdata$r	SEGMENT
??_R4SAnonymousShader@D3DX11Effects@@6B?$TUncastableVariable@UID3DX11EffectShaderVariable@@@1@@ DD 00H ; D3DX11Effects::SAnonymousShader::`RTTI Complete Object Locator'
	DD	00H
	DD	00H
	DD	FLAT:??_R0?AUSAnonymousShader@D3DX11Effects@@@8
	DD	FLAT:??_R3SAnonymousShader@D3DX11Effects@@8
rdata$r	ENDS
;	COMDAT ??_R1A@?0A@EA@SEffectInvalidGroup@D3DX11Effects@@8
rdata$r	SEGMENT
??_R1A@?0A@EA@SEffectInvalidGroup@D3DX11Effects@@8 DD FLAT:??_R0?AUSEffectInvalidGroup@D3DX11Effects@@@8 ; D3DX11Effects::SEffectInvalidGroup::`RTTI Base Class Descriptor at (0,-1,0,64)'
	DD	01H
	DD	00H
	DD	0ffffffffH
	DD	00H
	DD	040H
	DD	FLAT:??_R3SEffectInvalidGroup@D3DX11Effects@@8
rdata$r	ENDS
;	COMDAT ??_R2SEffectInvalidGroup@D3DX11Effects@@8
rdata$r	SEGMENT
??_R2SEffectInvalidGroup@D3DX11Effects@@8 DD FLAT:??_R1A@?0A@EA@SEffectInvalidGroup@D3DX11Effects@@8 ; D3DX11Effects::SEffectInvalidGroup::`RTTI Base Class Array'
	DD	FLAT:??_R1A@?0A@EA@ID3DX11EffectGroup@@8
rdata$r	ENDS
;	COMDAT ??_R3SEffectInvalidGroup@D3DX11Effects@@8
rdata$r	SEGMENT
??_R3SEffectInvalidGroup@D3DX11Effects@@8 DD 00H	; D3DX11Effects::SEffectInvalidGroup::`RTTI Class Hierarchy Descriptor'
	DD	00H
	DD	02H
	DD	FLAT:??_R2SEffectInvalidGroup@D3DX11Effects@@8
rdata$r	ENDS
;	COMDAT ??_R0?AUSEffectInvalidGroup@D3DX11Effects@@@8
data$r	SEGMENT
??_R0?AUSEffectInvalidGroup@D3DX11Effects@@@8 DD FLAT:??_7type_info@@6B@ ; D3DX11Effects::SEffectInvalidGroup `RTTI Type Descriptor'
	DD	00H
	DB	'.?AUSEffectInvalidGroup@D3DX11Effects@@', 00H
data$r	ENDS
;	COMDAT ??_R4SEffectInvalidGroup@D3DX11Effects@@6B@
rdata$r	SEGMENT
??_R4SEffectInvalidGroup@D3DX11Effects@@6B@ DD 00H	; D3DX11Effects::SEffectInvalidGroup::`RTTI Complete Object Locator'
	DD	00H
	DD	00H
	DD	FLAT:??_R0?AUSEffectInvalidGroup@D3DX11Effects@@@8
	DD	FLAT:??_R3SEffectInvalidGroup@D3DX11Effects@@8
rdata$r	ENDS
;	COMDAT ??_R4?$TEffectInvalidVariable@UID3DX11EffectSamplerVariable@@@D3DX11Effects@@6B@
rdata$r	SEGMENT
??_R4?$TEffectInvalidVariable@UID3DX11EffectSamplerVariable@@@D3DX11Effects@@6B@ DD 00H ; D3DX11Effects::TEffectInvalidVariable<ID3DX11EffectSamplerVariable>::`RTTI Complete Object Locator'
	DD	00H
	DD	00H
	DD	FLAT:??_R0?AU?$TEffectInvalidVariable@UID3DX11EffectSamplerVariable@@@D3DX11Effects@@@8
	DD	FLAT:??_R3?$TEffectInvalidVariable@UID3DX11EffectSamplerVariable@@@D3DX11Effects@@8
rdata$r	ENDS
;	COMDAT ??_R4?$TEffectInvalidVariable@UID3DX11EffectRasterizerVariable@@@D3DX11Effects@@6B@
rdata$r	SEGMENT
??_R4?$TEffectInvalidVariable@UID3DX11EffectRasterizerVariable@@@D3DX11Effects@@6B@ DD 00H ; D3DX11Effects::TEffectInvalidVariable<ID3DX11EffectRasterizerVariable>::`RTTI Complete Object Locator'
	DD	00H
	DD	00H
	DD	FLAT:??_R0?AU?$TEffectInvalidVariable@UID3DX11EffectRasterizerVariable@@@D3DX11Effects@@@8
	DD	FLAT:??_R3?$TEffectInvalidVariable@UID3DX11EffectRasterizerVariable@@@D3DX11Effects@@8
rdata$r	ENDS
;	COMDAT ??_R4?$TEffectInvalidVariable@UID3DX11EffectDepthStencilVariable@@@D3DX11Effects@@6B@
rdata$r	SEGMENT
??_R4?$TEffectInvalidVariable@UID3DX11EffectDepthStencilVariable@@@D3DX11Effects@@6B@ DD 00H ; D3DX11Effects::TEffectInvalidVariable<ID3DX11EffectDepthStencilVariable>::`RTTI Complete Object Locator'
	DD	00H
	DD	00H
	DD	FLAT:??_R0?AU?$TEffectInvalidVariable@UID3DX11EffectDepthStencilVariable@@@D3DX11Effects@@@8
	DD	FLAT:??_R3?$TEffectInvalidVariable@UID3DX11EffectDepthStencilVariable@@@D3DX11Effects@@8
rdata$r	ENDS
;	COMDAT ??_R4?$TEffectInvalidVariable@UID3DX11EffectBlendVariable@@@D3DX11Effects@@6B@
rdata$r	SEGMENT
??_R4?$TEffectInvalidVariable@UID3DX11EffectBlendVariable@@@D3DX11Effects@@6B@ DD 00H ; D3DX11Effects::TEffectInvalidVariable<ID3DX11EffectBlendVariable>::`RTTI Complete Object Locator'
	DD	00H
	DD	00H
	DD	FLAT:??_R0?AU?$TEffectInvalidVariable@UID3DX11EffectBlendVariable@@@D3DX11Effects@@@8
	DD	FLAT:??_R3?$TEffectInvalidVariable@UID3DX11EffectBlendVariable@@@D3DX11Effects@@8
rdata$r	ENDS
;	COMDAT ??_R4?$TEffectInvalidVariable@UID3DX11EffectShaderVariable@@@D3DX11Effects@@6B@
rdata$r	SEGMENT
??_R4?$TEffectInvalidVariable@UID3DX11EffectShaderVariable@@@D3DX11Effects@@6B@ DD 00H ; D3DX11Effects::TEffectInvalidVariable<ID3DX11EffectShaderVariable>::`RTTI Complete Object Locator'
	DD	00H
	DD	00H
	DD	FLAT:??_R0?AU?$TEffectInvalidVariable@UID3DX11EffectShaderVariable@@@D3DX11Effects@@@8
	DD	FLAT:??_R3?$TEffectInvalidVariable@UID3DX11EffectShaderVariable@@@D3DX11Effects@@8
rdata$r	ENDS
;	COMDAT ??_R4?$TEffectInvalidVariable@UID3DX11EffectConstantBuffer@@@D3DX11Effects@@6B@
rdata$r	SEGMENT
??_R4?$TEffectInvalidVariable@UID3DX11EffectConstantBuffer@@@D3DX11Effects@@6B@ DD 00H ; D3DX11Effects::TEffectInvalidVariable<ID3DX11EffectConstantBuffer>::`RTTI Complete Object Locator'
	DD	00H
	DD	00H
	DD	FLAT:??_R0?AU?$TEffectInvalidVariable@UID3DX11EffectConstantBuffer@@@D3DX11Effects@@@8
	DD	FLAT:??_R3?$TEffectInvalidVariable@UID3DX11EffectConstantBuffer@@@D3DX11Effects@@8
rdata$r	ENDS
;	COMDAT ??_R4?$TEffectInvalidVariable@UID3DX11EffectDepthStencilViewVariable@@@D3DX11Effects@@6B@
rdata$r	SEGMENT
??_R4?$TEffectInvalidVariable@UID3DX11EffectDepthStencilViewVariable@@@D3DX11Effects@@6B@ DD 00H ; D3DX11Effects::TEffectInvalidVariable<ID3DX11EffectDepthStencilViewVariable>::`RTTI Complete Object Locator'
	DD	00H
	DD	00H
	DD	FLAT:??_R0?AU?$TEffectInvalidVariable@UID3DX11EffectDepthStencilViewVariable@@@D3DX11Effects@@@8
	DD	FLAT:??_R3?$TEffectInvalidVariable@UID3DX11EffectDepthStencilViewVariable@@@D3DX11Effects@@8
rdata$r	ENDS
;	COMDAT ??_R4?$TEffectInvalidVariable@UID3DX11EffectRenderTargetViewVariable@@@D3DX11Effects@@6B@
rdata$r	SEGMENT
??_R4?$TEffectInvalidVariable@UID3DX11EffectRenderTargetViewVariable@@@D3DX11Effects@@6B@ DD 00H ; D3DX11Effects::TEffectInvalidVariable<ID3DX11EffectRenderTargetViewVariable>::`RTTI Complete Object Locator'
	DD	00H
	DD	00H
	DD	FLAT:??_R0?AU?$TEffectInvalidVariable@UID3DX11EffectRenderTargetViewVariable@@@D3DX11Effects@@@8
	DD	FLAT:??_R3?$TEffectInvalidVariable@UID3DX11EffectRenderTargetViewVariable@@@D3DX11Effects@@8
rdata$r	ENDS
;	COMDAT ??_R4?$TEffectInvalidVariable@UID3DX11EffectUnorderedAccessViewVariable@@@D3DX11Effects@@6B@
rdata$r	SEGMENT
??_R4?$TEffectInvalidVariable@UID3DX11EffectUnorderedAccessViewVariable@@@D3DX11Effects@@6B@ DD 00H ; D3DX11Effects::TEffectInvalidVariable<ID3DX11EffectUnorderedAccessViewVariable>::`RTTI Complete Object Locator'
	DD	00H
	DD	00H
	DD	FLAT:??_R0?AU?$TEffectInvalidVariable@UID3DX11EffectUnorderedAccessViewVariable@@@D3DX11Effects@@@8
	DD	FLAT:??_R3?$TEffectInvalidVariable@UID3DX11EffectUnorderedAccessViewVariable@@@D3DX11Effects@@8
rdata$r	ENDS
;	COMDAT ??_R4?$TEffectInvalidVariable@UID3DX11EffectShaderResourceVariable@@@D3DX11Effects@@6B@
rdata$r	SEGMENT
??_R4?$TEffectInvalidVariable@UID3DX11EffectShaderResourceVariable@@@D3DX11Effects@@6B@ DD 00H ; D3DX11Effects::TEffectInvalidVariable<ID3DX11EffectShaderResourceVariable>::`RTTI Complete Object Locator'
	DD	00H
	DD	00H
	DD	FLAT:??_R0?AU?$TEffectInvalidVariable@UID3DX11EffectShaderResourceVariable@@@D3DX11Effects@@@8
	DD	FLAT:??_R3?$TEffectInvalidVariable@UID3DX11EffectShaderResourceVariable@@@D3DX11Effects@@8
rdata$r	ENDS
;	COMDAT ??_R4?$TEffectInvalidVariable@UID3DX11EffectInterfaceVariable@@@D3DX11Effects@@6B@
rdata$r	SEGMENT
??_R4?$TEffectInvalidVariable@UID3DX11EffectInterfaceVariable@@@D3DX11Effects@@6B@ DD 00H ; D3DX11Effects::TEffectInvalidVariable<ID3DX11EffectInterfaceVariable>::`RTTI Complete Object Locator'
	DD	00H
	DD	00H
	DD	FLAT:??_R0?AU?$TEffectInvalidVariable@UID3DX11EffectInterfaceVariable@@@D3DX11Effects@@@8
	DD	FLAT:??_R3?$TEffectInvalidVariable@UID3DX11EffectInterfaceVariable@@@D3DX11Effects@@8
rdata$r	ENDS
;	COMDAT ??_R4?$TEffectInvalidVariable@UID3DX11EffectClassInstanceVariable@@@D3DX11Effects@@6B@
rdata$r	SEGMENT
??_R4?$TEffectInvalidVariable@UID3DX11EffectClassInstanceVariable@@@D3DX11Effects@@6B@ DD 00H ; D3DX11Effects::TEffectInvalidVariable<ID3DX11EffectClassInstanceVariable>::`RTTI Complete Object Locator'
	DD	00H
	DD	00H
	DD	FLAT:??_R0?AU?$TEffectInvalidVariable@UID3DX11EffectClassInstanceVariable@@@D3DX11Effects@@@8
	DD	FLAT:??_R3?$TEffectInvalidVariable@UID3DX11EffectClassInstanceVariable@@@D3DX11Effects@@8
rdata$r	ENDS
;	COMDAT ??_R4?$TEffectInvalidVariable@UID3DX11EffectStringVariable@@@D3DX11Effects@@6B@
rdata$r	SEGMENT
??_R4?$TEffectInvalidVariable@UID3DX11EffectStringVariable@@@D3DX11Effects@@6B@ DD 00H ; D3DX11Effects::TEffectInvalidVariable<ID3DX11EffectStringVariable>::`RTTI Complete Object Locator'
	DD	00H
	DD	00H
	DD	FLAT:??_R0?AU?$TEffectInvalidVariable@UID3DX11EffectStringVariable@@@D3DX11Effects@@@8
	DD	FLAT:??_R3?$TEffectInvalidVariable@UID3DX11EffectStringVariable@@@D3DX11Effects@@8
rdata$r	ENDS
;	COMDAT ??_R4?$TEffectInvalidVariable@UID3DX11EffectMatrixVariable@@@D3DX11Effects@@6B@
rdata$r	SEGMENT
??_R4?$TEffectInvalidVariable@UID3DX11EffectMatrixVariable@@@D3DX11Effects@@6B@ DD 00H ; D3DX11Effects::TEffectInvalidVariable<ID3DX11EffectMatrixVariable>::`RTTI Complete Object Locator'
	DD	00H
	DD	00H
	DD	FLAT:??_R0?AU?$TEffectInvalidVariable@UID3DX11EffectMatrixVariable@@@D3DX11Effects@@@8
	DD	FLAT:??_R3?$TEffectInvalidVariable@UID3DX11EffectMatrixVariable@@@D3DX11Effects@@8
rdata$r	ENDS
;	COMDAT ??_R4?$TEffectInvalidVariable@UID3DX11EffectVectorVariable@@@D3DX11Effects@@6B@
rdata$r	SEGMENT
??_R4?$TEffectInvalidVariable@UID3DX11EffectVectorVariable@@@D3DX11Effects@@6B@ DD 00H ; D3DX11Effects::TEffectInvalidVariable<ID3DX11EffectVectorVariable>::`RTTI Complete Object Locator'
	DD	00H
	DD	00H
	DD	FLAT:??_R0?AU?$TEffectInvalidVariable@UID3DX11EffectVectorVariable@@@D3DX11Effects@@@8
	DD	FLAT:??_R3?$TEffectInvalidVariable@UID3DX11EffectVectorVariable@@@D3DX11Effects@@8
rdata$r	ENDS
;	COMDAT ??_R4?$TEffectInvalidVariable@UID3DX11EffectScalarVariable@@@D3DX11Effects@@6B@
rdata$r	SEGMENT
??_R4?$TEffectInvalidVariable@UID3DX11EffectScalarVariable@@@D3DX11Effects@@6B@ DD 00H ; D3DX11Effects::TEffectInvalidVariable<ID3DX11EffectScalarVariable>::`RTTI Complete Object Locator'
	DD	00H
	DD	00H
	DD	FLAT:??_R0?AU?$TEffectInvalidVariable@UID3DX11EffectScalarVariable@@@D3DX11Effects@@@8
	DD	FLAT:??_R3?$TEffectInvalidVariable@UID3DX11EffectScalarVariable@@@D3DX11Effects@@8
rdata$r	ENDS
;	COMDAT ??_R1A@?0A@EA@SEffectInvalidType@D3DX11Effects@@8
rdata$r	SEGMENT
??_R1A@?0A@EA@SEffectInvalidType@D3DX11Effects@@8 DD FLAT:??_R0?AUSEffectInvalidType@D3DX11Effects@@@8 ; D3DX11Effects::SEffectInvalidType::`RTTI Base Class Descriptor at (0,-1,0,64)'
	DD	01H
	DD	00H
	DD	0ffffffffH
	DD	00H
	DD	040H
	DD	FLAT:??_R3SEffectInvalidType@D3DX11Effects@@8
rdata$r	ENDS
;	COMDAT ??_R2SEffectInvalidType@D3DX11Effects@@8
rdata$r	SEGMENT
??_R2SEffectInvalidType@D3DX11Effects@@8 DD FLAT:??_R1A@?0A@EA@SEffectInvalidType@D3DX11Effects@@8 ; D3DX11Effects::SEffectInvalidType::`RTTI Base Class Array'
	DD	FLAT:??_R1A@?0A@EA@ID3DX11EffectType@@8
rdata$r	ENDS
;	COMDAT ??_R3SEffectInvalidType@D3DX11Effects@@8
rdata$r	SEGMENT
??_R3SEffectInvalidType@D3DX11Effects@@8 DD 00H		; D3DX11Effects::SEffectInvalidType::`RTTI Class Hierarchy Descriptor'
	DD	00H
	DD	02H
	DD	FLAT:??_R2SEffectInvalidType@D3DX11Effects@@8
rdata$r	ENDS
;	COMDAT ??_R0?AUSEffectInvalidType@D3DX11Effects@@@8
data$r	SEGMENT
??_R0?AUSEffectInvalidType@D3DX11Effects@@@8 DD FLAT:??_7type_info@@6B@ ; D3DX11Effects::SEffectInvalidType `RTTI Type Descriptor'
	DD	00H
	DB	'.?AUSEffectInvalidType@D3DX11Effects@@', 00H
data$r	ENDS
;	COMDAT ??_R4SEffectInvalidType@D3DX11Effects@@6B@
rdata$r	SEGMENT
??_R4SEffectInvalidType@D3DX11Effects@@6B@ DD 00H	; D3DX11Effects::SEffectInvalidType::`RTTI Complete Object Locator'
	DD	00H
	DD	00H
	DD	FLAT:??_R0?AUSEffectInvalidType@D3DX11Effects@@@8
	DD	FLAT:??_R3SEffectInvalidType@D3DX11Effects@@8
rdata$r	ENDS
;	COMDAT ??_R1A@?0A@EA@SEffectInvalidPass@D3DX11Effects@@8
rdata$r	SEGMENT
??_R1A@?0A@EA@SEffectInvalidPass@D3DX11Effects@@8 DD FLAT:??_R0?AUSEffectInvalidPass@D3DX11Effects@@@8 ; D3DX11Effects::SEffectInvalidPass::`RTTI Base Class Descriptor at (0,-1,0,64)'
	DD	01H
	DD	00H
	DD	0ffffffffH
	DD	00H
	DD	040H
	DD	FLAT:??_R3SEffectInvalidPass@D3DX11Effects@@8
rdata$r	ENDS
;	COMDAT ??_R2SEffectInvalidPass@D3DX11Effects@@8
rdata$r	SEGMENT
??_R2SEffectInvalidPass@D3DX11Effects@@8 DD FLAT:??_R1A@?0A@EA@SEffectInvalidPass@D3DX11Effects@@8 ; D3DX11Effects::SEffectInvalidPass::`RTTI Base Class Array'
	DD	FLAT:??_R1A@?0A@EA@ID3DX11EffectPass@@8
rdata$r	ENDS
;	COMDAT ??_R3SEffectInvalidPass@D3DX11Effects@@8
rdata$r	SEGMENT
??_R3SEffectInvalidPass@D3DX11Effects@@8 DD 00H		; D3DX11Effects::SEffectInvalidPass::`RTTI Class Hierarchy Descriptor'
	DD	00H
	DD	02H
	DD	FLAT:??_R2SEffectInvalidPass@D3DX11Effects@@8
rdata$r	ENDS
;	COMDAT ??_R0?AUSEffectInvalidPass@D3DX11Effects@@@8
data$r	SEGMENT
??_R0?AUSEffectInvalidPass@D3DX11Effects@@@8 DD FLAT:??_7type_info@@6B@ ; D3DX11Effects::SEffectInvalidPass `RTTI Type Descriptor'
	DD	00H
	DB	'.?AUSEffectInvalidPass@D3DX11Effects@@', 00H
data$r	ENDS
;	COMDAT ??_R4SEffectInvalidPass@D3DX11Effects@@6B@
rdata$r	SEGMENT
??_R4SEffectInvalidPass@D3DX11Effects@@6B@ DD 00H	; D3DX11Effects::SEffectInvalidPass::`RTTI Complete Object Locator'
	DD	00H
	DD	00H
	DD	FLAT:??_R0?AUSEffectInvalidPass@D3DX11Effects@@@8
	DD	FLAT:??_R3SEffectInvalidPass@D3DX11Effects@@8
rdata$r	ENDS
;	COMDAT ??_R1A@?0A@EA@SEffectInvalidTechnique@D3DX11Effects@@8
rdata$r	SEGMENT
??_R1A@?0A@EA@SEffectInvalidTechnique@D3DX11Effects@@8 DD FLAT:??_R0?AUSEffectInvalidTechnique@D3DX11Effects@@@8 ; D3DX11Effects::SEffectInvalidTechnique::`RTTI Base Class Descriptor at (0,-1,0,64)'
	DD	01H
	DD	00H
	DD	0ffffffffH
	DD	00H
	DD	040H
	DD	FLAT:??_R3SEffectInvalidTechnique@D3DX11Effects@@8
rdata$r	ENDS
;	COMDAT ??_R2SEffectInvalidTechnique@D3DX11Effects@@8
rdata$r	SEGMENT
??_R2SEffectInvalidTechnique@D3DX11Effects@@8 DD FLAT:??_R1A@?0A@EA@SEffectInvalidTechnique@D3DX11Effects@@8 ; D3DX11Effects::SEffectInvalidTechnique::`RTTI Base Class Array'
	DD	FLAT:??_R1A@?0A@EA@ID3DX11EffectTechnique@@8
rdata$r	ENDS
;	COMDAT ??_R3SEffectInvalidTechnique@D3DX11Effects@@8
rdata$r	SEGMENT
??_R3SEffectInvalidTechnique@D3DX11Effects@@8 DD 00H	; D3DX11Effects::SEffectInvalidTechnique::`RTTI Class Hierarchy Descriptor'
	DD	00H
	DD	02H
	DD	FLAT:??_R2SEffectInvalidTechnique@D3DX11Effects@@8
rdata$r	ENDS
;	COMDAT ??_R0?AUSEffectInvalidTechnique@D3DX11Effects@@@8
data$r	SEGMENT
??_R0?AUSEffectInvalidTechnique@D3DX11Effects@@@8 DD FLAT:??_7type_info@@6B@ ; D3DX11Effects::SEffectInvalidTechnique `RTTI Type Descriptor'
	DD	00H
	DB	'.?AUSEffectInvalidTechnique@D3DX11Effects@@', 00H
data$r	ENDS
;	COMDAT ??_R4SEffectInvalidTechnique@D3DX11Effects@@6B@
rdata$r	SEGMENT
??_R4SEffectInvalidTechnique@D3DX11Effects@@6B@ DD 00H	; D3DX11Effects::SEffectInvalidTechnique::`RTTI Complete Object Locator'
	DD	00H
	DD	00H
	DD	FLAT:??_R0?AUSEffectInvalidTechnique@D3DX11Effects@@@8
	DD	FLAT:??_R3SEffectInvalidTechnique@D3DX11Effects@@8
rdata$r	ENDS
;	COMDAT ??_R2?$TEffectInvalidVariable@UID3DX11EffectSamplerVariable@@@D3DX11Effects@@8
rdata$r	SEGMENT
??_R2?$TEffectInvalidVariable@UID3DX11EffectSamplerVariable@@@D3DX11Effects@@8 DD FLAT:??_R1A@?0A@EA@?$TEffectInvalidVariable@UID3DX11EffectSamplerVariable@@@D3DX11Effects@@8 ; D3DX11Effects::TEffectInvalidVariable<ID3DX11EffectSamplerVariable>::`RTTI Base Class Array'
	DD	FLAT:??_R1A@?0A@EA@ID3DX11EffectSamplerVariable@@8
	DD	FLAT:??_R1A@?0A@EA@ID3DX11EffectVariable@@8
rdata$r	ENDS
;	COMDAT ??_R3?$TEffectInvalidVariable@UID3DX11EffectSamplerVariable@@@D3DX11Effects@@8
rdata$r	SEGMENT
??_R3?$TEffectInvalidVariable@UID3DX11EffectSamplerVariable@@@D3DX11Effects@@8 DD 00H ; D3DX11Effects::TEffectInvalidVariable<ID3DX11EffectSamplerVariable>::`RTTI Class Hierarchy Descriptor'
	DD	00H
	DD	03H
	DD	FLAT:??_R2?$TEffectInvalidVariable@UID3DX11EffectSamplerVariable@@@D3DX11Effects@@8
rdata$r	ENDS
;	COMDAT ??_R0?AU?$TEffectInvalidVariable@UID3DX11EffectSamplerVariable@@@D3DX11Effects@@@8
data$r	SEGMENT
??_R0?AU?$TEffectInvalidVariable@UID3DX11EffectSamplerVariable@@@D3DX11Effects@@@8 DD FLAT:??_7type_info@@6B@ ; D3DX11Effects::TEffectInvalidVariable<ID3DX11EffectSamplerVariable> `RTTI Type Descriptor'
	DD	00H
	DB	'.?AU?$TEffectInvalidVariable@UID3DX11EffectSamplerVariab'
	DB	'le@@@D3DX11Effects@@', 00H
data$r	ENDS
;	COMDAT ??_R1A@?0A@EA@?$TEffectInvalidVariable@UID3DX11EffectSamplerVariable@@@D3DX11Effects@@8
rdata$r	SEGMENT
??_R1A@?0A@EA@?$TEffectInvalidVariable@UID3DX11EffectSamplerVariable@@@D3DX11Effects@@8 DD FLAT:??_R0?AU?$TEffectInvalidVariable@UID3DX11EffectSamplerVariable@@@D3DX11Effects@@@8 ; D3DX11Effects::TEffectInvalidVariable<ID3DX11EffectSamplerVariable>::`RTTI Base Class Descriptor at (0,-1,0,64)'
	DD	02H
	DD	00H
	DD	0ffffffffH
	DD	00H
	DD	040H
	DD	FLAT:??_R3?$TEffectInvalidVariable@UID3DX11EffectSamplerVariable@@@D3DX11Effects@@8
rdata$r	ENDS
;	COMDAT ??_R1A@?0A@EA@SEffectInvalidSamplerVariable@D3DX11Effects@@8
rdata$r	SEGMENT
??_R1A@?0A@EA@SEffectInvalidSamplerVariable@D3DX11Effects@@8 DD FLAT:??_R0?AUSEffectInvalidSamplerVariable@D3DX11Effects@@@8 ; D3DX11Effects::SEffectInvalidSamplerVariable::`RTTI Base Class Descriptor at (0,-1,0,64)'
	DD	03H
	DD	00H
	DD	0ffffffffH
	DD	00H
	DD	040H
	DD	FLAT:??_R3SEffectInvalidSamplerVariable@D3DX11Effects@@8
rdata$r	ENDS
;	COMDAT ??_R2SEffectInvalidSamplerVariable@D3DX11Effects@@8
rdata$r	SEGMENT
??_R2SEffectInvalidSamplerVariable@D3DX11Effects@@8 DD FLAT:??_R1A@?0A@EA@SEffectInvalidSamplerVariable@D3DX11Effects@@8 ; D3DX11Effects::SEffectInvalidSamplerVariable::`RTTI Base Class Array'
	DD	FLAT:??_R1A@?0A@EA@?$TEffectInvalidVariable@UID3DX11EffectSamplerVariable@@@D3DX11Effects@@8
	DD	FLAT:??_R1A@?0A@EA@ID3DX11EffectSamplerVariable@@8
	DD	FLAT:??_R1A@?0A@EA@ID3DX11EffectVariable@@8
rdata$r	ENDS
;	COMDAT ??_R3SEffectInvalidSamplerVariable@D3DX11Effects@@8
rdata$r	SEGMENT
??_R3SEffectInvalidSamplerVariable@D3DX11Effects@@8 DD 00H ; D3DX11Effects::SEffectInvalidSamplerVariable::`RTTI Class Hierarchy Descriptor'
	DD	00H
	DD	04H
	DD	FLAT:??_R2SEffectInvalidSamplerVariable@D3DX11Effects@@8
rdata$r	ENDS
;	COMDAT ??_R0?AUSEffectInvalidSamplerVariable@D3DX11Effects@@@8
data$r	SEGMENT
??_R0?AUSEffectInvalidSamplerVariable@D3DX11Effects@@@8 DD FLAT:??_7type_info@@6B@ ; D3DX11Effects::SEffectInvalidSamplerVariable `RTTI Type Descriptor'
	DD	00H
	DB	'.?AUSEffectInvalidSamplerVariable@D3DX11Effects@@', 00H
data$r	ENDS
;	COMDAT ??_R4SEffectInvalidSamplerVariable@D3DX11Effects@@6B@
rdata$r	SEGMENT
??_R4SEffectInvalidSamplerVariable@D3DX11Effects@@6B@ DD 00H ; D3DX11Effects::SEffectInvalidSamplerVariable::`RTTI Complete Object Locator'
	DD	00H
	DD	00H
	DD	FLAT:??_R0?AUSEffectInvalidSamplerVariable@D3DX11Effects@@@8
	DD	FLAT:??_R3SEffectInvalidSamplerVariable@D3DX11Effects@@8
rdata$r	ENDS
;	COMDAT ??_R2?$TEffectInvalidVariable@UID3DX11EffectRasterizerVariable@@@D3DX11Effects@@8
rdata$r	SEGMENT
??_R2?$TEffectInvalidVariable@UID3DX11EffectRasterizerVariable@@@D3DX11Effects@@8 DD FLAT:??_R1A@?0A@EA@?$TEffectInvalidVariable@UID3DX11EffectRasterizerVariable@@@D3DX11Effects@@8 ; D3DX11Effects::TEffectInvalidVariable<ID3DX11EffectRasterizerVariable>::`RTTI Base Class Array'
	DD	FLAT:??_R1A@?0A@EA@ID3DX11EffectRasterizerVariable@@8
	DD	FLAT:??_R1A@?0A@EA@ID3DX11EffectVariable@@8
rdata$r	ENDS
;	COMDAT ??_R3?$TEffectInvalidVariable@UID3DX11EffectRasterizerVariable@@@D3DX11Effects@@8
rdata$r	SEGMENT
??_R3?$TEffectInvalidVariable@UID3DX11EffectRasterizerVariable@@@D3DX11Effects@@8 DD 00H ; D3DX11Effects::TEffectInvalidVariable<ID3DX11EffectRasterizerVariable>::`RTTI Class Hierarchy Descriptor'
	DD	00H
	DD	03H
	DD	FLAT:??_R2?$TEffectInvalidVariable@UID3DX11EffectRasterizerVariable@@@D3DX11Effects@@8
rdata$r	ENDS
;	COMDAT ??_R0?AU?$TEffectInvalidVariable@UID3DX11EffectRasterizerVariable@@@D3DX11Effects@@@8
data$r	SEGMENT
??_R0?AU?$TEffectInvalidVariable@UID3DX11EffectRasterizerVariable@@@D3DX11Effects@@@8 DD FLAT:??_7type_info@@6B@ ; D3DX11Effects::TEffectInvalidVariable<ID3DX11EffectRasterizerVariable> `RTTI Type Descriptor'
	DD	00H
	DB	'.?AU?$TEffectInvalidVariable@UID3DX11EffectRasterizerVar'
